	.text
	.attribute	4, 16
	.attribute	5, "rv64i2p0_m2p0_f2p0_d2p0_v1p0_zvl128b1p0_zvl32b1p0_zvl64b1p0"
	.file	"vector_memcpy_pointers.cpp"
	.file	0 "/media/common/University/Edu/Year4_Masters/Project/riscv-v-lite/programs/build/llvm-trunk-rv64imv/vector_memcpy_pointers" "/media/common/University/Edu/Year4_Masters/Project/riscv-v-lite/programs/vector_memcpy_pointers/vector_memcpy_pointers.cpp" md5 0x1ff4a29792c57ebf3560855a0770f1b2
	.file	1 "/home/samuel/repos/llvm-project/build/lib/clang/15.0.0/include" "stddef.h" md5 0x2499dd2361b915724b073282bea3a7bc
	.file	2 "/home/samuel/repos/llvm-project/build/lib/clang/15.0.0/include" "stdint.h" md5 0x65478c86519fc5f031066ff00d1e57d5
	.file	3 "/media/common/University/Edu/Year4_Masters/Project/riscv-v-lite/programs" "vector_memcpy_pointers/vector_memcpy_pointers.cpp" md5 0x1ff4a29792c57ebf3560855a0770f1b2
	.globl	memset
	.p2align	2
	.type	memset,@function
memset:
.Lfunc_begin0:
	.loc	3 8 0
	.cfi_sections .debug_frame
	.cfi_startproc
	.loc	3 11 5 prologue_end
	beqz	a2, .LBB0_3
.Ltmp0:
	.loc	3 0 5 is_stmt 0
	mv	a3, a0
.Ltmp1:
.LBB0_2:
	.loc	3 12 24 is_stmt 1
	sb	a1, 0(a3)
.Ltmp2:
	.loc	3 11 23
	addi	a2, a2, -1
	addi	a3, a3, 1
.Ltmp3:
	.loc	3 11 5 is_stmt 0
	bnez	a2, .LBB0_2
.Ltmp4:
.LBB0_3:
	.loc	3 15 5 is_stmt 1
	ret
.Ltmp5:
.Lfunc_end0:
	.size	memset, .Lfunc_end0-memset
	.cfi_endproc

	.globl	memcpy
	.p2align	2
	.type	memcpy,@function
memcpy:
.Lfunc_begin1:
	.loc	3 19 0
	.cfi_startproc
	.loc	3 22 5 prologue_end
	beqz	a2, .LBB1_3
.Ltmp6:
	.loc	3 0 5 is_stmt 0
	mv	a3, a0
.Ltmp7:
.LBB1_2:
	.loc	3 23 20 is_stmt 1
	lb	a4, 0(a1)
	.loc	3 23 18 is_stmt 0
	sb	a4, 0(a3)
	.loc	3 24 16 is_stmt 1
	addi	a3, a3, 1
.Ltmp8:
	.loc	3 26 14
	addi	a2, a2, -1
.Ltmp9:
	.loc	3 25 15
	addi	a1, a1, 1
.Ltmp10:
	.loc	3 22 5
	bnez	a2, .LBB1_2
.Ltmp11:
.LBB1_3:
	.loc	3 28 5
	ret
.Ltmp12:
.Lfunc_end1:
	.size	memcpy, .Lfunc_end1-memcpy
	.cfi_endproc

	.globl	_Z13vector_memcpyPhPKhm
	.p2align	2
	.type	_Z13vector_memcpyPhPKhm,@function
_Z13vector_memcpyPhPKhm:
.Lfunc_begin2:
	.loc	3 153 0
	.cfi_startproc
	.loc	3 172 5 prologue_end
	beqz	a2, .LBB2_2
.Ltmp13:
.LBB2_1:
	.loc	3 173 34
	vsetvli	a3, a2, e8, m8, ta, mu
.Ltmp14:
	.loc	3 180 16
	vle8.v	v8, (a1)
.Ltmp15:
	.loc	3 181 9
	vse8.v	v8, (a0)
	.loc	3 184 13
	add	a1, a1, a3
.Ltmp16:
	.loc	3 186 19
	sub	a2, a2, a3
.Ltmp17:
	.loc	3 185 13
	add	a0, a0, a3
.Ltmp18:
	.loc	3 172 5
	bnez	a2, .LBB2_1
.Ltmp19:
.LBB2_2:
	.loc	3 188 1
	ret
.Ltmp20:
.Lfunc_end2:
	.size	_Z13vector_memcpyPhPKhm, .Lfunc_end2-_Z13vector_memcpyPhPKhm
	.cfi_endproc

	.section	.sdata,"aw",@progbits
	.p2align	3
.LCPI3_0:
	.quad	8389908080790640474
.LCPI3_1:
	.quad	-8293413467698580316
.LCPI3_2:
	.quad	7433078584290569438
.LCPI3_3:
	.quad	-7710342347414968681
	.text
	.globl	_Z13run_base_testv
	.p2align	2
	.type	_Z13run_base_testv,@function
_Z13run_base_testv:
.Lfunc_begin3:
	.loc	3 243 0
	.cfi_startproc
	addi	sp, sp, -2032
	.cfi_def_cfa_offset 2032
	sd	ra, 2024(sp)
	.cfi_offset ra, -8
	lui	a0, 2
	addiw	a0, a0, -1936
	sub	sp, sp, a0
	.cfi_def_cfa_offset 8288
	li	a0, 0
.Ltmp21:
	.loc	3 247 10 prologue_end
	lui	a1, 2
	addiw	a1, a1, 72
	add	a1, sp, a1
	sd	zero, 0(a1)
	lui	a1, 2
	addiw	a1, a1, 56
	add	a1, sp, a1
	sd	zero, 0(a1)
	lui	a1, 2
	addiw	a1, a1, 40
	add	a1, sp, a1
	sd	zero, 0(a1)
	lui	a1, 2
	addiw	a1, a1, 24
	add	a1, sp, a1
	sd	zero, 0(a1)
	lui	a1, %hi(.LCPI3_0)
	ld	a1, %lo(.LCPI3_0)(a1)
	lui	a2, %hi(.LCPI3_1)
	ld	a2, %lo(.LCPI3_1)(a2)
	lui	a3, %hi(.LCPI3_2)
	ld	a3, %lo(.LCPI3_2)(a3)
	lui	a4, %hi(.LCPI3_3)
	ld	a4, %lo(.LCPI3_3)(a4)
	lui	a5, 2
	addiw	a5, a5, 16
	add	a5, sp, a5
	sd	a1, 0(a5)
	lui	a1, 2
	addiw	a1, a1, 32
	add	a1, sp, a1
	sd	a2, 0(a1)
	lui	a1, 2
	addiw	a1, a1, 48
	add	a1, sp, a1
	sd	a3, 0(a1)
	lui	a1, 2
	addiw	a1, a1, 64
	add	a1, sp, a1
	sd	a4, 0(a1)
.Ltmp22:
	.loc	3 276 5
	lui	a1, 1
	addiw	a1, a1, 32
	add	a1, sp, a1
	lui	a2, %hi(.L__const._Z13run_base_testv.indices)
	addi	a2, a2, %lo(.L__const._Z13run_base_testv.indices)
	lui	a3, 2
	addiw	a3, a3, 16
	add	a3, sp, a3
	li	a4, 512
.Ltmp23:
.LBB3_1:
	.loc	3 277 21
	add	a5, a0, a2
	lw	a5, 0(a5)
.Ltmp24:
	.loc	3 279 36
	slli	a5, a5, 4
	add	a5, a3, a5
	.loc	3 279 49 is_stmt 0
	ld	a6, 0(a5)
	.loc	3 278 25 is_stmt 1
	sd	a6, -16(a1)
	sd	a5, 0(a1)
.Ltmp25:
	.loc	3 276 26
	addi	a0, a0, 4
.Ltmp26:
	addi	a1, a1, 32
.Ltmp27:
	.loc	3 276 5 is_stmt 0
	bne	a0, a4, .LBB3_1
.Ltmp28:
	.loc	3 284 13 is_stmt 1
	addi	a0, sp, 16
	lui	a2, 1
	li	a1, 0
	call	memset@plt
.Ltmp29:
	.loc	3 290 5
	addi	a0, sp, 16
	lui	a1, 1
	addiw	a1, a1, 16
	add	a1, sp, a1
	lui	a2, 1
	call	_Z13vector_memcpyPhPKhm
.Ltmp30:
	.loc	3 0 5 is_stmt 0
	li	a0, 0
.Ltmp31:
	.loc	3 293 5 is_stmt 1
	addi	a1, sp, 32
	lui	a2, %hi(.L__const._Z13run_base_testv.indices)
	addi	a2, a2, %lo(.L__const._Z13run_base_testv.indices)
	lui	a3, 2
	addiw	a3, a3, 16
	add	a3, sp, a3
	li	a4, 512
.Ltmp32:
.LBB3_3:
	.loc	3 296 27
	ld	a5, 0(a1)
	.loc	3 296 37 is_stmt 0
	ld	a6, 0(a5)
	.loc	3 296 60
	ld	a7, -16(a1)
	bne	a6, a7, .LBB3_7
.Ltmp33:
	.loc	3 299 78 is_stmt 1
	add	a6, a0, a2
	lw	a6, 0(a6)
	.loc	3 299 72 is_stmt 0
	slli	a6, a6, 4
	add	a6, a3, a6
.Ltmp34:
	.loc	3 0 72
	bne	a5, a6, .LBB3_7
.Ltmp35:
	.loc	3 293 26 is_stmt 1
	addi	a0, a0, 4
.Ltmp36:
	addi	a1, a1, 32
.Ltmp37:
	.loc	3 293 5 is_stmt 0
	bne	a0, a4, .LBB3_3
.Ltmp38:
	.loc	3 0 5
	li	a0, 1
	j	.LBB3_8
.Ltmp39:
.LBB3_7:
	li	a0, 0
.Ltmp40:
.LBB3_8:
	.loc	3 304 1 is_stmt 1
	lui	a1, 2
	addiw	a1, a1, -1936
	add	sp, sp, a1
	ld	ra, 2024(sp)
	addi	sp, sp, 2032
	ret
.Ltmp41:
.Lfunc_end3:
	.size	_Z13run_base_testv, .Lfunc_end3-_Z13run_base_testv
	.cfi_endproc

	.globl	main
	.p2align	2
	.type	main,@function
main:
.Lfunc_begin4:
	.loc	3 377 0
	.cfi_startproc
	addi	sp, sp, -16
	.cfi_def_cfa_offset 16
.Ltmp42:
	.loc	3 0 0 is_stmt 0
	sd	ra, 8(sp)
	.cfi_offset ra, -8
.Ltmp43:
	.loc	3 382 15 prologue_end is_stmt 1
	call	_Z13run_base_testv
.Ltmp44:
	.loc	3 389 25
	lui	a1, %hi(outputAttempted)
	li	a2, 1
	sw	a2, %lo(outputAttempted)(a1)
	.loc	3 390 25
	lui	a1, %hi(outputSucceeded)
	sw	a0, %lo(outputSucceeded)(a1)
	.loc	3 391 5
	ld	ra, 8(sp)
	addi	sp, sp, 16
	ret
.Ltmp45:
.Lfunc_end4:
	.size	main, .Lfunc_end4-main
	.cfi_endproc

	.type	.L__const._Z13run_base_testv.indices,@object
	.section	.rodata,"a",@progbits
	.p2align	2
.L__const._Z13run_base_testv.indices:
	.word	1
	.word	1
	.word	1
	.word	1
	.word	2
	.word	2
	.word	3
	.word	0
	.word	1
	.word	0
	.word	3
	.word	0
	.word	0
	.word	3
	.word	3
	.word	0
	.word	1
	.word	0
	.word	0
	.word	2
	.word	2
	.word	0
	.word	2
	.word	1
	.word	0
	.word	0
	.word	0
	.word	3
	.word	2
	.word	0
	.word	1
	.word	1
	.word	3
	.word	2
	.word	3
	.word	0
	.word	2
	.word	2
	.word	0
	.word	0
	.word	0
	.word	1
	.word	1
	.word	3
	.word	0
	.word	0
	.word	1
	.word	3
	.word	1
	.word	2
	.word	3
	.word	2
	.word	2
	.word	0
	.word	2
	.word	1
	.word	0
	.word	3
	.word	1
	.word	1
	.word	3
	.word	3
	.word	2
	.word	2
	.word	0
	.word	1
	.word	3
	.word	2
	.word	2
	.word	1
	.word	1
	.word	3
	.word	2
	.word	2
	.word	0
	.word	1
	.word	1
	.word	3
	.word	0
	.word	1
	.word	0
	.word	0
	.word	3
	.word	2
	.word	2
	.word	3
	.word	3
	.word	1
	.word	1
	.word	1
	.word	1
	.word	2
	.word	1
	.word	1
	.word	2
	.word	1
	.word	2
	.word	2
	.word	1
	.word	1
	.word	3
	.word	1
	.word	1
	.word	3
	.word	0
	.word	2
	.word	3
	.word	1
	.word	1
	.word	3
	.word	2
	.word	3
	.word	2
	.word	1
	.word	2
	.word	0
	.word	2
	.word	2
	.word	2
	.word	3
	.word	0
	.word	3
	.word	1
	.word	0
	.word	3
	.word	2
	.word	1
	.word	0
	.size	.L__const._Z13run_base_testv.indices, 512

	.file	4 "/home/samuel/repos/llvm-project/build/lib/clang/15.0.0/include" "riscv_vector.h" md5 0x562f153fc5d087e86f62d5a02cfa94b1
	.section	".note.GNU-stack","",@progbits
	.addrsig
	.addrsig_sym outputAttempted
	.addrsig_sym outputSucceeded