
/media/common/University/Edu/Year4_Masters/Project/riscv-v-lite/programs/build/llvm-13-rv64imvxcheri-int/vector_memcpy/vector_memcpy.elf:	file format elf64-littleriscv
Contents of section .text.init:
 0000 17010100 13010102 97200000 e78000a7  ......... ......
 0010 6f000000                             o...
Contents of section .text:
 0014 630c0600 93060500 2380b600 1306f6ff  c.......#.......
 0024 93861600 e31a06fe 67800000 130101ee  ........g.......
 0034 233c1110 23388110 23349110 93060500  #<..#8..#4......
 0044 13050000 2348010e 2340010e 2348010c  ....#H..#@..#H..
 0054 2340010c 2348010a 2340010a 23480108  #@..#H..#@..#H..
 0064 23400108 23480106 23400106 23480104  #@..#H..#@..#H..
 0074 23400104 23480102 23400102 23480100  #@..#H..#@..#H..
 0084 23400100 93050108 13060008 3387a500  #@..........3...
 0094 2300a700 13051500 e31ac5fe 13040108  #...............
 00a4 1305e006 93050108 13060100 93040100  ................
 00b4 e7800600 13050000 9305d006 1376f50f  .............v..
 00c4 b306c400 83c60600 3387c400 03470700  ........3....G..
 00d4 6398e604 13051500 e362b6fe 8345e106  c........b...E..
 00e4 13050000 63900504 9305f006 1305f0ff  ....c...........
 00f4 13060100 93968503 93d68643 63cc0600  ...........Cc...
 0104 13f7f50f 3307e600 03470700 93851500  ....3....G......
 0114 e30207fe 3325d500 13451500 6f008000  ....3%...E..o...
 0124 13050000 83348110 03340111 83308111  .....4...4...0..
 0134 13010112 67800000 130101de 233c1120  ....g.......#<. 
 0144 23388120 23349120 23302121 13090500  #8. #4. #0!!....
 0154 13050110 13060010 13040110 93050000  ................
 0164 97000000 e78000eb 13050100 13060010  ................
 0174 93050000 97000000 e780c0e9 13050000  ................
 0184 93050008 2310a400 13051500 13042400  ....#.........$.
 0194 e31ab5fe 93040110 1305e006 93050110  ................
 01a4 13060100 13040100 e7000900 13050000  ................
 01b4 b7050100 9b85f5ff 1306d006 93160503  ................
 01c4 93d6f602 3387d400 03570700 b306d400  ....3....W......
 01d4 83d60600 631ed704 b376b500 13051500  ....c....v......
 01e4 e3eec6fc 8355c10d 13050000 63940504  .....U......c...
 01f4 1305e006 b7050100 9b85f5ff 1306e007  ................
 0204 93060100 3377b500 636ee600 13051500  ....3w..cn......
 0214 b377b500 93971700 b387f600 83d70700  .w..............
 0224 e38207fe 1335f707 13451500 6f008000  .....5...E..o...
 0234 13050000 03390120 83348120 03340121  .....9. .4. .4.!
 0244 83308121 13010122 67800000 130101bd  .0.!..."g.......
 0254 23341142 23308142 233c9140 23382141  #4.B#0.B#<.@#8!A
 0264 13090500 13050121 13060020 93040121  .......!... ...!
 0274 93050000 97000000 e780c0d9 13050101  ................
 0284 13060020 93050000 97000000 e78080d8  ... ............
 0294 13050000 93050008 23a0a400 13051500  ........#.......
 02a4 93844400 e31ab5fe 93040121 1305e006  ..D........!....
 02b4 93050121 13060101 13040101 e7000900  ...!............
 02c4 93050000 1305d006 13960502 1356e601  .............V..
 02d4 b386c400 83a60600 3306c400 03260600  ........3....&..
 02e4 639ac604 1b860500 93851500 e36ea6fc  c............n..
 02f4 8325811c 13050000 63900504 1305e006  .%......c.......
 0304 9305e007 13060101 9b060500 63eed500  ............c...
 0314 13051500 13170502 1357e701 3307e600  .........W..3...
 0324 03270700 e30207fe 13b5f607 13451500  .'...........E..
 0334 6f008000 13050000 03390141 83348141  o........9.A.4.A
 0344 03340142 83308142 13010143 67800000  .4.B.0.B...Cg...
 0354 13010181 2334117e 2330817e 233c917c  ....#4.~#0.~#<.|
 0364 2338217d 130101fc 13090500 13050141  #8!}...........A
 0374 13060040 93040141 93050000 97000000  ...@...A........
 0384 e78040c9 13050101 13060040 93050000  ..@........@....
 0394 97000000 e78000c8 13050000 93050008  ................
 03a4 23b0a400 13051500 93848400 e31ab5fe  #...............
 03b4 93040141 1305e006 93050141 13060101  ...A.......A....
 03c4 13040101 e7000900 13050000 93050037  ...............7
 03d4 3386a400 03360600 b306a400 83b60600  3....6..........
 03e4 6314d604 13058500 e314b5fe 83350138  c............5.8
 03f4 13050000 639c0502 13058138 9306e006  ....c......8....
 0404 9305f007 13860600 638ab600 03370500  ........c....7..
 0414 93061600 13058500 e30607fe 1305e007  ................
 0424 3335c500 6f008000 13050000 13010104  35..o...........
 0434 0339017d 8334817d 0334017e 8330817e  .9.}.4.}.4.~.0.~
 0444 1301017f 67800000 130101ee 233c1110  ....g.......#<..
 0454 23388110 23349110 23302111 93060500  #8..#4..#0!.....
 0464 13050000 2348010e 2340010e 2348010c  ....#H..#@..#H..
 0474 2340010c 2348010a 2340010a 23480108  #@..#H..#@..#H..
 0484 23400108 23480106 23400106 23480104  #@..#H..#@..#H..
 0494 23400104 23480102 23400102 23480100  #@..#H..#@..#H..
 04a4 23400100 93050108 13060100 1307b00b  #@..............
 04b4 93070008 b384a500 2380a400 b304a600  ........#.......
 04c4 13051500 2380e400 e316f5fe 1304e006  ....#...........
 04d4 13090108 1305e006 93050108 13060100  ................
 04e4 93040100 e7800600 13050000 9305b00b  ................
 04f4 6f00c001 b306a900 83c60600 03460600  o............F..
 0504 6394c606 13051500 630e8500 93761500  c.......c....v..
 0514 3386a400 e39006fe 03460600 e304b6fe  3........F......
 0524 6f008004 8345e106 1305b00b 639ea502  o....E......c...
 0534 1306f006 9305f0ff 93060100 13178603  ................
 0544 13578743 634c0700 9377f60f b387f600  .W.CcL...w......
 0554 83c70700 13061600 e382a7fe 33a5e500  ............3...
 0564 13451500 6f008000 13050000 03390110  .E..o........9..
 0574 83348110 03340111 83308111 13010112  .4...4...0......
 0584 67800000 130101dd 23341122 23308122  g.......#4."#0."
 0594 233c9120 23382121 23343121 13090500  #<. #8!!#41!....
 05a4 13058110 13060010 13048110 93050000  ................
 05b4 97000000 e78000a6 13058100 13060010  ................
 05c4 93048100 93050000 97000000 e78080a4  ................
 05d4 13050000 9305b00b 13060008 2310a400  ............#...
 05e4 2390b400 13051500 13042400 93842400  #.........$...$.
 05f4 e316c5fe 9309e006 13048110 1305e006  ................
 0604 93058110 13068100 93048100 e7000900  ................
 0614 13050000 9305b00b 6f000002 03560400  ........o....V..
 0624 83d60400 631ad606 13051500 13042400  ....c.........$.
 0634 93842400 630c3501 13761500 e31006fe  ..$.c.5..v......
 0644 03d60400 e302b6fe 6f000005 8355410e  ........o....UA.
 0654 1305b00b 6392a504 9305e006 37060100  ....c.......7...
 0664 1b06f6ff 9306e007 13078100 b3f7c500  ................
 0674 63eef600 93851500 b3f4c500 93941400  c...............
 0684 b3049700 83d40400 e382a4fe 13b5f707  ................
 0694 13451500 6f008000 13050000 83398120  .E..o........9. 
 06a4 03390121 83348121 03340122 83308122  .9.!.4.!.4.".0."
 06b4 13010123 67800000 130101bd 23341142  ...#g.......#4.B
 06c4 23308142 233c9140 23382141 23343141  #0.B#<.@#8!A#41A
 06d4 13090500 13058120 13060020 13048120  ....... ... ... 
 06e4 93050000 97000000 e780c092 13058100  ................
 06f4 13060020 93048100 93050000 97000000  ... ............
 0704 e7804091 13050000 9305b00b 13060008  ..@.............
 0714 2320a400 23a0b400 13051500 13044400  # ..#.........D.
 0724 93844400 e316c5fe 9309e006 13048120  ..D............ 
 0734 1305e006 93058120 13068100 93048100  ....... ........
 0744 e7000900 13050000 9305b00b 6f000002  ............o...
 0754 03260400 83a60400 6316d606 13051500  .&......c.......
 0764 93844400 13044400 630c3501 13761500  ..D...D.c.5..v..
 0774 e31006fe 03a60400 e302b6fe 6f008004  ............o...
 0784 8325011c 1305b00b 639ea502 9305e006  .%......c.......
 0794 1306e007 93068100 1b870500 636ee600  ............cn..
 07a4 93851500 93970502 93d7e701 b387f600  ................
 07b4 83a70700 e382a7fe 1335f707 13451500  .........5...E..
 07c4 6f008000 13050000 83398140 03390141  o........9.@.9.A
 07d4 83348141 03340142 83308142 13010143  .4.A.4.B.0.B...C
 07e4 67800000 13010181 2334117e 2330817e  g.......#4.~#0.~
 07f4 233c917c 2338217d 2334317d 130101fc  #<.|#8!}#41}....
 0804 13090500 13058140 13060040 13048140  .......@...@...@
 0814 93050000 97f0ffff e780c07f 13058100  ................
 0824 13060040 93048100 93050000 97f0ffff  ...@............
 0834 e780407e 13050000 9305b00b 13060008  ..@~............
 0844 2330a400 23b0b400 13051500 93848400  #0..#...........
 0854 13048400 e316c5fe 9309e006 13048140  ...............@
 0864 1305e006 93058140 13068100 93048100  .......@........
 0874 e7000900 13050000 9305b00b 6f000002  ............o...
 0884 03360400 83b60400 6312d606 13051500  .6......c.......
 0894 93848400 13048400 630c3501 13761500  ........c.5..v..
 08a4 e31006fe 03b60400 e302b6fe 6f000004  ............o...
 08b4 83358137 1305b00b 639aa502 93050138  .5.7....c......8
 08c4 1307e006 1306f007 93060700 630ac700  ............c...
 08d4 83b70500 13871600 93858500 e386a7fe  ................
 08e4 1305e007 3335d500 6f008000 13050000  ....35..o.......
 08f4 13010104 8339817c 0339017d 8334817d  .....9.|.9.}.4.}
 0904 0334017e 8330817e 1301017f 67800000  .4.~.0.~....g...
 0914 130101eb 23341114 23308114 233c9112  ....#4..#0..#<..
 0924 23382113 23343113 23304113 93060500  #8!.#41.#0A.....
 0934 13050000 23480110 23400110 2348010e  ....#H..#@..#H..
 0944 2340010e 2348010c 2340010c 2348010a  #@..#H..#@..#H..
 0954 2340010a 23480108 23400108 23480106  #@..#H..#@..#H..
 0964 23400106 23480104 23400104 23480102  #@..#H..#@..#H..
 0974 23400102 9305010a 13060008 3387a500  #@..........3...
 0984 2300a700 13051500 e31ac5fe 13040108  #...............
 0994 23308100 130a0106 23344101 13090104  #0......#4A.....
 09a4 23382101 93090102 233c3101 1305a001  #8!.....#<1.....
 09b4 9305010a 13060100 9304010a e7800600  ................
 09c4 13050000 93059001 1376f50f 93162600  .........v....&.
 09d4 3387d400 03470700 b307c400 83c70700  3....G..........
 09e4 6316f706 13e71600 3387e400 03470700  c.......3....G..
 09f4 b307ca00 83c70700 631af704 13e72600  ........c.....&.
 0a04 3387e400 03470700 b307c900 83c70700  3....G..........
 0a14 631ef702 93e63600 b386d400 83c60600  c.....6.........
 0a24 3387c900 03470700 6392e602 13051500  3....G..c.......
 0a34 e36cb6f8 8345a109 13051000 638a0502  .l...E......c...
 0a44 1345f5ff 13751500 6f008000 13050000  .E...u..o.......
 0a54 033a0112 83398112 03390113 83348113  .:...9...9...4..
 0a64 03340114 83308114 13010115 67800000  .4...0......g...
 0a74 9305a107 1306a105 9306a103 13051000  ................
 0a84 1307a001 9307e001 93040108 03c40500  ................
 0a94 e31804fa 03440600 e31404fa 03c40600  .....D..........
 0aa4 e31004fa 1374f70f 1335f401 e3ea87f8  .....t...5......
 0ab4 13071700 1374f70f 33848400 03440400  .....t..3....D..
 0ac4 93851500 13061600 93861600 e30004fc  ................
 0ad4 6ff01ff7 130101da 233c1124 23388124  o.......#<.$#8.$
 0ae4 23349124 23302125 233c3123 23384123  #4.$#0!%#<1##8A#
 0af4 23345123 23306123 13090500 13050112  #4Q##0a#........
 0b04 13060010 13040112 93050000 97f0ffff  ................
 0b14 e7804050 13050000 23480110 23400110  ..@P....#H..#@..
 0b24 2348010e 2340010e 2348010c 2340010c  #H..#@..#H..#@..
 0b34 2348010a 2340010a 23480108 23400108  #H..#@..#H..#@..
 0b44 23480106 23400106 23480104 23400104  #H..#@..#H..#@..
 0b54 23480102 23400102 93050008 2310a400  #H..#@......#...
 0b64 13051500 13042400 e31ab5fe 130b010e  ......$.........
 0b74 23306101 930a010a 23345101 93090106  #0a.....#4Q.....
 0b84 23383101 130a0102 233c4101 1305a001  #81.....#<A.....
 0b94 93050112 13060100 13040112 e7000900  ................
 0ba4 13050000 b7050100 9b85f5ff 13089001  ................
 0bb4 b376b500 13973600 3307e400 83570700  .v....6.3....W..
 0bc4 13971600 3306eb00 03560600 639ac706  ....3....V..c...
 0bd4 13962600 93171600 13e62700 3306c400  ..&.......'.3...
 0be4 03560600 b384ea00 83d40400 631a9604  .V..........c...
 0bf4 13e64700 3306c400 03560600 b384e900  ..G.3....V......
 0c04 83d40400 631e9602 13e66700 3306c400  ....c.....g.3...
 0c14 03560600 3307ea00 03570700 6312e602  .V..3....W..c...
 0c24 13051500 e3e606f9 83554111 13051000  .........UA.....
 0c34 638e0502 1345f5ff 13751500 6f008000  c....E...u..o...
 0c44 13050000 033b0122 833a8122 033a0123  .....;.".:.".:.#
 0c54 83398123 03390124 83348124 03340125  .9.#.9.$.4.$.4.%
 0c64 83308125 13010126 67800000 9305410d  .0.%...&g.....A.
 0c74 13064109 93064105 13051000 1307a001  ..A...A.........
 0c84 b7070100 9b87f7ff 9304e001 1308010e  ................
 0c94 03d40500 e31004fa 03540600 e31c04f8  .........T......
 0ca4 03d40600 e31804f8 3374f700 1335f401  ........3t...5..
 0cb4 e3e284f8 13071700 3374f700 13141400  ........3t......
 0cc4 33048800 03540400 93852500 13062600  3....T....%...&.
 0cd4 93862600 e30e04fa 6ff0dff5 130101b9  ..&.....o.......
 0ce4 23341146 23308146 233c9144 23382145  #4.F#0.F#<.D#8!E
 0cf4 23343145 23304145 233c5143 13090500  #41E#0AE#<QC....
 0d04 13058123 13060020 93048123 93050000  ...#... ...#....
 0d14 97f0ffff e7800030 13050000 23400122  .......0....#@."
 0d24 23480120 23400120 2348011e 2340011e  #H. #@. #H..#@..
 0d34 2348011c 2340011c 2348011a 2340011a  #H..#@..#H..#@..
 0d44 23480118 23400118 23480116 23400116  #H..#@..#H..#@..
 0d54 23480114 23400114 23480112 23400112  #H..#@..#H..#@..
 0d64 23480110 23400110 2348010e 2340010e  #H..#@..#H..#@..
 0d74 2348010c 2340010c 2348010a 2340010a  #H..#@..#H..#@..
 0d84 23480108 23400108 23480106 23400106  #H..#@..#H..#@..
 0d94 23480104 23400104 23480102 93050008  #H..#@..#H......
 0da4 23a0a400 13051500 93844400 e31ab5fe  #.........D.....
 0db4 9304011b 23389100 930a0113 233c5101  ....#8......#<Q.
 0dc4 9309010b 23303103 130a0103 23344103  ....#01.....#4A.
 0dd4 1305a001 93058123 13060101 13048123  .......#.......#
 0de4 e7000900 93050000 13059001 13962502  ..............%.
 0df4 1356e601 3306c400 03260600 93960502  .V..3....&......
 0e04 13d7e601 3387e400 03270700 631ae608  ....3....'..c...
 0e14 13962500 93d60602 13671600 13170702  ..%......g......
 0e24 1357e701 3307e400 03270700 93962600  .W..3....'....&.
 0e34 b387da00 83a70700 6314f706 13672600  ........c....g&.
 0e44 13170702 1357e701 3307e400 03270700  .....W..3....'..
 0e54 b387d900 83a70700 6314f704 13663600  ........c....f6.
 0e64 13160602 1356e601 3306c400 03260600  .....V..3....&..
 0e74 b306da00 83a60600 6314d602 1b860500  ........c.......
 0e84 93851500 e364a6f6 83258121 13051000  .....d...%.!....
 0e94 638c0502 1345f5ff 13751500 6f008000  c....E...u..o...
 0ea4 13050000 833a8143 033a0144 83398144  .....:.C.:.D.9.D
 0eb4 03390145 83348145 03340146 83308146  .9.E.4.E.4.F.0.F
 0ec4 13010147 67800000 93058119 13068111  ...Gg...........
 0ed4 93068109 13051000 1307a001 9307e001  ................
 0ee4 9304011b 03a40500 e31604fa 03240600  .............$..
 0ef4 e31204fa 03a40600 e31e04f8 1b040700  ................
 0f04 1335f401 e3e887f8 13071700 13140702  .5..............
 0f14 1354e401 33848400 03240400 93854500  .T..3....$....E.
 0f24 13064600 93864600 e30e04fa 6ff09ff6  ..F...F.....o...
 0f34 13010181 2334117e 2330817e 233c917c  ....#4.~#0.~#<.|
 0f44 2338217d 2334317d 2330417d 130101f9  #8!}#41}#0A}....
 0f54 13090500 13050143 13060040 13040143  .......C...@...C
 0f64 93050000 97f0ffff e780c00a 13050133  ...............3
 0f74 13060010 93050000 97f0ffff e7808009  ................
 0f84 13050123 13060010 93050000 97f0ffff  ...#............
 0f94 e7804008 13050113 13060010 93050000  ..@.............
 0fa4 97f0ffff e7800007 13050103 13060010  ................
 0fb4 93050000 97f0ffff e780c005 13050000  ................
 0fc4 93050008 2330a400 13051500 13048400  ....#0..........
 0fd4 e31ab5fe 93090133 23383101 130a0123  .......3#81....#
 0fe4 233c4101 93040113 23309102 13040103  #<A.....#0......
 0ff4 23348102 1305a001 93050143 13060101  #4.........C....
 1004 e7000900 13050000 93050144 1306000d  ...........D....
 1014 83b605ff 3387a900 03370700 639ce604  ....3....7..c...
 1024 83b685ff 3307aa00 03370700 6394e604  ....3....7..c...
 1034 83b60500 3387a400 03370700 639ce602  ....3....7..c...
 1044 83b68500 3307a400 03370700 6394e602  ....3....7..c...
 1054 13058500 93850502 e31cc5fa 83350140  .............5.@
 1064 13051000 638c0502 1345f5ff 13751500  ....c....E...u..
 1074 6f008000 13050000 13010107 033a017c  o............:.|
 1084 8339817c 0339017d 8334817d 0334017e  .9.|.9.}.4.}.4.~
 1094 8330817e 1301017f 67800000 93050130  .0.~....g......0
 10a4 13060120 93060110 13078140 13051000  ... .......@....
 10b4 9307a001 9304f001 03b40500 e31604fa  ................
 10c4 03340600 e31204fa 03b40600 e31e04f8  .4..............
 10d4 13b5f701 e38a97f8 03340700 93858500  .........4......
 10e4 13068600 93868600 13078700 93871700  ................
 10f4 e30404fc 6ff05ff7 6f00c000 93b61600  ....o._.o.......
 1104 63920602 d7763504 e38a06fe 07840502  c....v5.........
 1114 27040602 b385d500 3306d600 3305d540  '.......3...3..@
 1124 6ff0dffd 67800000 6f00c000 93b61600  o...g...o.......
 1134 63940602 d776b504 e38a06fe 07d40502  c....v..........
 1144 27540602 13971600 b385e500 3306e600  'T..........3...
 1154 3305d540 6ff09ffd 67800000 6f00c000  3..@o...g...o...
 1164 93b61600 63940602 d7763505 e38a06fe  ....c....v5.....
 1174 07e40502 27640602 13972600 b385e500  ....'d....&.....
 1184 3306e600 3305d540 6ff09ffd 67800000  3...3..@o...g...
 1194 6f00c000 93b61600 63940602 d7767505  o.......c....vu.
 11a4 e38a06fe 87ec0502 a76c0602 13972600  .........l....&.
 11b4 b385e500 3306e600 3305d540 6ff09ffd  ....3...3..@o...
 11c4 67800000 6f00c000 93b61600 63940602  g...o.......c...
 11d4 d7769505 e38a06fe 07fd0502 277d0602  .v..........'}..
 11e4 13973600 b385e500 3306e600 3305d540  ..6.....3...3..@
 11f4 6ff09ffd 67800000 93024000 6f004002  o...g.....@.o.@.
 1204 07840502 27040602 93080800 33051541  ....'.......3..A
 1214 b3851501 33061601 93361800 639a0602  ....3....6..c...
 1224 57783504 e30a08fe 93182800 e3faa8fc  Wx5.......(.....
 1234 13070000 b387e500 b306e600 0784570a  ..............W.
 1244 13071700 2784560a e31657fe 6ff01ffc  ....'.V...W.o...
 1254 67800000 93028000 6f008002 07d40502  g.......o.......
 1264 27540602 93080800 33051541 93961800  'T......3..A....
 1274 b385d500 3306d600 93361800 639a0602  ....3....6..c...
 1284 5778b504 e30a08fe 93182800 e3f8a8fc  Wx........(.....
 1294 13070000 b387e500 b306e600 07d4570a  ..............W.
 12a4 13072700 27d4560a e31657fe 6ff0dffb  ..'.'.V...W.o...
 12b4 67800000 93020001 6f008002 07e40502  g.......o.......
 12c4 27640602 93080800 33051541 93962800  'd......3..A..(.
 12d4 b385d500 3306d600 93361800 639a0602  ....3....6..c...
 12e4 57783505 e30a08fe 93182800 e3f8a8fc  Wx5.......(.....
 12f4 13070000 b387e500 b306e600 07e4570a  ..............W.
 1304 13074700 27e4560a e31657fe 6ff0dffb  ..G.'.V...W.o...
 1314 67800000 93020001 6f008002 87ec0502  g.......o.......
 1324 a76c0602 93080800 33051541 93962800  .l......3..A..(.
 1334 b385d500 3306d600 93361800 639a0602  ....3....6..c...
 1344 57787505 e30a08fe 93182800 e3f8a8fc  Wxu.......(.....
 1354 13070000 b387e500 b306e600 87ec570a  ..............W.
 1364 13074700 a7ec560a e31657fe 6ff0dffb  ..G...V...W.o...
 1374 67800000 93020002 6f008002 07fd0502  g.......o.......
 1384 277d0602 93080800 33051541 93963800  '}......3..A..8.
 1394 b385d500 3306d600 93361800 639a0602  ....3....6..c...
 13a4 57789505 e30a08fe 93182800 e3f8a8fc  Wx........(.....
 13b4 13070000 b387e500 b306e600 07fd570a  ..............W.
 13c4 13078700 27fd560a e31657fe 6ff0dffb  ....'.V...W.o...
 13d4 67800000 130101f8 d7783004 23480106  g........x0.#H..
 13e4 23400106 23480104 23400104 23480102  #@..#H..#@..#H..
 13f4 23400102 23480100 23400100 63800802  #@..#H..#@..c...
 1404 13070000 13080100 93471700 b306e800  .........G......
 1414 13071700 2380f600 e398e8fe 13070100  ....#...........
 1424 07040702 6f000002 07880502 27080602  ....o.......'...
 1434 b385e500 3306e600 3305e540 93361700  ....3...3..@.6..
 1444 639e0600 57773504 e30a07fe e31e17fd  c...Ww5.........
 1454 07888506 27088606 6ff09ffd 13010108  ....'...o.......
 1464 67800000 130101ed 23341112 23308112  g.......#4..#0..
 1474 233c9110 23382111 23343111 23304111  #<..#8!.#41.#0A.
 1484 13090600 138a0500 13040500 d779b004  .............y..
 1494 13050100 13060010 93040100 93050000  ................
 14a4 97f0ffff e78000b7 63800902 13050000  ........c.......
 14b4 93151500 93c52500 2390b400 13051500  ......%.#.......
 14c4 93842400 e396a9fe 13050100 07540502  ..$..........T..
 14d4 6f004002 07580a02 27580902 93151500  o.@..X..'X......
 14e4 330aba00 3309b900 3304a440 13351500  3...3...3..@.5..
 14f4 631e0500 5775b404 e30a05fe e31c35fd  c...Wu........5.
 1504 07588a06 27588906 6ff05ffd 033a0110  .X..'X..o._..:..
 1514 83398110 03390111 83348111 03340112  .9...9...4...4..
 1524 83308112 13010113 67800000 130101dd  .0......g.......
 1534 23341122 23308122 233c9120 23382121  #4."#0."#<. #8!!
 1544 23343121 23304121 13090600 138a0500  #41!#0A!........
 1554 13040500 d7793005 13050100 13060020  .....y0........ 
 1564 93040100 93050000 97f0ffff e78080aa  ................
 1574 63800902 13050000 93152500 93c54500  c.........%...E.
 1584 23a0b400 13051500 93844400 e396a9fe  #.........D.....
 1594 13050100 07640502 6f004002 07680a02  .....d..o.@..h..
 15a4 27680902 93152500 330aba00 3309b900  'h....%.3...3...
 15b4 3304a440 13351500 631e0500 57753405  3..@.5..c...Wu4.
 15c4 e30a05fe e31c35fd 07688a06 27688906  ......5..h..'h..
 15d4 6ff05ffd 033a0120 83398120 03390121  o._..:. .9. .9.!
 15e4 83348121 03340122 83308122 13010123  .4.!.4.".0."...#
 15f4 67800000 130101dd 23341122 23308122  g.......#4."#0."
 1604 233c9120 23382121 23343121 23304121  #<. #8!!#41!#0A!
 1614 13090600 138a0500 13040500 d7797005  .............yp.
 1624 13050100 13060020 93040100 93050000  ....... ........
 1634 97f0ffff e780009e 63800902 13050000  ........c.......
 1644 93152500 93c54500 23a0b400 13051500  ..%...E.#.......
 1654 93844400 e396a9fe 13050100 876c0502  ..D..........l..
 1664 6f004002 076d0a02 276d0902 93152500  o.@..m..'m....%.
 1674 330aba00 3309b900 3304a440 13351500  3...3...3..@.5..
 1684 631e0500 57757405 e30a05fe e31c35fd  c...Wut.......5.
 1694 076d9a07 276d9907 6ff05ffd 033a0120  .m..'m..o._..:. 
 16a4 83398120 03390121 83348121 03340122  .9. .9.!.4.!.4."
 16b4 83308122 13010123 67800000 130101bc  .0."...#g.......
 16c4 233c1142 23388142 23349142 23302143  #<.B#8.B#4.B#0!C
 16d4 233c3141 23384141 13090600 93840500  #<1A#8AA........
 16e4 13040500 d7799005 13050101 13060040  .....y.........@
 16f4 130a0101 93050000 97f0ffff e7808091  ................
 1704 63800902 13050000 93953900 13468500  c.........9..F..
 1714 b306aa00 13058500 23b0c600 e398a5fe  ........#.......
 1724 077d0a02 6f004002 07fe0402 277e0902  .}..o.@.....'~..
 1734 93153500 b384b400 3309b900 3304a440  ..5.....3...3..@
 1744 13351500 631e0500 57759405 e30a05fe  .5..c...Wu......
 1754 e31c35fd 07fea407 277ea907 6ff05ffd  ..5.....'~..o._.
 1764 033a0141 83398141 03390142 83348142  .:.A.9.A.9.B.4.B
 1774 03340143 83308143 13010144 67800000  .4.C.0.C...Dg...
 1784 130101dd 23341122 23308122 233c9120  ....#4."#0."#<. 
 1794 23382121 23343121 13090600 93890500  #8!!#41!........
 17a4 13040500 13058100 13060020 93048100  ........... ....
 17b4 93050000 97f0ffff e780c085 57753005  ............Wu0.
 17c4 630e0500 93050000 13f61500 23a0c400  c...........#...
 17d4 93851500 93844400 e318b5fe 93058100  ......D.........
 17e4 07e40502 57703505 d7bc8062 57750004  ....Wp5....bWu..
 17f4 57800c5e 6f00c000 13351500 63140502  W..^o....5..c...
 1804 57753405 e30a05fe 07e40900 27640900  Wu4.........'d..
 1814 93152500 b389b900 3309b900 3304a440  ..%.....3...3..@
 1824 6ff09ffd 83398120 03390121 83348121  o....9. .9.!.4.!
 1834 03340122 83308122 13010123 67800000  .4.".0."...#g...
 1844 93080002 6f00c000 93b61200 639e0604  ....o.......c...
 1854 d7721504 e38a02fe 07820562 83370600  .r.........b.7..
 1864 27820702 83378600 27830702 83370601  '....7..'....7..
 1874 27840702 03388601 93070000 27050802  '....8......'...
 1884 13982200 b306f600 03b70600 33075700  ..".........3.W.
 1894 93878700 23b0e600 e39617ff b3850501  ....#...........
 18a4 33055540 6ff05ffa 67800000 93080002  3.U@o._.g.......
 18b4 6f00c000 93b61200 63920606 d7729504  o.......c....r..
 18c4 e38a02fe 07d20562 83370600 27d20702  .......b.7..'...
 18d4 83378600 27d30702 83370601 27d40702  .7..'....7..'...
 18e4 03388601 93070000 27550802 13982200  .8......'U....".
 18f4 b306f600 03b30600 13971200 3307e300  ............3...
 1904 93878700 23b0e600 e39417ff 93171800  ....#...........
 1914 b385f500 33055540 6ff0dff9 67800000  ....3.U@o...g...
 1924 93080002 6f00c000 93361800 63900606  ....o....6..c...
 1934 57781505 e30a08fe 07e20562 03370600  Wx.........b.7..
 1944 27620702 03378600 27630702 03370601  'b...7..'c...7..
 1954 27640702 83378601 13070000 27e50702  'd...7......'...
 1964 93122800 b306e600 83b70600 b3875700  ..(...........W.
 1974 13078700 23b0f600 e31617ff 13972200  ....#.........".
 1984 b385e500 33050541 6ff01ffa 67800000  ....3..Ao...g...
 1994 93080002 6f00c000 93361800 63900606  ....o....6..c...
 19a4 57787505 e30a08fe 07e20562 03370600  Wxu........b.7..
 19b4 27620702 03378600 a7620702 03370601  'b...7...b...7..
 19c4 27630702 83378601 13070000 a7e30702  'c...7..........
 19d4 93122800 b306e600 83b70600 b3875700  ..(...........W.
 19e4 13078700 23b0f600 e31617ff 13972200  ....#.........".
 19f4 b385e500 33050541 6ff01ffa 67800000  ....3..Ao...g...
 1a04 93080002 6f00c000 93b61200 63920606  ....o.......c...
 1a14 d7729505 e38a02fe 07f20562 83370600  .r.........b.7..
 1a24 27f20702 83378600 27f30702 83370601  '....7..'....7..
 1a34 27f40702 03388601 93070000 27750802  '....8......'u..
 1a44 13982200 b306f600 03b30600 13973200  .."...........2.
 1a54 3307e300 93878700 23b0e600 e39417ff  3.......#.......
 1a64 93173800 b385f500 33055540 6ff0dff9  ..8.....3.U@o...
 1a74 67800000 130101ff 23341100 23308100  g.......#4..#0..
 1a84 37150000 1305c50f 97e0ffff e780405a  7.............@Z
 1a94 13040500 37150000 1305c512 97e0ffff  ....7...........
 1aa4 e780c069 13151500 33648500 37150000  ...i....3d..7...
 1ab4 13050516 97e0ffff e7808079 13152500  ...........y..%.
 1ac4 3364a400 37150000 13054519 97e0ffff  3d..7.....E.....
 1ad4 e7800078 13153500 3364a400 37150000  ...x..5.3d..7...
 1ae4 1305851c 97f0ffff e780c086 13154500  ..............E.
 1af4 3364a400 37150000 1305c51f 97e0ffff  3d..7...........
 1b04 e7800053 13155500 3364a400 37150000  ...S..U.3d..7...
 1b14 13058525 97e0ffff e7804062 13156500  ...%......@b..e.
 1b24 3364a400 37150000 1305852b 97e0ffff  3d..7......+....
 1b34 e7800072 13157500 3364a400 37150000  ...r..u.3d..7...
 1b44 13058531 97e0ffff e7808070 13158500  ...1.......p....
 1b54 3364a400 37150000 13058537 97e0ffff  3d..7......7....
 1b64 e780407f 13159500 3364a400 37150000  ..@.....3d..7...
 1b74 1305853d 97e0ffff e780804b 1315a500  ...=.......K....
 1b84 3364a400 37150000 13058546 97e0ffff  3d..7......F....
 1b94 e780c05a 1315b500 3364a400 37150000  ...Z....3d..7...
 1ba4 13050553 97e0ffff e780806a 1315c500  ...S.......j....
 1bb4 3364a400 37150000 1305855f 97e0ffff  3d..7......_....
 1bc4 e7800069 1315d500 3364a400 37150000  ...i....3d..7...
 1bd4 1305056c 97e0ffff e780c077 1315e500  ...l.......w....
 1be4 3364a400 37150000 13054578 97f0ffff  3d..7.....Ex....
 1bf4 e780c0ac 1315f500 3364a400 37250000  ........3d..7%..
 1c04 13054584 97f0ffff e780c0d0 13151501  ..E.............
 1c14 3364a400 37250000 1305058b 97f0ffff  3d..7%..........
 1c24 e78080eb 13152501 3364a400 37250000  ......%.3d..7%..
 1c34 13054592 97f0ffff e780800a 13153501  ..E...........5.
 1c44 3364a400 37250000 13054599 97f0ffff  3d..7%....E.....
 1c54 e7800009 13154501 3364a400 37250000  ......E.3d..7%..
 1c64 130545a0 97f0ffff e780c02c 13155501  ..E........,..U.
 1c74 3365a400 b7050001 37063f00 1b06f6ff  3e......7.?.....
 1c84 23b0c500 b7050001 23b4a500 13050000  #.......#.......
 1c94 03340100 83308100 13010101 67800000  .4...0......g...
Contents of section .comment:
 0000 636c616e 67207665 7273696f 6e203133  clang version 13
 0010 2e302e30 20287373 683a2f2f 67697440  .0.0 (ssh://git@
 0020 67697468 75622e63 6f6d2f74 68657475  github.com/thetu
 0030 72626f74 75726e69 702f6c6c 766d2d70  rboturnip/llvm-p
 0040 726f6a65 63742e67 69742038 38323133  roject.git 88213
 0050 64636631 65396263 34353466 34373162  dcf1e9bc454f471b
 0060 39653961 38623265 64653332 35646335  9e9a8b2ede325dc5
 0070 65323429 00004c69 6e6b6572 3a204c4c  e24)..Linker: LL
 0080 44203133 2e302e30 20287373 683a2f2f  D 13.0.0 (ssh://
 0090 67697440 67697468 75622e63 6f6d2f74  git@github.com/t
 00a0 68657475 72626f74 75726e69 702f6c6c  heturboturnip/ll
 00b0 766d2d70 726f6a65 63742e67 69742038  vm-project.git 8
 00c0 38323133 64636631 65396263 34353466  8213dcf1e9bc454f
 00d0 34373162 39653961 38623265 64653332  471b9e9a8b2ede32
 00e0 35646335 65323429 00                 5dc5e24).
Contents of section .riscv.attributes:
 0000 413c0000 00726973 63760001 32000000  A<...riscv..2...
 0010 04100572 76363469 3270305f 6d327030  ...rv64i2p0_m2p0
 0020 5f763070 31305f7a 766c7373 65673070  _v0p10_zvlsseg0p
 0030 31305f78 63686572 69307030 00        10_xcheri0p0.
Contents of section .symtab:
 0000 00000000 00000000 00000000 00000000  ................
 0010 00000000 00000000 01000000 00000100  ................
 0020 00000000 00000000 00000000 00000000  ................
 0030 07000000 00000100 00000000 00000000  ................
 0040 00000000 00000000 13000000 00000100  ................
 0050 10000000 00000000 00000000 00000000  ................
 0060 17000000 0400f1ff 00000000 00000000  ................
 0070 00000000 00000000 2c000000 1000f1ff  ........,.......
 0080 00000100 00000000 00000000 00000000  ................
 0090 31000000 12000200 781a0000 00000000  1.......x.......
 00a0 2c020000 00000000 36000000 12000200  ,.......6.......
 00b0 14000000 00000000 1c000000 00000000  ................
 00c0 3d000000 12000200 30000000 00000000  =.......0.......
 00d0 0c010000 00000000 5b000000 12000200  ........[.......
 00e0 3c010000 00000000 14010000 00000000  <...............
 00f0 7a000000 12000200 50020000 00000000  z.......P.......
 0100 04010000 00000000 99000000 12000200  ................
 0110 54030000 00000000 f8000000 00000000  T...............
 0120 b8000000 12000200 4c040000 00000000  ........L.......
 0130 3c010000 00000000 dd000000 12000200  <...............
 0140 88050000 00000000 34010000 00000000  ........4.......
 0150 03010000 12000200 bc060000 00000000  ................
 0160 2c010000 00000000 29010000 12000200  ,.......).......
 0170 e8070000 00000000 2c010000 00000000  ........,.......
 0180 4f010000 12000200 14090000 00000000  O...............
 0190 c4010000 00000000 77010000 12000200  ........w.......
 01a0 d80a0000 00000000 08020000 00000000  ................
 01b0 a0010000 12000200 e00c0000 00000000  ................
 01c0 54020000 00000000 c9010000 12000200  T...............
 01d0 340f0000 00000000 c8010000 00000000  4...............
 01e0 f2010000 12000200 fc100000 00000000  ................
 01f0 30000000 00000000 11020000 12000200  0...............
 0200 2c110000 00000000 34000000 00000000  ,.......4.......
 0210 31020000 12000200 60110000 00000000  1.......`.......
 0220 34000000 00000000 51020000 12000200  4.......Q.......
 0230 94110000 00000000 34000000 00000000  ........4.......
 0240 72020000 12000200 c8110000 00000000  r...............
 0250 34000000 00000000 92020000 12000200  4...............
 0260 fc110000 00000000 5c000000 00000000  ........\.......
 0270 ad020000 12000200 58120000 00000000  ........X.......
 0280 60000000 00000000 c9020000 12000200  `...............
 0290 b8120000 00000000 60000000 00000000  ........`.......
 02a0 e5020000 12000200 18130000 00000000  ................
 02b0 60000000 00000000 02030000 12000200  `...............
 02c0 78130000 00000000 60000000 00000000  x.......`.......
 02d0 1e030000 12000200 d8130000 00000000  ................
 02e0 90000000 00000000 39030000 12000200  ........9.......
 02f0 68140000 00000000 c8000000 00000000  h...............
 0300 55030000 12000200 30150000 00000000  U.......0.......
 0310 c8000000 00000000 71030000 12000200  ........q.......
 0320 f8150000 00000000 c8000000 00000000  ................
 0330 8e030000 12000200 c0160000 00000000  ................
 0340 c4000000 00000000 aa030000 12000200  ................
 0350 84170000 00000000 c0000000 00000000  ................
 0360 c5030000 12000200 44180000 00000000  ........D.......
 0370 6c000000 00000000 e2030000 12000200  l...............
 0380 b0180000 00000000 74000000 00000000  ........t.......
 0390 00040000 12000200 24190000 00000000  ........$.......
 03a0 70000000 00000000 1e040000 12000200  p...............
 03b0 94190000 00000000 70000000 00000000  ........p.......
 03c0 3d040000 12000200 041a0000 00000000  =...............
 03d0 74000000 00000000 5b040000 1000f1ff  t.......[.......
 03e0 00000001 00000000 00000000 00000000  ................
 03f0 6b040000 1000f1ff 08000001 00000000  k...............
 0400 00000000 00000000                    ........
Contents of section .shstrtab:
 0000 002e7465 78742e69 6e697400 2e746578  ..text.init..tex
 0010 74002e63 6f6d6d65 6e74002e 72697363  t..comment..risc
 0020 762e6174 74726962 75746573 002e7379  v.attributes..sy
 0030 6d746162 002e7368 73747274 6162002e  mtab..shstrtab..
 0040 73747274 616200                      strtab.
Contents of section .strtab:
 0000 00656e74 7279002e 4c706372 656c5f68  .entry..Lpcrel_h
 0010 69300065 6e640074 6573745f 76656374  i0.end.test_vect
 0020 6f725f6d 656d6370 792e6300 5f5f7370  or_memcpy.c.__sp
 0030 006d6169 6e006d65 6d736574 00766563  .main.memset.vec
 0040 746f725f 6d656d63 70795f68 61726e65  tor_memcpy_harne
 0050 73735f75 696e7438 5f740076 6563746f  ss_uint8_t.vecto
 0060 725f6d65 6d637079 5f686172 6e657373  r_memcpy_harness
 0070 5f75696e 7431365f 74007665 63746f72  _uint16_t.vector
 0080 5f6d656d 6370795f 6861726e 6573735f  _memcpy_harness_
 0090 75696e74 33325f74 00766563 746f725f  uint32_t.vector_
 00a0 6d656d63 70795f68 61726e65 73735f75  memcpy_harness_u
 00b0 696e7436 345f7400 76656374 6f725f6d  int64_t.vector_m
 00c0 656d6370 795f6d61 736b6564 5f686172  emcpy_masked_har
 00d0 6e657373 5f75696e 74385f74 00766563  ness_uint8_t.vec
 00e0 746f725f 6d656d63 70795f6d 61736b65  tor_memcpy_maske
 00f0 645f6861 726e6573 735f7569 6e743136  d_harness_uint16
 0100 5f740076 6563746f 725f6d65 6d637079  _t.vector_memcpy
 0110 5f6d6173 6b65645f 6861726e 6573735f  _masked_harness_
 0120 75696e74 33325f74 00766563 746f725f  uint32_t.vector_
 0130 6d656d63 70795f6d 61736b65 645f6861  memcpy_masked_ha
 0140 726e6573 735f7569 6e743634 5f740076  rness_uint64_t.v
 0150 6563746f 725f6d65 6d637079 5f736567  ector_memcpy_seg
 0160 6d656e74 65645f68 61726e65 73735f75  mented_harness_u
 0170 696e7438 5f740076 6563746f 725f6d65  int8_t.vector_me
 0180 6d637079 5f736567 6d656e74 65645f68  mcpy_segmented_h
 0190 61726e65 73735f75 696e7431 365f7400  arness_uint16_t.
 01a0 76656374 6f725f6d 656d6370 795f7365  vector_memcpy_se
 01b0 676d656e 7465645f 6861726e 6573735f  gmented_harness_
 01c0 75696e74 33325f74 00766563 746f725f  uint32_t.vector_
 01d0 6d656d63 70795f73 65676d65 6e746564  memcpy_segmented
 01e0 5f686172 6e657373 5f75696e 7436345f  _harness_uint64_
 01f0 74007665 63746f72 5f6d656d 6370795f  t.vector_memcpy_
 0200 756e6974 5f737472 6964655f 65386d38  unit_stride_e8m8
 0210 00766563 746f725f 6d656d63 70795f75  .vector_memcpy_u
 0220 6e69745f 73747269 64655f65 31366d38  nit_stride_e16m8
 0230 00766563 746f725f 6d656d63 70795f75  .vector_memcpy_u
 0240 6e69745f 73747269 64655f65 33326d38  nit_stride_e32m8
 0250 00766563 746f725f 6d656d63 70795f75  .vector_memcpy_u
 0260 6e69745f 73747269 64655f65 33326d66  nit_stride_e32mf
 0270 32007665 63746f72 5f6d656d 6370795f  2.vector_memcpy_
 0280 756e6974 5f737472 6964655f 6536346d  unit_stride_e64m
 0290 32007665 63746f72 5f6d656d 6370795f  2.vector_memcpy_
 02a0 73747269 6465645f 65386d38 00766563  strided_e8m8.vec
 02b0 746f725f 6d656d63 70795f73 74726964  tor_memcpy_strid
 02c0 65645f65 31366d38 00766563 746f725f  ed_e16m8.vector_
 02d0 6d656d63 70795f73 74726964 65645f65  memcpy_strided_e
 02e0 33326d38 00766563 746f725f 6d656d63  32m8.vector_memc
 02f0 70795f73 74726964 65645f65 33326d66  py_strided_e32mf
 0300 32007665 63746f72 5f6d656d 6370795f  2.vector_memcpy_
 0310 73747269 6465645f 6536346d 32007665  strided_e64m2.ve
 0320 63746f72 5f6d656d 6370795f 696e6465  ctor_memcpy_inde
 0330 7865645f 65386d38 00766563 746f725f  xed_e8m8.vector_
 0340 6d656d63 70795f69 6e646578 65645f65  memcpy_indexed_e
 0350 31366d38 00766563 746f725f 6d656d63  16m8.vector_memc
 0360 70795f69 6e646578 65645f65 33326d38  py_indexed_e32m8
 0370 00766563 746f725f 6d656d63 70795f69  .vector_memcpy_i
 0380 6e646578 65645f65 33326d66 32007665  ndexed_e32mf2.ve
 0390 63746f72 5f6d656d 6370795f 696e6465  ctor_memcpy_inde
 03a0 7865645f 6536346d 32007665 63746f72  xed_e64m2.vector
 03b0 5f6d656d 6370795f 6d61736b 65645f65  _memcpy_masked_e
 03c0 33326d38 00766563 746f725f 6d656d63  32m8.vector_memc
 03d0 70795f73 65676d65 6e746564 5f65386d  py_segmented_e8m
 03e0 32007665 63746f72 5f6d656d 6370795f  2.vector_memcpy_
 03f0 7365676d 656e7465 645f6531 366d3200  segmented_e16m2.
 0400 76656374 6f725f6d 656d6370 795f7365  vector_memcpy_se
 0410 676d656e 7465645f 6533326d 32007665  gmented_e32m2.ve
 0420 63746f72 5f6d656d 6370795f 7365676d  ctor_memcpy_segm
 0430 656e7465 645f6533 326d6632 00766563  ented_e32mf2.vec
 0440 746f725f 6d656d63 70795f73 65676d65  tor_memcpy_segme
 0450 6e746564 5f653634 6d32006f 75747075  nted_e64m2.outpu
 0460 74417474 656d7074 6564006f 75747075  tAttempted.outpu
 0470 74537563 63656564 656400             tSucceeded.

Disassembly of section .text.init:

0000000000000000 <entry>:
       0: 17 01 01 00  	auipc	sp, 16
       4: 13 01 01 02  	addi	sp, sp, 32
       8: 97 20 00 00  	auipc	ra, 2
       c: e7 80 00 a7  	jalr	-1424(ra)

0000000000000010 <end>:
      10: 6f 00 00 00  	j	0x10 <end>

Disassembly of section .text:

0000000000000014 <memset>:
      14: 63 0c 06 00  	beqz	a2, 0x2c <memset+0x18>
      18: 93 06 05 00  	mv	a3, a0
      1c: 23 80 b6 00  	sb	a1, 0(a3)
      20: 13 06 f6 ff  	addi	a2, a2, -1
      24: 93 86 16 00  	addi	a3, a3, 1
      28: e3 1a 06 fe  	bnez	a2, 0x1c <memset+0x8>
      2c: 67 80 00 00  	ret

0000000000000030 <vector_memcpy_harness_uint8_t>:
      30: 13 01 01 ee  	addi	sp, sp, -288
      34: 23 3c 11 10  	sd	ra, 280(sp)
      38: 23 38 81 10  	sd	s0, 272(sp)
      3c: 23 34 91 10  	sd	s1, 264(sp)
      40: 93 06 05 00  	mv	a3, a0
      44: 13 05 00 00  	mv	a0, zero
      48: 23 48 01 0e  	sc	cnull, 240(sp)
      4c: 23 40 01 0e  	sc	cnull, 224(sp)
      50: 23 48 01 0c  	sc	cnull, 208(sp)
      54: 23 40 01 0c  	sc	cnull, 192(sp)
      58: 23 48 01 0a  	sc	cnull, 176(sp)
      5c: 23 40 01 0a  	sc	cnull, 160(sp)
      60: 23 48 01 08  	sc	cnull, 144(sp)
      64: 23 40 01 08  	sc	cnull, 128(sp)
      68: 23 48 01 06  	sc	cnull, 112(sp)
      6c: 23 40 01 06  	sc	cnull, 96(sp)
      70: 23 48 01 04  	sc	cnull, 80(sp)
      74: 23 40 01 04  	sc	cnull, 64(sp)
      78: 23 48 01 02  	sc	cnull, 48(sp)
      7c: 23 40 01 02  	sc	cnull, 32(sp)
      80: 23 48 01 00  	sc	cnull, 16(sp)
      84: 23 40 01 00  	sc	cnull, 0(sp)
      88: 93 05 01 08  	addi	a1, sp, 128
      8c: 13 06 00 08  	addi	a2, zero, 128
      90: 33 87 a5 00  	add	a4, a1, a0
      94: 23 00 a7 00  	sb	a0, 0(a4)
      98: 13 05 15 00  	addi	a0, a0, 1
      9c: e3 1a c5 fe  	bne	a0, a2, 0x90 <vector_memcpy_harness_uint8_t+0x60>
      a0: 13 04 01 08  	addi	s0, sp, 128
      a4: 13 05 e0 06  	addi	a0, zero, 110
      a8: 93 05 01 08  	addi	a1, sp, 128
      ac: 13 06 01 00  	mv	a2, sp
      b0: 93 04 01 00  	mv	s1, sp
      b4: e7 80 06 00  	jalr	a3
      b8: 13 05 00 00  	mv	a0, zero
      bc: 93 05 d0 06  	addi	a1, zero, 109
      c0: 13 76 f5 0f  	andi	a2, a0, 255
      c4: b3 06 c4 00  	add	a3, s0, a2
      c8: 83 c6 06 00  	lbu	a3, 0(a3)
      cc: 33 87 c4 00  	add	a4, s1, a2
      d0: 03 47 07 00  	lbu	a4, 0(a4)
      d4: 63 98 e6 04  	bne	a3, a4, 0x124 <vector_memcpy_harness_uint8_t+0xf4>
      d8: 13 05 15 00  	addi	a0, a0, 1
      dc: e3 62 b6 fe  	bltu	a2, a1, 0xc0 <vector_memcpy_harness_uint8_t+0x90>
      e0: 83 45 e1 06  	lbu	a1, 110(sp)
      e4: 13 05 00 00  	mv	a0, zero
      e8: 63 90 05 04  	bnez	a1, 0x128 <vector_memcpy_harness_uint8_t+0xf8>
      ec: 93 05 f0 06  	addi	a1, zero, 111
      f0: 13 05 f0 ff  	addi	a0, zero, -1
      f4: 13 06 01 00  	mv	a2, sp
      f8: 93 96 85 03  	slli	a3, a1, 56
      fc: 93 d6 86 43  	srai	a3, a3, 56
     100: 63 cc 06 00  	bltz	a3, 0x118 <vector_memcpy_harness_uint8_t+0xe8>
     104: 13 f7 f5 0f  	andi	a4, a1, 255
     108: 33 07 e6 00  	add	a4, a2, a4
     10c: 03 47 07 00  	lbu	a4, 0(a4)
     110: 93 85 15 00  	addi	a1, a1, 1
     114: e3 02 07 fe  	beqz	a4, 0xf8 <vector_memcpy_harness_uint8_t+0xc8>
     118: 33 25 d5 00  	slt	a0, a0, a3
     11c: 13 45 15 00  	xori	a0, a0, 1
     120: 6f 00 80 00  	j	0x128 <vector_memcpy_harness_uint8_t+0xf8>
     124: 13 05 00 00  	mv	a0, zero
     128: 83 34 81 10  	ld	s1, 264(sp)
     12c: 03 34 01 11  	ld	s0, 272(sp)
     130: 83 30 81 11  	ld	ra, 280(sp)
     134: 13 01 01 12  	addi	sp, sp, 288
     138: 67 80 00 00  	ret

000000000000013c <vector_memcpy_harness_uint16_t>:
     13c: 13 01 01 de  	addi	sp, sp, -544
     140: 23 3c 11 20  	sd	ra, 536(sp)
     144: 23 38 81 20  	sd	s0, 528(sp)
     148: 23 34 91 20  	sd	s1, 520(sp)
     14c: 23 30 21 21  	sd	s2, 512(sp)
     150: 13 09 05 00  	mv	s2, a0
     154: 13 05 01 10  	addi	a0, sp, 256
     158: 13 06 00 10  	addi	a2, zero, 256
     15c: 13 04 01 10  	addi	s0, sp, 256
     160: 93 05 00 00  	mv	a1, zero
     164: 97 00 00 00  	auipc	ra, 0
     168: e7 80 00 eb  	jalr	-336(ra)
     16c: 13 05 01 00  	mv	a0, sp
     170: 13 06 00 10  	addi	a2, zero, 256
     174: 93 05 00 00  	mv	a1, zero
     178: 97 00 00 00  	auipc	ra, 0
     17c: e7 80 c0 e9  	jalr	-356(ra)
     180: 13 05 00 00  	mv	a0, zero
     184: 93 05 00 08  	addi	a1, zero, 128
     188: 23 10 a4 00  	sh	a0, 0(s0)
     18c: 13 05 15 00  	addi	a0, a0, 1
     190: 13 04 24 00  	addi	s0, s0, 2
     194: e3 1a b5 fe  	bne	a0, a1, 0x188 <vector_memcpy_harness_uint16_t+0x4c>
     198: 93 04 01 10  	addi	s1, sp, 256
     19c: 13 05 e0 06  	addi	a0, zero, 110
     1a0: 93 05 01 10  	addi	a1, sp, 256
     1a4: 13 06 01 00  	mv	a2, sp
     1a8: 13 04 01 00  	mv	s0, sp
     1ac: e7 00 09 00  	jalr	s2
     1b0: 13 05 00 00  	mv	a0, zero
     1b4: b7 05 01 00  	lui	a1, 16
     1b8: 9b 85 f5 ff  	addiw	a1, a1, -1
     1bc: 13 06 d0 06  	addi	a2, zero, 109
     1c0: 93 16 05 03  	slli	a3, a0, 48
     1c4: 93 d6 f6 02  	srli	a3, a3, 47
     1c8: 33 87 d4 00  	add	a4, s1, a3
     1cc: 03 57 07 00  	lhu	a4, 0(a4)
     1d0: b3 06 d4 00  	add	a3, s0, a3
     1d4: 83 d6 06 00  	lhu	a3, 0(a3)
     1d8: 63 1e d7 04  	bne	a4, a3, 0x234 <vector_memcpy_harness_uint16_t+0xf8>
     1dc: b3 76 b5 00  	and	a3, a0, a1
     1e0: 13 05 15 00  	addi	a0, a0, 1
     1e4: e3 ee c6 fc  	bltu	a3, a2, 0x1c0 <vector_memcpy_harness_uint16_t+0x84>
     1e8: 83 55 c1 0d  	lhu	a1, 220(sp)
     1ec: 13 05 00 00  	mv	a0, zero
     1f0: 63 94 05 04  	bnez	a1, 0x238 <vector_memcpy_harness_uint16_t+0xfc>
     1f4: 13 05 e0 06  	addi	a0, zero, 110
     1f8: b7 05 01 00  	lui	a1, 16
     1fc: 9b 85 f5 ff  	addiw	a1, a1, -1
     200: 13 06 e0 07  	addi	a2, zero, 126
     204: 93 06 01 00  	mv	a3, sp
     208: 33 77 b5 00  	and	a4, a0, a1
     20c: 63 6e e6 00  	bltu	a2, a4, 0x228 <vector_memcpy_harness_uint16_t+0xec>
     210: 13 05 15 00  	addi	a0, a0, 1
     214: b3 77 b5 00  	and	a5, a0, a1
     218: 93 97 17 00  	slli	a5, a5, 1
     21c: b3 87 f6 00  	add	a5, a3, a5
     220: 83 d7 07 00  	lhu	a5, 0(a5)
     224: e3 82 07 fe  	beqz	a5, 0x208 <vector_memcpy_harness_uint16_t+0xcc>
     228: 13 35 f7 07  	sltiu	a0, a4, 127
     22c: 13 45 15 00  	xori	a0, a0, 1
     230: 6f 00 80 00  	j	0x238 <vector_memcpy_harness_uint16_t+0xfc>
     234: 13 05 00 00  	mv	a0, zero
     238: 03 39 01 20  	ld	s2, 512(sp)
     23c: 83 34 81 20  	ld	s1, 520(sp)
     240: 03 34 01 21  	ld	s0, 528(sp)
     244: 83 30 81 21  	ld	ra, 536(sp)
     248: 13 01 01 22  	addi	sp, sp, 544
     24c: 67 80 00 00  	ret

0000000000000250 <vector_memcpy_harness_uint32_t>:
     250: 13 01 01 bd  	addi	sp, sp, -1072
     254: 23 34 11 42  	sd	ra, 1064(sp)
     258: 23 30 81 42  	sd	s0, 1056(sp)
     25c: 23 3c 91 40  	sd	s1, 1048(sp)
     260: 23 38 21 41  	sd	s2, 1040(sp)
     264: 13 09 05 00  	mv	s2, a0
     268: 13 05 01 21  	addi	a0, sp, 528
     26c: 13 06 00 20  	addi	a2, zero, 512
     270: 93 04 01 21  	addi	s1, sp, 528
     274: 93 05 00 00  	mv	a1, zero
     278: 97 00 00 00  	auipc	ra, 0
     27c: e7 80 c0 d9  	jalr	-612(ra)
     280: 13 05 01 01  	addi	a0, sp, 16
     284: 13 06 00 20  	addi	a2, zero, 512
     288: 93 05 00 00  	mv	a1, zero
     28c: 97 00 00 00  	auipc	ra, 0
     290: e7 80 80 d8  	jalr	-632(ra)
     294: 13 05 00 00  	mv	a0, zero
     298: 93 05 00 08  	addi	a1, zero, 128
     29c: 23 a0 a4 00  	sw	a0, 0(s1)
     2a0: 13 05 15 00  	addi	a0, a0, 1
     2a4: 93 84 44 00  	addi	s1, s1, 4
     2a8: e3 1a b5 fe  	bne	a0, a1, 0x29c <vector_memcpy_harness_uint32_t+0x4c>
     2ac: 93 04 01 21  	addi	s1, sp, 528
     2b0: 13 05 e0 06  	addi	a0, zero, 110
     2b4: 93 05 01 21  	addi	a1, sp, 528
     2b8: 13 06 01 01  	addi	a2, sp, 16
     2bc: 13 04 01 01  	addi	s0, sp, 16
     2c0: e7 00 09 00  	jalr	s2
     2c4: 93 05 00 00  	mv	a1, zero
     2c8: 13 05 d0 06  	addi	a0, zero, 109
     2cc: 13 96 05 02  	slli	a2, a1, 32
     2d0: 13 56 e6 01  	srli	a2, a2, 30
     2d4: b3 86 c4 00  	add	a3, s1, a2
     2d8: 83 a6 06 00  	lw	a3, 0(a3)
     2dc: 33 06 c4 00  	add	a2, s0, a2
     2e0: 03 26 06 00  	lw	a2, 0(a2)
     2e4: 63 9a c6 04  	bne	a3, a2, 0x338 <vector_memcpy_harness_uint32_t+0xe8>
     2e8: 1b 86 05 00  	sext.w	a2, a1
     2ec: 93 85 15 00  	addi	a1, a1, 1
     2f0: e3 6e a6 fc  	bltu	a2, a0, 0x2cc <vector_memcpy_harness_uint32_t+0x7c>
     2f4: 83 25 81 1c  	lw	a1, 456(sp)
     2f8: 13 05 00 00  	mv	a0, zero
     2fc: 63 90 05 04  	bnez	a1, 0x33c <vector_memcpy_harness_uint32_t+0xec>
     300: 13 05 e0 06  	addi	a0, zero, 110
     304: 93 05 e0 07  	addi	a1, zero, 126
     308: 13 06 01 01  	addi	a2, sp, 16
     30c: 9b 06 05 00  	sext.w	a3, a0
     310: 63 ee d5 00  	bltu	a1, a3, 0x32c <vector_memcpy_harness_uint32_t+0xdc>
     314: 13 05 15 00  	addi	a0, a0, 1
     318: 13 17 05 02  	slli	a4, a0, 32
     31c: 13 57 e7 01  	srli	a4, a4, 30
     320: 33 07 e6 00  	add	a4, a2, a4
     324: 03 27 07 00  	lw	a4, 0(a4)
     328: e3 02 07 fe  	beqz	a4, 0x30c <vector_memcpy_harness_uint32_t+0xbc>
     32c: 13 b5 f6 07  	sltiu	a0, a3, 127
     330: 13 45 15 00  	xori	a0, a0, 1
     334: 6f 00 80 00  	j	0x33c <vector_memcpy_harness_uint32_t+0xec>
     338: 13 05 00 00  	mv	a0, zero
     33c: 03 39 01 41  	ld	s2, 1040(sp)
     340: 83 34 81 41  	ld	s1, 1048(sp)
     344: 03 34 01 42  	ld	s0, 1056(sp)
     348: 83 30 81 42  	ld	ra, 1064(sp)
     34c: 13 01 01 43  	addi	sp, sp, 1072
     350: 67 80 00 00  	ret

0000000000000354 <vector_memcpy_harness_uint64_t>:
     354: 13 01 01 81  	addi	sp, sp, -2032
     358: 23 34 11 7e  	sd	ra, 2024(sp)
     35c: 23 30 81 7e  	sd	s0, 2016(sp)
     360: 23 3c 91 7c  	sd	s1, 2008(sp)
     364: 23 38 21 7d  	sd	s2, 2000(sp)
     368: 13 01 01 fc  	addi	sp, sp, -64
     36c: 13 09 05 00  	mv	s2, a0
     370: 13 05 01 41  	addi	a0, sp, 1040
     374: 13 06 00 40  	addi	a2, zero, 1024
     378: 93 04 01 41  	addi	s1, sp, 1040
     37c: 93 05 00 00  	mv	a1, zero
     380: 97 00 00 00  	auipc	ra, 0
     384: e7 80 40 c9  	jalr	-876(ra)
     388: 13 05 01 01  	addi	a0, sp, 16
     38c: 13 06 00 40  	addi	a2, zero, 1024
     390: 93 05 00 00  	mv	a1, zero
     394: 97 00 00 00  	auipc	ra, 0
     398: e7 80 00 c8  	jalr	-896(ra)
     39c: 13 05 00 00  	mv	a0, zero
     3a0: 93 05 00 08  	addi	a1, zero, 128
     3a4: 23 b0 a4 00  	sd	a0, 0(s1)
     3a8: 13 05 15 00  	addi	a0, a0, 1
     3ac: 93 84 84 00  	addi	s1, s1, 8
     3b0: e3 1a b5 fe  	bne	a0, a1, 0x3a4 <vector_memcpy_harness_uint64_t+0x50>
     3b4: 93 04 01 41  	addi	s1, sp, 1040
     3b8: 13 05 e0 06  	addi	a0, zero, 110
     3bc: 93 05 01 41  	addi	a1, sp, 1040
     3c0: 13 06 01 01  	addi	a2, sp, 16
     3c4: 13 04 01 01  	addi	s0, sp, 16
     3c8: e7 00 09 00  	jalr	s2
     3cc: 13 05 00 00  	mv	a0, zero
     3d0: 93 05 00 37  	addi	a1, zero, 880
     3d4: 33 86 a4 00  	add	a2, s1, a0
     3d8: 03 36 06 00  	ld	a2, 0(a2)
     3dc: b3 06 a4 00  	add	a3, s0, a0
     3e0: 83 b6 06 00  	ld	a3, 0(a3)
     3e4: 63 14 d6 04  	bne	a2, a3, 0x42c <vector_memcpy_harness_uint64_t+0xd8>
     3e8: 13 05 85 00  	addi	a0, a0, 8
     3ec: e3 14 b5 fe  	bne	a0, a1, 0x3d4 <vector_memcpy_harness_uint64_t+0x80>
     3f0: 83 35 01 38  	ld	a1, 896(sp)
     3f4: 13 05 00 00  	mv	a0, zero
     3f8: 63 9c 05 02  	bnez	a1, 0x430 <vector_memcpy_harness_uint64_t+0xdc>
     3fc: 13 05 81 38  	addi	a0, sp, 904
     400: 93 06 e0 06  	addi	a3, zero, 110
     404: 93 05 f0 07  	addi	a1, zero, 127
     408: 13 86 06 00  	mv	a2, a3
     40c: 63 8a b6 00  	beq	a3, a1, 0x420 <vector_memcpy_harness_uint64_t+0xcc>
     410: 03 37 05 00  	ld	a4, 0(a0)
     414: 93 06 16 00  	addi	a3, a2, 1
     418: 13 05 85 00  	addi	a0, a0, 8
     41c: e3 06 07 fe  	beqz	a4, 0x408 <vector_memcpy_harness_uint64_t+0xb4>
     420: 13 05 e0 07  	addi	a0, zero, 126
     424: 33 35 c5 00  	sltu	a0, a0, a2
     428: 6f 00 80 00  	j	0x430 <vector_memcpy_harness_uint64_t+0xdc>
     42c: 13 05 00 00  	mv	a0, zero
     430: 13 01 01 04  	addi	sp, sp, 64
     434: 03 39 01 7d  	ld	s2, 2000(sp)
     438: 83 34 81 7d  	ld	s1, 2008(sp)
     43c: 03 34 01 7e  	ld	s0, 2016(sp)
     440: 83 30 81 7e  	ld	ra, 2024(sp)
     444: 13 01 01 7f  	addi	sp, sp, 2032
     448: 67 80 00 00  	ret

000000000000044c <vector_memcpy_masked_harness_uint8_t>:
     44c: 13 01 01 ee  	addi	sp, sp, -288
     450: 23 3c 11 10  	sd	ra, 280(sp)
     454: 23 38 81 10  	sd	s0, 272(sp)
     458: 23 34 91 10  	sd	s1, 264(sp)
     45c: 23 30 21 11  	sd	s2, 256(sp)
     460: 93 06 05 00  	mv	a3, a0
     464: 13 05 00 00  	mv	a0, zero
     468: 23 48 01 0e  	sc	cnull, 240(sp)
     46c: 23 40 01 0e  	sc	cnull, 224(sp)
     470: 23 48 01 0c  	sc	cnull, 208(sp)
     474: 23 40 01 0c  	sc	cnull, 192(sp)
     478: 23 48 01 0a  	sc	cnull, 176(sp)
     47c: 23 40 01 0a  	sc	cnull, 160(sp)
     480: 23 48 01 08  	sc	cnull, 144(sp)
     484: 23 40 01 08  	sc	cnull, 128(sp)
     488: 23 48 01 06  	sc	cnull, 112(sp)
     48c: 23 40 01 06  	sc	cnull, 96(sp)
     490: 23 48 01 04  	sc	cnull, 80(sp)
     494: 23 40 01 04  	sc	cnull, 64(sp)
     498: 23 48 01 02  	sc	cnull, 48(sp)
     49c: 23 40 01 02  	sc	cnull, 32(sp)
     4a0: 23 48 01 00  	sc	cnull, 16(sp)
     4a4: 23 40 01 00  	sc	cnull, 0(sp)
     4a8: 93 05 01 08  	addi	a1, sp, 128
     4ac: 13 06 01 00  	mv	a2, sp
     4b0: 13 07 b0 0b  	addi	a4, zero, 187
     4b4: 93 07 00 08  	addi	a5, zero, 128
     4b8: b3 84 a5 00  	add	s1, a1, a0
     4bc: 23 80 a4 00  	sb	a0, 0(s1)
     4c0: b3 04 a6 00  	add	s1, a2, a0
     4c4: 13 05 15 00  	addi	a0, a0, 1
     4c8: 23 80 e4 00  	sb	a4, 0(s1)
     4cc: e3 16 f5 fe  	bne	a0, a5, 0x4b8 <vector_memcpy_masked_harness_uint8_t+0x6c>
     4d0: 13 04 e0 06  	addi	s0, zero, 110
     4d4: 13 09 01 08  	addi	s2, sp, 128
     4d8: 13 05 e0 06  	addi	a0, zero, 110
     4dc: 93 05 01 08  	addi	a1, sp, 128
     4e0: 13 06 01 00  	mv	a2, sp
     4e4: 93 04 01 00  	mv	s1, sp
     4e8: e7 80 06 00  	jalr	a3
     4ec: 13 05 00 00  	mv	a0, zero
     4f0: 93 05 b0 0b  	addi	a1, zero, 187
     4f4: 6f 00 c0 01  	j	0x510 <vector_memcpy_masked_harness_uint8_t+0xc4>
     4f8: b3 06 a9 00  	add	a3, s2, a0
     4fc: 83 c6 06 00  	lbu	a3, 0(a3)
     500: 03 46 06 00  	lbu	a2, 0(a2)
     504: 63 94 c6 06  	bne	a3, a2, 0x56c <vector_memcpy_masked_harness_uint8_t+0x120>
     508: 13 05 15 00  	addi	a0, a0, 1
     50c: 63 0e 85 00  	beq	a0, s0, 0x528 <vector_memcpy_masked_harness_uint8_t+0xdc>
     510: 93 76 15 00  	andi	a3, a0, 1
     514: 33 86 a4 00  	add	a2, s1, a0
     518: e3 90 06 fe  	bnez	a3, 0x4f8 <vector_memcpy_masked_harness_uint8_t+0xac>
     51c: 03 46 06 00  	lbu	a2, 0(a2)
     520: e3 04 b6 fe  	beq	a2, a1, 0x508 <vector_memcpy_masked_harness_uint8_t+0xbc>
     524: 6f 00 80 04  	j	0x56c <vector_memcpy_masked_harness_uint8_t+0x120>
     528: 83 45 e1 06  	lbu	a1, 110(sp)
     52c: 13 05 b0 0b  	addi	a0, zero, 187
     530: 63 9e a5 02  	bne	a1, a0, 0x56c <vector_memcpy_masked_harness_uint8_t+0x120>
     534: 13 06 f0 06  	addi	a2, zero, 111
     538: 93 05 f0 ff  	addi	a1, zero, -1
     53c: 93 06 01 00  	mv	a3, sp
     540: 13 17 86 03  	slli	a4, a2, 56
     544: 13 57 87 43  	srai	a4, a4, 56
     548: 63 4c 07 00  	bltz	a4, 0x560 <vector_memcpy_masked_harness_uint8_t+0x114>
     54c: 93 77 f6 0f  	andi	a5, a2, 255
     550: b3 87 f6 00  	add	a5, a3, a5
     554: 83 c7 07 00  	lbu	a5, 0(a5)
     558: 13 06 16 00  	addi	a2, a2, 1
     55c: e3 82 a7 fe  	beq	a5, a0, 0x540 <vector_memcpy_masked_harness_uint8_t+0xf4>
     560: 33 a5 e5 00  	slt	a0, a1, a4
     564: 13 45 15 00  	xori	a0, a0, 1
     568: 6f 00 80 00  	j	0x570 <vector_memcpy_masked_harness_uint8_t+0x124>
     56c: 13 05 00 00  	mv	a0, zero
     570: 03 39 01 10  	ld	s2, 256(sp)
     574: 83 34 81 10  	ld	s1, 264(sp)
     578: 03 34 01 11  	ld	s0, 272(sp)
     57c: 83 30 81 11  	ld	ra, 280(sp)
     580: 13 01 01 12  	addi	sp, sp, 288
     584: 67 80 00 00  	ret

0000000000000588 <vector_memcpy_masked_harness_uint16_t>:
     588: 13 01 01 dd  	addi	sp, sp, -560
     58c: 23 34 11 22  	sd	ra, 552(sp)
     590: 23 30 81 22  	sd	s0, 544(sp)
     594: 23 3c 91 20  	sd	s1, 536(sp)
     598: 23 38 21 21  	sd	s2, 528(sp)
     59c: 23 34 31 21  	sd	s3, 520(sp)
     5a0: 13 09 05 00  	mv	s2, a0
     5a4: 13 05 81 10  	addi	a0, sp, 264
     5a8: 13 06 00 10  	addi	a2, zero, 256
     5ac: 13 04 81 10  	addi	s0, sp, 264
     5b0: 93 05 00 00  	mv	a1, zero
     5b4: 97 00 00 00  	auipc	ra, 0
     5b8: e7 80 00 a6  	jalr	-1440(ra)
     5bc: 13 05 81 00  	addi	a0, sp, 8
     5c0: 13 06 00 10  	addi	a2, zero, 256
     5c4: 93 04 81 00  	addi	s1, sp, 8
     5c8: 93 05 00 00  	mv	a1, zero
     5cc: 97 00 00 00  	auipc	ra, 0
     5d0: e7 80 80 a4  	jalr	-1464(ra)
     5d4: 13 05 00 00  	mv	a0, zero
     5d8: 93 05 b0 0b  	addi	a1, zero, 187
     5dc: 13 06 00 08  	addi	a2, zero, 128
     5e0: 23 10 a4 00  	sh	a0, 0(s0)
     5e4: 23 90 b4 00  	sh	a1, 0(s1)
     5e8: 13 05 15 00  	addi	a0, a0, 1
     5ec: 13 04 24 00  	addi	s0, s0, 2
     5f0: 93 84 24 00  	addi	s1, s1, 2
     5f4: e3 16 c5 fe  	bne	a0, a2, 0x5e0 <vector_memcpy_masked_harness_uint16_t+0x58>
     5f8: 93 09 e0 06  	addi	s3, zero, 110
     5fc: 13 04 81 10  	addi	s0, sp, 264
     600: 13 05 e0 06  	addi	a0, zero, 110
     604: 93 05 81 10  	addi	a1, sp, 264
     608: 13 06 81 00  	addi	a2, sp, 8
     60c: 93 04 81 00  	addi	s1, sp, 8
     610: e7 00 09 00  	jalr	s2
     614: 13 05 00 00  	mv	a0, zero
     618: 93 05 b0 0b  	addi	a1, zero, 187
     61c: 6f 00 00 02  	j	0x63c <vector_memcpy_masked_harness_uint16_t+0xb4>
     620: 03 56 04 00  	lhu	a2, 0(s0)
     624: 83 d6 04 00  	lhu	a3, 0(s1)
     628: 63 1a d6 06  	bne	a2, a3, 0x69c <vector_memcpy_masked_harness_uint16_t+0x114>
     62c: 13 05 15 00  	addi	a0, a0, 1
     630: 13 04 24 00  	addi	s0, s0, 2
     634: 93 84 24 00  	addi	s1, s1, 2
     638: 63 0c 35 01  	beq	a0, s3, 0x650 <vector_memcpy_masked_harness_uint16_t+0xc8>
     63c: 13 76 15 00  	andi	a2, a0, 1
     640: e3 10 06 fe  	bnez	a2, 0x620 <vector_memcpy_masked_harness_uint16_t+0x98>
     644: 03 d6 04 00  	lhu	a2, 0(s1)
     648: e3 02 b6 fe  	beq	a2, a1, 0x62c <vector_memcpy_masked_harness_uint16_t+0xa4>
     64c: 6f 00 00 05  	j	0x69c <vector_memcpy_masked_harness_uint16_t+0x114>
     650: 83 55 41 0e  	lhu	a1, 228(sp)
     654: 13 05 b0 0b  	addi	a0, zero, 187
     658: 63 92 a5 04  	bne	a1, a0, 0x69c <vector_memcpy_masked_harness_uint16_t+0x114>
     65c: 93 05 e0 06  	addi	a1, zero, 110
     660: 37 06 01 00  	lui	a2, 16
     664: 1b 06 f6 ff  	addiw	a2, a2, -1
     668: 93 06 e0 07  	addi	a3, zero, 126
     66c: 13 07 81 00  	addi	a4, sp, 8
     670: b3 f7 c5 00  	and	a5, a1, a2
     674: 63 ee f6 00  	bltu	a3, a5, 0x690 <vector_memcpy_masked_harness_uint16_t+0x108>
     678: 93 85 15 00  	addi	a1, a1, 1
     67c: b3 f4 c5 00  	and	s1, a1, a2
     680: 93 94 14 00  	slli	s1, s1, 1
     684: b3 04 97 00  	add	s1, a4, s1
     688: 83 d4 04 00  	lhu	s1, 0(s1)
     68c: e3 82 a4 fe  	beq	s1, a0, 0x670 <vector_memcpy_masked_harness_uint16_t+0xe8>
     690: 13 b5 f7 07  	sltiu	a0, a5, 127
     694: 13 45 15 00  	xori	a0, a0, 1
     698: 6f 00 80 00  	j	0x6a0 <vector_memcpy_masked_harness_uint16_t+0x118>
     69c: 13 05 00 00  	mv	a0, zero
     6a0: 83 39 81 20  	ld	s3, 520(sp)
     6a4: 03 39 01 21  	ld	s2, 528(sp)
     6a8: 83 34 81 21  	ld	s1, 536(sp)
     6ac: 03 34 01 22  	ld	s0, 544(sp)
     6b0: 83 30 81 22  	ld	ra, 552(sp)
     6b4: 13 01 01 23  	addi	sp, sp, 560
     6b8: 67 80 00 00  	ret

00000000000006bc <vector_memcpy_masked_harness_uint32_t>:
     6bc: 13 01 01 bd  	addi	sp, sp, -1072
     6c0: 23 34 11 42  	sd	ra, 1064(sp)
     6c4: 23 30 81 42  	sd	s0, 1056(sp)
     6c8: 23 3c 91 40  	sd	s1, 1048(sp)
     6cc: 23 38 21 41  	sd	s2, 1040(sp)
     6d0: 23 34 31 41  	sd	s3, 1032(sp)
     6d4: 13 09 05 00  	mv	s2, a0
     6d8: 13 05 81 20  	addi	a0, sp, 520
     6dc: 13 06 00 20  	addi	a2, zero, 512
     6e0: 13 04 81 20  	addi	s0, sp, 520
     6e4: 93 05 00 00  	mv	a1, zero
     6e8: 97 00 00 00  	auipc	ra, 0
     6ec: e7 80 c0 92  	jalr	-1748(ra)
     6f0: 13 05 81 00  	addi	a0, sp, 8
     6f4: 13 06 00 20  	addi	a2, zero, 512
     6f8: 93 04 81 00  	addi	s1, sp, 8
     6fc: 93 05 00 00  	mv	a1, zero
     700: 97 00 00 00  	auipc	ra, 0
     704: e7 80 40 91  	jalr	-1772(ra)
     708: 13 05 00 00  	mv	a0, zero
     70c: 93 05 b0 0b  	addi	a1, zero, 187
     710: 13 06 00 08  	addi	a2, zero, 128
     714: 23 20 a4 00  	sw	a0, 0(s0)
     718: 23 a0 b4 00  	sw	a1, 0(s1)
     71c: 13 05 15 00  	addi	a0, a0, 1
     720: 13 04 44 00  	addi	s0, s0, 4
     724: 93 84 44 00  	addi	s1, s1, 4
     728: e3 16 c5 fe  	bne	a0, a2, 0x714 <vector_memcpy_masked_harness_uint32_t+0x58>
     72c: 93 09 e0 06  	addi	s3, zero, 110
     730: 13 04 81 20  	addi	s0, sp, 520
     734: 13 05 e0 06  	addi	a0, zero, 110
     738: 93 05 81 20  	addi	a1, sp, 520
     73c: 13 06 81 00  	addi	a2, sp, 8
     740: 93 04 81 00  	addi	s1, sp, 8
     744: e7 00 09 00  	jalr	s2
     748: 13 05 00 00  	mv	a0, zero
     74c: 93 05 b0 0b  	addi	a1, zero, 187
     750: 6f 00 00 02  	j	0x770 <vector_memcpy_masked_harness_uint32_t+0xb4>
     754: 03 26 04 00  	lw	a2, 0(s0)
     758: 83 a6 04 00  	lw	a3, 0(s1)
     75c: 63 16 d6 06  	bne	a2, a3, 0x7c8 <vector_memcpy_masked_harness_uint32_t+0x10c>
     760: 13 05 15 00  	addi	a0, a0, 1
     764: 93 84 44 00  	addi	s1, s1, 4
     768: 13 04 44 00  	addi	s0, s0, 4
     76c: 63 0c 35 01  	beq	a0, s3, 0x784 <vector_memcpy_masked_harness_uint32_t+0xc8>
     770: 13 76 15 00  	andi	a2, a0, 1
     774: e3 10 06 fe  	bnez	a2, 0x754 <vector_memcpy_masked_harness_uint32_t+0x98>
     778: 03 a6 04 00  	lw	a2, 0(s1)
     77c: e3 02 b6 fe  	beq	a2, a1, 0x760 <vector_memcpy_masked_harness_uint32_t+0xa4>
     780: 6f 00 80 04  	j	0x7c8 <vector_memcpy_masked_harness_uint32_t+0x10c>
     784: 83 25 01 1c  	lw	a1, 448(sp)
     788: 13 05 b0 0b  	addi	a0, zero, 187
     78c: 63 9e a5 02  	bne	a1, a0, 0x7c8 <vector_memcpy_masked_harness_uint32_t+0x10c>
     790: 93 05 e0 06  	addi	a1, zero, 110
     794: 13 06 e0 07  	addi	a2, zero, 126
     798: 93 06 81 00  	addi	a3, sp, 8
     79c: 1b 87 05 00  	sext.w	a4, a1
     7a0: 63 6e e6 00  	bltu	a2, a4, 0x7bc <vector_memcpy_masked_harness_uint32_t+0x100>
     7a4: 93 85 15 00  	addi	a1, a1, 1
     7a8: 93 97 05 02  	slli	a5, a1, 32
     7ac: 93 d7 e7 01  	srli	a5, a5, 30
     7b0: b3 87 f6 00  	add	a5, a3, a5
     7b4: 83 a7 07 00  	lw	a5, 0(a5)
     7b8: e3 82 a7 fe  	beq	a5, a0, 0x79c <vector_memcpy_masked_harness_uint32_t+0xe0>
     7bc: 13 35 f7 07  	sltiu	a0, a4, 127
     7c0: 13 45 15 00  	xori	a0, a0, 1
     7c4: 6f 00 80 00  	j	0x7cc <vector_memcpy_masked_harness_uint32_t+0x110>
     7c8: 13 05 00 00  	mv	a0, zero
     7cc: 83 39 81 40  	ld	s3, 1032(sp)
     7d0: 03 39 01 41  	ld	s2, 1040(sp)
     7d4: 83 34 81 41  	ld	s1, 1048(sp)
     7d8: 03 34 01 42  	ld	s0, 1056(sp)
     7dc: 83 30 81 42  	ld	ra, 1064(sp)
     7e0: 13 01 01 43  	addi	sp, sp, 1072
     7e4: 67 80 00 00  	ret

00000000000007e8 <vector_memcpy_masked_harness_uint64_t>:
     7e8: 13 01 01 81  	addi	sp, sp, -2032
     7ec: 23 34 11 7e  	sd	ra, 2024(sp)
     7f0: 23 30 81 7e  	sd	s0, 2016(sp)
     7f4: 23 3c 91 7c  	sd	s1, 2008(sp)
     7f8: 23 38 21 7d  	sd	s2, 2000(sp)
     7fc: 23 34 31 7d  	sd	s3, 1992(sp)
     800: 13 01 01 fc  	addi	sp, sp, -64
     804: 13 09 05 00  	mv	s2, a0
     808: 13 05 81 40  	addi	a0, sp, 1032
     80c: 13 06 00 40  	addi	a2, zero, 1024
     810: 13 04 81 40  	addi	s0, sp, 1032
     814: 93 05 00 00  	mv	a1, zero
     818: 97 f0 ff ff  	auipc	ra, 1048575
     81c: e7 80 c0 7f  	jalr	2044(ra)
     820: 13 05 81 00  	addi	a0, sp, 8
     824: 13 06 00 40  	addi	a2, zero, 1024
     828: 93 04 81 00  	addi	s1, sp, 8
     82c: 93 05 00 00  	mv	a1, zero
     830: 97 f0 ff ff  	auipc	ra, 1048575
     834: e7 80 40 7e  	jalr	2020(ra)
     838: 13 05 00 00  	mv	a0, zero
     83c: 93 05 b0 0b  	addi	a1, zero, 187
     840: 13 06 00 08  	addi	a2, zero, 128
     844: 23 30 a4 00  	sd	a0, 0(s0)
     848: 23 b0 b4 00  	sd	a1, 0(s1)
     84c: 13 05 15 00  	addi	a0, a0, 1
     850: 93 84 84 00  	addi	s1, s1, 8
     854: 13 04 84 00  	addi	s0, s0, 8
     858: e3 16 c5 fe  	bne	a0, a2, 0x844 <vector_memcpy_masked_harness_uint64_t+0x5c>
     85c: 93 09 e0 06  	addi	s3, zero, 110
     860: 13 04 81 40  	addi	s0, sp, 1032
     864: 13 05 e0 06  	addi	a0, zero, 110
     868: 93 05 81 40  	addi	a1, sp, 1032
     86c: 13 06 81 00  	addi	a2, sp, 8
     870: 93 04 81 00  	addi	s1, sp, 8
     874: e7 00 09 00  	jalr	s2
     878: 13 05 00 00  	mv	a0, zero
     87c: 93 05 b0 0b  	addi	a1, zero, 187
     880: 6f 00 00 02  	j	0x8a0 <vector_memcpy_masked_harness_uint64_t+0xb8>
     884: 03 36 04 00  	ld	a2, 0(s0)
     888: 83 b6 04 00  	ld	a3, 0(s1)
     88c: 63 12 d6 06  	bne	a2, a3, 0x8f0 <vector_memcpy_masked_harness_uint64_t+0x108>
     890: 13 05 15 00  	addi	a0, a0, 1
     894: 93 84 84 00  	addi	s1, s1, 8
     898: 13 04 84 00  	addi	s0, s0, 8
     89c: 63 0c 35 01  	beq	a0, s3, 0x8b4 <vector_memcpy_masked_harness_uint64_t+0xcc>
     8a0: 13 76 15 00  	andi	a2, a0, 1
     8a4: e3 10 06 fe  	bnez	a2, 0x884 <vector_memcpy_masked_harness_uint64_t+0x9c>
     8a8: 03 b6 04 00  	ld	a2, 0(s1)
     8ac: e3 02 b6 fe  	beq	a2, a1, 0x890 <vector_memcpy_masked_harness_uint64_t+0xa8>
     8b0: 6f 00 00 04  	j	0x8f0 <vector_memcpy_masked_harness_uint64_t+0x108>
     8b4: 83 35 81 37  	ld	a1, 888(sp)
     8b8: 13 05 b0 0b  	addi	a0, zero, 187
     8bc: 63 9a a5 02  	bne	a1, a0, 0x8f0 <vector_memcpy_masked_harness_uint64_t+0x108>
     8c0: 93 05 01 38  	addi	a1, sp, 896
     8c4: 13 07 e0 06  	addi	a4, zero, 110
     8c8: 13 06 f0 07  	addi	a2, zero, 127
     8cc: 93 06 07 00  	mv	a3, a4
     8d0: 63 0a c7 00  	beq	a4, a2, 0x8e4 <vector_memcpy_masked_harness_uint64_t+0xfc>
     8d4: 83 b7 05 00  	ld	a5, 0(a1)
     8d8: 13 87 16 00  	addi	a4, a3, 1
     8dc: 93 85 85 00  	addi	a1, a1, 8
     8e0: e3 86 a7 fe  	beq	a5, a0, 0x8cc <vector_memcpy_masked_harness_uint64_t+0xe4>
     8e4: 13 05 e0 07  	addi	a0, zero, 126
     8e8: 33 35 d5 00  	sltu	a0, a0, a3
     8ec: 6f 00 80 00  	j	0x8f4 <vector_memcpy_masked_harness_uint64_t+0x10c>
     8f0: 13 05 00 00  	mv	a0, zero
     8f4: 13 01 01 04  	addi	sp, sp, 64
     8f8: 83 39 81 7c  	ld	s3, 1992(sp)
     8fc: 03 39 01 7d  	ld	s2, 2000(sp)
     900: 83 34 81 7d  	ld	s1, 2008(sp)
     904: 03 34 01 7e  	ld	s0, 2016(sp)
     908: 83 30 81 7e  	ld	ra, 2024(sp)
     90c: 13 01 01 7f  	addi	sp, sp, 2032
     910: 67 80 00 00  	ret

0000000000000914 <vector_memcpy_segmented_harness_uint8_t>:
     914: 13 01 01 eb  	addi	sp, sp, -336
     918: 23 34 11 14  	sd	ra, 328(sp)
     91c: 23 30 81 14  	sd	s0, 320(sp)
     920: 23 3c 91 12  	sd	s1, 312(sp)
     924: 23 38 21 13  	sd	s2, 304(sp)
     928: 23 34 31 13  	sd	s3, 296(sp)
     92c: 23 30 41 13  	sd	s4, 288(sp)
     930: 93 06 05 00  	mv	a3, a0
     934: 13 05 00 00  	mv	a0, zero
     938: 23 48 01 10  	sc	cnull, 272(sp)
     93c: 23 40 01 10  	sc	cnull, 256(sp)
     940: 23 48 01 0e  	sc	cnull, 240(sp)
     944: 23 40 01 0e  	sc	cnull, 224(sp)
     948: 23 48 01 0c  	sc	cnull, 208(sp)
     94c: 23 40 01 0c  	sc	cnull, 192(sp)
     950: 23 48 01 0a  	sc	cnull, 176(sp)
     954: 23 40 01 0a  	sc	cnull, 160(sp)
     958: 23 48 01 08  	sc	cnull, 144(sp)
     95c: 23 40 01 08  	sc	cnull, 128(sp)
     960: 23 48 01 06  	sc	cnull, 112(sp)
     964: 23 40 01 06  	sc	cnull, 96(sp)
     968: 23 48 01 04  	sc	cnull, 80(sp)
     96c: 23 40 01 04  	sc	cnull, 64(sp)
     970: 23 48 01 02  	sc	cnull, 48(sp)
     974: 23 40 01 02  	sc	cnull, 32(sp)
     978: 93 05 01 0a  	addi	a1, sp, 160
     97c: 13 06 00 08  	addi	a2, zero, 128
     980: 33 87 a5 00  	add	a4, a1, a0
     984: 23 00 a7 00  	sb	a0, 0(a4)
     988: 13 05 15 00  	addi	a0, a0, 1
     98c: e3 1a c5 fe  	bne	a0, a2, 0x980 <vector_memcpy_segmented_harness_uint8_t+0x6c>
     990: 13 04 01 08  	addi	s0, sp, 128
     994: 23 30 81 00  	sd	s0, 0(sp)
     998: 13 0a 01 06  	addi	s4, sp, 96
     99c: 23 34 41 01  	sd	s4, 8(sp)
     9a0: 13 09 01 04  	addi	s2, sp, 64
     9a4: 23 38 21 01  	sd	s2, 16(sp)
     9a8: 93 09 01 02  	addi	s3, sp, 32
     9ac: 23 3c 31 01  	sd	s3, 24(sp)
     9b0: 13 05 a0 01  	addi	a0, zero, 26
     9b4: 93 05 01 0a  	addi	a1, sp, 160
     9b8: 13 06 01 00  	mv	a2, sp
     9bc: 93 04 01 0a  	addi	s1, sp, 160
     9c0: e7 80 06 00  	jalr	a3
     9c4: 13 05 00 00  	mv	a0, zero
     9c8: 93 05 90 01  	addi	a1, zero, 25
     9cc: 13 76 f5 0f  	andi	a2, a0, 255
     9d0: 93 16 26 00  	slli	a3, a2, 2
     9d4: 33 87 d4 00  	add	a4, s1, a3
     9d8: 03 47 07 00  	lbu	a4, 0(a4)
     9dc: b3 07 c4 00  	add	a5, s0, a2
     9e0: 83 c7 07 00  	lbu	a5, 0(a5)
     9e4: 63 16 f7 06  	bne	a4, a5, 0xa50 <vector_memcpy_segmented_harness_uint8_t+0x13c>
     9e8: 13 e7 16 00  	ori	a4, a3, 1
     9ec: 33 87 e4 00  	add	a4, s1, a4
     9f0: 03 47 07 00  	lbu	a4, 0(a4)
     9f4: b3 07 ca 00  	add	a5, s4, a2
     9f8: 83 c7 07 00  	lbu	a5, 0(a5)
     9fc: 63 1a f7 04  	bne	a4, a5, 0xa50 <vector_memcpy_segmented_harness_uint8_t+0x13c>
     a00: 13 e7 26 00  	ori	a4, a3, 2
     a04: 33 87 e4 00  	add	a4, s1, a4
     a08: 03 47 07 00  	lbu	a4, 0(a4)
     a0c: b3 07 c9 00  	add	a5, s2, a2
     a10: 83 c7 07 00  	lbu	a5, 0(a5)
     a14: 63 1e f7 02  	bne	a4, a5, 0xa50 <vector_memcpy_segmented_harness_uint8_t+0x13c>
     a18: 93 e6 36 00  	ori	a3, a3, 3
     a1c: b3 86 d4 00  	add	a3, s1, a3
     a20: 83 c6 06 00  	lbu	a3, 0(a3)
     a24: 33 87 c9 00  	add	a4, s3, a2
     a28: 03 47 07 00  	lbu	a4, 0(a4)
     a2c: 63 92 e6 02  	bne	a3, a4, 0xa50 <vector_memcpy_segmented_harness_uint8_t+0x13c>
     a30: 13 05 15 00  	addi	a0, a0, 1
     a34: e3 6c b6 f8  	bltu	a2, a1, 0x9cc <vector_memcpy_segmented_harness_uint8_t+0xb8>
     a38: 83 45 a1 09  	lbu	a1, 154(sp)
     a3c: 13 05 10 00  	addi	a0, zero, 1
     a40: 63 8a 05 02  	beqz	a1, 0xa74 <vector_memcpy_segmented_harness_uint8_t+0x160>
     a44: 13 45 f5 ff  	not	a0, a0
     a48: 13 75 15 00  	andi	a0, a0, 1
     a4c: 6f 00 80 00  	j	0xa54 <vector_memcpy_segmented_harness_uint8_t+0x140>
     a50: 13 05 00 00  	mv	a0, zero
     a54: 03 3a 01 12  	ld	s4, 288(sp)
     a58: 83 39 81 12  	ld	s3, 296(sp)
     a5c: 03 39 01 13  	ld	s2, 304(sp)
     a60: 83 34 81 13  	ld	s1, 312(sp)
     a64: 03 34 01 14  	ld	s0, 320(sp)
     a68: 83 30 81 14  	ld	ra, 328(sp)
     a6c: 13 01 01 15  	addi	sp, sp, 336
     a70: 67 80 00 00  	ret
     a74: 93 05 a1 07  	addi	a1, sp, 122
     a78: 13 06 a1 05  	addi	a2, sp, 90
     a7c: 93 06 a1 03  	addi	a3, sp, 58
     a80: 13 05 10 00  	addi	a0, zero, 1
     a84: 13 07 a0 01  	addi	a4, zero, 26
     a88: 93 07 e0 01  	addi	a5, zero, 30
     a8c: 93 04 01 08  	addi	s1, sp, 128
     a90: 03 c4 05 00  	lbu	s0, 0(a1)
     a94: e3 18 04 fa  	bnez	s0, 0xa44 <vector_memcpy_segmented_harness_uint8_t+0x130>
     a98: 03 44 06 00  	lbu	s0, 0(a2)
     a9c: e3 14 04 fa  	bnez	s0, 0xa44 <vector_memcpy_segmented_harness_uint8_t+0x130>
     aa0: 03 c4 06 00  	lbu	s0, 0(a3)
     aa4: e3 10 04 fa  	bnez	s0, 0xa44 <vector_memcpy_segmented_harness_uint8_t+0x130>
     aa8: 13 74 f7 0f  	andi	s0, a4, 255
     aac: 13 35 f4 01  	sltiu	a0, s0, 31
     ab0: e3 ea 87 f8  	bltu	a5, s0, 0xa44 <vector_memcpy_segmented_harness_uint8_t+0x130>
     ab4: 13 07 17 00  	addi	a4, a4, 1
     ab8: 13 74 f7 0f  	andi	s0, a4, 255
     abc: 33 84 84 00  	add	s0, s1, s0
     ac0: 03 44 04 00  	lbu	s0, 0(s0)
     ac4: 93 85 15 00  	addi	a1, a1, 1
     ac8: 13 06 16 00  	addi	a2, a2, 1
     acc: 93 86 16 00  	addi	a3, a3, 1
     ad0: e3 00 04 fc  	beqz	s0, 0xa90 <vector_memcpy_segmented_harness_uint8_t+0x17c>
     ad4: 6f f0 1f f7  	j	0xa44 <vector_memcpy_segmented_harness_uint8_t+0x130>

0000000000000ad8 <vector_memcpy_segmented_harness_uint16_t>:
     ad8: 13 01 01 da  	addi	sp, sp, -608
     adc: 23 3c 11 24  	sd	ra, 600(sp)
     ae0: 23 38 81 24  	sd	s0, 592(sp)
     ae4: 23 34 91 24  	sd	s1, 584(sp)
     ae8: 23 30 21 25  	sd	s2, 576(sp)
     aec: 23 3c 31 23  	sd	s3, 568(sp)
     af0: 23 38 41 23  	sd	s4, 560(sp)
     af4: 23 34 51 23  	sd	s5, 552(sp)
     af8: 23 30 61 23  	sd	s6, 544(sp)
     afc: 13 09 05 00  	mv	s2, a0
     b00: 13 05 01 12  	addi	a0, sp, 288
     b04: 13 06 00 10  	addi	a2, zero, 256
     b08: 13 04 01 12  	addi	s0, sp, 288
     b0c: 93 05 00 00  	mv	a1, zero
     b10: 97 f0 ff ff  	auipc	ra, 1048575
     b14: e7 80 40 50  	jalr	1284(ra)
     b18: 13 05 00 00  	mv	a0, zero
     b1c: 23 48 01 10  	sc	cnull, 272(sp)
     b20: 23 40 01 10  	sc	cnull, 256(sp)
     b24: 23 48 01 0e  	sc	cnull, 240(sp)
     b28: 23 40 01 0e  	sc	cnull, 224(sp)
     b2c: 23 48 01 0c  	sc	cnull, 208(sp)
     b30: 23 40 01 0c  	sc	cnull, 192(sp)
     b34: 23 48 01 0a  	sc	cnull, 176(sp)
     b38: 23 40 01 0a  	sc	cnull, 160(sp)
     b3c: 23 48 01 08  	sc	cnull, 144(sp)
     b40: 23 40 01 08  	sc	cnull, 128(sp)
     b44: 23 48 01 06  	sc	cnull, 112(sp)
     b48: 23 40 01 06  	sc	cnull, 96(sp)
     b4c: 23 48 01 04  	sc	cnull, 80(sp)
     b50: 23 40 01 04  	sc	cnull, 64(sp)
     b54: 23 48 01 02  	sc	cnull, 48(sp)
     b58: 23 40 01 02  	sc	cnull, 32(sp)
     b5c: 93 05 00 08  	addi	a1, zero, 128
     b60: 23 10 a4 00  	sh	a0, 0(s0)
     b64: 13 05 15 00  	addi	a0, a0, 1
     b68: 13 04 24 00  	addi	s0, s0, 2
     b6c: e3 1a b5 fe  	bne	a0, a1, 0xb60 <vector_memcpy_segmented_harness_uint16_t+0x88>
     b70: 13 0b 01 0e  	addi	s6, sp, 224
     b74: 23 30 61 01  	sd	s6, 0(sp)
     b78: 93 0a 01 0a  	addi	s5, sp, 160
     b7c: 23 34 51 01  	sd	s5, 8(sp)
     b80: 93 09 01 06  	addi	s3, sp, 96
     b84: 23 38 31 01  	sd	s3, 16(sp)
     b88: 13 0a 01 02  	addi	s4, sp, 32
     b8c: 23 3c 41 01  	sd	s4, 24(sp)
     b90: 13 05 a0 01  	addi	a0, zero, 26
     b94: 93 05 01 12  	addi	a1, sp, 288
     b98: 13 06 01 00  	mv	a2, sp
     b9c: 13 04 01 12  	addi	s0, sp, 288
     ba0: e7 00 09 00  	jalr	s2
     ba4: 13 05 00 00  	mv	a0, zero
     ba8: b7 05 01 00  	lui	a1, 16
     bac: 9b 85 f5 ff  	addiw	a1, a1, -1
     bb0: 13 08 90 01  	addi	a6, zero, 25
     bb4: b3 76 b5 00  	and	a3, a0, a1
     bb8: 13 97 36 00  	slli	a4, a3, 3
     bbc: 33 07 e4 00  	add	a4, s0, a4
     bc0: 83 57 07 00  	lhu	a5, 0(a4)
     bc4: 13 97 16 00  	slli	a4, a3, 1
     bc8: 33 06 eb 00  	add	a2, s6, a4
     bcc: 03 56 06 00  	lhu	a2, 0(a2)
     bd0: 63 9a c7 06  	bne	a5, a2, 0xc44 <vector_memcpy_segmented_harness_uint16_t+0x16c>
     bd4: 13 96 26 00  	slli	a2, a3, 2
     bd8: 93 17 16 00  	slli	a5, a2, 1
     bdc: 13 e6 27 00  	ori	a2, a5, 2
     be0: 33 06 c4 00  	add	a2, s0, a2
     be4: 03 56 06 00  	lhu	a2, 0(a2)
     be8: b3 84 ea 00  	add	s1, s5, a4
     bec: 83 d4 04 00  	lhu	s1, 0(s1)
     bf0: 63 1a 96 04  	bne	a2, s1, 0xc44 <vector_memcpy_segmented_harness_uint16_t+0x16c>
     bf4: 13 e6 47 00  	ori	a2, a5, 4
     bf8: 33 06 c4 00  	add	a2, s0, a2
     bfc: 03 56 06 00  	lhu	a2, 0(a2)
     c00: b3 84 e9 00  	add	s1, s3, a4
     c04: 83 d4 04 00  	lhu	s1, 0(s1)
     c08: 63 1e 96 02  	bne	a2, s1, 0xc44 <vector_memcpy_segmented_harness_uint16_t+0x16c>
     c0c: 13 e6 67 00  	ori	a2, a5, 6
     c10: 33 06 c4 00  	add	a2, s0, a2
     c14: 03 56 06 00  	lhu	a2, 0(a2)
     c18: 33 07 ea 00  	add	a4, s4, a4
     c1c: 03 57 07 00  	lhu	a4, 0(a4)
     c20: 63 12 e6 02  	bne	a2, a4, 0xc44 <vector_memcpy_segmented_harness_uint16_t+0x16c>
     c24: 13 05 15 00  	addi	a0, a0, 1
     c28: e3 e6 06 f9  	bltu	a3, a6, 0xbb4 <vector_memcpy_segmented_harness_uint16_t+0xdc>
     c2c: 83 55 41 11  	lhu	a1, 276(sp)
     c30: 13 05 10 00  	addi	a0, zero, 1
     c34: 63 8e 05 02  	beqz	a1, 0xc70 <vector_memcpy_segmented_harness_uint16_t+0x198>
     c38: 13 45 f5 ff  	not	a0, a0
     c3c: 13 75 15 00  	andi	a0, a0, 1
     c40: 6f 00 80 00  	j	0xc48 <vector_memcpy_segmented_harness_uint16_t+0x170>
     c44: 13 05 00 00  	mv	a0, zero
     c48: 03 3b 01 22  	ld	s6, 544(sp)
     c4c: 83 3a 81 22  	ld	s5, 552(sp)
     c50: 03 3a 01 23  	ld	s4, 560(sp)
     c54: 83 39 81 23  	ld	s3, 568(sp)
     c58: 03 39 01 24  	ld	s2, 576(sp)
     c5c: 83 34 81 24  	ld	s1, 584(sp)
     c60: 03 34 01 25  	ld	s0, 592(sp)
     c64: 83 30 81 25  	ld	ra, 600(sp)
     c68: 13 01 01 26  	addi	sp, sp, 608
     c6c: 67 80 00 00  	ret
     c70: 93 05 41 0d  	addi	a1, sp, 212
     c74: 13 06 41 09  	addi	a2, sp, 148
     c78: 93 06 41 05  	addi	a3, sp, 84
     c7c: 13 05 10 00  	addi	a0, zero, 1
     c80: 13 07 a0 01  	addi	a4, zero, 26
     c84: b7 07 01 00  	lui	a5, 16
     c88: 9b 87 f7 ff  	addiw	a5, a5, -1
     c8c: 93 04 e0 01  	addi	s1, zero, 30
     c90: 13 08 01 0e  	addi	a6, sp, 224
     c94: 03 d4 05 00  	lhu	s0, 0(a1)
     c98: e3 10 04 fa  	bnez	s0, 0xc38 <vector_memcpy_segmented_harness_uint16_t+0x160>
     c9c: 03 54 06 00  	lhu	s0, 0(a2)
     ca0: e3 1c 04 f8  	bnez	s0, 0xc38 <vector_memcpy_segmented_harness_uint16_t+0x160>
     ca4: 03 d4 06 00  	lhu	s0, 0(a3)
     ca8: e3 18 04 f8  	bnez	s0, 0xc38 <vector_memcpy_segmented_harness_uint16_t+0x160>
     cac: 33 74 f7 00  	and	s0, a4, a5
     cb0: 13 35 f4 01  	sltiu	a0, s0, 31
     cb4: e3 e2 84 f8  	bltu	s1, s0, 0xc38 <vector_memcpy_segmented_harness_uint16_t+0x160>
     cb8: 13 07 17 00  	addi	a4, a4, 1
     cbc: 33 74 f7 00  	and	s0, a4, a5
     cc0: 13 14 14 00  	slli	s0, s0, 1
     cc4: 33 04 88 00  	add	s0, a6, s0
     cc8: 03 54 04 00  	lhu	s0, 0(s0)
     ccc: 93 85 25 00  	addi	a1, a1, 2
     cd0: 13 06 26 00  	addi	a2, a2, 2
     cd4: 93 86 26 00  	addi	a3, a3, 2
     cd8: e3 0e 04 fa  	beqz	s0, 0xc94 <vector_memcpy_segmented_harness_uint16_t+0x1bc>
     cdc: 6f f0 df f5  	j	0xc38 <vector_memcpy_segmented_harness_uint16_t+0x160>

0000000000000ce0 <vector_memcpy_segmented_harness_uint32_t>:
     ce0: 13 01 01 b9  	addi	sp, sp, -1136
     ce4: 23 34 11 46  	sd	ra, 1128(sp)
     ce8: 23 30 81 46  	sd	s0, 1120(sp)
     cec: 23 3c 91 44  	sd	s1, 1112(sp)
     cf0: 23 38 21 45  	sd	s2, 1104(sp)
     cf4: 23 34 31 45  	sd	s3, 1096(sp)
     cf8: 23 30 41 45  	sd	s4, 1088(sp)
     cfc: 23 3c 51 43  	sd	s5, 1080(sp)
     d00: 13 09 05 00  	mv	s2, a0
     d04: 13 05 81 23  	addi	a0, sp, 568
     d08: 13 06 00 20  	addi	a2, zero, 512
     d0c: 93 04 81 23  	addi	s1, sp, 568
     d10: 93 05 00 00  	mv	a1, zero
     d14: 97 f0 ff ff  	auipc	ra, 1048575
     d18: e7 80 00 30  	jalr	768(ra)
     d1c: 13 05 00 00  	mv	a0, zero
     d20: 23 40 01 22  	sc	cnull, 544(sp)
     d24: 23 48 01 20  	sc	cnull, 528(sp)
     d28: 23 40 01 20  	sc	cnull, 512(sp)
     d2c: 23 48 01 1e  	sc	cnull, 496(sp)
     d30: 23 40 01 1e  	sc	cnull, 480(sp)
     d34: 23 48 01 1c  	sc	cnull, 464(sp)
     d38: 23 40 01 1c  	sc	cnull, 448(sp)
     d3c: 23 48 01 1a  	sc	cnull, 432(sp)
     d40: 23 40 01 1a  	sc	cnull, 416(sp)
     d44: 23 48 01 18  	sc	cnull, 400(sp)
     d48: 23 40 01 18  	sc	cnull, 384(sp)
     d4c: 23 48 01 16  	sc	cnull, 368(sp)
     d50: 23 40 01 16  	sc	cnull, 352(sp)
     d54: 23 48 01 14  	sc	cnull, 336(sp)
     d58: 23 40 01 14  	sc	cnull, 320(sp)
     d5c: 23 48 01 12  	sc	cnull, 304(sp)
     d60: 23 40 01 12  	sc	cnull, 288(sp)
     d64: 23 48 01 10  	sc	cnull, 272(sp)
     d68: 23 40 01 10  	sc	cnull, 256(sp)
     d6c: 23 48 01 0e  	sc	cnull, 240(sp)
     d70: 23 40 01 0e  	sc	cnull, 224(sp)
     d74: 23 48 01 0c  	sc	cnull, 208(sp)
     d78: 23 40 01 0c  	sc	cnull, 192(sp)
     d7c: 23 48 01 0a  	sc	cnull, 176(sp)
     d80: 23 40 01 0a  	sc	cnull, 160(sp)
     d84: 23 48 01 08  	sc	cnull, 144(sp)
     d88: 23 40 01 08  	sc	cnull, 128(sp)
     d8c: 23 48 01 06  	sc	cnull, 112(sp)
     d90: 23 40 01 06  	sc	cnull, 96(sp)
     d94: 23 48 01 04  	sc	cnull, 80(sp)
     d98: 23 40 01 04  	sc	cnull, 64(sp)
     d9c: 23 48 01 02  	sc	cnull, 48(sp)
     da0: 93 05 00 08  	addi	a1, zero, 128
     da4: 23 a0 a4 00  	sw	a0, 0(s1)
     da8: 13 05 15 00  	addi	a0, a0, 1
     dac: 93 84 44 00  	addi	s1, s1, 4
     db0: e3 1a b5 fe  	bne	a0, a1, 0xda4 <vector_memcpy_segmented_harness_uint32_t+0xc4>
     db4: 93 04 01 1b  	addi	s1, sp, 432
     db8: 23 38 91 00  	sd	s1, 16(sp)
     dbc: 93 0a 01 13  	addi	s5, sp, 304
     dc0: 23 3c 51 01  	sd	s5, 24(sp)
     dc4: 93 09 01 0b  	addi	s3, sp, 176
     dc8: 23 30 31 03  	sd	s3, 32(sp)
     dcc: 13 0a 01 03  	addi	s4, sp, 48
     dd0: 23 34 41 03  	sd	s4, 40(sp)
     dd4: 13 05 a0 01  	addi	a0, zero, 26
     dd8: 93 05 81 23  	addi	a1, sp, 568
     ddc: 13 06 01 01  	addi	a2, sp, 16
     de0: 13 04 81 23  	addi	s0, sp, 568
     de4: e7 00 09 00  	jalr	s2
     de8: 93 05 00 00  	mv	a1, zero
     dec: 13 05 90 01  	addi	a0, zero, 25
     df0: 13 96 25 02  	slli	a2, a1, 34
     df4: 13 56 e6 01  	srli	a2, a2, 30
     df8: 33 06 c4 00  	add	a2, s0, a2
     dfc: 03 26 06 00  	lw	a2, 0(a2)
     e00: 93 96 05 02  	slli	a3, a1, 32
     e04: 13 d7 e6 01  	srli	a4, a3, 30
     e08: 33 87 e4 00  	add	a4, s1, a4
     e0c: 03 27 07 00  	lw	a4, 0(a4)
     e10: 63 1a e6 08  	bne	a2, a4, 0xea4 <vector_memcpy_segmented_harness_uint32_t+0x1c4>
     e14: 13 96 25 00  	slli	a2, a1, 2
     e18: 93 d6 06 02  	srli	a3, a3, 32
     e1c: 13 67 16 00  	ori	a4, a2, 1
     e20: 13 17 07 02  	slli	a4, a4, 32
     e24: 13 57 e7 01  	srli	a4, a4, 30
     e28: 33 07 e4 00  	add	a4, s0, a4
     e2c: 03 27 07 00  	lw	a4, 0(a4)
     e30: 93 96 26 00  	slli	a3, a3, 2
     e34: b3 87 da 00  	add	a5, s5, a3
     e38: 83 a7 07 00  	lw	a5, 0(a5)
     e3c: 63 14 f7 06  	bne	a4, a5, 0xea4 <vector_memcpy_segmented_harness_uint32_t+0x1c4>
     e40: 13 67 26 00  	ori	a4, a2, 2
     e44: 13 17 07 02  	slli	a4, a4, 32
     e48: 13 57 e7 01  	srli	a4, a4, 30
     e4c: 33 07 e4 00  	add	a4, s0, a4
     e50: 03 27 07 00  	lw	a4, 0(a4)
     e54: b3 87 d9 00  	add	a5, s3, a3
     e58: 83 a7 07 00  	lw	a5, 0(a5)
     e5c: 63 14 f7 04  	bne	a4, a5, 0xea4 <vector_memcpy_segmented_harness_uint32_t+0x1c4>
     e60: 13 66 36 00  	ori	a2, a2, 3
     e64: 13 16 06 02  	slli	a2, a2, 32
     e68: 13 56 e6 01  	srli	a2, a2, 30
     e6c: 33 06 c4 00  	add	a2, s0, a2
     e70: 03 26 06 00  	lw	a2, 0(a2)
     e74: b3 06 da 00  	add	a3, s4, a3
     e78: 83 a6 06 00  	lw	a3, 0(a3)
     e7c: 63 14 d6 02  	bne	a2, a3, 0xea4 <vector_memcpy_segmented_harness_uint32_t+0x1c4>
     e80: 1b 86 05 00  	sext.w	a2, a1
     e84: 93 85 15 00  	addi	a1, a1, 1
     e88: e3 64 a6 f6  	bltu	a2, a0, 0xdf0 <vector_memcpy_segmented_harness_uint32_t+0x110>
     e8c: 83 25 81 21  	lw	a1, 536(sp)
     e90: 13 05 10 00  	addi	a0, zero, 1
     e94: 63 8c 05 02  	beqz	a1, 0xecc <vector_memcpy_segmented_harness_uint32_t+0x1ec>
     e98: 13 45 f5 ff  	not	a0, a0
     e9c: 13 75 15 00  	andi	a0, a0, 1
     ea0: 6f 00 80 00  	j	0xea8 <vector_memcpy_segmented_harness_uint32_t+0x1c8>
     ea4: 13 05 00 00  	mv	a0, zero
     ea8: 83 3a 81 43  	ld	s5, 1080(sp)
     eac: 03 3a 01 44  	ld	s4, 1088(sp)
     eb0: 83 39 81 44  	ld	s3, 1096(sp)
     eb4: 03 39 01 45  	ld	s2, 1104(sp)
     eb8: 83 34 81 45  	ld	s1, 1112(sp)
     ebc: 03 34 01 46  	ld	s0, 1120(sp)
     ec0: 83 30 81 46  	ld	ra, 1128(sp)
     ec4: 13 01 01 47  	addi	sp, sp, 1136
     ec8: 67 80 00 00  	ret
     ecc: 93 05 81 19  	addi	a1, sp, 408
     ed0: 13 06 81 11  	addi	a2, sp, 280
     ed4: 93 06 81 09  	addi	a3, sp, 152
     ed8: 13 05 10 00  	addi	a0, zero, 1
     edc: 13 07 a0 01  	addi	a4, zero, 26
     ee0: 93 07 e0 01  	addi	a5, zero, 30
     ee4: 93 04 01 1b  	addi	s1, sp, 432
     ee8: 03 a4 05 00  	lw	s0, 0(a1)
     eec: e3 16 04 fa  	bnez	s0, 0xe98 <vector_memcpy_segmented_harness_uint32_t+0x1b8>
     ef0: 03 24 06 00  	lw	s0, 0(a2)
     ef4: e3 12 04 fa  	bnez	s0, 0xe98 <vector_memcpy_segmented_harness_uint32_t+0x1b8>
     ef8: 03 a4 06 00  	lw	s0, 0(a3)
     efc: e3 1e 04 f8  	bnez	s0, 0xe98 <vector_memcpy_segmented_harness_uint32_t+0x1b8>
     f00: 1b 04 07 00  	sext.w	s0, a4
     f04: 13 35 f4 01  	sltiu	a0, s0, 31
     f08: e3 e8 87 f8  	bltu	a5, s0, 0xe98 <vector_memcpy_segmented_harness_uint32_t+0x1b8>
     f0c: 13 07 17 00  	addi	a4, a4, 1
     f10: 13 14 07 02  	slli	s0, a4, 32
     f14: 13 54 e4 01  	srli	s0, s0, 30
     f18: 33 84 84 00  	add	s0, s1, s0
     f1c: 03 24 04 00  	lw	s0, 0(s0)
     f20: 93 85 45 00  	addi	a1, a1, 4
     f24: 13 06 46 00  	addi	a2, a2, 4
     f28: 93 86 46 00  	addi	a3, a3, 4
     f2c: e3 0e 04 fa  	beqz	s0, 0xee8 <vector_memcpy_segmented_harness_uint32_t+0x208>
     f30: 6f f0 9f f6  	j	0xe98 <vector_memcpy_segmented_harness_uint32_t+0x1b8>

0000000000000f34 <vector_memcpy_segmented_harness_uint64_t>:
     f34: 13 01 01 81  	addi	sp, sp, -2032
     f38: 23 34 11 7e  	sd	ra, 2024(sp)
     f3c: 23 30 81 7e  	sd	s0, 2016(sp)
     f40: 23 3c 91 7c  	sd	s1, 2008(sp)
     f44: 23 38 21 7d  	sd	s2, 2000(sp)
     f48: 23 34 31 7d  	sd	s3, 1992(sp)
     f4c: 23 30 41 7d  	sd	s4, 1984(sp)
     f50: 13 01 01 f9  	addi	sp, sp, -112
     f54: 13 09 05 00  	mv	s2, a0
     f58: 13 05 01 43  	addi	a0, sp, 1072
     f5c: 13 06 00 40  	addi	a2, zero, 1024
     f60: 13 04 01 43  	addi	s0, sp, 1072
     f64: 93 05 00 00  	mv	a1, zero
     f68: 97 f0 ff ff  	auipc	ra, 1048575
     f6c: e7 80 c0 0a  	jalr	172(ra)
     f70: 13 05 01 33  	addi	a0, sp, 816
     f74: 13 06 00 10  	addi	a2, zero, 256
     f78: 93 05 00 00  	mv	a1, zero
     f7c: 97 f0 ff ff  	auipc	ra, 1048575
     f80: e7 80 80 09  	jalr	152(ra)
     f84: 13 05 01 23  	addi	a0, sp, 560
     f88: 13 06 00 10  	addi	a2, zero, 256
     f8c: 93 05 00 00  	mv	a1, zero
     f90: 97 f0 ff ff  	auipc	ra, 1048575
     f94: e7 80 40 08  	jalr	132(ra)
     f98: 13 05 01 13  	addi	a0, sp, 304
     f9c: 13 06 00 10  	addi	a2, zero, 256
     fa0: 93 05 00 00  	mv	a1, zero
     fa4: 97 f0 ff ff  	auipc	ra, 1048575
     fa8: e7 80 00 07  	jalr	112(ra)
     fac: 13 05 01 03  	addi	a0, sp, 48
     fb0: 13 06 00 10  	addi	a2, zero, 256
     fb4: 93 05 00 00  	mv	a1, zero
     fb8: 97 f0 ff ff  	auipc	ra, 1048575
     fbc: e7 80 c0 05  	jalr	92(ra)
     fc0: 13 05 00 00  	mv	a0, zero
     fc4: 93 05 00 08  	addi	a1, zero, 128
     fc8: 23 30 a4 00  	sd	a0, 0(s0)
     fcc: 13 05 15 00  	addi	a0, a0, 1
     fd0: 13 04 84 00  	addi	s0, s0, 8
     fd4: e3 1a b5 fe  	bne	a0, a1, 0xfc8 <vector_memcpy_segmented_harness_uint64_t+0x94>
     fd8: 93 09 01 33  	addi	s3, sp, 816
     fdc: 23 38 31 01  	sd	s3, 16(sp)
     fe0: 13 0a 01 23  	addi	s4, sp, 560
     fe4: 23 3c 41 01  	sd	s4, 24(sp)
     fe8: 93 04 01 13  	addi	s1, sp, 304
     fec: 23 30 91 02  	sd	s1, 32(sp)
     ff0: 13 04 01 03  	addi	s0, sp, 48
     ff4: 23 34 81 02  	sd	s0, 40(sp)
     ff8: 13 05 a0 01  	addi	a0, zero, 26
     ffc: 93 05 01 43  	addi	a1, sp, 1072
    1000: 13 06 01 01  	addi	a2, sp, 16
    1004: e7 00 09 00  	jalr	s2
    1008: 13 05 00 00  	mv	a0, zero
    100c: 93 05 01 44  	addi	a1, sp, 1088
    1010: 13 06 00 0d  	addi	a2, zero, 208
    1014: 83 b6 05 ff  	ld	a3, -16(a1)
    1018: 33 87 a9 00  	add	a4, s3, a0
    101c: 03 37 07 00  	ld	a4, 0(a4)
    1020: 63 9c e6 04  	bne	a3, a4, 0x1078 <vector_memcpy_segmented_harness_uint64_t+0x144>
    1024: 83 b6 85 ff  	ld	a3, -8(a1)
    1028: 33 07 aa 00  	add	a4, s4, a0
    102c: 03 37 07 00  	ld	a4, 0(a4)
    1030: 63 94 e6 04  	bne	a3, a4, 0x1078 <vector_memcpy_segmented_harness_uint64_t+0x144>
    1034: 83 b6 05 00  	ld	a3, 0(a1)
    1038: 33 87 a4 00  	add	a4, s1, a0
    103c: 03 37 07 00  	ld	a4, 0(a4)
    1040: 63 9c e6 02  	bne	a3, a4, 0x1078 <vector_memcpy_segmented_harness_uint64_t+0x144>
    1044: 83 b6 85 00  	ld	a3, 8(a1)
    1048: 33 07 a4 00  	add	a4, s0, a0
    104c: 03 37 07 00  	ld	a4, 0(a4)
    1050: 63 94 e6 02  	bne	a3, a4, 0x1078 <vector_memcpy_segmented_harness_uint64_t+0x144>
    1054: 13 05 85 00  	addi	a0, a0, 8
    1058: 93 85 05 02  	addi	a1, a1, 32
    105c: e3 1c c5 fa  	bne	a0, a2, 0x1014 <vector_memcpy_segmented_harness_uint64_t+0xe0>
    1060: 83 35 01 40  	ld	a1, 1024(sp)
    1064: 13 05 10 00  	addi	a0, zero, 1
    1068: 63 8c 05 02  	beqz	a1, 0x10a0 <vector_memcpy_segmented_harness_uint64_t+0x16c>
    106c: 13 45 f5 ff  	not	a0, a0
    1070: 13 75 15 00  	andi	a0, a0, 1
    1074: 6f 00 80 00  	j	0x107c <vector_memcpy_segmented_harness_uint64_t+0x148>
    1078: 13 05 00 00  	mv	a0, zero
    107c: 13 01 01 07  	addi	sp, sp, 112
    1080: 03 3a 01 7c  	ld	s4, 1984(sp)
    1084: 83 39 81 7c  	ld	s3, 1992(sp)
    1088: 03 39 01 7d  	ld	s2, 2000(sp)
    108c: 83 34 81 7d  	ld	s1, 2008(sp)
    1090: 03 34 01 7e  	ld	s0, 2016(sp)
    1094: 83 30 81 7e  	ld	ra, 2024(sp)
    1098: 13 01 01 7f  	addi	sp, sp, 2032
    109c: 67 80 00 00  	ret
    10a0: 93 05 01 30  	addi	a1, sp, 768
    10a4: 13 06 01 20  	addi	a2, sp, 512
    10a8: 93 06 01 10  	addi	a3, sp, 256
    10ac: 13 07 81 40  	addi	a4, sp, 1032
    10b0: 13 05 10 00  	addi	a0, zero, 1
    10b4: 93 07 a0 01  	addi	a5, zero, 26
    10b8: 93 04 f0 01  	addi	s1, zero, 31
    10bc: 03 b4 05 00  	ld	s0, 0(a1)
    10c0: e3 16 04 fa  	bnez	s0, 0x106c <vector_memcpy_segmented_harness_uint64_t+0x138>
    10c4: 03 34 06 00  	ld	s0, 0(a2)
    10c8: e3 12 04 fa  	bnez	s0, 0x106c <vector_memcpy_segmented_harness_uint64_t+0x138>
    10cc: 03 b4 06 00  	ld	s0, 0(a3)
    10d0: e3 1e 04 f8  	bnez	s0, 0x106c <vector_memcpy_segmented_harness_uint64_t+0x138>
    10d4: 13 b5 f7 01  	sltiu	a0, a5, 31
    10d8: e3 8a 97 f8  	beq	a5, s1, 0x106c <vector_memcpy_segmented_harness_uint64_t+0x138>
    10dc: 03 34 07 00  	ld	s0, 0(a4)
    10e0: 93 85 85 00  	addi	a1, a1, 8
    10e4: 13 06 86 00  	addi	a2, a2, 8
    10e8: 93 86 86 00  	addi	a3, a3, 8
    10ec: 13 07 87 00  	addi	a4, a4, 8
    10f0: 93 87 17 00  	addi	a5, a5, 1
    10f4: e3 04 04 fc  	beqz	s0, 0x10bc <vector_memcpy_segmented_harness_uint64_t+0x188>
    10f8: 6f f0 5f f7  	j	0x106c <vector_memcpy_segmented_harness_uint64_t+0x138>

00000000000010fc <vector_memcpy_unit_stride_e8m8>:
    10fc: 6f 00 c0 00  	j	0x1108 <vector_memcpy_unit_stride_e8m8+0xc>
    1100: 93 b6 16 00  	seqz	a3, a3
    1104: 63 92 06 02  	bnez	a3, 0x1128 <vector_memcpy_unit_stride_e8m8+0x2c>
    1108: d7 76 35 04  	<unknown>
    110c: e3 8a 06 fe  	beqz	a3, 0x1100 <vector_memcpy_unit_stride_e8m8+0x4>
    1110: 07 84 05 02  	<unknown>
    1114: 27 04 06 02  	<unknown>
    1118: b3 85 d5 00  	add	a1, a1, a3
    111c: 33 06 d6 00  	add	a2, a2, a3
    1120: 33 05 d5 40  	sub	a0, a0, a3
    1124: 6f f0 df fd  	j	0x1100 <vector_memcpy_unit_stride_e8m8+0x4>
    1128: 67 80 00 00  	ret

000000000000112c <vector_memcpy_unit_stride_e16m8>:
    112c: 6f 00 c0 00  	j	0x1138 <vector_memcpy_unit_stride_e16m8+0xc>
    1130: 93 b6 16 00  	seqz	a3, a3
    1134: 63 94 06 02  	bnez	a3, 0x115c <vector_memcpy_unit_stride_e16m8+0x30>
    1138: d7 76 b5 04  	<unknown>
    113c: e3 8a 06 fe  	beqz	a3, 0x1130 <vector_memcpy_unit_stride_e16m8+0x4>
    1140: 07 d4 05 02  	<unknown>
    1144: 27 54 06 02  	<unknown>
    1148: 13 97 16 00  	slli	a4, a3, 1
    114c: b3 85 e5 00  	add	a1, a1, a4
    1150: 33 06 e6 00  	add	a2, a2, a4
    1154: 33 05 d5 40  	sub	a0, a0, a3
    1158: 6f f0 9f fd  	j	0x1130 <vector_memcpy_unit_stride_e16m8+0x4>
    115c: 67 80 00 00  	ret

0000000000001160 <vector_memcpy_unit_stride_e32m8>:
    1160: 6f 00 c0 00  	j	0x116c <vector_memcpy_unit_stride_e32m8+0xc>
    1164: 93 b6 16 00  	seqz	a3, a3
    1168: 63 94 06 02  	bnez	a3, 0x1190 <vector_memcpy_unit_stride_e32m8+0x30>
    116c: d7 76 35 05  	<unknown>
    1170: e3 8a 06 fe  	beqz	a3, 0x1164 <vector_memcpy_unit_stride_e32m8+0x4>
    1174: 07 e4 05 02  	<unknown>
    1178: 27 64 06 02  	<unknown>
    117c: 13 97 26 00  	slli	a4, a3, 2
    1180: b3 85 e5 00  	add	a1, a1, a4
    1184: 33 06 e6 00  	add	a2, a2, a4
    1188: 33 05 d5 40  	sub	a0, a0, a3
    118c: 6f f0 9f fd  	j	0x1164 <vector_memcpy_unit_stride_e32m8+0x4>
    1190: 67 80 00 00  	ret

0000000000001194 <vector_memcpy_unit_stride_e32mf2>:
    1194: 6f 00 c0 00  	j	0x11a0 <vector_memcpy_unit_stride_e32mf2+0xc>
    1198: 93 b6 16 00  	seqz	a3, a3
    119c: 63 94 06 02  	bnez	a3, 0x11c4 <vector_memcpy_unit_stride_e32mf2+0x30>
    11a0: d7 76 75 05  	<unknown>
    11a4: e3 8a 06 fe  	beqz	a3, 0x1198 <vector_memcpy_unit_stride_e32mf2+0x4>
    11a8: 87 ec 05 02  	<unknown>
    11ac: a7 6c 06 02  	<unknown>
    11b0: 13 97 26 00  	slli	a4, a3, 2
    11b4: b3 85 e5 00  	add	a1, a1, a4
    11b8: 33 06 e6 00  	add	a2, a2, a4
    11bc: 33 05 d5 40  	sub	a0, a0, a3
    11c0: 6f f0 9f fd  	j	0x1198 <vector_memcpy_unit_stride_e32mf2+0x4>
    11c4: 67 80 00 00  	ret

00000000000011c8 <vector_memcpy_unit_stride_e64m2>:
    11c8: 6f 00 c0 00  	j	0x11d4 <vector_memcpy_unit_stride_e64m2+0xc>
    11cc: 93 b6 16 00  	seqz	a3, a3
    11d0: 63 94 06 02  	bnez	a3, 0x11f8 <vector_memcpy_unit_stride_e64m2+0x30>
    11d4: d7 76 95 05  	<unknown>
    11d8: e3 8a 06 fe  	beqz	a3, 0x11cc <vector_memcpy_unit_stride_e64m2+0x4>
    11dc: 07 fd 05 02  	<unknown>
    11e0: 27 7d 06 02  	<unknown>
    11e4: 13 97 36 00  	slli	a4, a3, 3
    11e8: b3 85 e5 00  	add	a1, a1, a4
    11ec: 33 06 e6 00  	add	a2, a2, a4
    11f0: 33 05 d5 40  	sub	a0, a0, a3
    11f4: 6f f0 9f fd  	j	0x11cc <vector_memcpy_unit_stride_e64m2+0x4>
    11f8: 67 80 00 00  	ret

00000000000011fc <vector_memcpy_strided_e8m8>:
    11fc: 93 02 40 00  	addi	t0, zero, 4
    1200: 6f 00 40 02  	j	0x1224 <vector_memcpy_strided_e8m8+0x28>
    1204: 07 84 05 02  	<unknown>
    1208: 27 04 06 02  	<unknown>
    120c: 93 08 08 00  	mv	a7, a6
    1210: 33 05 15 41  	sub	a0, a0, a7
    1214: b3 85 15 01  	add	a1, a1, a7
    1218: 33 06 16 01  	add	a2, a2, a7
    121c: 93 36 18 00  	seqz	a3, a6
    1220: 63 9a 06 02  	bnez	a3, 0x1254 <vector_memcpy_strided_e8m8+0x58>
    1224: 57 78 35 04  	<unknown>
    1228: e3 0a 08 fe  	beqz	a6, 0x121c <vector_memcpy_strided_e8m8+0x20>
    122c: 93 18 28 00  	slli	a7, a6, 2
    1230: e3 fa a8 fc  	bgeu	a7, a0, 0x1204 <vector_memcpy_strided_e8m8+0x8>
    1234: 13 07 00 00  	mv	a4, zero
    1238: b3 87 e5 00  	add	a5, a1, a4
    123c: b3 06 e6 00  	add	a3, a2, a4
    1240: 07 84 57 0a  	<unknown>
    1244: 13 07 17 00  	addi	a4, a4, 1
    1248: 27 84 56 0a  	<unknown>
    124c: e3 16 57 fe  	bne	a4, t0, 0x1238 <vector_memcpy_strided_e8m8+0x3c>
    1250: 6f f0 1f fc  	j	0x1210 <vector_memcpy_strided_e8m8+0x14>
    1254: 67 80 00 00  	ret

0000000000001258 <vector_memcpy_strided_e16m8>:
    1258: 93 02 80 00  	addi	t0, zero, 8
    125c: 6f 00 80 02  	j	0x1284 <vector_memcpy_strided_e16m8+0x2c>
    1260: 07 d4 05 02  	<unknown>
    1264: 27 54 06 02  	<unknown>
    1268: 93 08 08 00  	mv	a7, a6
    126c: 33 05 15 41  	sub	a0, a0, a7
    1270: 93 96 18 00  	slli	a3, a7, 1
    1274: b3 85 d5 00  	add	a1, a1, a3
    1278: 33 06 d6 00  	add	a2, a2, a3
    127c: 93 36 18 00  	seqz	a3, a6
    1280: 63 9a 06 02  	bnez	a3, 0x12b4 <vector_memcpy_strided_e16m8+0x5c>
    1284: 57 78 b5 04  	<unknown>
    1288: e3 0a 08 fe  	beqz	a6, 0x127c <vector_memcpy_strided_e16m8+0x24>
    128c: 93 18 28 00  	slli	a7, a6, 2
    1290: e3 f8 a8 fc  	bgeu	a7, a0, 0x1260 <vector_memcpy_strided_e16m8+0x8>
    1294: 13 07 00 00  	mv	a4, zero
    1298: b3 87 e5 00  	add	a5, a1, a4
    129c: b3 06 e6 00  	add	a3, a2, a4
    12a0: 07 d4 57 0a  	<unknown>
    12a4: 13 07 27 00  	addi	a4, a4, 2
    12a8: 27 d4 56 0a  	<unknown>
    12ac: e3 16 57 fe  	bne	a4, t0, 0x1298 <vector_memcpy_strided_e16m8+0x40>
    12b0: 6f f0 df fb  	j	0x126c <vector_memcpy_strided_e16m8+0x14>
    12b4: 67 80 00 00  	ret

00000000000012b8 <vector_memcpy_strided_e32m8>:
    12b8: 93 02 00 01  	addi	t0, zero, 16
    12bc: 6f 00 80 02  	j	0x12e4 <vector_memcpy_strided_e32m8+0x2c>
    12c0: 07 e4 05 02  	<unknown>
    12c4: 27 64 06 02  	<unknown>
    12c8: 93 08 08 00  	mv	a7, a6
    12cc: 33 05 15 41  	sub	a0, a0, a7
    12d0: 93 96 28 00  	slli	a3, a7, 2
    12d4: b3 85 d5 00  	add	a1, a1, a3
    12d8: 33 06 d6 00  	add	a2, a2, a3
    12dc: 93 36 18 00  	seqz	a3, a6
    12e0: 63 9a 06 02  	bnez	a3, 0x1314 <vector_memcpy_strided_e32m8+0x5c>
    12e4: 57 78 35 05  	<unknown>
    12e8: e3 0a 08 fe  	beqz	a6, 0x12dc <vector_memcpy_strided_e32m8+0x24>
    12ec: 93 18 28 00  	slli	a7, a6, 2
    12f0: e3 f8 a8 fc  	bgeu	a7, a0, 0x12c0 <vector_memcpy_strided_e32m8+0x8>
    12f4: 13 07 00 00  	mv	a4, zero
    12f8: b3 87 e5 00  	add	a5, a1, a4
    12fc: b3 06 e6 00  	add	a3, a2, a4
    1300: 07 e4 57 0a  	<unknown>
    1304: 13 07 47 00  	addi	a4, a4, 4
    1308: 27 e4 56 0a  	<unknown>
    130c: e3 16 57 fe  	bne	a4, t0, 0x12f8 <vector_memcpy_strided_e32m8+0x40>
    1310: 6f f0 df fb  	j	0x12cc <vector_memcpy_strided_e32m8+0x14>
    1314: 67 80 00 00  	ret

0000000000001318 <vector_memcpy_strided_e32mf2>:
    1318: 93 02 00 01  	addi	t0, zero, 16
    131c: 6f 00 80 02  	j	0x1344 <vector_memcpy_strided_e32mf2+0x2c>
    1320: 87 ec 05 02  	<unknown>
    1324: a7 6c 06 02  	<unknown>
    1328: 93 08 08 00  	mv	a7, a6
    132c: 33 05 15 41  	sub	a0, a0, a7
    1330: 93 96 28 00  	slli	a3, a7, 2
    1334: b3 85 d5 00  	add	a1, a1, a3
    1338: 33 06 d6 00  	add	a2, a2, a3
    133c: 93 36 18 00  	seqz	a3, a6
    1340: 63 9a 06 02  	bnez	a3, 0x1374 <vector_memcpy_strided_e32mf2+0x5c>
    1344: 57 78 75 05  	<unknown>
    1348: e3 0a 08 fe  	beqz	a6, 0x133c <vector_memcpy_strided_e32mf2+0x24>
    134c: 93 18 28 00  	slli	a7, a6, 2
    1350: e3 f8 a8 fc  	bgeu	a7, a0, 0x1320 <vector_memcpy_strided_e32mf2+0x8>
    1354: 13 07 00 00  	mv	a4, zero
    1358: b3 87 e5 00  	add	a5, a1, a4
    135c: b3 06 e6 00  	add	a3, a2, a4
    1360: 87 ec 57 0a  	<unknown>
    1364: 13 07 47 00  	addi	a4, a4, 4
    1368: a7 ec 56 0a  	<unknown>
    136c: e3 16 57 fe  	bne	a4, t0, 0x1358 <vector_memcpy_strided_e32mf2+0x40>
    1370: 6f f0 df fb  	j	0x132c <vector_memcpy_strided_e32mf2+0x14>
    1374: 67 80 00 00  	ret

0000000000001378 <vector_memcpy_strided_e64m2>:
    1378: 93 02 00 02  	addi	t0, zero, 32
    137c: 6f 00 80 02  	j	0x13a4 <vector_memcpy_strided_e64m2+0x2c>
    1380: 07 fd 05 02  	<unknown>
    1384: 27 7d 06 02  	<unknown>
    1388: 93 08 08 00  	mv	a7, a6
    138c: 33 05 15 41  	sub	a0, a0, a7
    1390: 93 96 38 00  	slli	a3, a7, 3
    1394: b3 85 d5 00  	add	a1, a1, a3
    1398: 33 06 d6 00  	add	a2, a2, a3
    139c: 93 36 18 00  	seqz	a3, a6
    13a0: 63 9a 06 02  	bnez	a3, 0x13d4 <vector_memcpy_strided_e64m2+0x5c>
    13a4: 57 78 95 05  	<unknown>
    13a8: e3 0a 08 fe  	beqz	a6, 0x139c <vector_memcpy_strided_e64m2+0x24>
    13ac: 93 18 28 00  	slli	a7, a6, 2
    13b0: e3 f8 a8 fc  	bgeu	a7, a0, 0x1380 <vector_memcpy_strided_e64m2+0x8>
    13b4: 13 07 00 00  	mv	a4, zero
    13b8: b3 87 e5 00  	add	a5, a1, a4
    13bc: b3 06 e6 00  	add	a3, a2, a4
    13c0: 07 fd 57 0a  	<unknown>
    13c4: 13 07 87 00  	addi	a4, a4, 8
    13c8: 27 fd 56 0a  	<unknown>
    13cc: e3 16 57 fe  	bne	a4, t0, 0x13b8 <vector_memcpy_strided_e64m2+0x40>
    13d0: 6f f0 df fb  	j	0x138c <vector_memcpy_strided_e64m2+0x14>
    13d4: 67 80 00 00  	ret

00000000000013d8 <vector_memcpy_indexed_e8m8>:
    13d8: 13 01 01 f8  	addi	sp, sp, -128
    13dc: d7 78 30 04  	<unknown>
    13e0: 23 48 01 06  	sc	cnull, 112(sp)
    13e4: 23 40 01 06  	sc	cnull, 96(sp)
    13e8: 23 48 01 04  	sc	cnull, 80(sp)
    13ec: 23 40 01 04  	sc	cnull, 64(sp)
    13f0: 23 48 01 02  	sc	cnull, 48(sp)
    13f4: 23 40 01 02  	sc	cnull, 32(sp)
    13f8: 23 48 01 00  	sc	cnull, 16(sp)
    13fc: 23 40 01 00  	sc	cnull, 0(sp)
    1400: 63 80 08 02  	beqz	a7, 0x1420 <vector_memcpy_indexed_e8m8+0x48>
    1404: 13 07 00 00  	mv	a4, zero
    1408: 13 08 01 00  	mv	a6, sp
    140c: 93 47 17 00  	xori	a5, a4, 1
    1410: b3 06 e8 00  	add	a3, a6, a4
    1414: 13 07 17 00  	addi	a4, a4, 1
    1418: 23 80 f6 00  	sb	a5, 0(a3)
    141c: e3 98 e8 fe  	bne	a7, a4, 0x140c <vector_memcpy_indexed_e8m8+0x34>
    1420: 13 07 01 00  	mv	a4, sp
    1424: 07 04 07 02  	<unknown>
    1428: 6f 00 00 02  	j	0x1448 <vector_memcpy_indexed_e8m8+0x70>
    142c: 07 88 05 02  	<unknown>
    1430: 27 08 06 02  	<unknown>
    1434: b3 85 e5 00  	add	a1, a1, a4
    1438: 33 06 e6 00  	add	a2, a2, a4
    143c: 33 05 e5 40  	sub	a0, a0, a4
    1440: 93 36 17 00  	seqz	a3, a4
    1444: 63 9e 06 00  	bnez	a3, 0x1460 <vector_memcpy_indexed_e8m8+0x88>
    1448: 57 77 35 04  	<unknown>
    144c: e3 0a 07 fe  	beqz	a4, 0x1440 <vector_memcpy_indexed_e8m8+0x68>
    1450: e3 1e 17 fd  	bne	a4, a7, 0x142c <vector_memcpy_indexed_e8m8+0x54>
    1454: 07 88 85 06  	<unknown>
    1458: 27 08 86 06  	<unknown>
    145c: 6f f0 9f fd  	j	0x1434 <vector_memcpy_indexed_e8m8+0x5c>
    1460: 13 01 01 08  	addi	sp, sp, 128
    1464: 67 80 00 00  	ret

0000000000001468 <vector_memcpy_indexed_e16m8>:
    1468: 13 01 01 ed  	addi	sp, sp, -304
    146c: 23 34 11 12  	sd	ra, 296(sp)
    1470: 23 30 81 12  	sd	s0, 288(sp)
    1474: 23 3c 91 10  	sd	s1, 280(sp)
    1478: 23 38 21 11  	sd	s2, 272(sp)
    147c: 23 34 31 11  	sd	s3, 264(sp)
    1480: 23 30 41 11  	sd	s4, 256(sp)
    1484: 13 09 06 00  	mv	s2, a2
    1488: 13 8a 05 00  	mv	s4, a1
    148c: 13 04 05 00  	mv	s0, a0
    1490: d7 79 b0 04  	<unknown>
    1494: 13 05 01 00  	mv	a0, sp
    1498: 13 06 00 10  	addi	a2, zero, 256
    149c: 93 04 01 00  	mv	s1, sp
    14a0: 93 05 00 00  	mv	a1, zero
    14a4: 97 f0 ff ff  	auipc	ra, 1048575
    14a8: e7 80 00 b7  	jalr	-1168(ra)
    14ac: 63 80 09 02  	beqz	s3, 0x14cc <vector_memcpy_indexed_e16m8+0x64>
    14b0: 13 05 00 00  	mv	a0, zero
    14b4: 93 15 15 00  	slli	a1, a0, 1
    14b8: 93 c5 25 00  	xori	a1, a1, 2
    14bc: 23 90 b4 00  	sh	a1, 0(s1)
    14c0: 13 05 15 00  	addi	a0, a0, 1
    14c4: 93 84 24 00  	addi	s1, s1, 2
    14c8: e3 96 a9 fe  	bne	s3, a0, 0x14b4 <vector_memcpy_indexed_e16m8+0x4c>
    14cc: 13 05 01 00  	mv	a0, sp
    14d0: 07 54 05 02  	<unknown>
    14d4: 6f 00 40 02  	j	0x14f8 <vector_memcpy_indexed_e16m8+0x90>
    14d8: 07 58 0a 02  	<unknown>
    14dc: 27 58 09 02  	<unknown>
    14e0: 93 15 15 00  	slli	a1, a0, 1
    14e4: 33 0a ba 00  	add	s4, s4, a1
    14e8: 33 09 b9 00  	add	s2, s2, a1
    14ec: 33 04 a4 40  	sub	s0, s0, a0
    14f0: 13 35 15 00  	seqz	a0, a0
    14f4: 63 1e 05 00  	bnez	a0, 0x1510 <vector_memcpy_indexed_e16m8+0xa8>
    14f8: 57 75 b4 04  	<unknown>
    14fc: e3 0a 05 fe  	beqz	a0, 0x14f0 <vector_memcpy_indexed_e16m8+0x88>
    1500: e3 1c 35 fd  	bne	a0, s3, 0x14d8 <vector_memcpy_indexed_e16m8+0x70>
    1504: 07 58 8a 06  	<unknown>
    1508: 27 58 89 06  	<unknown>
    150c: 6f f0 5f fd  	j	0x14e0 <vector_memcpy_indexed_e16m8+0x78>
    1510: 03 3a 01 10  	ld	s4, 256(sp)
    1514: 83 39 81 10  	ld	s3, 264(sp)
    1518: 03 39 01 11  	ld	s2, 272(sp)
    151c: 83 34 81 11  	ld	s1, 280(sp)
    1520: 03 34 01 12  	ld	s0, 288(sp)
    1524: 83 30 81 12  	ld	ra, 296(sp)
    1528: 13 01 01 13  	addi	sp, sp, 304
    152c: 67 80 00 00  	ret

0000000000001530 <vector_memcpy_indexed_e32m8>:
    1530: 13 01 01 dd  	addi	sp, sp, -560
    1534: 23 34 11 22  	sd	ra, 552(sp)
    1538: 23 30 81 22  	sd	s0, 544(sp)
    153c: 23 3c 91 20  	sd	s1, 536(sp)
    1540: 23 38 21 21  	sd	s2, 528(sp)
    1544: 23 34 31 21  	sd	s3, 520(sp)
    1548: 23 30 41 21  	sd	s4, 512(sp)
    154c: 13 09 06 00  	mv	s2, a2
    1550: 13 8a 05 00  	mv	s4, a1
    1554: 13 04 05 00  	mv	s0, a0
    1558: d7 79 30 05  	<unknown>
    155c: 13 05 01 00  	mv	a0, sp
    1560: 13 06 00 20  	addi	a2, zero, 512
    1564: 93 04 01 00  	mv	s1, sp
    1568: 93 05 00 00  	mv	a1, zero
    156c: 97 f0 ff ff  	auipc	ra, 1048575
    1570: e7 80 80 aa  	jalr	-1368(ra)
    1574: 63 80 09 02  	beqz	s3, 0x1594 <vector_memcpy_indexed_e32m8+0x64>
    1578: 13 05 00 00  	mv	a0, zero
    157c: 93 15 25 00  	slli	a1, a0, 2
    1580: 93 c5 45 00  	xori	a1, a1, 4
    1584: 23 a0 b4 00  	sw	a1, 0(s1)
    1588: 13 05 15 00  	addi	a0, a0, 1
    158c: 93 84 44 00  	addi	s1, s1, 4
    1590: e3 96 a9 fe  	bne	s3, a0, 0x157c <vector_memcpy_indexed_e32m8+0x4c>
    1594: 13 05 01 00  	mv	a0, sp
    1598: 07 64 05 02  	<unknown>
    159c: 6f 00 40 02  	j	0x15c0 <vector_memcpy_indexed_e32m8+0x90>
    15a0: 07 68 0a 02  	<unknown>
    15a4: 27 68 09 02  	<unknown>
    15a8: 93 15 25 00  	slli	a1, a0, 2
    15ac: 33 0a ba 00  	add	s4, s4, a1
    15b0: 33 09 b9 00  	add	s2, s2, a1
    15b4: 33 04 a4 40  	sub	s0, s0, a0
    15b8: 13 35 15 00  	seqz	a0, a0
    15bc: 63 1e 05 00  	bnez	a0, 0x15d8 <vector_memcpy_indexed_e32m8+0xa8>
    15c0: 57 75 34 05  	<unknown>
    15c4: e3 0a 05 fe  	beqz	a0, 0x15b8 <vector_memcpy_indexed_e32m8+0x88>
    15c8: e3 1c 35 fd  	bne	a0, s3, 0x15a0 <vector_memcpy_indexed_e32m8+0x70>
    15cc: 07 68 8a 06  	<unknown>
    15d0: 27 68 89 06  	<unknown>
    15d4: 6f f0 5f fd  	j	0x15a8 <vector_memcpy_indexed_e32m8+0x78>
    15d8: 03 3a 01 20  	ld	s4, 512(sp)
    15dc: 83 39 81 20  	ld	s3, 520(sp)
    15e0: 03 39 01 21  	ld	s2, 528(sp)
    15e4: 83 34 81 21  	ld	s1, 536(sp)
    15e8: 03 34 01 22  	ld	s0, 544(sp)
    15ec: 83 30 81 22  	ld	ra, 552(sp)
    15f0: 13 01 01 23  	addi	sp, sp, 560
    15f4: 67 80 00 00  	ret

00000000000015f8 <vector_memcpy_indexed_e32mf2>:
    15f8: 13 01 01 dd  	addi	sp, sp, -560
    15fc: 23 34 11 22  	sd	ra, 552(sp)
    1600: 23 30 81 22  	sd	s0, 544(sp)
    1604: 23 3c 91 20  	sd	s1, 536(sp)
    1608: 23 38 21 21  	sd	s2, 528(sp)
    160c: 23 34 31 21  	sd	s3, 520(sp)
    1610: 23 30 41 21  	sd	s4, 512(sp)
    1614: 13 09 06 00  	mv	s2, a2
    1618: 13 8a 05 00  	mv	s4, a1
    161c: 13 04 05 00  	mv	s0, a0
    1620: d7 79 70 05  	<unknown>
    1624: 13 05 01 00  	mv	a0, sp
    1628: 13 06 00 20  	addi	a2, zero, 512
    162c: 93 04 01 00  	mv	s1, sp
    1630: 93 05 00 00  	mv	a1, zero
    1634: 97 f0 ff ff  	auipc	ra, 1048575
    1638: e7 80 00 9e  	jalr	-1568(ra)
    163c: 63 80 09 02  	beqz	s3, 0x165c <vector_memcpy_indexed_e32mf2+0x64>
    1640: 13 05 00 00  	mv	a0, zero
    1644: 93 15 25 00  	slli	a1, a0, 2
    1648: 93 c5 45 00  	xori	a1, a1, 4
    164c: 23 a0 b4 00  	sw	a1, 0(s1)
    1650: 13 05 15 00  	addi	a0, a0, 1
    1654: 93 84 44 00  	addi	s1, s1, 4
    1658: e3 96 a9 fe  	bne	s3, a0, 0x1644 <vector_memcpy_indexed_e32mf2+0x4c>
    165c: 13 05 01 00  	mv	a0, sp
    1660: 87 6c 05 02  	<unknown>
    1664: 6f 00 40 02  	j	0x1688 <vector_memcpy_indexed_e32mf2+0x90>
    1668: 07 6d 0a 02  	<unknown>
    166c: 27 6d 09 02  	<unknown>
    1670: 93 15 25 00  	slli	a1, a0, 2
    1674: 33 0a ba 00  	add	s4, s4, a1
    1678: 33 09 b9 00  	add	s2, s2, a1
    167c: 33 04 a4 40  	sub	s0, s0, a0
    1680: 13 35 15 00  	seqz	a0, a0
    1684: 63 1e 05 00  	bnez	a0, 0x16a0 <vector_memcpy_indexed_e32mf2+0xa8>
    1688: 57 75 74 05  	<unknown>
    168c: e3 0a 05 fe  	beqz	a0, 0x1680 <vector_memcpy_indexed_e32mf2+0x88>
    1690: e3 1c 35 fd  	bne	a0, s3, 0x1668 <vector_memcpy_indexed_e32mf2+0x70>
    1694: 07 6d 9a 07  	<unknown>
    1698: 27 6d 99 07  	<unknown>
    169c: 6f f0 5f fd  	j	0x1670 <vector_memcpy_indexed_e32mf2+0x78>
    16a0: 03 3a 01 20  	ld	s4, 512(sp)
    16a4: 83 39 81 20  	ld	s3, 520(sp)
    16a8: 03 39 01 21  	ld	s2, 528(sp)
    16ac: 83 34 81 21  	ld	s1, 536(sp)
    16b0: 03 34 01 22  	ld	s0, 544(sp)
    16b4: 83 30 81 22  	ld	ra, 552(sp)
    16b8: 13 01 01 23  	addi	sp, sp, 560
    16bc: 67 80 00 00  	ret

00000000000016c0 <vector_memcpy_indexed_e64m2>:
    16c0: 13 01 01 bc  	addi	sp, sp, -1088
    16c4: 23 3c 11 42  	sd	ra, 1080(sp)
    16c8: 23 38 81 42  	sd	s0, 1072(sp)
    16cc: 23 34 91 42  	sd	s1, 1064(sp)
    16d0: 23 30 21 43  	sd	s2, 1056(sp)
    16d4: 23 3c 31 41  	sd	s3, 1048(sp)
    16d8: 23 38 41 41  	sd	s4, 1040(sp)
    16dc: 13 09 06 00  	mv	s2, a2
    16e0: 93 84 05 00  	mv	s1, a1
    16e4: 13 04 05 00  	mv	s0, a0
    16e8: d7 79 90 05  	<unknown>
    16ec: 13 05 01 01  	addi	a0, sp, 16
    16f0: 13 06 00 40  	addi	a2, zero, 1024
    16f4: 13 0a 01 01  	addi	s4, sp, 16
    16f8: 93 05 00 00  	mv	a1, zero
    16fc: 97 f0 ff ff  	auipc	ra, 1048575
    1700: e7 80 80 91  	jalr	-1768(ra)
    1704: 63 80 09 02  	beqz	s3, 0x1724 <vector_memcpy_indexed_e64m2+0x64>
    1708: 13 05 00 00  	mv	a0, zero
    170c: 93 95 39 00  	slli	a1, s3, 3
    1710: 13 46 85 00  	xori	a2, a0, 8
    1714: b3 06 aa 00  	add	a3, s4, a0
    1718: 13 05 85 00  	addi	a0, a0, 8
    171c: 23 b0 c6 00  	sd	a2, 0(a3)
    1720: e3 98 a5 fe  	bne	a1, a0, 0x1710 <vector_memcpy_indexed_e64m2+0x50>
    1724: 07 7d 0a 02  	<unknown>
    1728: 6f 00 40 02  	j	0x174c <vector_memcpy_indexed_e64m2+0x8c>
    172c: 07 fe 04 02  	<unknown>
    1730: 27 7e 09 02  	<unknown>
    1734: 93 15 35 00  	slli	a1, a0, 3
    1738: b3 84 b4 00  	add	s1, s1, a1
    173c: 33 09 b9 00  	add	s2, s2, a1
    1740: 33 04 a4 40  	sub	s0, s0, a0
    1744: 13 35 15 00  	seqz	a0, a0
    1748: 63 1e 05 00  	bnez	a0, 0x1764 <vector_memcpy_indexed_e64m2+0xa4>
    174c: 57 75 94 05  	<unknown>
    1750: e3 0a 05 fe  	beqz	a0, 0x1744 <vector_memcpy_indexed_e64m2+0x84>
    1754: e3 1c 35 fd  	bne	a0, s3, 0x172c <vector_memcpy_indexed_e64m2+0x6c>
    1758: 07 fe a4 07  	<unknown>
    175c: 27 7e a9 07  	<unknown>
    1760: 6f f0 5f fd  	j	0x1734 <vector_memcpy_indexed_e64m2+0x74>
    1764: 03 3a 01 41  	ld	s4, 1040(sp)
    1768: 83 39 81 41  	ld	s3, 1048(sp)
    176c: 03 39 01 42  	ld	s2, 1056(sp)
    1770: 83 34 81 42  	ld	s1, 1064(sp)
    1774: 03 34 01 43  	ld	s0, 1072(sp)
    1778: 83 30 81 43  	ld	ra, 1080(sp)
    177c: 13 01 01 44  	addi	sp, sp, 1088
    1780: 67 80 00 00  	ret

0000000000001784 <vector_memcpy_masked_e32m8>:
    1784: 13 01 01 dd  	addi	sp, sp, -560
    1788: 23 34 11 22  	sd	ra, 552(sp)
    178c: 23 30 81 22  	sd	s0, 544(sp)
    1790: 23 3c 91 20  	sd	s1, 536(sp)
    1794: 23 38 21 21  	sd	s2, 528(sp)
    1798: 23 34 31 21  	sd	s3, 520(sp)
    179c: 13 09 06 00  	mv	s2, a2
    17a0: 93 89 05 00  	mv	s3, a1
    17a4: 13 04 05 00  	mv	s0, a0
    17a8: 13 05 81 00  	addi	a0, sp, 8
    17ac: 13 06 00 20  	addi	a2, zero, 512
    17b0: 93 04 81 00  	addi	s1, sp, 8
    17b4: 93 05 00 00  	mv	a1, zero
    17b8: 97 f0 ff ff  	auipc	ra, 1048575
    17bc: e7 80 c0 85  	jalr	-1956(ra)
    17c0: 57 75 30 05  	<unknown>
    17c4: 63 0e 05 00  	beqz	a0, 0x17e0 <vector_memcpy_masked_e32m8+0x5c>
    17c8: 93 05 00 00  	mv	a1, zero
    17cc: 13 f6 15 00  	andi	a2, a1, 1
    17d0: 23 a0 c4 00  	sw	a2, 0(s1)
    17d4: 93 85 15 00  	addi	a1, a1, 1
    17d8: 93 84 44 00  	addi	s1, s1, 4
    17dc: e3 18 b5 fe  	bne	a0, a1, 0x17cc <vector_memcpy_masked_e32m8+0x48>
    17e0: 93 05 81 00  	addi	a1, sp, 8
    17e4: 07 e4 05 02  	<unknown>
    17e8: 57 70 35 05  	<unknown>
    17ec: d7 bc 80 62  	<unknown>
    17f0: 57 75 00 04  	<unknown>
    17f4: 57 80 0c 5e  	<unknown>
    17f8: 6f 00 c0 00  	j	0x1804 <vector_memcpy_masked_e32m8+0x80>
    17fc: 13 35 15 00  	seqz	a0, a0
    1800: 63 14 05 02  	bnez	a0, 0x1828 <vector_memcpy_masked_e32m8+0xa4>
    1804: 57 75 34 05  	<unknown>
    1808: e3 0a 05 fe  	beqz	a0, 0x17fc <vector_memcpy_masked_e32m8+0x78>
    180c: 07 e4 09 00  	<unknown>
    1810: 27 64 09 00  	<unknown>
    1814: 93 15 25 00  	slli	a1, a0, 2
    1818: b3 89 b9 00  	add	s3, s3, a1
    181c: 33 09 b9 00  	add	s2, s2, a1
    1820: 33 04 a4 40  	sub	s0, s0, a0
    1824: 6f f0 9f fd  	j	0x17fc <vector_memcpy_masked_e32m8+0x78>
    1828: 83 39 81 20  	ld	s3, 520(sp)
    182c: 03 39 01 21  	ld	s2, 528(sp)
    1830: 83 34 81 21  	ld	s1, 536(sp)
    1834: 03 34 01 22  	ld	s0, 544(sp)
    1838: 83 30 81 22  	ld	ra, 552(sp)
    183c: 13 01 01 23  	addi	sp, sp, 560
    1840: 67 80 00 00  	ret

0000000000001844 <vector_memcpy_segmented_e8m2>:
    1844: 93 08 00 02  	addi	a7, zero, 32
    1848: 6f 00 c0 00  	j	0x1854 <vector_memcpy_segmented_e8m2+0x10>
    184c: 93 b6 12 00  	seqz	a3, t0
    1850: 63 9e 06 04  	bnez	a3, 0x18ac <vector_memcpy_segmented_e8m2+0x68>
    1854: d7 72 15 04  	<unknown>
    1858: e3 8a 02 fe  	beqz	t0, 0x184c <vector_memcpy_segmented_e8m2+0x8>
    185c: 07 82 05 62  	<unknown>
    1860: 83 37 06 00  	ld	a5, 0(a2)
    1864: 27 82 07 02  	<unknown>
    1868: 83 37 86 00  	ld	a5, 8(a2)
    186c: 27 83 07 02  	<unknown>
    1870: 83 37 06 01  	ld	a5, 16(a2)
    1874: 27 84 07 02  	<unknown>
    1878: 03 38 86 01  	ld	a6, 24(a2)
    187c: 93 07 00 00  	mv	a5, zero
    1880: 27 05 08 02  	<unknown>
    1884: 13 98 22 00  	slli	a6, t0, 2
    1888: b3 06 f6 00  	add	a3, a2, a5
    188c: 03 b7 06 00  	ld	a4, 0(a3)
    1890: 33 07 57 00  	add	a4, a4, t0
    1894: 93 87 87 00  	addi	a5, a5, 8
    1898: 23 b0 e6 00  	sd	a4, 0(a3)
    189c: e3 96 17 ff  	bne	a5, a7, 0x1888 <vector_memcpy_segmented_e8m2+0x44>
    18a0: b3 85 05 01  	add	a1, a1, a6
    18a4: 33 05 55 40  	sub	a0, a0, t0
    18a8: 6f f0 5f fa  	j	0x184c <vector_memcpy_segmented_e8m2+0x8>
    18ac: 67 80 00 00  	ret

00000000000018b0 <vector_memcpy_segmented_e16m2>:
    18b0: 93 08 00 02  	addi	a7, zero, 32
    18b4: 6f 00 c0 00  	j	0x18c0 <vector_memcpy_segmented_e16m2+0x10>
    18b8: 93 b6 12 00  	seqz	a3, t0
    18bc: 63 92 06 06  	bnez	a3, 0x1920 <vector_memcpy_segmented_e16m2+0x70>
    18c0: d7 72 95 04  	<unknown>
    18c4: e3 8a 02 fe  	beqz	t0, 0x18b8 <vector_memcpy_segmented_e16m2+0x8>
    18c8: 07 d2 05 62  	<unknown>
    18cc: 83 37 06 00  	ld	a5, 0(a2)
    18d0: 27 d2 07 02  	<unknown>
    18d4: 83 37 86 00  	ld	a5, 8(a2)
    18d8: 27 d3 07 02  	<unknown>
    18dc: 83 37 06 01  	ld	a5, 16(a2)
    18e0: 27 d4 07 02  	<unknown>
    18e4: 03 38 86 01  	ld	a6, 24(a2)
    18e8: 93 07 00 00  	mv	a5, zero
    18ec: 27 55 08 02  	<unknown>
    18f0: 13 98 22 00  	slli	a6, t0, 2
    18f4: b3 06 f6 00  	add	a3, a2, a5
    18f8: 03 b3 06 00  	ld	t1, 0(a3)
    18fc: 13 97 12 00  	slli	a4, t0, 1
    1900: 33 07 e3 00  	add	a4, t1, a4
    1904: 93 87 87 00  	addi	a5, a5, 8
    1908: 23 b0 e6 00  	sd	a4, 0(a3)
    190c: e3 94 17 ff  	bne	a5, a7, 0x18f4 <vector_memcpy_segmented_e16m2+0x44>
    1910: 93 17 18 00  	slli	a5, a6, 1
    1914: b3 85 f5 00  	add	a1, a1, a5
    1918: 33 05 55 40  	sub	a0, a0, t0
    191c: 6f f0 df f9  	j	0x18b8 <vector_memcpy_segmented_e16m2+0x8>
    1920: 67 80 00 00  	ret

0000000000001924 <vector_memcpy_segmented_e32m2>:
    1924: 93 08 00 02  	addi	a7, zero, 32
    1928: 6f 00 c0 00  	j	0x1934 <vector_memcpy_segmented_e32m2+0x10>
    192c: 93 36 18 00  	seqz	a3, a6
    1930: 63 90 06 06  	bnez	a3, 0x1990 <vector_memcpy_segmented_e32m2+0x6c>
    1934: 57 78 15 05  	<unknown>
    1938: e3 0a 08 fe  	beqz	a6, 0x192c <vector_memcpy_segmented_e32m2+0x8>
    193c: 07 e2 05 62  	<unknown>
    1940: 03 37 06 00  	ld	a4, 0(a2)
    1944: 27 62 07 02  	<unknown>
    1948: 03 37 86 00  	ld	a4, 8(a2)
    194c: 27 63 07 02  	<unknown>
    1950: 03 37 06 01  	ld	a4, 16(a2)
    1954: 27 64 07 02  	<unknown>
    1958: 83 37 86 01  	ld	a5, 24(a2)
    195c: 13 07 00 00  	mv	a4, zero
    1960: 27 e5 07 02  	<unknown>
    1964: 93 12 28 00  	slli	t0, a6, 2
    1968: b3 06 e6 00  	add	a3, a2, a4
    196c: 83 b7 06 00  	ld	a5, 0(a3)
    1970: b3 87 57 00  	add	a5, a5, t0
    1974: 13 07 87 00  	addi	a4, a4, 8
    1978: 23 b0 f6 00  	sd	a5, 0(a3)
    197c: e3 16 17 ff  	bne	a4, a7, 0x1968 <vector_memcpy_segmented_e32m2+0x44>
    1980: 13 97 22 00  	slli	a4, t0, 2
    1984: b3 85 e5 00  	add	a1, a1, a4
    1988: 33 05 05 41  	sub	a0, a0, a6
    198c: 6f f0 1f fa  	j	0x192c <vector_memcpy_segmented_e32m2+0x8>
    1990: 67 80 00 00  	ret

0000000000001994 <vector_memcpy_segmented_e32mf2>:
    1994: 93 08 00 02  	addi	a7, zero, 32
    1998: 6f 00 c0 00  	j	0x19a4 <vector_memcpy_segmented_e32mf2+0x10>
    199c: 93 36 18 00  	seqz	a3, a6
    19a0: 63 90 06 06  	bnez	a3, 0x1a00 <vector_memcpy_segmented_e32mf2+0x6c>
    19a4: 57 78 75 05  	<unknown>
    19a8: e3 0a 08 fe  	beqz	a6, 0x199c <vector_memcpy_segmented_e32mf2+0x8>
    19ac: 07 e2 05 62  	<unknown>
    19b0: 03 37 06 00  	ld	a4, 0(a2)
    19b4: 27 62 07 02  	<unknown>
    19b8: 03 37 86 00  	ld	a4, 8(a2)
    19bc: a7 62 07 02  	<unknown>
    19c0: 03 37 06 01  	ld	a4, 16(a2)
    19c4: 27 63 07 02  	<unknown>
    19c8: 83 37 86 01  	ld	a5, 24(a2)
    19cc: 13 07 00 00  	mv	a4, zero
    19d0: a7 e3 07 02  	<unknown>
    19d4: 93 12 28 00  	slli	t0, a6, 2
    19d8: b3 06 e6 00  	add	a3, a2, a4
    19dc: 83 b7 06 00  	ld	a5, 0(a3)
    19e0: b3 87 57 00  	add	a5, a5, t0
    19e4: 13 07 87 00  	addi	a4, a4, 8
    19e8: 23 b0 f6 00  	sd	a5, 0(a3)
    19ec: e3 16 17 ff  	bne	a4, a7, 0x19d8 <vector_memcpy_segmented_e32mf2+0x44>
    19f0: 13 97 22 00  	slli	a4, t0, 2
    19f4: b3 85 e5 00  	add	a1, a1, a4
    19f8: 33 05 05 41  	sub	a0, a0, a6
    19fc: 6f f0 1f fa  	j	0x199c <vector_memcpy_segmented_e32mf2+0x8>
    1a00: 67 80 00 00  	ret

0000000000001a04 <vector_memcpy_segmented_e64m2>:
    1a04: 93 08 00 02  	addi	a7, zero, 32
    1a08: 6f 00 c0 00  	j	0x1a14 <vector_memcpy_segmented_e64m2+0x10>
    1a0c: 93 b6 12 00  	seqz	a3, t0
    1a10: 63 92 06 06  	bnez	a3, 0x1a74 <vector_memcpy_segmented_e64m2+0x70>
    1a14: d7 72 95 05  	<unknown>
    1a18: e3 8a 02 fe  	beqz	t0, 0x1a0c <vector_memcpy_segmented_e64m2+0x8>
    1a1c: 07 f2 05 62  	<unknown>
    1a20: 83 37 06 00  	ld	a5, 0(a2)
    1a24: 27 f2 07 02  	<unknown>
    1a28: 83 37 86 00  	ld	a5, 8(a2)
    1a2c: 27 f3 07 02  	<unknown>
    1a30: 83 37 06 01  	ld	a5, 16(a2)
    1a34: 27 f4 07 02  	<unknown>
    1a38: 03 38 86 01  	ld	a6, 24(a2)
    1a3c: 93 07 00 00  	mv	a5, zero
    1a40: 27 75 08 02  	<unknown>
    1a44: 13 98 22 00  	slli	a6, t0, 2
    1a48: b3 06 f6 00  	add	a3, a2, a5
    1a4c: 03 b3 06 00  	ld	t1, 0(a3)
    1a50: 13 97 32 00  	slli	a4, t0, 3
    1a54: 33 07 e3 00  	add	a4, t1, a4
    1a58: 93 87 87 00  	addi	a5, a5, 8
    1a5c: 23 b0 e6 00  	sd	a4, 0(a3)
    1a60: e3 94 17 ff  	bne	a5, a7, 0x1a48 <vector_memcpy_segmented_e64m2+0x44>
    1a64: 93 17 38 00  	slli	a5, a6, 3
    1a68: b3 85 f5 00  	add	a1, a1, a5
    1a6c: 33 05 55 40  	sub	a0, a0, t0
    1a70: 6f f0 df f9  	j	0x1a0c <vector_memcpy_segmented_e64m2+0x8>
    1a74: 67 80 00 00  	ret

0000000000001a78 <main>:
    1a78: 13 01 01 ff  	addi	sp, sp, -16
    1a7c: 23 34 11 00  	sd	ra, 8(sp)
    1a80: 23 30 81 00  	sd	s0, 0(sp)
    1a84: 37 15 00 00  	lui	a0, 1
    1a88: 13 05 c5 0f  	addi	a0, a0, 252
    1a8c: 97 e0 ff ff  	auipc	ra, 1048574
    1a90: e7 80 40 5a  	jalr	1444(ra)
    1a94: 13 04 05 00  	mv	s0, a0
    1a98: 37 15 00 00  	lui	a0, 1
    1a9c: 13 05 c5 12  	addi	a0, a0, 300
    1aa0: 97 e0 ff ff  	auipc	ra, 1048574
    1aa4: e7 80 c0 69  	jalr	1692(ra)
    1aa8: 13 15 15 00  	slli	a0, a0, 1
    1aac: 33 64 85 00  	or	s0, a0, s0
    1ab0: 37 15 00 00  	lui	a0, 1
    1ab4: 13 05 05 16  	addi	a0, a0, 352
    1ab8: 97 e0 ff ff  	auipc	ra, 1048574
    1abc: e7 80 80 79  	jalr	1944(ra)
    1ac0: 13 15 25 00  	slli	a0, a0, 2
    1ac4: 33 64 a4 00  	or	s0, s0, a0
    1ac8: 37 15 00 00  	lui	a0, 1
    1acc: 13 05 45 19  	addi	a0, a0, 404
    1ad0: 97 e0 ff ff  	auipc	ra, 1048574
    1ad4: e7 80 00 78  	jalr	1920(ra)
    1ad8: 13 15 35 00  	slli	a0, a0, 3
    1adc: 33 64 a4 00  	or	s0, s0, a0
    1ae0: 37 15 00 00  	lui	a0, 1
    1ae4: 13 05 85 1c  	addi	a0, a0, 456
    1ae8: 97 f0 ff ff  	auipc	ra, 1048575
    1aec: e7 80 c0 86  	jalr	-1940(ra)
    1af0: 13 15 45 00  	slli	a0, a0, 4
    1af4: 33 64 a4 00  	or	s0, s0, a0
    1af8: 37 15 00 00  	lui	a0, 1
    1afc: 13 05 c5 1f  	addi	a0, a0, 508
    1b00: 97 e0 ff ff  	auipc	ra, 1048574
    1b04: e7 80 00 53  	jalr	1328(ra)
    1b08: 13 15 55 00  	slli	a0, a0, 5
    1b0c: 33 64 a4 00  	or	s0, s0, a0
    1b10: 37 15 00 00  	lui	a0, 1
    1b14: 13 05 85 25  	addi	a0, a0, 600
    1b18: 97 e0 ff ff  	auipc	ra, 1048574
    1b1c: e7 80 40 62  	jalr	1572(ra)
    1b20: 13 15 65 00  	slli	a0, a0, 6
    1b24: 33 64 a4 00  	or	s0, s0, a0
    1b28: 37 15 00 00  	lui	a0, 1
    1b2c: 13 05 85 2b  	addi	a0, a0, 696
    1b30: 97 e0 ff ff  	auipc	ra, 1048574
    1b34: e7 80 00 72  	jalr	1824(ra)
    1b38: 13 15 75 00  	slli	a0, a0, 7
    1b3c: 33 64 a4 00  	or	s0, s0, a0
    1b40: 37 15 00 00  	lui	a0, 1
    1b44: 13 05 85 31  	addi	a0, a0, 792
    1b48: 97 e0 ff ff  	auipc	ra, 1048574
    1b4c: e7 80 80 70  	jalr	1800(ra)
    1b50: 13 15 85 00  	slli	a0, a0, 8
    1b54: 33 64 a4 00  	or	s0, s0, a0
    1b58: 37 15 00 00  	lui	a0, 1
    1b5c: 13 05 85 37  	addi	a0, a0, 888
    1b60: 97 e0 ff ff  	auipc	ra, 1048574
    1b64: e7 80 40 7f  	jalr	2036(ra)
    1b68: 13 15 95 00  	slli	a0, a0, 9
    1b6c: 33 64 a4 00  	or	s0, s0, a0
    1b70: 37 15 00 00  	lui	a0, 1
    1b74: 13 05 85 3d  	addi	a0, a0, 984
    1b78: 97 e0 ff ff  	auipc	ra, 1048574
    1b7c: e7 80 80 4b  	jalr	1208(ra)
    1b80: 13 15 a5 00  	slli	a0, a0, 10
    1b84: 33 64 a4 00  	or	s0, s0, a0
    1b88: 37 15 00 00  	lui	a0, 1
    1b8c: 13 05 85 46  	addi	a0, a0, 1128
    1b90: 97 e0 ff ff  	auipc	ra, 1048574
    1b94: e7 80 c0 5a  	jalr	1452(ra)
    1b98: 13 15 b5 00  	slli	a0, a0, 11
    1b9c: 33 64 a4 00  	or	s0, s0, a0
    1ba0: 37 15 00 00  	lui	a0, 1
    1ba4: 13 05 05 53  	addi	a0, a0, 1328
    1ba8: 97 e0 ff ff  	auipc	ra, 1048574
    1bac: e7 80 80 6a  	jalr	1704(ra)
    1bb0: 13 15 c5 00  	slli	a0, a0, 12
    1bb4: 33 64 a4 00  	or	s0, s0, a0
    1bb8: 37 15 00 00  	lui	a0, 1
    1bbc: 13 05 85 5f  	addi	a0, a0, 1528
    1bc0: 97 e0 ff ff  	auipc	ra, 1048574
    1bc4: e7 80 00 69  	jalr	1680(ra)
    1bc8: 13 15 d5 00  	slli	a0, a0, 13
    1bcc: 33 64 a4 00  	or	s0, s0, a0
    1bd0: 37 15 00 00  	lui	a0, 1
    1bd4: 13 05 05 6c  	addi	a0, a0, 1728
    1bd8: 97 e0 ff ff  	auipc	ra, 1048574
    1bdc: e7 80 c0 77  	jalr	1916(ra)
    1be0: 13 15 e5 00  	slli	a0, a0, 14
    1be4: 33 64 a4 00  	or	s0, s0, a0
    1be8: 37 15 00 00  	lui	a0, 1
    1bec: 13 05 45 78  	addi	a0, a0, 1924
    1bf0: 97 f0 ff ff  	auipc	ra, 1048575
    1bf4: e7 80 c0 ac  	jalr	-1332(ra)
    1bf8: 13 15 f5 00  	slli	a0, a0, 15
    1bfc: 33 64 a4 00  	or	s0, s0, a0
    1c00: 37 25 00 00  	lui	a0, 2
    1c04: 13 05 45 84  	addi	a0, a0, -1980
    1c08: 97 f0 ff ff  	auipc	ra, 1048575
    1c0c: e7 80 c0 d0  	jalr	-756(ra)
    1c10: 13 15 15 01  	slli	a0, a0, 17
    1c14: 33 64 a4 00  	or	s0, s0, a0
    1c18: 37 25 00 00  	lui	a0, 2
    1c1c: 13 05 05 8b  	addi	a0, a0, -1872
    1c20: 97 f0 ff ff  	auipc	ra, 1048575
    1c24: e7 80 80 eb  	jalr	-328(ra)
    1c28: 13 15 25 01  	slli	a0, a0, 18
    1c2c: 33 64 a4 00  	or	s0, s0, a0
    1c30: 37 25 00 00  	lui	a0, 2
    1c34: 13 05 45 92  	addi	a0, a0, -1756
    1c38: 97 f0 ff ff  	auipc	ra, 1048575
    1c3c: e7 80 80 0a  	jalr	168(ra)
    1c40: 13 15 35 01  	slli	a0, a0, 19
    1c44: 33 64 a4 00  	or	s0, s0, a0
    1c48: 37 25 00 00  	lui	a0, 2
    1c4c: 13 05 45 99  	addi	a0, a0, -1644
    1c50: 97 f0 ff ff  	auipc	ra, 1048575
    1c54: e7 80 00 09  	jalr	144(ra)
    1c58: 13 15 45 01  	slli	a0, a0, 20
    1c5c: 33 64 a4 00  	or	s0, s0, a0
    1c60: 37 25 00 00  	lui	a0, 2
    1c64: 13 05 45 a0  	addi	a0, a0, -1532
    1c68: 97 f0 ff ff  	auipc	ra, 1048575
    1c6c: e7 80 c0 2c  	jalr	716(ra)
    1c70: 13 15 55 01  	slli	a0, a0, 21
    1c74: 33 65 a4 00  	or	a0, s0, a0
    1c78: b7 05 00 01  	lui	a1, 4096
    1c7c: 37 06 3f 00  	lui	a2, 1008
    1c80: 1b 06 f6 ff  	addiw	a2, a2, -1
    1c84: 23 b0 c5 00  	sd	a2, 0(a1)
    1c88: b7 05 00 01  	lui	a1, 4096
    1c8c: 23 b4 a5 00  	sd	a0, 8(a1)
    1c90: 13 05 00 00  	mv	a0, zero
    1c94: 03 34 01 00  	ld	s0, 0(sp)
    1c98: 83 30 81 00  	ld	ra, 8(sp)
    1c9c: 13 01 01 01  	addi	sp, sp, 16
    1ca0: 67 80 00 00  	ret
