
/media/common/University/Edu/Year4_Masters/Project/riscv-v-lite/programs/build/gcc-rv64imv/vector_memcpy_pointers/vector_memcpy_pointers.elf:     file format elf64-littleriscv

Contents of section .text.init:
 0000 17010100 130101fe ef008028 6f000000  ...........(o...
Contents of section .text:
 0010 93f5f50f 630c0600 93070500 3306a600  ....c.......3...
 0020 2380b700 93871700 e39cc7fe 67800000  #...........g...
 0030 63000602 3306c500 93070500 03c70500  c...3...........
 0040 2380e700 93871700 93851500 e318f6fe  #...............
 0050 67800000 63040602 d7773600 57f73700  g...c....w6.W.7.
 0060 07840502 57f73700 27040502 b385f500  ....W.7.'.......
 0070 3305f500 3306f640 e31006fe 67800000  3...3..@....g...
 0080 130101da 233c1124 23388124 23349124  ....#<.$#8.$#4.$
 0090 37e3ffff 33016100 93060037 03b30600  7...3.a....7....
 00a0 83b88600 03b80601 03b58601 83b50602  ................
 00b0 03b68602 03b70603 83b78603 372e0000  ............7...
 00c0 930e0e20 b38e2e00 23b06e00 13030e00  ... ....#.n.....
 00d0 130e8e20 330e2e00 23301e01 93080300  ... 3...#0......
 00e0 13030321 33032300 23300301 13880800  ...!3.#.#0......
 00f0 93888821 b3882800 23b0a800 13050800  ...!..(.#.......
 0100 13080822 33082800 2330b800 93050500  ..."3.(.#0......
 0110 13058522 33052500 2330c500 13860500  ..."3.%.#0......
 0120 93850523 b3852500 23b0e500 13070600  ...#..%.#.......
 0130 13068623 33062600 2330f600 93870604  ...#3.&.#0......
 0140 3307e100 93860624 03b80700 03b58700  3......$........
 0150 83b50701 03b68701 23300701 2334a700  ........#0..#4..
 0160 2338b700 233cc700 93870702 13070702  #8..#<..........
 0170 e39cd7fc b7270000 3304f100 37f7ffff  .....'..3...7...
 0180 130707dc 93860724 b3862600 3387e600  .......$..&.3...
 0190 93050400 93060400 83a70600 93974700  ..............G.
 01a0 37250000 13060524 33062600 3306f600  7%.....$3.&.3...
 01b0 033606fc 2330c700 13060520 33062600  .6..#0..... 3.&.
 01c0 b307f600 2338f700 93864600 13070702  ....#8....F.....
 01d0 e314b7fc b7e4ffff 37160000 93050000  ........7.......
 01e0 13050100 eff0dfe2 938404dc 37270000  ............7'..
 01f0 93070724 b3872700 b3849700 37160000  ...$..'.....7...
 0200 b7f5ffff 938505dc 93070724 b3872700  ...........$..'.
 0210 b385b700 13850400 eff0dfe3 13870400  ................
 0220 b7150000 b385b400 83360701 03b60600  .........6......
 0230 83370700 631af602 83270400 93974700  .7..c....'....G.
 0240 37260000 13060620 33062600 b307f600  7&..... 3.&.....
 0250 639cf602 13070702 13044400 e316b7fc  c.........D.....
 0260 13051000 6f008000 13050000 37230000  ....o.......7#..
 0270 33016100 83308125 03340125 83348124  3.a..0.%.4.%.4.$
 0280 13010126 67800000 13050000 6ff01ffe  ...&g.......o...
 0290 130101ff 23341100 eff09fde 13071000  ....#4..........
 02a0 b7060001 23b0e600 b7060001 23b4a600  ....#.......#...
 02b0 b7070001 2388e700 83308100 13010101  ....#....0......
 02c0 67800000                             g...            
Contents of section .eh_frame:
 02c8 10000000 00000000 037a5200 017c0101  .........zR..|..
 02d8 1b0d0200 10000000 18000000 2cfdffff  ............,...
 02e8 20000000 00000000 10000000 2c000000   ...........,...
 02f8 38fdffff 24000000 00000000 10000000  8...$...........
 0308 40000000 48fdffff 2c000000 00000000  @...H...,.......
 0318 30000000 54000000 60fdffff 10020000  0...T...`.......
 0328 00440ee0 04540ee0 44810288 04890603  .D...T..D.......
 0338 dc010a0e e00444c1 44c844c9 440e0044  ......D.D.D.D..D
 0348 0b000000 18000000 88000000 3cffffff  ............<...
 0358 34000000 00440e10 44810264 c1440e00  4....D..D..d.D..
Contents of section .data:
 0370 5a97b4a5 f2f06e74 00000000 00000000  Z.....nt........
 0380 a4b4623a 64e0e78c 00000000 00000000  ..b:d...........
 0390 deec331c 97992767 00000000 00000000  ..3...'g........
 03a0 97e6ad75 7c5cff94 00000000 00000000  ...u|\..........
 03b0 01000000 01000000 01000000 01000000  ................
 03c0 02000000 02000000 03000000 00000000  ................
 03d0 01000000 00000000 03000000 00000000  ................
 03e0 00000000 03000000 03000000 00000000  ................
 03f0 01000000 00000000 00000000 02000000  ................
 0400 02000000 00000000 02000000 01000000  ................
 0410 00000000 00000000 00000000 03000000  ................
 0420 02000000 00000000 01000000 01000000  ................
 0430 03000000 02000000 03000000 00000000  ................
 0440 02000000 02000000 00000000 00000000  ................
 0450 00000000 01000000 01000000 03000000  ................
 0460 00000000 00000000 01000000 03000000  ................
 0470 01000000 02000000 03000000 02000000  ................
 0480 02000000 00000000 02000000 01000000  ................
 0490 00000000 03000000 01000000 01000000  ................
 04a0 03000000 03000000 02000000 02000000  ................
 04b0 00000000 01000000 03000000 02000000  ................
 04c0 02000000 01000000 01000000 03000000  ................
 04d0 02000000 02000000 00000000 01000000  ................
 04e0 01000000 03000000 00000000 01000000  ................
 04f0 00000000 00000000 03000000 02000000  ................
 0500 02000000 03000000 03000000 01000000  ................
 0510 01000000 01000000 01000000 02000000  ................
 0520 01000000 01000000 02000000 01000000  ................
 0530 02000000 02000000 01000000 01000000  ................
 0540 03000000 01000000 01000000 03000000  ................
 0550 00000000 02000000 03000000 01000000  ................
 0560 01000000 03000000 02000000 03000000  ................
 0570 02000000 01000000 02000000 00000000  ................
 0580 02000000 02000000 02000000 03000000  ................
 0590 00000000 03000000 01000000 00000000  ................
 05a0 03000000 02000000 01000000 00000000  ................
Contents of section .riscv.attributes:
 0000 41390000 00726973 63760001 2f000000  A9...riscv../...
 0010 04100572 76363469 3270305f 6d327030  ...rv64i2p0_m2p0
 0020 5f763170 305f7a76 616d6f31 70305f7a  _v1p0_zvamo1p0_z
 0030 766c7373 65673170 3000               vlsseg1p0.      
Contents of section .comment:
 0000 4743433a 2028474e 55292031 302e312e  GCC: (GNU) 10.1.
 0010 3000                                 0.              
Contents of section .debug_info:
 0000 37060000 04000000 00000801 0c010000  7...............
 0010 040b0300 00c80100 00100000 00000000  ................
 0020 00b40200 00000000 00000000 00020805  ................
 0030 e0000000 034f0000 0003d117 40000000  .....O......@...
 0040 02080786 02000002 0805db00 00000210  ................
 0050 04cf0000 00041900 000003a6 00000004  ................
 0060 22176b00 0000055a 00000002 0106c300  ".k....Z........
 0070 00000202 05450000 00060405 696e7400  .....E......int.
 0080 033d0000 00042b18 2d000000 05800000  .=....+.-.......
 0090 0003a500 0000042e 18a20000 00079100  ................
 00a0 00000201 08c10000 0007a200 00000202  ................
 00b0 07b50100 00020407 8b020000 033c0000  .............<..
 00c0 00043719 40000000 03ef0000 00022a0d  ..7.@.........*.
 00d0 2d000000 02020498 02000002 04041300  -...............
 00e0 00000208 04d40000 00083a02 00001001  ..........:.....
 00f0 86080401 00000953 02000001 870ebc00  .......S........
 0100 00000000 0aa20100 00201001 8b082e01  ......... ......
 0110 00000945 02000001 8d0ebc00 0000000b  ...E............
 0120 9a030000 018f442e 01000010 10000c08  ......D.........
 0130 10e90000 000d7602 00000175 01198c00  ......v....u....
 0140 00000d5e 02000001 7601198c 0000000d  ...^....v.......
 0150 f9000000 01770118 66000000 0e770000  .....w..f....w..
 0160 00017c01 05790000 00900200 00000000  ..|..y..........
 0170 00340000 00000000 00019cac 0100000f  .4..............
 0180 0c000000 017e010d 80000000 00000000  .....~..........
 0190 10e20200 00017f01 0d800000 0001119c  ................
 01a0 02000000 000000ac 01000000 12a30300  ................
 01b0 0001f605 56000000 79000000 80000000  ....V...y.......
 01c0 00000000 10020000 00000000 019cd902  ................
 01d0 0000133f 02000001 fa0ad902 00000391  ...?............
 01e0 a07f1492 03000001 030109e9 02000003  ................
 01f0 91a07b14 b1030000 0116010d f9020000  ..{.............
 0200 0391a05b 14aa0100 00011f01 0df90200  ...[............
 0210 000491a0 bb7f14fd 02000001 21010e0a  ............!...
 0220 03000004 91a05b9f 146e0200 00012201  ......[..n....".
 0230 0e0a0300 000591a0 bb7f9f15 00000000  ................
 0240 77020000 16690001 17011134 00000037  w....i.....4...7
 0250 00000017 98010000 00000000 30000000  ............0...
 0260 00000000 0f050300 00011801 0d790000  .............y..
 0270 005b0000 00000015 30000000 90020000  .[......0.......
 0280 16690001 28011134 000000a6 00000000  .i..(..4........
 0290 18e80100 00000000 00310600 00b60200  .........1......
 02a0 0019015a 0491a0bb 7f19015b 01301901  ...Z.......[.0..
 02b0 5c030a00 10001a1c 02000000 00000010  \...............
 02c0 03000019 015a0279 0019015b 03798020  .....Z.y...[.y. 
 02d0 19015c03 0a001000 001be900 0000e902  ..\.............
 02e0 00001c40 00000003 001b7900 0000f902  ...@......y.....
 02f0 00001c40 0000007f 001d0401 0000100a  ...@............
 0300 0300001c 40000000 7f001e08 04010000  ....@...........
 0310 1f690000 00019c06 ca020000 54000000  .i..........T...
 0320 00000000 2c000000 00000000 019c6f04  ....,.........o.
 0330 00002064 73740001 9c1d6f04 0000ca00  .. dst....o.....
 0340 00002073 72630001 9c317504 00000001  .. src...1u.....
 0350 00002102 01000001 9c3d3400 00003601  ..!......=4...6.
 0360 00001758 00000000 00000020 00000000  ...X....... ....
 0370 00000022 84000000 01b01034 0000006c  ...".......4...l
 0380 01000023 59020000 01b2147b 04000024  ...#Y......{...$
 0390 06060000 58000000 00000000 04000000  ....X...........
 03a0 00000000 01b02dbe 03000025 1b060000  ......-....%....
 03b0 8f010000 26250600 006c0100 000024d8  ....&%...l....$.
 03c0 0500005c 00000000 00000008 00000000  ...\............
 03d0 00000001 b71b1504 000025f9 050000b2  ..........%.....
 03e0 01000025 ee050000 d5010000 27060600  ...%........'...
 03f0 005c0000 00000000 00040000 00000000  .\..............
 0400 0002fd01 01251b06 0000f801 00002825  .....%........(%
 0410 06000000 0029a305 00006400 00000000  .....)....d.....
 0420 00000800 00000000 000001b8 1425cb05  .............%..
 0430 00001b02 00002ac0 05000025 b5050000  ......*....%....
 0440 3e020000 27060600 00640000 00000000  >...'....d......
 0450 00040000 00000000 0002fe01 01251b06  .............%..
 0460 00006102 00002825 06000000 0000001e  ..a...(%........
 0470 08910000 001e089d 0000002b ad000000  ...........+....
 0480 a2000000 93040000 2c0892a2 3800401e  ........,...8.@.
 0490 311c002d 70000000 01130702 05000030  1..-p..........0
 04a0 00000000 00000024 00000000 00000001  .......$........
 04b0 9c020500 002e3700 00000113 14020500  ......7.........
 04c0 00015a20 73726300 01132604 05000084  ..Z src...&.....
 04d0 02000021 c4020000 01133234 000000bd  ...!......24....
 04e0 02000022 7c000000 0114140b 050000f6  ..."|...........
 04f0 02000013 9f020000 01151a11 05000001  ................
 0500 5b002f08 1e080a05 0000301e 08a20000  [./.......0.....
 0510 001e08a9 0000002d 9e000000 01080702  .......-........
 0520 05000010 00000000 00000020 00000000  ........... ....
 0530 00000001 9ca30500 002e3700 00000108  ..........7.....
 0540 14020500 00015a20 63680001 081e7900  ......Z ch....y.
 0550 00002c03 000021c4 02000001 08293400  ..,...!......)4.
 0560 00006503 000013e9 00000001 0913a200  ..e.............
 0570 0000015b 137c0000 00010a14 0b050000  ...[.|..........
 0580 015a1714 00000000 00000018 00000000  .Z..............
 0590 00000031 6900010b 0e790000 009e0300  ...1i....y......
 05a0 00000032 00000000 02fe0101 a6020000  ...2............
 05b0 03d80500 00336100 02fe0101 6f040000  .....3a.....o...
 05c0 33620002 fe01017b 04000033 766c0002  3b.....{...3vl..
 05d0 fe0101c8 00000000 34860300 0002fd01  ........4.......
 05e0 018e0100 007b0400 00030606 00003361  .....{........3a
 05f0 0002fd01 01750400 0033766c 0002fd01  .....u...3vl....
 0600 01c80000 0000352b 00000002 8901ec02  ......5+........
 0610 0000c800 00000331 06000036 61000289  .......1...6a...
 0620 01c80000 0037766c 00028901 c8000000  .....7vl........
 0630 00389e00 00009400 000000             .8.........     
Contents of section .debug_abbrev:
 0000 01110125 0e130b03 0e1b0e11 01120710  ...%............
 0010 17000002 24000b0b 3e0b030e 00000316  ....$...>.......
 0020 00030e3a 0b3b0b39 0b491300 00043b00  ...:.;.9.I....;.
 0030 030e0000 05350049 13000006 24000b0b  .....5.I....$...
 0040 3e0b0308 00000726 00491300 00081301  >......&.I......
 0050 030e0b0b 3a0b3b0b 390b0113 0000090d  ....:.;.9.......
 0060 00030e3a 0b3b0b39 0b491338 0b00000a  ...:.;.9.I.8....
 0070 1301030e 0b0b8801 0b3a0b3b 0b390b01  .........:.;.9..
 0080 1300000b 0d00030e 3a0b3b0b 390b4913  ........:.;.9.I.
 0090 88010b38 0b00000c 0f000b0b 88010b49  ...8...........I
 00a0 1300000d 3400030e 3a0b3b05 390b4913  ....4...:.;.9.I.
 00b0 3f193c19 00000e2e 013f1903 0e3a0b3b  ?.<......?...:.;
 00c0 05390b49 13110112 07401897 42190113  .9.I.....@..B...
 00d0 00000f34 00030e3a 0b3b0539 0b491302  ...4...:.;.9.I..
 00e0 17000010 3400030e 3a0b3b05 390b4913  ....4...:.;.9.I.
 00f0 1c0b0000 11898201 00110131 13000012  ...........1....
 0100 2e013f19 030e3a0b 3b0b390b 6e0e4913  ..?...:.;.9.n.I.
 0110 11011207 40189742 19011300 00133400  ....@..B......4.
 0120 030e3a0b 3b0b390b 49130218 00001434  ..:.;.9.I......4
 0130 00030e3a 0b3b0539 0b491302 18000015  ...:.;.9.I......
 0140 0b015517 01130000 16340003 083a0b3b  ..U......4...:.;
 0150 05390b49 13021700 00170b01 11011207  .9.I............
 0160 00001889 82010111 01311301 13000019  .........1......
 0170 8a820100 02189142 1800001a 89820101  .......B........
 0180 11013113 00001b01 01491301 1300001c  ..1......I......
 0190 21004913 2f0b0000 1d010149 1388010b  !.I./......I....
 01a0 01130000 1e0f000b 0b491300 001f2e01  .........I......
 01b0 3f19030e 3a0b3b0b 390b6e0e 11011207  ?...:.;.9.n.....
 01c0 40189742 19011300 00200500 03083a0b  @..B..... ....:.
 01d0 3b0b390b 49130217 00002105 00030e3a  ;.9.I.....!....:
 01e0 0b3b0b39 0b491302 17000022 3400030e  .;.9.I....."4...
 01f0 3a0b3b0b 390b4913 02170000 23340003  :.;.9.I.....#4..
 0200 0e3a0b3b 0b390b49 13000024 1d013113  .:.;.9.I...$..1.
 0210 11011207 580b590b 570b0113 00002505  ....X.Y.W.....%.
 0220 00311302 17000026 34003113 02170000  .1.....&4.1.....
 0230 271d0131 13110112 07580b59 05570b00  '..1.....X.Y.W..
 0240 00283400 31130000 291d0131 13110112  .(4.1...)..1....
 0250 07580b59 0b570b00 002a0500 31130000  .X.Y.W...*..1...
 0260 2b010103 0e874219 49130113 00002c21  +.....B.I.....,!
 0270 002f1800 002d2e01 3f19030e 3a0b3b0b  ./...-..?...:.;.
 0280 390b4913 11011207 40189742 19011300  9.I.....@..B....
 0290 002e0500 030e3a0b 3b0b390b 49130218  ......:.;.9.I...
 02a0 00002f0f 000b0b00 00302600 00003134  ../......0&...14
 02b0 0003083a 0b3b0b39 0b491302 17000032  ...:.;.9.I.....2
 02c0 2e013f19 030e3a0b 3b05390b 6e0e200b  ..?...:.;.9.n. .
 02d0 34190113 00003305 0003083a 0b3b0539  4.....3....:.;.9
 02e0 0b491300 00342e01 3f19030e 3a0b3b05  .I...4..?...:.;.
 02f0 390b6e0e 4913200b 34190113 0000352e  9.n.I. .4.....5.
 0300 013f1903 0e3a0b3b 0b390b6e 0e491320  .?...:.;.9.n.I. 
 0310 0b341901 13000036 05000308 3a0b3b0b  .4.....6....:.;.
 0320 390b4913 00003734 0003083a 0b3b0b39  9.I...74...:.;.9
 0330 0b491300 00382e00 3f193c19 6e0e030e  .I...8..?.<.n...
 0340 000000                               ...             
Contents of section .debug_loc:
 0000 88020000 00000000 8c020000 00000000  ................
 0010 0200309f 8c020000 00000000 b4020000  ..0.............
 0020 00000000 01005a00 00000000 00000000  ......Z.........
 0030 00000000 00000064 01000000 00000088  .......d........
 0040 01000000 00000002 00309f00 00000000  .........0......
 0050 00000000 00000000 0000008c 01000000  ................
 0060 00000090 01000000 00000001 005f9001  ............._..
 0070 00000000 0000bc01 00000000 00000200  ................
 0080 7d00bc01 00000000 0000d701 00000000  }...............
 0090 00000200 7d7c0000 00000000 00000000  ....}|..........
 00a0 00000000 00000c02 00000000 00001802  ................
 00b0 00000000 00000200 309f0000 00000000  ........0.......
 00c0 00000000 00000000 00004400 00000000  ..........D.....
 00d0 00006400 00000000 00000100 5a640000  ..d.........Zd..
 00e0 00000000 00700000 00000000 0001005a  .....p.........Z
 00f0 00000000 00000000 00000000 00000000  ................
 0100 44000000 00000000 60000000 00000000  D.......`.......
 0110 01005b60 00000000 00000070 00000000  ..[`.......p....
 0120 00000001 005b0000 00000000 00000000  .....[..........
 0130 00000000 00004400 00000000 00006800  ......D.......h.
 0140 00000000 00000100 5c680000 00000000  ........\h......
 0150 00700000 00000000 0001005c 00000000  .p.........\....
 0160 00000000 00000000 00000000 4c000000  ............L...
 0170 00000000 6c000000 00000000 01005f00  ....l........._.
 0180 00000000 00000000 00000000 00000048  ...............H
 0190 00000000 0000004c 00000000 00000001  .......L........
 01a0 005c0000 00000000 00000000 00000000  .\..............
 01b0 00004c00 00000000 00005400 00000000  ..L.......T.....
 01c0 00000100 5f000000 00000000 00000000  ...._...........
 01d0 00000000 004c0000 00000000 00540000  .....L.......T..
 01e0 00000000 0001005b 00000000 00000000  .......[........
 01f0 00000000 00000000 4c000000 00000000  ........L.......
 0200 50000000 00000000 01005f00 00000000  P........._.....
 0210 00000000 00000000 00000054 00000000  ...........T....
 0220 0000005c 00000000 00000001 005f0000  ...\........._..
 0230 00000000 00000000 00000000 00005400  ..............T.
 0240 00000000 00005c00 00000000 00000100  ......\.........
 0250 5a000000 00000000 00000000 00000000  Z...............
 0260 00540000 00000000 00580000 00000000  .T.......X......
 0270 0001005f 00000000 00000000 00000000  ..._............
 0280 00000000 20000000 00000000 2c000000  .... .......,...
 0290 00000000 01005b2c 00000000 00000044  ......[,.......D
 02a0 00000000 00000004 00f3015b 9f000000  ...........[....
 02b0 00000000 00000000 00000000 00200000  ............. ..
 02c0 00000000 00280000 00000000 0001005c  .....(.........\
 02d0 28000000 00000000 44000000 00000000  (.......D.......
 02e0 0400f301 5c9f0000 00000000 00000000  ....\...........
 02f0 00000000 00002000 00000000 00002c00  ...... .......,.
 0300 00000000 00000100 5a2c0000 00000000  ........Z,......
 0310 00400000 00000000 0001005f 00000000  .@........._....
 0320 00000000 00000000 00000000 00000000  ................
 0330 00000000 04000000 00000000 01005b04  ..............[.
 0340 00000000 00000020 00000000 00000004  ....... ........
 0350 00f3015b 9f000000 00000000 00000000  ...[............
 0360 00000000 00000000 00000000 00100000  ................
 0370 00000000 0001005c 10000000 00000000  .......\........
 0380 20000000 00000000 0400f301 5c9f0000   ...........\...
 0390 00000000 00000000 00000000 00000400  ................
 03a0 00000000 00001000 00000000 00000200  ................
 03b0 309f1000 00000000 00001400 00000000  0...............
 03c0 00000600 7f007a00 1c9f1400 00000000  ......z.........
 03d0 00001800 00000000 00000800 7f007a00  ..............z.
 03e0 1c23019f 00000000 00000000 00000000  .#..............
 03f0 00000000                             ....            
Contents of section .debug_aranges:
 0000 2c000000 02000000 00000800 00000000  ,...............
 0010 10000000 00000000 b4020000 00000000  ................
 0020 00000000 00000000 00000000 00000000  ................
Contents of section .debug_ranges:
 0000 64010000 00000000 84010000 00000000  d...............
 0010 88010000 00000000 c4010000 00000000  ................
 0020 00000000 00000000 00000000 00000000  ................
 0030 0c020000 00000000 50020000 00000000  ........P.......
 0040 54020000 00000000 5c020000 00000000  T.......\.......
 0050 78020000 00000000 80020000 00000000  x...............
 0060 00000000 00000000 00000000 00000000  ................
Contents of section .debug_line:
 0000 09050000 03000e01 00000101 fb0e0d00  ................
 0010 01010101 00000001 0000012f 6d656469  .........../medi
 0020 612f636f 6d6d6f6e 2f556e69 76657273  a/common/Univers
 0030 6974792f 4564752f 59656172 345f4d61  ity/Edu/Year4_Ma
 0040 73746572 732f5072 6f6a6563 742f7269  sters/Project/ri
 0050 7363762d 762d6c69 74652f70 726f6772  scv-v-lite/progr
 0060 616d732f 76656374 6f725f6d 656d6370  ams/vector_memcp
 0070 795f706f 696e7465 7273002f 73637261  y_pointers./scra
 0080 7463682f 67636373 2f6f7574 70757473  tch/gccs/outputs
 0090 2f727676 2d696e74 72696e73 69632f6c  /rvv-intrinsic/l
 00a0 69622f67 63632f72 69736376 36342d75  ib/gcc/riscv64-u
 00b0 6e6b6e6f 776e2d65 6c662f31 302e312e  nknown-elf/10.1.
 00c0 302f696e 636c7564 65000076 6563746f  0/include..vecto
 00d0 725f6d65 6d637079 5f706f69 6e746572  r_memcpy_pointer
 00e0 732e6370 70000100 00726973 63765f76  s.cpp....riscv_v
 00f0 6563746f 722e6800 02000073 74646465  ector.h....stdde
 0100 662e6800 02000073 7464696e 742d6763  f.h....stdint-gc
 0110 632e6800 02000000 05300009 02100000  c.h......0......
 0120 00000000 00190505 03010900 00010513  ................
 0130 06030009 00000105 05060301 09040001  ................
 0140 03010900 00010517 03000900 00010509  ................
 0150 00020402 0301090c 00010518 00020402  ................
 0160 06030009 00000105 05000204 0206037f  ................
 0170 09040001 05170002 04020300 09000001  ................
 0180 05050304 09080001 05010603 01090000  ................
 0190 01053906 03030904 00010505 03010900  ..9.............
 01a0 00010301 09000001 03010900 00010511  ................
 01b0 03000900 00010514 06037e09 08000105  ..........~.....
 01c0 09060303 09040001 05140603 00090000  ................
 01d0 01051203 00090400 01050906 03010904  ................
 01e0 00010510 06030009 00000105 09060301  ................
 01f0 09040001 050f0603 00090000 01050906  ................
 0200 03010904 00010505 037c0900 00010511  .........|......
 0210 03000900 00010505 03060904 00010501  ................
 0220 06030109 00000105 480603ff 00090400  ........H.......
 0230 01050503 13090000 01051603 00090000  ................
 0240 01050903 01090400 01040205 01035909  ..............Y.
 0250 00000103 00090000 01030009 00000103  ................
 0260 00090400 01040105 09032909 00000103  ..........).....
 0270 05090000 01040205 0103c602 09000001  ................
 0280 038c7d09 00000103 00090000 01030009  ..}.............
 0290 00000103 00090400 0103f402 09000001  ................
 02a0 03000900 00010401 050903bb 7d090400  ............}...
 02b0 01040205 0103c602 09000001 038b7d09  ..............}.
 02c0 00000103 00090000 01030009 00000103  ................
 02d0 00090400 0103f502 09000001 03000900  ................
 02e0 00010401 050903bd 7d090400 01050d06  ........}.......
 02f0 03000900 00010509 06030109 04000105  ................
 0300 0d060300 09000001 05090603 01090400  ................
 0310 01051306 03000900 00010505 06037209  ..............r.
 0320 04000105 16030009 00000105 01060310  ................
 0330 09040001 05190603 37090400 01050503  ........7.......
 0340 04091800 01050a06 03000900 00010505  ................
 0350 06030909 a4000105 09060300 09000001  ................
 0360 05050603 13093800 01030109 00000105  ......8.........
 0370 1a030009 00000105 0906036c 09200001  ...........l. ..
 0380 00020402 06031509 04000105 0d000204  ................
 0390 02060300 09000001 05090002 04020603  ................
 03a0 01090400 01053100 02040206 03010900  ......1.........
 03b0 00010519 00020402 037f0914 00010539  ...............9
 03c0 00020402 03020908 00010519 00020402  ................
 03d0 037e090c 00010505 00020402 06037e09  .~............~.
 03e0 04000105 1a000204 02030009 00000105  ................
 03f0 05030809 0c000105 0d060300 09000001  ................
 0400 05050603 02091400 01030109 00000103  ................
 0410 03090000 01051206 03000900 0001051a  ................
 0420 06030309 34000105 09030309 0c000105  ....4...........
 0430 1b060300 09000001 05090300 09040001  ................
 0440 06030309 0c000105 47060300 09000001  ........G.......
 0450 05090300 09180001 05050002 04020603  ................
 0460 7a090400 01051a00 02040203 00090000  z...............
 0470 01050c06 030a090c 00010514 037a0908  .............z..
 0480 00010501 03070904 00010514 037c091c  .............|..
 0490 00010501 0603ce00 09080001 05050301  ................
 04a0 09080001 03010900 00010302 09000001  ................
 04b0 03010900 0001051c 06030009 00000105  ................
 04c0 05060307 09040001 05190603 00090000  ................
 04d0 01050506 0301090c 00010519 06030009  ................
 04e0 00000105 05060301 09080001 050e0603  ................
 04f0 00090000 01050506 03010908 00010501  ................
 0500 06030109 00000109 0c000001 01        .............   
Contents of section .debug_str:
 0000 76736538 5f765f75 386d3800 72657375  vse8_v_u8m8.resu
 0010 6c740066 6c6f6174 00646563 6c747970  lt.float.decltyp
 0020 65286e75 6c6c7074 72290076 73657476  e(nullptr).vsetv
 0030 6c5f6538 6d380064 65737400 75696e74  l_e8m8.dest.uint
 0040 36345f74 0073686f 72742069 6e740073  64_t.short int.s
 0050 697a655f 74005f5a 31337275 6e5f6261  ize_t._Z13run_ba
 0060 73655f74 65737476 00766563 746f725f  se_testv.vector_
 0070 6d656d63 7079006d 61696e00 64657374  memcpy.main.dest
 0080 5f756300 636f7069 65645f70 65725f69  _uc.copied_per_i
 0090 74657200 5f5f6275 696c7469 6e5f6d65  ter.__builtin_me
 00a0 6d736574 0075696e 74385f74 005f5f76  mset.uint8_t.__v
 00b0 6563746f 72285b31 32382c31 32385d29  ector([128,128])
 00c0 20756e73 69676e65 64206368 6172006c   unsigned char.l
 00d0 6f6e6720 646f7562 6c65006c 6f6e6720  ong double.long 
 00e0 6c6f6e67 20696e74 0063685f 75630077  long int.ch_uc.w
 00f0 6f72645f 74797065 0066696e 69736865  ord_type.finishe
 0100 64006e75 6d5f6279 74657300 474e5520  d.num_bytes.GNU 
 0110 432b2b31 34203130 2e312e30 202d6d61  C++14 10.1.0 -ma
 0120 7263683d 72763634 696d7620 2d6d6162  rch=rv64imv -mab
 0130 693d6c70 3634202d 6d74756e 653d726f  i=lp64 -mtune=ro
 0140 636b6574 202d6d61 7263683d 72763634  cket -march=rv64
 0150 696d765f 7a76616d 6f5f7a76 6c737365  imv_zvamo_zvlsse
 0160 67202d67 202d4f31 202d666e 6f2d696e  g -g -O1 -fno-in
 0170 6c696e65 2d66756e 6374696f 6e73202d  line-functions -
 0180 66667265 65737461 6e64696e 67005f5a  ffreestanding._Z
 0190 3131766c 65385f76 5f75386d 38504b68  11vle8_v_u8m8PKh
 01a0 6c00456c 656d656e 74006465 73745f61  l.Element.dest_a
 01b0 72726179 0073686f 72742075 6e736967  rray.short unsig
 01c0 6e656420 696e7400 2f6d6564 69612f63  ned int./media/c
 01d0 6f6d6d6f 6e2f556e 69766572 73697479  ommon/University
 01e0 2f456475 2f596561 72345f4d 61737465  /Edu/Year4_Maste
 01f0 72732f50 726f6a65 63742f72 69736376  rs/Project/riscv
 0200 2d762d6c 6974652f 70726f67 72616d73  -v-lite/programs
 0210 2f627569 6c642f67 63632d72 76363469  /build/gcc-rv64i
 0220 6d762f76 6563746f 725f6d65 6d637079  mv/vector_memcpy
 0230 5f706f69 6e746572 73004261 73650062  _pointers.Base.b
 0240 61736573 00657870 65637465 645f6261  ases.expected_ba
 0250 73655f76 616c7565 00646174 61006f75  se_value.data.ou
 0260 74707574 53756363 65656465 64006473  tputSucceeded.ds
 0270 745f7074 72006f75 74707574 41747465  t_ptr.outputAtte
 0280 6d707465 64006c6f 6e672075 6e736967  mpted.long unsig
 0290 6e656420 696e7400 5f5f6670 31360073  ned int.__fp16.s
 02a0 72635f75 63005f5a 31317673 65385f76  rc_uc._Z11vse8_v
 02b0 5f75386d 3850685f 7675696e 74386d38  _u8m8Ph_vuint8m8
 02c0 5f746c00 636f756e 74005f5a 31337665  _tl.count._Z13ve
 02d0 63746f72 5f6d656d 63707950 68504b68  ctor_memcpyPhPKh
 02e0 6d006174 74656d70 74656400 5f5a3131  m.attempted._Z11
 02f0 76736574 766c5f65 386d386c 00737263  vsetvl_e8m8l.src
 0300 5f707472 00696e64 6578002f 6d656469  _ptr.index./medi
 0310 612f636f 6d6d6f6e 2f556e69 76657273  a/common/Univers
 0320 6974792f 4564752f 59656172 345f4d61  ity/Edu/Year4_Ma
 0330 73746572 732f5072 6f6a6563 742f7269  sters/Project/ri
 0340 7363762d 762d6c69 74652f70 726f6772  scv-v-lite/progr
 0350 616d732f 76656374 6f725f6d 656d6370  ams/vector_memcp
 0360 795f706f 696e7465 72732f76 6563746f  y_pointers/vecto
 0370 725f6d65 6d637079 5f706f69 6e746572  r_memcpy_pointer
 0380 732e6370 7000766c 65385f76 5f75386d  s.cpp.vle8_v_u8m
 0390 3800696e 64696365 73006261 73655f70  8.indices.base_p
 03a0 74720072 756e5f62 6173655f 74657374  tr.run_base_test
 03b0 00736f75 7263655f 61727261 7900      .source_array.  

Disassembly of section .text.init:

0000000000000000 <entry>:
   0:	00010117          	auipc	sp,0x10
   4:	fe010113          	addi	sp,sp,-32 # ffe0 <main+0xfd50>
   8:	288000ef          	jal	ra,290 <main>

000000000000000c <end>:
   c:	0000006f          	j	c <end>

Disassembly of section .text:

0000000000000010 <memset>:

#ifdef __cplusplus
extern "C" {
#endif
void* memset(void* dest, int ch, size_t count) {
    unsigned char ch_uc = (unsigned char)ch;
  10:	0ff5f593          	andi	a1,a1,255
    unsigned char* dest_uc = (unsigned char*)dest;
    for (int i = 0; i < count; i++) {
  14:	00060c63          	beqz	a2,2c <memset+0x1c>
  18:	00050793          	mv	a5,a0
  1c:	00a60633          	add	a2,a2,a0
        *(dest_uc + i) = ch_uc;
  20:	00b78023          	sb	a1,0(a5)
    for (int i = 0; i < count; i++) {
  24:	00178793          	addi	a5,a5,1
  28:	fec79ce3          	bne	a5,a2,20 <memset+0x10>
    }

    return dest_uc;
}
  2c:	00008067          	ret

0000000000000030 <memcpy>:

// Define a simple stdlib replacement of memcpy
void* memcpy(void* dest, const void* src, size_t count) {
    unsigned char* dest_uc = (unsigned char*) dest;
    const unsigned char* src_uc = (const unsigned char*) src;
    while(count > 0) {
  30:	02060063          	beqz	a2,50 <memcpy+0x20>
  34:	00c50633          	add	a2,a0,a2
    unsigned char* dest_uc = (unsigned char*) dest;
  38:	00050793          	mv	a5,a0
        *dest_uc = *src_uc;
  3c:	0005c703          	lbu	a4,0(a1)
  40:	00e78023          	sb	a4,0(a5)
        dest_uc++;
  44:	00178793          	addi	a5,a5,1
        src_uc++;
  48:	00158593          	addi	a1,a1,1
    while(count > 0) {
  4c:	fef618e3          	bne	a2,a5,3c <memcpy+0xc>
        count--;
    }
    return dest;
}
  50:	00008067          	ret

0000000000000054 <_Z13vector_memcpyPhPKhm>:
        num_bytes -= copied_128bit_elems_per_iter * 16;
    }
    #endif
    // Remainder copy
    // These parts will not copy capabilities!
    while (num_bytes > 0) {
  54:	02060463          	beqz	a2,7c <_Z13vector_memcpyPhPKhm+0x28>
vsetvlmax_e##SEW##m##LMUL ()						\
{									\
  return vsetvl_e##SEW##m##LMUL (-1);					\
}

_RVV_INT_ITERATOR (_RVVSETVL)
  58:	003677d7          	vsetvli	a5,a2,e8,m8,tu,mu
  5c:	0037f757          	vsetvli	a4,a5,e8,m8,tu,mu
  else									\
    __builtin_riscv_vsseuint##SEW##m##LMUL##_di_mask (mask, b,		\
						      a, stride);	\
}

_RVV_INT_ITERATOR (_RVVINTLD)
  60:	02058407          	vle8.v	v8,(a1)
_RVV_INT_ITERATOR (_RVVSETVL)
  64:	0037f757          	vsetvli	a4,a5,e8,m8,tu,mu
_RVV_INT_ITERATOR (_RVVINTST)
  68:	02050427          	vse8.v	v8,(a0)
        #else
        data = vle8_v_u8m8(src, copied_per_iter);
        vse8_v_u8m8(dst, data, copied_per_iter);
        #endif // USE_ASM_FOR_UNIT

        src += copied_per_iter;
  6c:	00f585b3          	add	a1,a1,a5
        dst += copied_per_iter;
  70:	00f50533          	add	a0,a0,a5
        num_bytes -= copied_per_iter;
  74:	40f60633          	sub	a2,a2,a5
    while (num_bytes > 0) {
  78:	fe0610e3          	bnez	a2,58 <_Z13vector_memcpyPhPKhm+0x4>
    }
}
  7c:	00008067          	ret

0000000000000080 <_Z13run_base_testv>:
        num_bytes -= copied_per_iter;
    }
}
#endif

int run_base_test(void) {
  80:	da010113          	addi	sp,sp,-608
  84:	24113c23          	sd	ra,600(sp)
  88:	24813823          	sd	s0,592(sp)
  8c:	24913423          	sd	s1,584(sp)
  90:	ffffe337          	lui	t1,0xffffe
  94:	00610133          	add	sp,sp,t1
    // Random numbers
    // 746ef0f2a5b4975a 8ce7e0643a62b4a4 
    // 672799971c33ecde 94ff5c7c75ade697 
    Base bases[4] = {
  98:	37000693          	li	a3,880
  9c:	0006b303          	ld	t1,0(a3)
  a0:	0086b883          	ld	a7,8(a3)
  a4:	0106b803          	ld	a6,16(a3)
  a8:	0186b503          	ld	a0,24(a3)
  ac:	0206b583          	ld	a1,32(a3)
  b0:	0286b603          	ld	a2,40(a3)
  b4:	0306b703          	ld	a4,48(a3)
  b8:	0386b783          	ld	a5,56(a3)
  bc:	00002e37          	lui	t3,0x2
  c0:	200e0e93          	addi	t4,t3,512 # 2200 <main+0x1f70>
  c4:	002e8eb3          	add	t4,t4,sp
  c8:	006eb023          	sd	t1,0(t4)
  cc:	000e0313          	mv	t1,t3
  d0:	208e0e13          	addi	t3,t3,520
  d4:	002e0e33          	add	t3,t3,sp
  d8:	011e3023          	sd	a7,0(t3)
  dc:	00030893          	mv	a7,t1
  e0:	21030313          	addi	t1,t1,528 # ffffffffffffe210 <finished+0xfffffffffeffe200>
  e4:	00230333          	add	t1,t1,sp
  e8:	01033023          	sd	a6,0(t1)
  ec:	00088813          	mv	a6,a7
  f0:	21888893          	addi	a7,a7,536
  f4:	002888b3          	add	a7,a7,sp
  f8:	00a8b023          	sd	a0,0(a7)
  fc:	00080513          	mv	a0,a6
 100:	22080813          	addi	a6,a6,544
 104:	00280833          	add	a6,a6,sp
 108:	00b83023          	sd	a1,0(a6)
 10c:	00050593          	mv	a1,a0
 110:	22850513          	addi	a0,a0,552
 114:	00250533          	add	a0,a0,sp
 118:	00c53023          	sd	a2,0(a0)
 11c:	00058613          	mv	a2,a1
 120:	23058593          	addi	a1,a1,560
 124:	002585b3          	add	a1,a1,sp
 128:	00e5b023          	sd	a4,0(a1)
 12c:	00060713          	mv	a4,a2
 130:	23860613          	addi	a2,a2,568
 134:	00260633          	add	a2,a2,sp
 138:	00f63023          	sd	a5,0(a2)
        { .value = 0x94ff5c7c75ade697 },
    };

    // Randomly generated
    // The index of the Base that each Element will point to
    int indices[128] = {
 13c:	04068793          	addi	a5,a3,64
 140:	00e10733          	add	a4,sp,a4
 144:	24068693          	addi	a3,a3,576
 148:	0007b803          	ld	a6,0(a5)
 14c:	0087b503          	ld	a0,8(a5)
 150:	0107b583          	ld	a1,16(a5)
 154:	0187b603          	ld	a2,24(a5)
 158:	01073023          	sd	a6,0(a4)
 15c:	00a73423          	sd	a0,8(a4)
 160:	00b73823          	sd	a1,16(a4)
 164:	00c73c23          	sd	a2,24(a4)
 168:	02078793          	addi	a5,a5,32
 16c:	02070713          	addi	a4,a4,32
 170:	fcd79ce3          	bne	a5,a3,148 <_Z13run_base_testv+0xc8>
        2, 1, 2, 0, 2, 2, 2, 3,
        0, 3, 1, 0, 3, 2, 1, 0
    };

    Element source_array[128];
    for (size_t i = 0; i < 128; i++) {
 174:	000027b7          	lui	a5,0x2
 178:	00f10433          	add	s0,sp,a5
 17c:	fffff737          	lui	a4,0xfffff
 180:	dc070713          	addi	a4,a4,-576 # ffffffffffffedc0 <finished+0xfffffffffeffedb0>
 184:	24078693          	addi	a3,a5,576 # 2240 <main+0x1fb0>
 188:	002686b3          	add	a3,a3,sp
 18c:	00e68733          	add	a4,a3,a4
 190:	00040593          	mv	a1,s0
    int indices[128] = {
 194:	00040693          	mv	a3,s0
        int index = indices[i];
 198:	0006a783          	lw	a5,0(a3)
        source_array[i] = Element {
            .expected_base_value = bases[index].value,
 19c:	00479793          	slli	a5,a5,0x4
 1a0:	00002537          	lui	a0,0x2
 1a4:	24050613          	addi	a2,a0,576 # 2240 <main+0x1fb0>
 1a8:	00260633          	add	a2,a2,sp
 1ac:	00f60633          	add	a2,a2,a5
        source_array[i] = Element {
 1b0:	fc063603          	ld	a2,-64(a2)
 1b4:	00c73023          	sd	a2,0(a4)
            .base_ptr = (Base* CAPABILITY_IF_SUPPORTED) &bases[index]
 1b8:	20050613          	addi	a2,a0,512
 1bc:	00260633          	add	a2,a2,sp
 1c0:	00f607b3          	add	a5,a2,a5
        source_array[i] = Element {
 1c4:	00f73823          	sd	a5,16(a4)
    for (size_t i = 0; i < 128; i++) {
 1c8:	00468693          	addi	a3,a3,4
 1cc:	02070713          	addi	a4,a4,32
 1d0:	fcb714e3          	bne	a4,a1,198 <_Z13run_base_testv+0x118>
        };
    }

    Element dest_array[128] = {0};
 1d4:	ffffe4b7          	lui	s1,0xffffe
 1d8:	00001637          	lui	a2,0x1
 1dc:	00000593          	li	a1,0
 1e0:	00010513          	mv	a0,sp
 1e4:	e2dff0ef          	jal	ra,10 <memset>

    Element* src_ptr = &source_array[0];
    Element* dst_ptr = &dest_array[0];

    // Don't force the pointers to the elements to be capabilities
    vector_memcpy((uint8_t*)dst_ptr, (const uint8_t*)src_ptr, sizeof(Element) * 128);
 1e8:	dc048493          	addi	s1,s1,-576 # ffffffffffffddc0 <finished+0xfffffffffeffddb0>
 1ec:	00002737          	lui	a4,0x2
 1f0:	24070793          	addi	a5,a4,576 # 2240 <main+0x1fb0>
 1f4:	002787b3          	add	a5,a5,sp
 1f8:	009784b3          	add	s1,a5,s1
 1fc:	00001637          	lui	a2,0x1
 200:	fffff5b7          	lui	a1,0xfffff
 204:	dc058593          	addi	a1,a1,-576 # ffffffffffffedc0 <finished+0xfffffffffeffedb0>
 208:	24070793          	addi	a5,a4,576
 20c:	002787b3          	add	a5,a5,sp
 210:	00b785b3          	add	a1,a5,a1
 214:	00048513          	mv	a0,s1
 218:	e3dff0ef          	jal	ra,54 <_Z13vector_memcpyPhPKhm>

    // Check the resuls
    for (size_t i = 0; i < 128; i++) {
 21c:	00048713          	mv	a4,s1
 220:	000015b7          	lui	a1,0x1
 224:	00b485b3          	add	a1,s1,a1
        // This makes sure the base_ptr is dereferenceable at all
        // and that it's actually a pointer to the value we meant
        if (dest_array[i].base_ptr->value != dest_array[i].expected_base_value) {
 228:	01073683          	ld	a3,16(a4)
 22c:	0006b603          	ld	a2,0(a3)
 230:	00073783          	ld	a5,0(a4)
 234:	02f61a63          	bne	a2,a5,268 <_Z13run_base_testv+0x1e8>
            return 0; // Failure
        }
        if (dest_array[i].base_ptr != (Base* CAPABILITY_IF_SUPPORTED) &bases[indices[i]]) {
 238:	00042783          	lw	a5,0(s0)
 23c:	00479793          	slli	a5,a5,0x4
 240:	00002637          	lui	a2,0x2
 244:	20060613          	addi	a2,a2,512 # 2200 <main+0x1f70>
 248:	00260633          	add	a2,a2,sp
 24c:	00f607b3          	add	a5,a2,a5
 250:	02f69c63          	bne	a3,a5,288 <_Z13run_base_testv+0x208>
    for (size_t i = 0; i < 128; i++) {
 254:	02070713          	addi	a4,a4,32
 258:	00440413          	addi	s0,s0,4
 25c:	fcb716e3          	bne	a4,a1,228 <_Z13run_base_testv+0x1a8>
            return 0;
        }
    }
    return 1;
 260:	00100513          	li	a0,1
 264:	0080006f          	j	26c <_Z13run_base_testv+0x1ec>
            return 0; // Failure
 268:	00000513          	li	a0,0
}
 26c:	00002337          	lui	t1,0x2
 270:	00610133          	add	sp,sp,t1
 274:	25813083          	ld	ra,600(sp)
 278:	25013403          	ld	s0,592(sp)
 27c:	24813483          	ld	s1,584(sp)
 280:	26010113          	addi	sp,sp,608
 284:	00008067          	ret
            return 0;
 288:	00000513          	li	a0,0
 28c:	fe1ff06f          	j	26c <_Z13run_base_testv+0x1ec>

0000000000000290 <main>:

#ifdef __cplusplus
extern "C" {
#endif
int main(void)
{
 290:	ff010113          	addi	sp,sp,-16
 294:	00113423          	sd	ra,8(sp)
    int64_t result = 0;
    int64_t attempted = 0;

    attempted |= 1 << 0;
    result |= run_base_test() << 0;
 298:	de9ff0ef          	jal	ra,80 <_Z13run_base_testv>
    #if HAS_CAPABILITIES
    attempted |= 1 << 1;
    result |= run_invalidate_test() << 1;
    #endif

    *(&outputAttempted) = attempted;
 29c:	00100713          	li	a4,1
 2a0:	010006b7          	lui	a3,0x1000
 2a4:	00e6b023          	sd	a4,0(a3) # 1000000 <outputAttempted>
    *(&outputSucceeded) = result;
 2a8:	010006b7          	lui	a3,0x1000
 2ac:	00a6b423          	sd	a0,8(a3) # 1000008 <outputSucceeded>
    finished = 1;
 2b0:	010007b7          	lui	a5,0x1000
 2b4:	00e78823          	sb	a4,16(a5) # 1000010 <finished>
    return result;
}
 2b8:	00813083          	ld	ra,8(sp)
 2bc:	01010113          	addi	sp,sp,16
 2c0:	00008067          	ret
