	.file	"vector_memcpy_pointers.cpp"
	.option nopic
	.attribute arch, "rv64i2p0_m2p0_v1p0_zvamo1p0_zvlsseg1p0"
	.attribute unaligned_access, 0
	.attribute stack_align, 16
	.text
.Ltext0:
	.align	2
	.globl	memset
	.type	memset, @function
memset:
.LFB17413:
	.file 1 "/media/common/University/Edu/Year4_Masters/Project/riscv-v-lite/programs/vector_memcpy_pointers/vector_memcpy_pointers.cpp"
	.loc 1 8 48
	.cfi_startproc
.LVL0:
	.loc 1 9 5
	.loc 1 9 19 is_stmt 0
	andi	a1,a1,0xff
.LVL1:
	.loc 1 10 5 is_stmt 1
	.loc 1 11 5
.LBB17:
	.loc 1 11 23
	beq	a2,zero,.L2
	mv	a5,a0
	add	a2,a2,a0
.LVL2:
.L3:
	.loc 1 12 9 discriminator 2
	.loc 1 12 24 is_stmt 0 discriminator 2
	sb	a1,0(a5)
	.loc 1 11 5 is_stmt 1 discriminator 2
.LVL3:
	.loc 1 11 23 discriminator 2
	addi	a5,a5,1
.LVL4:
	bne	a5,a2,.L3
.L2:
.LBE17:
	.loc 1 15 5
	.loc 1 16 1 is_stmt 0
	ret
	.cfi_endproc
.LFE17413:
	.size	memset, .-memset
	.align	2
	.globl	memcpy
	.type	memcpy, @function
memcpy:
.LFB17414:
	.loc 1 19 57 is_stmt 1
	.cfi_startproc
.LVL5:
	.loc 1 20 5
	.loc 1 21 5
	.loc 1 22 5
	.loc 1 22 17
	beq	a2,zero,.L6
	add	a2,a0,a2
.LVL6:
	.loc 1 20 20 is_stmt 0
	mv	a5,a0
.LVL7:
.L7:
	.loc 1 23 9 is_stmt 1
	.loc 1 23 20 is_stmt 0
	lbu	a4,0(a1)
	.loc 1 23 18
	sb	a4,0(a5)
	.loc 1 24 9 is_stmt 1
	.loc 1 24 16 is_stmt 0
	addi	a5,a5,1
.LVL8:
	.loc 1 25 9 is_stmt 1
	.loc 1 25 15 is_stmt 0
	addi	a1,a1,1
.LVL9:
	.loc 1 26 9 is_stmt 1
	.loc 1 22 5
	.loc 1 22 17
	bne	a2,a5,.L7
.LVL10:
.L6:
	.loc 1 28 5
	.loc 1 29 1 is_stmt 0
	ret
	.cfi_endproc
.LFE17414:
	.size	memcpy, .-memcpy
	.align	2
	.globl	_Z13vector_memcpyPhPKhm
	.type	_Z13vector_memcpyPhPKhm, @function
_Z13vector_memcpyPhPKhm:
.LFB17415:
	.loc 1 156 72 is_stmt 1
	.cfi_startproc
.LVL11:
	.loc 1 175 5
	.loc 1 175 22
	beq	a2,zero,.L9
.L11:
.LBB18:
	.loc 1 176 9
.LVL12:
.LBB19:
.LBB20:
	.file 2 "/scratch/gccs/outputs/rvv-intrinsic/lib/gcc/riscv64-unknown-elf/10.1.0/include/riscv_vector.h"
	.loc 2 137 1
	.loc 2 137 1
	.loc 2 137 1
	vsetvli	a5,a2,e8,m8
.LVL13:
	.loc 2 137 1
.LBE20:
.LBE19:
	.loc 1 178 9
	.loc 1 183 9
.LBB21:
.LBB22:
	.loc 2 509 1
.LBB23:
.LBB24:
	.loc 2 137 1
	.loc 2 137 1
	.loc 2 137 1
	vsetvli	a4,a5,e8,m8
	.loc 2 137 1
.LVL14:
.LBE24:
.LBE23:
	.loc 2 509 1
	.loc 2 509 1
	vle8.v	v8,0(a1)
.LVL15:
.LBE22:
.LBE21:
	.loc 1 184 9
.LBB25:
.LBB26:
	.loc 2 510 1
.LBB27:
.LBB28:
	.loc 2 137 1
	.loc 2 137 1
	.loc 2 137 1
	vsetvli	a4,a5,e8,m8
	.loc 2 137 1
.LVL16:
.LBE28:
.LBE27:
	.loc 2 510 1
	.loc 2 510 1
	vse8.v	v8,0(a0)
.LVL17:
.LBE26:
.LBE25:
	.loc 1 187 9
	.loc 1 187 13 is_stmt 0
	add	a1,a1,a5
.LVL18:
	.loc 1 188 9 is_stmt 1
	.loc 1 188 13 is_stmt 0
	add	a0,a0,a5
.LVL19:
	.loc 1 189 9 is_stmt 1
	.loc 1 189 19 is_stmt 0
	sub	a2,a2,a5
.LVL20:
.LBE18:
	.loc 1 175 5 is_stmt 1
	.loc 1 175 22
	bne	a2,zero,.L11
.LVL21:
.L9:
	.loc 1 191 1 is_stmt 0
	ret
	.cfi_endproc
.LFE17415:
	.size	_Z13vector_memcpyPhPKhm, .-_Z13vector_memcpyPhPKhm
	.align	2
	.globl	_Z13run_base_testv
	.type	_Z13run_base_testv, @function
_Z13run_base_testv:
.LFB17416:
	.loc 1 246 25 is_stmt 1
	.cfi_startproc
	addi	sp,sp,-608
	.cfi_def_cfa_offset 608
	sd	ra,600(sp)
	sd	s0,592(sp)
	sd	s1,584(sp)
	li	t1,-8192
	add	sp,sp,t1
	.cfi_def_cfa_offset 8800
	.cfi_offset 1, -8
	.cfi_offset 8, -16
	.cfi_offset 9, -24
	.loc 1 250 5
	.loc 1 250 10 is_stmt 0
	lui	a3,%hi(.LANCHOR0)
	addi	a3,a3,%lo(.LANCHOR0)
	ld	t1,0(a3)
	ld	a7,8(a3)
	ld	a6,16(a3)
	ld	a0,24(a3)
	ld	a1,32(a3)
	ld	a2,40(a3)
	ld	a4,48(a3)
	ld	a5,56(a3)
	li	t3,8192
	addi	t4,t3,512
	add	t4,t4,sp
	sd	t1,0(t4)
	mv	t1,t3
	addi	t3,t3,520
	add	t3,t3,sp
	sd	a7,0(t3)
	mv	a7,t1
	addi	t1,t1,528
	add	t1,t1,sp
	sd	a6,0(t1)
	mv	a6,a7
	addi	a7,a7,536
	add	a7,a7,sp
	sd	a0,0(a7)
	mv	a0,a6
	addi	a6,a6,544
	add	a6,a6,sp
	sd	a1,0(a6)
	mv	a1,a0
	addi	a0,a0,552
	add	a0,a0,sp
	sd	a2,0(a0)
	mv	a2,a1
	addi	a1,a1,560
	add	a1,a1,sp
	sd	a4,0(a1)
	mv	a4,a2
	addi	a2,a2,568
	add	a2,a2,sp
	sd	a5,0(a2)
	.loc 1 259 5 is_stmt 1
	.loc 1 259 9 is_stmt 0
	addi	a5,a3,64
	add	a4,sp,a4
	addi	a3,a3,576
.L14:
	ld	a6,0(a5)
	ld	a0,8(a5)
	ld	a1,16(a5)
	ld	a2,24(a5)
	sd	a6,0(a4)
	sd	a0,8(a4)
	sd	a1,16(a4)
	sd	a2,24(a4)
	addi	a5,a5,32
	addi	a4,a4,32
	bne	a5,a3,.L14
	.loc 1 278 5 is_stmt 1
	.loc 1 279 5
.LVL22:
.LBB29:
	.loc 1 279 26
	li	a5,8192
	add	s0,sp,a5
	li	a4,-4096
	addi	a4,a4,-576
	addi	a3,a5,576
	add	a3,a3,sp
	add	a4,a3,a4
	mv	a1,s0
.LBE29:
	.loc 1 259 9 is_stmt 0
	mv	a3,s0
.LVL23:
.L15:
.LBB31:
.LBB30:
	.loc 1 280 9 is_stmt 1 discriminator 2
	.loc 1 280 13 is_stmt 0 discriminator 2
	lw	a5,0(a3)
.LVL24:
	.loc 1 281 9 is_stmt 1 discriminator 2
	.loc 1 282 49 is_stmt 0 discriminator 2
	slli	a5,a5,4
.LVL25:
	li	a0,8192
	addi	a2,a0,576
	add	a2,a2,sp
	add	a2,a2,a5
	.loc 1 281 25 discriminator 2
	ld	a2,-64(a2)
	sd	a2,0(a4)
	.loc 1 283 57 discriminator 2
	addi	a2,a0,512
	add	a2,a2,sp
	add	a5,a2,a5
	.loc 1 281 25 discriminator 2
	sd	a5,16(a4)
.LBE30:
	.loc 1 279 5 is_stmt 1 discriminator 2
	.loc 1 279 26 discriminator 2
	addi	a3,a3,4
.LVL26:
	addi	a4,a4,32
	bne	a4,a1,.L15
.LBE31:
	.loc 1 287 5
	.loc 1 287 13 is_stmt 0
	li	s1,-8192
	li	a2,4096
	li	a1,0
	mv	a0,sp
	call	memset
.LVL27:
	.loc 1 289 5 is_stmt 1
	.loc 1 290 5
	.loc 1 293 5
	.loc 1 293 18 is_stmt 0
	addi	s1,s1,-576
	li	a4,8192
	addi	a5,a4,576
	add	a5,a5,sp
	add	s1,a5,s1
	li	a2,4096
	li	a1,-4096
	addi	a1,a1,-576
	addi	a5,a4,576
	add	a5,a5,sp
	add	a1,a5,a1
	mv	a0,s1
	call	_Z13vector_memcpyPhPKhm
.LVL28:
.LBB32:
	.loc 1 296 26 is_stmt 1
	mv	a4,s1
	li	a1,4096
	add	a1,s1,a1
.LVL29:
.L17:
	.loc 1 299 9
	.loc 1 299 27 is_stmt 0
	ld	a3,16(a4)
	.loc 1 299 9
	ld	a2,0(a3)
	ld	a5,0(a4)
	bne	a2,a5,.L18
	.loc 1 302 9 is_stmt 1
	.loc 1 302 71 is_stmt 0
	lw	a5,0(s0)
	slli	a5,a5,4
	li	a2,8192
	addi	a2,a2,512
	add	a2,a2,sp
	add	a5,a2,a5
	.loc 1 302 9
	bne	a3,a5,.L19
	.loc 1 296 5 is_stmt 1 discriminator 2
	.loc 1 296 26 discriminator 2
	addi	a4,a4,32
	addi	s0,s0,4
	bne	a4,a1,.L17
.LBE32:
	.loc 1 306 12 is_stmt 0
	li	a0,1
.LBB33:
	j	.L16
.L18:
	.loc 1 300 20
	li	a0,0
.L16:
.LBE33:
	.loc 1 307 1
	li	t1,8192
	add	sp,sp,t1
	.cfi_remember_state
	.cfi_def_cfa_offset 608
	ld	ra,600(sp)
	.cfi_restore 1
	ld	s0,592(sp)
	.cfi_restore 8
	ld	s1,584(sp)
	.cfi_restore 9
	addi	sp,sp,608
	.cfi_def_cfa_offset 0
	jr	ra
.L19:
	.cfi_restore_state
.LBB34:
	.loc 1 303 20
	li	a0,0
	j	.L16
.LBE34:
	.cfi_endproc
.LFE17416:
	.size	_Z13run_base_testv, .-_Z13run_base_testv
	.align	2
	.globl	main
	.type	main, @function
main:
.LFB17417:
	.loc 1 380 1 is_stmt 1
	.cfi_startproc
	addi	sp,sp,-16
	.cfi_def_cfa_offset 16
	sd	ra,8(sp)
	.cfi_offset 1, -8
	.loc 1 381 5
.LVL30:
	.loc 1 382 5
	.loc 1 384 5
	.loc 1 385 5
	.loc 1 385 28 is_stmt 0
	call	_Z13run_base_testv
.LVL31:
	.loc 1 392 5 is_stmt 1
	.loc 1 392 25 is_stmt 0
	lui	a4,%hi(outputAttempted)
	li	a3,1
	sw	a3,%lo(outputAttempted)(a4)
	.loc 1 393 5 is_stmt 1
	.loc 1 393 25 is_stmt 0
	lui	a4,%hi(outputSucceeded)
	sw	a0,%lo(outputSucceeded)(a4)
	.loc 1 394 5 is_stmt 1
	.loc 1 395 1 is_stmt 0
	ld	ra,8(sp)
	.cfi_restore 1
	addi	sp,sp,16
	.cfi_def_cfa_offset 0
	jr	ra
	.cfi_endproc
.LFE17417:
	.size	main, .-main
	.section	.rodata
	.align	4
	.set	.LANCHOR0,. + 0
.LC0:
	.dword	8389908080790640474
	.zero	8
	.dword	-8293413467698580316
	.zero	8
	.dword	7433078584290569438
	.zero	8
	.dword	-7710342347414968681
	.zero	8
.LC1:
	.word	1
	.word	1
	.word	1
	.word	1
	.word	2
	.word	2
	.word	3
	.word	0
	.word	1
	.word	0
	.word	3
	.word	0
	.word	0
	.word	3
	.word	3
	.word	0
	.word	1
	.word	0
	.word	0
	.word	2
	.word	2
	.word	0
	.word	2
	.word	1
	.word	0
	.word	0
	.word	0
	.word	3
	.word	2
	.word	0
	.word	1
	.word	1
	.word	3
	.word	2
	.word	3
	.word	0
	.word	2
	.word	2
	.word	0
	.word	0
	.word	0
	.word	1
	.word	1
	.word	3
	.word	0
	.word	0
	.word	1
	.word	3
	.word	1
	.word	2
	.word	3
	.word	2
	.word	2
	.word	0
	.word	2
	.word	1
	.word	0
	.word	3
	.word	1
	.word	1
	.word	3
	.word	3
	.word	2
	.word	2
	.word	0
	.word	1
	.word	3
	.word	2
	.word	2
	.word	1
	.word	1
	.word	3
	.word	2
	.word	2
	.word	0
	.word	1
	.word	1
	.word	3
	.word	0
	.word	1
	.word	0
	.word	0
	.word	3
	.word	2
	.word	2
	.word	3
	.word	3
	.word	1
	.word	1
	.word	1
	.word	1
	.word	2
	.word	1
	.word	1
	.word	2
	.word	1
	.word	2
	.word	2
	.word	1
	.word	1
	.word	3
	.word	1
	.word	1
	.word	3
	.word	0
	.word	2
	.word	3
	.word	1
	.word	1
	.word	3
	.word	2
	.word	3
	.word	2
	.word	1
	.word	2
	.word	0
	.word	2
	.word	2
	.word	2
	.word	3
	.word	0
	.word	3
	.word	1
	.word	0
	.word	3
	.word	2
	.word	1
	.word	0
	.text
.Letext0:
	.file 3 "/scratch/gccs/outputs/rvv-intrinsic/lib/gcc/riscv64-unknown-elf/10.1.0/include/stddef.h"
	.file 4 "/scratch/gccs/outputs/rvv-intrinsic/lib/gcc/riscv64-unknown-elf/10.1.0/include/stdint-gcc.h"