
build/vector_memcpy.elf:	file format elf32-littleriscv
Contents of section .text.init:
 0000 17010100 13010102 97000000 e780c01c  ................
 0010 6f000000                             o...
Contents of section .text:
 0014 630c0600 93060500 2380b600 1306f6ff  c.......#.......
 0024 93861600 e31a06fe 67800000 63000506  ........g...c...
 0034 93024000 93080001 6f000002 87ec0502  ..@.....o.......
 0044 a76c0602 3305f540 93962700 b385d500  .l..3..@..'.....
 0054 3306d600 630c0502 d7770505 13982700  3...c....w....'.
 0064 e37ea8fc 13070000 b386e500 57f00705  .~..........W...
 0074 87ec560a b306e600 13074700 a7ec560a  ..V.......G...V.
 0084 e31417ff 93070800 6ff0dffb 67800000  ........o...g...
 0094 63020502 d7767505 87ec0502 a76c0602  c....vu......l..
 00a4 13972600 b385e500 3305d540 3306e600  ..&.....3..@3...
 00b4 e31205fe 67800000 63020502 d7763505  ....g...c....v5.
 00c4 07e40502 27640602 13972600 b385e500  ....'d....&.....
 00d4 3305d540 3306e600 e31205fe 67800000  3..@3.......g...
 00e4 130101be 232e1140 232c8140 232a9140  ....#..@#,.@#*.@
 00f4 23282141 13090500 13050121 13060020  #(!A.......!... 
 0104 93040121 93050000 97000000 e78080f0  ...!............
 0114 13050101 13060020 93050000 97000000  ....... ........
 0124 e78040ef 13050000 93050008 23a0a400  ..@.........#...
 0134 13051500 93844400 e31ab5fe 93040121  ......D........!
 0144 13057006 93050121 13060101 13040101  ..p....!........
 0154 e7000900 13050000 9305c019 3386a400  ............3...
 0164 03260600 b306a400 83a60600 6314d604  .&..........c...
 0174 13054500 e314b5fe 8325c11a 13050000  ..E......%......
 0184 639c0502 1305011b 93067006 9305f007  c.........p.....
 0194 13860600 638ab600 03270500 13054500  ....c....'....E.
 01a4 93061600 e30607fe 1305e007 3335c500  ............35..
 01b4 6f008000 13050000 03290141 83244141  o........).A.$AA
 01c4 03248141 8320c141 13010142 67800000  .$.A. .A...Bg...
 01d4 130101ff 23261100 23248100 37050000  ....#&..#$..7...
 01e4 1305c50b 97000000 e780c0ef 13040500  ................
 01f4 37050000 13054509 97000000 e78080ee  7.....E.........
 0204 13151500 33648500 37050000 13050503  ....3d..7.......
 0214 97000000 e78000ed 13152500 3365a400  ..........%.3e..
 0224 b70500f0 23a0a500 03248100 8320c100  ....#....$... ..
 0234 13010101 67800000                    ....g...
Contents of section .comment:
 0000 4c696e6b 65723a20 5562756e 7475204c  Linker: Ubuntu L
 0010 4c442031 332e302e 31000055 62756e74  LD 13.0.1..Ubunt
 0020 7520636c 616e6720 76657273 696f6e20  u clang version 
 0030 31332e30 2e312d2b 2b323032 31313231  13.0.1-++2021121
 0040 35303232 3831312b 35393332 63303034  5022811+5932c004
 0050 37373863 2d317e65 7870317e 32303231  778c-1~exp1~2021
 0060 31323135 30323238 31392e32 3700      1215022819.27.
Contents of section .riscv.attributes:
 0000 41410000 00726973 63760001 37000000  AA...riscv..7...
 0010 04100572 76333269 3270305f 6d327030  ...rv32i2p0_m2p0
 0020 5f613270 305f6632 70305f64 3270305f  _a2p0_f2p0_d2p0_
 0030 76307031 305f7a76 6c737365 67307031  v0p10_zvlsseg0p1
 0040 3000                                 0.
Contents of section .symtab:
 0000 00000000 00000000 00000000 00000000  ................
 0010 01000000 00000000 00000000 00000100  ................
 0020 07000000 00000000 00000000 00000100  ................
 0030 13000000 10000000 00000000 00000100  ................
 0040 17000000 00000000 00000000 0400f1ff  ................
 0050 27000000 2c000000 00000000 00000200  '...,...........
 0060 2f000000 1c000000 00000000 00000200  /...............
 0070 37000000 90000000 00000000 00000200  7...............
 0080 3f000000 5c000000 00000000 00000200  ?...\...........
 0090 47000000 40000000 00000000 00000200  G...@...........
 00a0 4f000000 48000000 00000000 00000200  O...H...........
 00b0 57000000 6c000000 00000000 00000200  W...l...........
 00c0 5f000000 b8000000 00000000 00000200  _...............
 00d0 67000000 98000000 00000000 00000200  g...............
 00e0 6f000000 e0000000 00000000 00000200  o...............
 00f0 77000000 c0000000 00000000 00000200  w...............
 0100 7f000000 30010000 00000000 00000200  ....0...........
 0110 87000000 60010000 00000000 00000200  ....`...........
 0120 8f000000 b8010000 00000000 00000200  ................
 0130 98000000 bc010000 00000000 00000200  ................
 0140 a1000000 94010000 00000000 00000200  ................
 0150 a9000000 ac010000 00000000 00000200  ................
 0160 b1000000 00000100 00000000 1000f1ff  ................
 0170 b6000000 d4010000 68000000 12000200  ........h.......
 0180 bb000000 14000000 1c000000 12000200  ................
 0190 c2000000 30000000 64000000 12000200  ....0...d.......
 01a0 d8000000 94000000 28000000 12000200  ........(.......
 01b0 ec000000 bc000000 28000000 12000200  ........(.......
 01c0 ff000000 e4000000 f0000000 12000200  ................
Contents of section .shstrtab:
 0000 002e7465 78742e69 6e697400 2e746578  ..text.init..tex
 0010 74002e63 6f6d6d65 6e74002e 72697363  t..comment..risc
 0020 762e6174 74726962 75746573 002e7379  v.attributes..sy
 0030 6d746162 002e7368 73747274 6162002e  mtab..shstrtab..
 0040 73747274 616200                      strtab.
Contents of section .strtab:
 0000 00656e74 7279002e 4c706372 656c5f68  .entry..Lpcrel_h
 0010 69300065 6e640076 6563746f 725f6d65  i0.end.vector_me
 0020 6d637079 2e63002e 4c424230 5f33002e  mcpy.c..LBB0_3..
 0030 4c424230 5f32002e 4c424231 5f38002e  LBB0_2..LBB1_8..
 0040 4c424231 5f34002e 4c424231 5f32002e  LBB1_4..LBB1_2..
 0050 4c424231 5f33002e 4c424231 5f36002e  LBB1_3..LBB1_6..
 0060 4c424232 5f32002e 4c424232 5f31002e  LBB2_2..LBB2_1..
 0070 4c424233 5f32002e 4c424233 5f31002e  LBB3_2..LBB3_1..
 0080 4c424234 5f31002e 4c424234 5f33002e  LBB4_1..LBB4_3..
 0090 4c424234 5f313000 2e4c4242 345f3131  LBB4_10..LBB4_11
 00a0 002e4c42 42345f37 002e4c42 42345f39  ..LBB4_7..LBB4_9
 00b0 005f5f73 70006d61 696e006d 656d7365  .__sp.main.memse
 00c0 74007665 63746f72 5f6d656d 6370795f  t.vector_memcpy_
 00d0 73747269 64656400 76656374 6f725f6d  strided.vector_m
 00e0 656d6370 795f3332 6d663200 76656374  emcpy_32mf2.vect
 00f0 6f725f6d 656d6370 795f3332 6d380076  or_memcpy_32m8.v
 0100 6563746f 725f6d65 6d637079 5f686172  ector_memcpy_har
 0110 6e657373 00                          ness.

Disassembly of section .text.init:

00000000 <entry>:
       0: 17 01 01 00  	auipc	sp, 16
       4: 13 01 01 02  	addi	sp, sp, 32
       8: 97 00 00 00  	auipc	ra, 0
       c: e7 80 c0 1c  	jalr	460(ra)

00000010 <end>:
      10: 6f 00 00 00  	j	0x10 <end>

Disassembly of section .text:

00000014 <memset>:
      14: 63 0c 06 00  	beqz	a2, 0x2c <.LBB0_3>
      18: 93 06 05 00  	mv	a3, a0

0000001c <.LBB0_2>:
      1c: 23 80 b6 00  	sb	a1, 0(a3)
      20: 13 06 f6 ff  	addi	a2, a2, -1
      24: 93 86 16 00  	addi	a3, a3, 1
      28: e3 1a 06 fe  	bnez	a2, 0x1c <.LBB0_2>

0000002c <.LBB0_3>:
      2c: 67 80 00 00  	ret

00000030 <vector_memcpy_strided>:
      30: 63 00 05 06  	beqz	a0, 0x90 <.LBB1_8>
      34: 93 02 40 00  	addi	t0, zero, 4
      38: 93 08 00 01  	addi	a7, zero, 16
      3c: 6f 00 00 02  	j	0x5c <.LBB1_4>

00000040 <.LBB1_2>:
      40: 87 ec 05 02  	<unknown>
      44: a7 6c 06 02  	<unknown>

00000048 <.LBB1_3>:
      48: 33 05 f5 40  	sub	a0, a0, a5
      4c: 93 96 27 00  	slli	a3, a5, 2
      50: b3 85 d5 00  	add	a1, a1, a3
      54: 33 06 d6 00  	add	a2, a2, a3
      58: 63 0c 05 02  	beqz	a0, 0x90 <.LBB1_8>

0000005c <.LBB1_4>:
      5c: d7 77 05 05  	<unknown>
      60: 13 98 27 00  	slli	a6, a5, 2
      64: e3 7e a8 fc  	bgeu	a6, a0, 0x40 <.LBB1_2>
      68: 13 07 00 00  	mv	a4, zero

0000006c <.LBB1_6>:
      6c: b3 86 e5 00  	add	a3, a1, a4
      70: 57 f0 07 05  	<unknown>
      74: 87 ec 56 0a  	<unknown>
      78: b3 06 e6 00  	add	a3, a2, a4
      7c: 13 07 47 00  	addi	a4, a4, 4
      80: a7 ec 56 0a  	<unknown>
      84: e3 14 17 ff  	bne	a4, a7, 0x6c <.LBB1_6>
      88: 93 07 08 00  	mv	a5, a6
      8c: 6f f0 df fb  	j	0x48 <.LBB1_3>

00000090 <.LBB1_8>:
      90: 67 80 00 00  	ret

00000094 <vector_memcpy_32mf2>:
      94: 63 02 05 02  	beqz	a0, 0xb8 <.LBB2_2>

00000098 <.LBB2_1>:
      98: d7 76 75 05  	<unknown>
      9c: 87 ec 05 02  	<unknown>
      a0: a7 6c 06 02  	<unknown>
      a4: 13 97 26 00  	slli	a4, a3, 2
      a8: b3 85 e5 00  	add	a1, a1, a4
      ac: 33 05 d5 40  	sub	a0, a0, a3
      b0: 33 06 e6 00  	add	a2, a2, a4
      b4: e3 12 05 fe  	bnez	a0, 0x98 <.LBB2_1>

000000b8 <.LBB2_2>:
      b8: 67 80 00 00  	ret

000000bc <vector_memcpy_32m8>:
      bc: 63 02 05 02  	beqz	a0, 0xe0 <.LBB3_2>

000000c0 <.LBB3_1>:
      c0: d7 76 35 05  	<unknown>
      c4: 07 e4 05 02  	<unknown>
      c8: 27 64 06 02  	<unknown>
      cc: 13 97 26 00  	slli	a4, a3, 2
      d0: b3 85 e5 00  	add	a1, a1, a4
      d4: 33 05 d5 40  	sub	a0, a0, a3
      d8: 33 06 e6 00  	add	a2, a2, a4
      dc: e3 12 05 fe  	bnez	a0, 0xc0 <.LBB3_1>

000000e0 <.LBB3_2>:
      e0: 67 80 00 00  	ret

000000e4 <vector_memcpy_harness>:
      e4: 13 01 01 be  	addi	sp, sp, -1056
      e8: 23 2e 11 40  	sw	ra, 1052(sp)
      ec: 23 2c 81 40  	sw	s0, 1048(sp)
      f0: 23 2a 91 40  	sw	s1, 1044(sp)
      f4: 23 28 21 41  	sw	s2, 1040(sp)
      f8: 13 09 05 00  	mv	s2, a0
      fc: 13 05 01 21  	addi	a0, sp, 528
     100: 13 06 00 20  	addi	a2, zero, 512
     104: 93 04 01 21  	addi	s1, sp, 528
     108: 93 05 00 00  	mv	a1, zero
     10c: 97 00 00 00  	auipc	ra, 0
     110: e7 80 80 f0  	jalr	-248(ra)
     114: 13 05 01 01  	addi	a0, sp, 16
     118: 13 06 00 20  	addi	a2, zero, 512
     11c: 93 05 00 00  	mv	a1, zero
     120: 97 00 00 00  	auipc	ra, 0
     124: e7 80 40 ef  	jalr	-268(ra)
     128: 13 05 00 00  	mv	a0, zero
     12c: 93 05 00 08  	addi	a1, zero, 128

00000130 <.LBB4_1>:
     130: 23 a0 a4 00  	sw	a0, 0(s1)
     134: 13 05 15 00  	addi	a0, a0, 1
     138: 93 84 44 00  	addi	s1, s1, 4
     13c: e3 1a b5 fe  	bne	a0, a1, 0x130 <.LBB4_1>
     140: 93 04 01 21  	addi	s1, sp, 528
     144: 13 05 70 06  	addi	a0, zero, 103
     148: 93 05 01 21  	addi	a1, sp, 528
     14c: 13 06 01 01  	addi	a2, sp, 16
     150: 13 04 01 01  	addi	s0, sp, 16
     154: e7 00 09 00  	jalr	s2
     158: 13 05 00 00  	mv	a0, zero
     15c: 93 05 c0 19  	addi	a1, zero, 412

00000160 <.LBB4_3>:
     160: 33 86 a4 00  	add	a2, s1, a0
     164: 03 26 06 00  	lw	a2, 0(a2)
     168: b3 06 a4 00  	add	a3, s0, a0
     16c: 83 a6 06 00  	lw	a3, 0(a3)
     170: 63 14 d6 04  	bne	a2, a3, 0x1b8 <.LBB4_10>
     174: 13 05 45 00  	addi	a0, a0, 4
     178: e3 14 b5 fe  	bne	a0, a1, 0x160 <.LBB4_3>
     17c: 83 25 c1 1a  	lw	a1, 428(sp)
     180: 13 05 00 00  	mv	a0, zero
     184: 63 9c 05 02  	bnez	a1, 0x1bc <.LBB4_11>
     188: 13 05 01 1b  	addi	a0, sp, 432
     18c: 93 06 70 06  	addi	a3, zero, 103
     190: 93 05 f0 07  	addi	a1, zero, 127

00000194 <.LBB4_7>:
     194: 13 86 06 00  	mv	a2, a3
     198: 63 8a b6 00  	beq	a3, a1, 0x1ac <.LBB4_9>
     19c: 03 27 05 00  	lw	a4, 0(a0)
     1a0: 13 05 45 00  	addi	a0, a0, 4
     1a4: 93 06 16 00  	addi	a3, a2, 1
     1a8: e3 06 07 fe  	beqz	a4, 0x194 <.LBB4_7>

000001ac <.LBB4_9>:
     1ac: 13 05 e0 07  	addi	a0, zero, 126
     1b0: 33 35 c5 00  	sltu	a0, a0, a2
     1b4: 6f 00 80 00  	j	0x1bc <.LBB4_11>

000001b8 <.LBB4_10>:
     1b8: 13 05 00 00  	mv	a0, zero

000001bc <.LBB4_11>:
     1bc: 03 29 01 41  	lw	s2, 1040(sp)
     1c0: 83 24 41 41  	lw	s1, 1044(sp)
     1c4: 03 24 81 41  	lw	s0, 1048(sp)
     1c8: 83 20 c1 41  	lw	ra, 1052(sp)
     1cc: 13 01 01 42  	addi	sp, sp, 1056
     1d0: 67 80 00 00  	ret

000001d4 <main>:
     1d4: 13 01 01 ff  	addi	sp, sp, -16
     1d8: 23 26 11 00  	sw	ra, 12(sp)
     1dc: 23 24 81 00  	sw	s0, 8(sp)
     1e0: 37 05 00 00  	lui	a0, 0
     1e4: 13 05 c5 0b  	addi	a0, a0, 188
     1e8: 97 00 00 00  	auipc	ra, 0
     1ec: e7 80 c0 ef  	jalr	-260(ra)
     1f0: 13 04 05 00  	mv	s0, a0
     1f4: 37 05 00 00  	lui	a0, 0
     1f8: 13 05 45 09  	addi	a0, a0, 148
     1fc: 97 00 00 00  	auipc	ra, 0
     200: e7 80 80 ee  	jalr	-280(ra)
     204: 13 15 15 00  	slli	a0, a0, 1
     208: 33 64 85 00  	or	s0, a0, s0
     20c: 37 05 00 00  	lui	a0, 0
     210: 13 05 05 03  	addi	a0, a0, 48
     214: 97 00 00 00  	auipc	ra, 0
     218: e7 80 00 ed  	jalr	-304(ra)
     21c: 13 15 25 00  	slli	a0, a0, 2
     220: 33 65 a4 00  	or	a0, s0, a0
     224: b7 05 00 f0  	lui	a1, 983040
     228: 23 a0 a5 00  	sw	a0, 0(a1)
     22c: 03 24 81 00  	lw	s0, 8(sp)
     230: 83 20 c1 00  	lw	ra, 12(sp)
     234: 13 01 01 01  	addi	sp, sp, 16
     238: 67 80 00 00  	ret
