
build/vector_memcpy.elf:	file format elf32-littleriscv
Contents of section .text.init:
 0000 17010100 13010102 97000000 e7800046  ...............F
 0010 6f000000                             o...
Contents of section .text:
 0014 630c0600 93060500 2380b600 1306f6ff  c.......#.......
 0024 93861600 e31a06fe 67800000 130101de  ........g.......
 0034 232e1120 232c8120 232a9120 23282121  #.. #,. #*. #(!!
 0044 23263121 13090600 93890500 13040500  #&1!............
 0054 1305c100 13060020 9304c100 93050000  ....... ........
 0064 97000000 e78000fb 57752005 630e0500  ........Wu .c...
 0074 93050000 13c61500 23a0c400 93851500  ........#.......
 0084 93844400 e318b5fe 9305c100 07ee0502  ..D.............
 0094 631e0402 8329c120 03290121 83244121  c....). .).!.$A!
 00a4 03248121 8320c121 13010122 67800000  .$.!. .!..."g...
 00b4 07e40902 27640902 13962500 b389c900  ....'d....%.....
 00c4 3304b440 3309c900 e30604fc d7752405  3..@3........u$.
 00d4 e390a5fe 07e4c90f 2764c90f 6ff0dffd  ........'d..o...
 00e4 130101de 232e1120 232c8120 232a9120  ....#.. #,. #*. 
 00f4 23282121 23263121 13090600 93890500  #(!!#&1!........
 0104 13040500 1305c100 13060020 9304c100  ........... ....
 0114 93050000 97000000 e780c0ef 57752005  ............Wu .
 0124 630e0500 93050000 13f61500 23a0c400  c...........#...
 0134 93851500 93844400 e318b5fe 1305c100  ......D.........
 0144 076e0502 630c0402 57b0c063 573e005e  .n..c...W..cW>.^
 0154 57752405 57702501 57b4c19f 07e40900  Wu$.Wp%.W.......
 0164 57702005 27640900 93152500 b389b900  Wp .'d....%.....
 0174 3304a440 3309b900 e31c04fc 8329c120  3..@3........). 
 0184 03290121 83244121 03248121 8320c121  .).!.$A!.$.!. .!
 0194 13010122 67800000 63000506 93024000  ..."g...c.....@.
 01a4 93080001 6f000002 87ec0502 a76c0602  ....o........l..
 01b4 3305f540 93962700 b385d500 3306d600  3..@..'.....3...
 01c4 630c0502 d7770505 13982700 e37ea8fc  c....w....'..~..
 01d4 13070000 b386e500 57f00705 87ec560a  ........W.....V.
 01e4 b306e600 13074700 a7ec560a e31417ff  ......G...V.....
 01f4 93070800 6ff0dffb 67800000 63020502  ....o...g...c...
 0204 d7767505 87ec0502 a76c0602 13972600  .vu......l....&.
 0214 b385e500 3305d540 3306e600 e31205fe  ....3..@3.......
 0224 67800000 63020502 d7763505 07e40502  g...c....v5.....
 0234 27640602 13972600 b385e500 3305d540  'd....&.....3..@
 0244 3306e600 e31205fe 67800000 130101be  3.......g.......
 0254 232e1140 232c8140 232a9140 23282141  #..@#,.@#*.@#(!A
 0264 13090500 13050121 13060020 93040121  .......!... ...!
 0274 93050000 97000000 e780c0d9 13050101  ................
 0284 13060020 93050000 97000000 e78080d8  ... ............
 0294 13050000 93050008 23a0a400 13051500  ........#.......
 02a4 93844400 e31ab5fe 93040121 13057006  ..D........!..p.
 02b4 93050121 13060101 13040101 e7000900  ...!............
 02c4 13050000 9305c019 3386a400 03260600  ........3....&..
 02d4 b306a400 83a60600 6314d604 13054500  ........c.....E.
 02e4 e314b5fe 8325c11a 13050000 639c0502  .....%......c...
 02f4 1305011b 93067006 9305f007 13860600  ......p.........
 0304 638ab600 03270500 13054500 93061600  c....'....E.....
 0314 e30607fe 1305e007 3335c500 6f008000  ........35..o...
 0324 13050000 03290141 83244141 03248141  .....).A.$AA.$.A
 0334 8320c141 13010142 67800000 130101be  . .A...Bg.......
 0344 232e1140 232c8140 232a9140 23282141  #..@#,.@#*.@#(!A
 0354 23263141 13090500 1305c120 13060020  #&1A....... ... 
 0364 1304c120 93050000 97000000 e78080ca  ... ............
 0374 1305c100 13060020 93050000 97000000  ....... ........
 0384 e78040c9 1305c100 9305f00f 13060020  ..@............ 
 0394 97000000 e78000c8 13050000 93050008  ................
 03a4 2320a400 13051500 13044400 e31ab5fe  # ........D.....
 03b4 93097006 1304c120 13057006 9305c120  ..p.... ..p.... 
 03c4 1306c100 9304c100 e7000900 13050000  ................
 03d4 9305f0ff 6f000002 03260400 83a60400  ....o....&......
 03e4 631ad602 13051500 93844400 13044400  c.........D...D.
 03f4 630c3501 13761500 e31006fe 03a60400  c.5..v..........
 0404 e302b6fe 6f000001 8325811a 1305f0ff  ....o....%......
 0414 6382a502 13050000 8329c140 03290141  c........).@.).A
 0424 83244141 03248141 8320c141 13010142  .$AA.$.A. .A...B
 0434 67800000 9305c11a 13077006 1306f007  g.........p.....
 0444 93060700 630ac700 83a70500 93854500  ....c.........E.
 0454 13871600 e386a7fe 1305e007 3335d500  ............35..
 0464 6ff09ffb 130101ff 23261100 23248100  o.......#&..#$..
 0474 37050000 13058522 97000000 e78040dd  7......"......@.
 0484 13040500 37050000 13050520 97000000  ....7...... ....
 0494 e78000dc 13151500 33648500 37050000  ........3d..7...
 04a4 1305c519 97000000 e78080da 13152500  ..............%.
 04b4 3364a400 37050000 13050503 97000000  3d..7...........
 04c4 e78000d9 13153500 3364a400 37050000  ......5.3d..7...
 04d4 1305450e 97000000 e78080e6 13154500  ..E...........E.
 04e4 3365a400 b70500f0 23a0a500 03248100  3e......#....$..
 04f4 8320c100 13010101 67800000           . ......g...
Contents of section .comment:
 0000 4c696e6b 65723a20 5562756e 7475204c  Linker: Ubuntu L
 0010 4c442031 332e302e 31000055 62756e74  LD 13.0.1..Ubunt
 0020 7520636c 616e6720 76657273 696f6e20  u clang version 
 0030 31332e30 2e312d2b 2b323032 31313231  13.0.1-++2021121
 0040 35303232 3831312b 35393332 63303034  5022811+5932c004
 0050 37373863 2d317e65 7870317e 32303231  778c-1~exp1~2021
 0060 31323135 30323238 31392e32 3700      1215022819.27.
Contents of section .riscv.attributes:
 0000 41410000 00726973 63760001 37000000  AA...riscv..7...
 0010 04100572 76333269 3270305f 6d327030  ...rv32i2p0_m2p0
 0020 5f613270 305f6632 70305f64 3270305f  _a2p0_f2p0_d2p0_
 0030 76307031 305f7a76 6c737365 67307031  v0p10_zvlsseg0p1
 0040 3000                                 0.
Contents of section .symtab:
 0000 00000000 00000000 00000000 00000000  ................
 0010 01000000 00000000 00000000 00000100  ................
 0020 07000000 00000000 00000000 00000100  ................
 0030 13000000 10000000 00000000 00000100  ................
 0040 17000000 00000000 00000000 0400f1ff  ................
 0050 27000000 2c000000 00000000 00000200  '...,...........
 0060 2f000000 1c000000 00000000 00000200  /...............
 0070 37000000 8c000000 00000000 00000200  7...............
 0080 3f000000 78000000 00000000 00000200  ?...x...........
 0090 47000000 d0000000 00000000 00000200  G...............
 00a0 4f000000 98000000 00000000 00000200  O...............
 00b0 57000000 b4000000 00000000 00000200  W...............
 00c0 5f000000 bc000000 00000000 00000200  _...............
 00d0 67000000 40010000 00000000 00000200  g...@...........
 00e0 6f000000 2c010000 00000000 00000200  o...,...........
 00f0 77000000 80010000 00000000 00000200  w...............
 0100 7f000000 54010000 00000000 00000200  ....T...........
 0110 87000000 fc010000 00000000 00000200  ................
 0120 8f000000 c8010000 00000000 00000200  ................
 0130 97000000 ac010000 00000000 00000200  ................
 0140 9f000000 b4010000 00000000 00000200  ................
 0150 a7000000 d8010000 00000000 00000200  ................
 0160 af000000 24020000 00000000 00000200  ....$...........
 0170 b7000000 04020000 00000000 00000200  ................
 0180 bf000000 4c020000 00000000 00000200  ....L...........
 0190 c7000000 2c020000 00000000 00000200  ....,...........
 01a0 cf000000 9c020000 00000000 00000200  ................
 01b0 d7000000 cc020000 00000000 00000200  ................
 01c0 df000000 24030000 00000000 00000200  ....$...........
 01d0 e8000000 28030000 00000000 00000200  ....(...........
 01e0 f1000000 00030000 00000000 00000200  ................
 01f0 f9000000 18030000 00000000 00000200  ................
 0200 01010000 a4030000 00000000 00000200  ................
 0210 09010000 f8030000 00000000 00000200  ................
 0220 11010000 dc030000 00000000 00000200  ................
 0230 19010000 18040000 00000000 00000200  ................
 0240 21010000 e8030000 00000000 00000200  !...............
 0250 29010000 0c040000 00000000 00000200  )...............
 0260 31010000 38040000 00000000 00000200  1...8...........
 0270 3a010000 1c040000 00000000 00000200  :...............
 0280 42010000 44040000 00000000 00000200  B...D...........
 0290 4b010000 5c040000 00000000 00000200  K...\...........
 02a0 54010000 00000100 00000000 1000f1ff  T...............
 02b0 59010000 68040000 98000000 12000200  Y...h...........
 02c0 5e010000 14000000 1c000000 12000200  ^...............
 02d0 65010000 30000000 b4000000 12000200  e...0...........
 02e0 7b010000 e4000000 b8000000 12000200  {...............
 02f0 90010000 9c010000 64000000 12000200  ........d.......
 0300 a6010000 00020000 28000000 12000200  ........(.......
 0310 ba010000 28020000 28000000 12000200  ....(...(.......
 0320 cd010000 50020000 f0000000 12000200  ....P...........
 0330 e3010000 40030000 28010000 12000200  ....@...(.......
Contents of section .shstrtab:
 0000 002e7465 78742e69 6e697400 2e746578  ..text.init..tex
 0010 74002e63 6f6d6d65 6e74002e 72697363  t..comment..risc
 0020 762e6174 74726962 75746573 002e7379  v.attributes..sy
 0030 6d746162 002e7368 73747274 6162002e  mtab..shstrtab..
 0040 73747274 616200                      strtab.
Contents of section .strtab:
 0000 00656e74 7279002e 4c706372 656c5f68  .entry..Lpcrel_h
 0010 69300065 6e640076 6563746f 725f6d65  i0.end.vector_me
 0020 6d637079 2e63002e 4c424230 5f33002e  mcpy.c..LBB0_3..
 0030 4c424230 5f32002e 4c424231 5f33002e  LBB0_2..LBB1_3..
 0040 4c424231 5f32002e 4c424231 5f37002e  LBB1_2..LBB1_7..
 0050 4c424231 5f34002e 4c424231 5f35002e  LBB1_4..LBB1_5..
 0060 4c424231 5f36002e 4c424232 5f33002e  LBB1_6..LBB2_3..
 0070 4c424232 5f32002e 4c424232 5f36002e  LBB2_2..LBB2_6..
 0080 4c424232 5f35002e 4c424233 5f38002e  LBB2_5..LBB3_8..
 0090 4c424233 5f34002e 4c424233 5f32002e  LBB3_4..LBB3_2..
 00a0 4c424233 5f33002e 4c424233 5f36002e  LBB3_3..LBB3_6..
 00b0 4c424234 5f32002e 4c424234 5f31002e  LBB4_2..LBB4_1..
 00c0 4c424235 5f32002e 4c424235 5f31002e  LBB5_2..LBB5_1..
 00d0 4c424236 5f31002e 4c424236 5f33002e  LBB6_1..LBB6_3..
 00e0 4c424236 5f313000 2e4c4242 365f3131  LBB6_10..LBB6_11
 00f0 002e4c42 42365f37 002e4c42 42365f39  ..LBB6_7..LBB6_9
 0100 002e4c42 42375f31 002e4c42 42375f35  ..LBB7_1..LBB7_5
 0110 002e4c42 42375f33 002e4c42 42375f38  ..LBB7_3..LBB7_8
 0120 002e4c42 42375f34 002e4c42 42375f37  ..LBB7_4..LBB7_7
 0130 002e4c42 42375f31 30002e4c 4242375f  ..LBB7_10..LBB7_
 0140 39002e4c 4242375f 3131002e 4c424237  9..LBB7_11..LBB7
 0150 5f313300 5f5f7370 006d6169 6e006d65  _13.__sp.main.me
 0160 6d736574 00766563 746f725f 6d656d63  mset.vector_memc
 0170 70795f69 6e646578 65640076 6563746f  py_indexed.vecto
 0180 725f6d65 6d637079 5f6d6173 6b656400  r_memcpy_masked.
 0190 76656374 6f725f6d 656d6370 795f7374  vector_memcpy_st
 01a0 72696465 64007665 63746f72 5f6d656d  rided.vector_mem
 01b0 6370795f 33326d66 32007665 63746f72  cpy_32mf2.vector
 01c0 5f6d656d 6370795f 33326d38 00766563  _memcpy_32m8.vec
 01d0 746f725f 6d656d63 70795f68 61726e65  tor_memcpy_harne
 01e0 73730076 6563746f 725f6d65 6d637079  ss.vector_memcpy
 01f0 5f6d6173 6b65645f 6861726e 65737300  _masked_harness.

Disassembly of section .text.init:

00000000 <entry>:
       0: 17 01 01 00  	auipc	sp, 16
       4: 13 01 01 02  	addi	sp, sp, 32
       8: 97 00 00 00  	auipc	ra, 0
       c: e7 80 00 46  	jalr	1120(ra)

00000010 <end>:
      10: 6f 00 00 00  	j	0x10 <end>

Disassembly of section .text:

00000014 <memset>:
      14: 63 0c 06 00  	beqz	a2, 0x2c <.LBB0_3>
      18: 93 06 05 00  	mv	a3, a0

0000001c <.LBB0_2>:
      1c: 23 80 b6 00  	sb	a1, 0(a3)
      20: 13 06 f6 ff  	addi	a2, a2, -1
      24: 93 86 16 00  	addi	a3, a3, 1
      28: e3 1a 06 fe  	bnez	a2, 0x1c <.LBB0_2>

0000002c <.LBB0_3>:
      2c: 67 80 00 00  	ret

00000030 <vector_memcpy_indexed>:
      30: 13 01 01 de  	addi	sp, sp, -544
      34: 23 2e 11 20  	sw	ra, 540(sp)
      38: 23 2c 81 20  	sw	s0, 536(sp)
      3c: 23 2a 91 20  	sw	s1, 532(sp)
      40: 23 28 21 21  	sw	s2, 528(sp)
      44: 23 26 31 21  	sw	s3, 524(sp)
      48: 13 09 06 00  	mv	s2, a2
      4c: 93 89 05 00  	mv	s3, a1
      50: 13 04 05 00  	mv	s0, a0
      54: 13 05 c1 00  	addi	a0, sp, 12
      58: 13 06 00 20  	addi	a2, zero, 512
      5c: 93 04 c1 00  	addi	s1, sp, 12
      60: 93 05 00 00  	mv	a1, zero
      64: 97 00 00 00  	auipc	ra, 0
      68: e7 80 00 fb  	jalr	-80(ra)
      6c: 57 75 20 05  	<unknown>
      70: 63 0e 05 00  	beqz	a0, 0x8c <.LBB1_3>
      74: 93 05 00 00  	mv	a1, zero

00000078 <.LBB1_2>:
      78: 13 c6 15 00  	xori	a2, a1, 1
      7c: 23 a0 c4 00  	sw	a2, 0(s1)
      80: 93 85 15 00  	addi	a1, a1, 1
      84: 93 84 44 00  	addi	s1, s1, 4
      88: e3 18 b5 fe  	bne	a0, a1, 0x78 <.LBB1_2>

0000008c <.LBB1_3>:
      8c: 93 05 c1 00  	addi	a1, sp, 12
      90: 07 ee 05 02  	<unknown>
      94: 63 1e 04 02  	bnez	s0, 0xd0 <.LBB1_7>

00000098 <.LBB1_4>:
      98: 83 29 c1 20  	lw	s3, 524(sp)
      9c: 03 29 01 21  	lw	s2, 528(sp)
      a0: 83 24 41 21  	lw	s1, 532(sp)
      a4: 03 24 81 21  	lw	s0, 536(sp)
      a8: 83 20 c1 21  	lw	ra, 540(sp)
      ac: 13 01 01 22  	addi	sp, sp, 544
      b0: 67 80 00 00  	ret

000000b4 <.LBB1_5>:
      b4: 07 e4 09 02  	<unknown>
      b8: 27 64 09 02  	<unknown>

000000bc <.LBB1_6>:
      bc: 13 96 25 00  	slli	a2, a1, 2
      c0: b3 89 c9 00  	add	s3, s3, a2
      c4: 33 04 b4 40  	sub	s0, s0, a1
      c8: 33 09 c9 00  	add	s2, s2, a2
      cc: e3 06 04 fc  	beqz	s0, 0x98 <.LBB1_4>

000000d0 <.LBB1_7>:
      d0: d7 75 24 05  	<unknown>
      d4: e3 90 a5 fe  	bne	a1, a0, 0xb4 <.LBB1_5>
      d8: 07 e4 c9 0f  	<unknown>
      dc: 27 64 c9 0f  	<unknown>
      e0: 6f f0 df fd  	j	0xbc <.LBB1_6>

000000e4 <vector_memcpy_masked>:
      e4: 13 01 01 de  	addi	sp, sp, -544
      e8: 23 2e 11 20  	sw	ra, 540(sp)
      ec: 23 2c 81 20  	sw	s0, 536(sp)
      f0: 23 2a 91 20  	sw	s1, 532(sp)
      f4: 23 28 21 21  	sw	s2, 528(sp)
      f8: 23 26 31 21  	sw	s3, 524(sp)
      fc: 13 09 06 00  	mv	s2, a2
     100: 93 89 05 00  	mv	s3, a1
     104: 13 04 05 00  	mv	s0, a0
     108: 13 05 c1 00  	addi	a0, sp, 12
     10c: 13 06 00 20  	addi	a2, zero, 512
     110: 93 04 c1 00  	addi	s1, sp, 12
     114: 93 05 00 00  	mv	a1, zero
     118: 97 00 00 00  	auipc	ra, 0
     11c: e7 80 c0 ef  	jalr	-260(ra)
     120: 57 75 20 05  	<unknown>
     124: 63 0e 05 00  	beqz	a0, 0x140 <.LBB2_3>
     128: 93 05 00 00  	mv	a1, zero

0000012c <.LBB2_2>:
     12c: 13 f6 15 00  	andi	a2, a1, 1
     130: 23 a0 c4 00  	sw	a2, 0(s1)
     134: 93 85 15 00  	addi	a1, a1, 1
     138: 93 84 44 00  	addi	s1, s1, 4
     13c: e3 18 b5 fe  	bne	a0, a1, 0x12c <.LBB2_2>

00000140 <.LBB2_3>:
     140: 13 05 c1 00  	addi	a0, sp, 12
     144: 07 6e 05 02  	<unknown>
     148: 63 0c 04 02  	beqz	s0, 0x180 <.LBB2_6>
     14c: 57 b0 c0 63  	<unknown>
     150: 57 3e 00 5e  	<unknown>

00000154 <.LBB2_5>:
     154: 57 75 24 05  	<unknown>
     158: 57 70 25 01  	<unknown>
     15c: 57 b4 c1 9f  	<unknown>
     160: 07 e4 09 00  	<unknown>
     164: 57 70 20 05  	<unknown>
     168: 27 64 09 00  	<unknown>
     16c: 93 15 25 00  	slli	a1, a0, 2
     170: b3 89 b9 00  	add	s3, s3, a1
     174: 33 04 a4 40  	sub	s0, s0, a0
     178: 33 09 b9 00  	add	s2, s2, a1
     17c: e3 1c 04 fc  	bnez	s0, 0x154 <.LBB2_5>

00000180 <.LBB2_6>:
     180: 83 29 c1 20  	lw	s3, 524(sp)
     184: 03 29 01 21  	lw	s2, 528(sp)
     188: 83 24 41 21  	lw	s1, 532(sp)
     18c: 03 24 81 21  	lw	s0, 536(sp)
     190: 83 20 c1 21  	lw	ra, 540(sp)
     194: 13 01 01 22  	addi	sp, sp, 544
     198: 67 80 00 00  	ret

0000019c <vector_memcpy_strided>:
     19c: 63 00 05 06  	beqz	a0, 0x1fc <.LBB3_8>
     1a0: 93 02 40 00  	addi	t0, zero, 4
     1a4: 93 08 00 01  	addi	a7, zero, 16
     1a8: 6f 00 00 02  	j	0x1c8 <.LBB3_4>

000001ac <.LBB3_2>:
     1ac: 87 ec 05 02  	<unknown>
     1b0: a7 6c 06 02  	<unknown>

000001b4 <.LBB3_3>:
     1b4: 33 05 f5 40  	sub	a0, a0, a5
     1b8: 93 96 27 00  	slli	a3, a5, 2
     1bc: b3 85 d5 00  	add	a1, a1, a3
     1c0: 33 06 d6 00  	add	a2, a2, a3
     1c4: 63 0c 05 02  	beqz	a0, 0x1fc <.LBB3_8>

000001c8 <.LBB3_4>:
     1c8: d7 77 05 05  	<unknown>
     1cc: 13 98 27 00  	slli	a6, a5, 2
     1d0: e3 7e a8 fc  	bgeu	a6, a0, 0x1ac <.LBB3_2>
     1d4: 13 07 00 00  	mv	a4, zero

000001d8 <.LBB3_6>:
     1d8: b3 86 e5 00  	add	a3, a1, a4
     1dc: 57 f0 07 05  	<unknown>
     1e0: 87 ec 56 0a  	<unknown>
     1e4: b3 06 e6 00  	add	a3, a2, a4
     1e8: 13 07 47 00  	addi	a4, a4, 4
     1ec: a7 ec 56 0a  	<unknown>
     1f0: e3 14 17 ff  	bne	a4, a7, 0x1d8 <.LBB3_6>
     1f4: 93 07 08 00  	mv	a5, a6
     1f8: 6f f0 df fb  	j	0x1b4 <.LBB3_3>

000001fc <.LBB3_8>:
     1fc: 67 80 00 00  	ret

00000200 <vector_memcpy_32mf2>:
     200: 63 02 05 02  	beqz	a0, 0x224 <.LBB4_2>

00000204 <.LBB4_1>:
     204: d7 76 75 05  	<unknown>
     208: 87 ec 05 02  	<unknown>
     20c: a7 6c 06 02  	<unknown>
     210: 13 97 26 00  	slli	a4, a3, 2
     214: b3 85 e5 00  	add	a1, a1, a4
     218: 33 05 d5 40  	sub	a0, a0, a3
     21c: 33 06 e6 00  	add	a2, a2, a4
     220: e3 12 05 fe  	bnez	a0, 0x204 <.LBB4_1>

00000224 <.LBB4_2>:
     224: 67 80 00 00  	ret

00000228 <vector_memcpy_32m8>:
     228: 63 02 05 02  	beqz	a0, 0x24c <.LBB5_2>

0000022c <.LBB5_1>:
     22c: d7 76 35 05  	<unknown>
     230: 07 e4 05 02  	<unknown>
     234: 27 64 06 02  	<unknown>
     238: 13 97 26 00  	slli	a4, a3, 2
     23c: b3 85 e5 00  	add	a1, a1, a4
     240: 33 05 d5 40  	sub	a0, a0, a3
     244: 33 06 e6 00  	add	a2, a2, a4
     248: e3 12 05 fe  	bnez	a0, 0x22c <.LBB5_1>

0000024c <.LBB5_2>:
     24c: 67 80 00 00  	ret

00000250 <vector_memcpy_harness>:
     250: 13 01 01 be  	addi	sp, sp, -1056
     254: 23 2e 11 40  	sw	ra, 1052(sp)
     258: 23 2c 81 40  	sw	s0, 1048(sp)
     25c: 23 2a 91 40  	sw	s1, 1044(sp)
     260: 23 28 21 41  	sw	s2, 1040(sp)
     264: 13 09 05 00  	mv	s2, a0
     268: 13 05 01 21  	addi	a0, sp, 528
     26c: 13 06 00 20  	addi	a2, zero, 512
     270: 93 04 01 21  	addi	s1, sp, 528
     274: 93 05 00 00  	mv	a1, zero
     278: 97 00 00 00  	auipc	ra, 0
     27c: e7 80 c0 d9  	jalr	-612(ra)
     280: 13 05 01 01  	addi	a0, sp, 16
     284: 13 06 00 20  	addi	a2, zero, 512
     288: 93 05 00 00  	mv	a1, zero
     28c: 97 00 00 00  	auipc	ra, 0
     290: e7 80 80 d8  	jalr	-632(ra)
     294: 13 05 00 00  	mv	a0, zero
     298: 93 05 00 08  	addi	a1, zero, 128

0000029c <.LBB6_1>:
     29c: 23 a0 a4 00  	sw	a0, 0(s1)
     2a0: 13 05 15 00  	addi	a0, a0, 1
     2a4: 93 84 44 00  	addi	s1, s1, 4
     2a8: e3 1a b5 fe  	bne	a0, a1, 0x29c <.LBB6_1>
     2ac: 93 04 01 21  	addi	s1, sp, 528
     2b0: 13 05 70 06  	addi	a0, zero, 103
     2b4: 93 05 01 21  	addi	a1, sp, 528
     2b8: 13 06 01 01  	addi	a2, sp, 16
     2bc: 13 04 01 01  	addi	s0, sp, 16
     2c0: e7 00 09 00  	jalr	s2
     2c4: 13 05 00 00  	mv	a0, zero
     2c8: 93 05 c0 19  	addi	a1, zero, 412

000002cc <.LBB6_3>:
     2cc: 33 86 a4 00  	add	a2, s1, a0
     2d0: 03 26 06 00  	lw	a2, 0(a2)
     2d4: b3 06 a4 00  	add	a3, s0, a0
     2d8: 83 a6 06 00  	lw	a3, 0(a3)
     2dc: 63 14 d6 04  	bne	a2, a3, 0x324 <.LBB6_10>
     2e0: 13 05 45 00  	addi	a0, a0, 4
     2e4: e3 14 b5 fe  	bne	a0, a1, 0x2cc <.LBB6_3>
     2e8: 83 25 c1 1a  	lw	a1, 428(sp)
     2ec: 13 05 00 00  	mv	a0, zero
     2f0: 63 9c 05 02  	bnez	a1, 0x328 <.LBB6_11>
     2f4: 13 05 01 1b  	addi	a0, sp, 432
     2f8: 93 06 70 06  	addi	a3, zero, 103
     2fc: 93 05 f0 07  	addi	a1, zero, 127

00000300 <.LBB6_7>:
     300: 13 86 06 00  	mv	a2, a3
     304: 63 8a b6 00  	beq	a3, a1, 0x318 <.LBB6_9>
     308: 03 27 05 00  	lw	a4, 0(a0)
     30c: 13 05 45 00  	addi	a0, a0, 4
     310: 93 06 16 00  	addi	a3, a2, 1
     314: e3 06 07 fe  	beqz	a4, 0x300 <.LBB6_7>

00000318 <.LBB6_9>:
     318: 13 05 e0 07  	addi	a0, zero, 126
     31c: 33 35 c5 00  	sltu	a0, a0, a2
     320: 6f 00 80 00  	j	0x328 <.LBB6_11>

00000324 <.LBB6_10>:
     324: 13 05 00 00  	mv	a0, zero

00000328 <.LBB6_11>:
     328: 03 29 01 41  	lw	s2, 1040(sp)
     32c: 83 24 41 41  	lw	s1, 1044(sp)
     330: 03 24 81 41  	lw	s0, 1048(sp)
     334: 83 20 c1 41  	lw	ra, 1052(sp)
     338: 13 01 01 42  	addi	sp, sp, 1056
     33c: 67 80 00 00  	ret

00000340 <vector_memcpy_masked_harness>:
     340: 13 01 01 be  	addi	sp, sp, -1056
     344: 23 2e 11 40  	sw	ra, 1052(sp)
     348: 23 2c 81 40  	sw	s0, 1048(sp)
     34c: 23 2a 91 40  	sw	s1, 1044(sp)
     350: 23 28 21 41  	sw	s2, 1040(sp)
     354: 23 26 31 41  	sw	s3, 1036(sp)
     358: 13 09 05 00  	mv	s2, a0
     35c: 13 05 c1 20  	addi	a0, sp, 524
     360: 13 06 00 20  	addi	a2, zero, 512
     364: 13 04 c1 20  	addi	s0, sp, 524
     368: 93 05 00 00  	mv	a1, zero
     36c: 97 00 00 00  	auipc	ra, 0
     370: e7 80 80 ca  	jalr	-856(ra)
     374: 13 05 c1 00  	addi	a0, sp, 12
     378: 13 06 00 20  	addi	a2, zero, 512
     37c: 93 05 00 00  	mv	a1, zero
     380: 97 00 00 00  	auipc	ra, 0
     384: e7 80 40 c9  	jalr	-876(ra)
     388: 13 05 c1 00  	addi	a0, sp, 12
     38c: 93 05 f0 0f  	addi	a1, zero, 255
     390: 13 06 00 20  	addi	a2, zero, 512
     394: 97 00 00 00  	auipc	ra, 0
     398: e7 80 00 c8  	jalr	-896(ra)
     39c: 13 05 00 00  	mv	a0, zero
     3a0: 93 05 00 08  	addi	a1, zero, 128

000003a4 <.LBB7_1>:
     3a4: 23 20 a4 00  	sw	a0, 0(s0)
     3a8: 13 05 15 00  	addi	a0, a0, 1
     3ac: 13 04 44 00  	addi	s0, s0, 4
     3b0: e3 1a b5 fe  	bne	a0, a1, 0x3a4 <.LBB7_1>
     3b4: 93 09 70 06  	addi	s3, zero, 103
     3b8: 13 04 c1 20  	addi	s0, sp, 524
     3bc: 13 05 70 06  	addi	a0, zero, 103
     3c0: 93 05 c1 20  	addi	a1, sp, 524
     3c4: 13 06 c1 00  	addi	a2, sp, 12
     3c8: 93 04 c1 00  	addi	s1, sp, 12
     3cc: e7 00 09 00  	jalr	s2
     3d0: 13 05 00 00  	mv	a0, zero
     3d4: 93 05 f0 ff  	addi	a1, zero, -1
     3d8: 6f 00 00 02  	j	0x3f8 <.LBB7_5>

000003dc <.LBB7_3>:
     3dc: 03 26 04 00  	lw	a2, 0(s0)
     3e0: 83 a6 04 00  	lw	a3, 0(s1)
     3e4: 63 1a d6 02  	bne	a2, a3, 0x418 <.LBB7_8>

000003e8 <.LBB7_4>:
     3e8: 13 05 15 00  	addi	a0, a0, 1
     3ec: 93 84 44 00  	addi	s1, s1, 4
     3f0: 13 04 44 00  	addi	s0, s0, 4
     3f4: 63 0c 35 01  	beq	a0, s3, 0x40c <.LBB7_7>

000003f8 <.LBB7_5>:
     3f8: 13 76 15 00  	andi	a2, a0, 1
     3fc: e3 10 06 fe  	bnez	a2, 0x3dc <.LBB7_3>
     400: 03 a6 04 00  	lw	a2, 0(s1)
     404: e3 02 b6 fe  	beq	a2, a1, 0x3e8 <.LBB7_4>
     408: 6f 00 00 01  	j	0x418 <.LBB7_8>

0000040c <.LBB7_7>:
     40c: 83 25 81 1a  	lw	a1, 424(sp)
     410: 13 05 f0 ff  	addi	a0, zero, -1
     414: 63 82 a5 02  	beq	a1, a0, 0x438 <.LBB7_10>

00000418 <.LBB7_8>:
     418: 13 05 00 00  	mv	a0, zero

0000041c <.LBB7_9>:
     41c: 83 29 c1 40  	lw	s3, 1036(sp)
     420: 03 29 01 41  	lw	s2, 1040(sp)
     424: 83 24 41 41  	lw	s1, 1044(sp)
     428: 03 24 81 41  	lw	s0, 1048(sp)
     42c: 83 20 c1 41  	lw	ra, 1052(sp)
     430: 13 01 01 42  	addi	sp, sp, 1056
     434: 67 80 00 00  	ret

00000438 <.LBB7_10>:
     438: 93 05 c1 1a  	addi	a1, sp, 428
     43c: 13 07 70 06  	addi	a4, zero, 103
     440: 13 06 f0 07  	addi	a2, zero, 127

00000444 <.LBB7_11>:
     444: 93 06 07 00  	mv	a3, a4
     448: 63 0a c7 00  	beq	a4, a2, 0x45c <.LBB7_13>
     44c: 83 a7 05 00  	lw	a5, 0(a1)
     450: 93 85 45 00  	addi	a1, a1, 4
     454: 13 87 16 00  	addi	a4, a3, 1
     458: e3 86 a7 fe  	beq	a5, a0, 0x444 <.LBB7_11>

0000045c <.LBB7_13>:
     45c: 13 05 e0 07  	addi	a0, zero, 126
     460: 33 35 d5 00  	sltu	a0, a0, a3
     464: 6f f0 9f fb  	j	0x41c <.LBB7_9>

00000468 <main>:
     468: 13 01 01 ff  	addi	sp, sp, -16
     46c: 23 26 11 00  	sw	ra, 12(sp)
     470: 23 24 81 00  	sw	s0, 8(sp)
     474: 37 05 00 00  	lui	a0, 0
     478: 13 05 85 22  	addi	a0, a0, 552
     47c: 97 00 00 00  	auipc	ra, 0
     480: e7 80 40 dd  	jalr	-556(ra)
     484: 13 04 05 00  	mv	s0, a0
     488: 37 05 00 00  	lui	a0, 0
     48c: 13 05 05 20  	addi	a0, a0, 512
     490: 97 00 00 00  	auipc	ra, 0
     494: e7 80 00 dc  	jalr	-576(ra)
     498: 13 15 15 00  	slli	a0, a0, 1
     49c: 33 64 85 00  	or	s0, a0, s0
     4a0: 37 05 00 00  	lui	a0, 0
     4a4: 13 05 c5 19  	addi	a0, a0, 412
     4a8: 97 00 00 00  	auipc	ra, 0
     4ac: e7 80 80 da  	jalr	-600(ra)
     4b0: 13 15 25 00  	slli	a0, a0, 2
     4b4: 33 64 a4 00  	or	s0, s0, a0
     4b8: 37 05 00 00  	lui	a0, 0
     4bc: 13 05 05 03  	addi	a0, a0, 48
     4c0: 97 00 00 00  	auipc	ra, 0
     4c4: e7 80 00 d9  	jalr	-624(ra)
     4c8: 13 15 35 00  	slli	a0, a0, 3
     4cc: 33 64 a4 00  	or	s0, s0, a0
     4d0: 37 05 00 00  	lui	a0, 0
     4d4: 13 05 45 0e  	addi	a0, a0, 228
     4d8: 97 00 00 00  	auipc	ra, 0
     4dc: e7 80 80 e6  	jalr	-408(ra)
     4e0: 13 15 45 00  	slli	a0, a0, 4
     4e4: 33 65 a4 00  	or	a0, s0, a0
     4e8: b7 05 00 f0  	lui	a1, 983040
     4ec: 23 a0 a5 00  	sw	a0, 0(a1)
     4f0: 03 24 81 00  	lw	s0, 8(sp)
     4f4: 83 20 c1 00  	lw	ra, 12(sp)
     4f8: 13 01 01 01  	addi	sp, sp, 16
     4fc: 67 80 00 00  	ret
