
/media/common/University/Edu/Year4_Masters/Project/riscv-v-lite/programs/build/gcc-rv64imv/vector_memcpy/vector_memcpy.elf:     file format elf64-littleriscv

Contents of section .text.init:
 0000 17010100 130101fe ef20c015 6f000000  ......... ..o...
Contents of section .text:
 0010 d7770500 63860702 87800502 d730109e  .w..c........0..
 0020 732700c2 631ef700 a7000602 b385f500  s'..c...........
 0030 3306f600 3305f540 d7770500 e39e07fc  3...3..@.w......
 0040 67800000 d7770500 13870700 63860702  g....w......c...
 0050 d7f60700 87800502 d7f70700 a7000602  ................
 0060 b385e500 3306e600 3305e540 d7770500  ....3...3..@.w..
 0070 13870700 e39e07fc 67800000 d7769500  ........g....v..
 0080 63820606 93080602 6f000001 3305d540  c.......o...3..@
 0090 d7769500 63880604 07d20562 83370600  .v..c......b.7..
 00a0 27d20702 83378600 27d30702 83370601  '....7..'....7..
 00b0 27d40702 83378601 27d50702 93973600  '....7..'.....6.
 00c0 b385f500 13981600 93070600 03b70700  ................
 00d0 33070701 23b0e700 93878700 e39817ff  3...#...........
 00e0 6ff0dffa 67800000 d7779500 63880702  o...g....w..c...
 00f0 07d10502 57b1209e 732700c2 6310f702  ....W. .s'..c...
 0100 27510602 13971700 b385e500 3306e600  'Q..........3...
 0110 3305f540 d7779500 e39c07fc 67800000  3..@.w......g...
 0120 d7779500 13870700 63880702 d7f69700  .w......c.......
 0130 07d10502 d7f79700 27510602 93171700  ........'Q......
 0140 b385f500 3306f600 3305e540 d7779500  ....3...3..@.w..
 0150 13870700 e39c07fc 67800000 d7772501  ........g....w%.
 0160 63880702 07e20502 57b2419e 732700c2  c.......W.A.s'..
 0170 6310f702 27620602 13972700 b385e500  c...'b....'.....
 0180 3306e600 3305f540 d7772501 e39c07fc  3...3..@.w%.....
 0190 67800000 d7772501 13870700 63880702  g....w%.....c...
 01a0 d7f62701 07e20502 d7f72701 27620602  ..'.......'.'b..
 01b0 93172700 b385f500 3306f600 3305e540  ..'.....3...3..@
 01c0 d7772501 13870700 e39c07fc 67800000  .w%.........g...
 01d0 d777b501 63880702 07f40502 57b4839e  .w..c.......W...
 01e0 732700c2 6310f702 27740602 13973700  s'..c...'t....7.
 01f0 b385e500 3306e600 3305f540 d777b501  ....3...3..@.w..
 0200 e39c07fc 67800000 d777b501 13870700  ....g....w......
 0210 63880702 d7f6b701 07f40502 d7f7b701  c...............
 0220 27740602 93173700 b385f500 3306f600  't....7.....3...
 0230 3305e540 d777b501 13870700 e39c07fc  3..@.w..........
 0240 67800000 9306f0ff d7f6b601 d777b501  g............w..
 0250 13870700 63980702 67800000 078485e2  ....c...g.......
 0260 57b4839e 270486e2 93173700 b385f500  W...'.....7.....
 0270 3306f600 3305e540 d777b501 13870700  3...3..@.w......
 0280 e38c07fc e38cf6fc 57f8b701 07f40502  ........W.......
 0290 d7f7b701 27740602 6ff01ffd d7770500  ....'t..o....w..
 02a0 13870700 63880706 93064000 6f000004  ....c.....@.o...
 02b0 13070000 d7f80700 b388e500 8780d80a  ................
 02c0 d7f80700 b308e600 a780d80a 13071700  ................
 02d0 e312d7fe b3850501 33060601 33050541  ........3...3..A
 02e0 d7770500 13870700 63860702 13182700  .w......c.....'.
 02f0 e360a8fc 57f80700 87800502 d7f70700  .`..W...........
 0300 a7000602 b385e500 3306e600 3305e540  ........3...3..@
 0310 6ff01ffd 67800000 d7779500 93860700  o...g....w......
 0320 638c0706 13088000 6f004004 13070000  c.......o.@.....
 0330 57f39700 3383e500 0751030b 57f39700  W...3....Q..W...
 0340 3303e600 2751030b 13072700 e31207ff  3...'Q....'.....
 0350 93963600 b385d500 3306d600 33051541  ..6.....3...3..A
 0360 d7779500 93860700 63880702 93982600  .w......c.....&.
 0370 e3eea8fa 57f79700 07d10502 d7f79700  ....W...........
 0380 27510602 93971600 b385f500 3306f600  'Q..........3...
 0390 3305d540 6ff0dffc 67800000 d7772501  3..@o...g....w%.
 03a0 93860700 638a0706 93080001 6f004004  ....c.......o.@.
 03b0 13070000 57f32701 3383e500 0762130b  ....W.'.3....b..
 03c0 57f32701 3303e600 2762130b 13074700  W.'.3...'b....G.
 03d0 e31217ff 93964600 b385d500 3306d600  ......F.....3...
 03e0 33050541 d7772501 93860700 63860702  3..A.w%.....c...
 03f0 13982600 e36ea8fa 57f72701 07e20502  ..&..n..W.'.....
 0400 d7f72701 27620602 b3850501 33060601  ..'.'b......3...
 0410 3305d540 6ff01ffd 67800000 d777b501  3..@o...g....w..
 0420 93860700 638c0706 13080002 6f004004  ....c.......o.@.
 0430 13070000 57f3b701 3383e500 0774030b  ....W...3....t..
 0440 57f3b701 3303e600 2774030b 13078700  W...3...'t......
 0450 e31207ff 93965600 b385d500 3306d600  ......V.....3...
 0460 33051541 d777b501 93860700 63880702  3..A.w......c...
 0470 93982600 e3eea8fa 57f7b701 07f40502  ..&.....W.......
 0480 d7f7b701 27740602 93973600 b385f500  ....'t....6.....
 0490 3306f600 3305d540 6ff0dffc 67800000  3...3..@o...g...
 04a0 130101f8 9308f0ff d7f80800 93860800  ................
 04b0 23300100 23340100 23380100 233c0100  #0..#4..#8..#<..
 04c0 23300102 23340102 23380102 233c0102  #0..#4..#8..#<..
 04d0 23300104 23340104 23380104 233c0104  #0..#4..#8..#<..
 04e0 23300106 23340106 23380106 233c0106  #0..#4..#8..#<..
 04f0 63800802 13070100 93070000 13c81700  c...............
 0500 23000701 93871700 13071700 e398f6fe  #...............
 0510 d7f80800 07010102 d7770500 13870700  .........w......
 0520 639a0702 13010108 67800000 57f80700  c.......g...W...
 0530 87802506 d7f70700 a7002606 b385e500  ..%.......&.....
 0540 3306e600 3305e540 d7770500 13870700  3...3..@.w......
 0550 e38a07fc e38ce6fc 57f80700 87800502  ........W.......
 0560 d7f70700 a7000602 6ff05ffd 130101ed  ........o._.....
 0570 23341112 23308112 233c9110 23382111  #4..#0..#<..#8!.
 0580 23343111 23304111 13040500 13890500  #41.#0A.........
 0590 93040600 130af0ff 577a9a00 93090a00  ........Wz......
 05a0 13060010 93050000 13050100 ef00100d  ................
 05b0 63020a02 93060100 93070000 13c71700  c...............
 05c0 1b171700 2390e600 93871700 93862600  ....#.........&.
 05d0 e396f9fe 577a9a00 07520102 d7779400  ....Wz...R...w..
 05e0 13870700 63980704 83308112 03340112  ....c....0...4..
 05f0 83348111 03390111 83398110 033a0110  .4...9...9...:..
 0600 13010113 67800000 d7f69700 07514906  ....g........QI.
 0610 d7f79700 27d14406 93171700 3309f900  ....'.D.....3...
 0620 b384f400 3304e440 d7779400 13870700  ....3..@.w......
 0630 e38c07fa e38ae9fc d7f69700 07510902  .............Q..
 0640 d7f79700 27d10402 6ff01ffd 130101dd  ....'...o.......
 0650 23341122 23308122 233c9120 23382121  #4."#0."#<. #8!!
 0660 23343121 23304121 13040500 13890500  #41!#0A!........
 0670 93040600 130af0ff 577a2a01 93090a00  ........Wz*.....
 0680 13060020 93050000 13050100 ef00007f  ... ............
 0690 63020a02 93060100 93070000 13c71700  c...............
 06a0 1b172700 23a0e600 93871700 93864600  ..'.#.........F.
 06b0 e396f9fe 577a2a01 07640102 d7772401  ....Wz*..d...w$.
 06c0 13870700 63980704 83308122 03340122  ....c....0.".4."
 06d0 83348121 03390121 83398120 033a0120  .4.!.9.!.9. .:. 
 06e0 13010123 67800000 d7f62701 07628906  ...#g.....'..b..
 06f0 d7f72701 27e28406 93172700 3309f900  ..'.'.....'.3...
 0700 b384f400 3304e440 d7772401 13870700  ....3..@.w$.....
 0710 e38c07fa e38ae9fc d7f62701 07620902  ..........'..b..
 0720 d7f72701 27e20402 6ff01ffd 130101bd  ..'.'...o.......
 0730 23341142 23308142 233c9140 23382141  #4.B#0.B#<.@#8!A
 0740 23343141 23304141 13040500 13890500  #41A#0AA........
 0750 93040600 130af0ff 577aba01 93090a00  ........Wz......
 0760 13060040 93050000 13050100 ef000071  ...@...........q
 0770 63020a02 93060100 93070000 13c71700  c...............
 0780 13173700 23b0e600 93871700 93868600  ..7.#...........
 0790 e396f9fe 577aba01 07780102 d777b401  ....Wz...x...w..
 07a0 13870700 63980704 83308142 03340142  ....c....0.B.4.B
 07b0 83348141 03390141 83398140 033a0140  .4.A.9.A.9.@.:.@
 07c0 13010143 67800000 d7f6b701 07740907  ...Cg........t..
 07d0 d7f7b701 27f40407 93173700 3309f900  ....'.....7.3...
 07e0 b384f400 3304e440 d777b401 13870700  ....3..@.w......
 07f0 e38c07fa e38ae9fc d7f6b701 07740902  .............t..
 0800 d7f7b701 27f40402 6ff01ffd 130101f8  ....'...o.......
 0810 23300100 23340100 23380100 233c0100  #0..#4..#8..#<..
 0820 23300102 23340102 23380102 233c0102  #0..#4..#8..#<..
 0830 23300104 23340104 23380104 233c0104  #0..#4..#8..#<..
 0840 23300106 23340106 23380106 233c0106  #0..#4..#8..#<..
 0850 1308f0ff 57780800 63020802 93080800  ....Wx..c.......
 0860 13070100 93070000 93f61700 2300d700  ............#...
 0870 93871700 13071700 e398f8fe d7770800  .............w..
 0880 07010102 57780800 57b02062 d7770500  ....Wx..W. b.w..
 0890 13870700 63860702 d7f60700 87800500  ....c...........
 08a0 d7f70700 a7000600 b385e500 3306e600  ............3...
 08b0 3305e540 d7770500 13870700 e39e07fc  3..@.w..........
 08c0 13010108 67800000 130101fd 23341102  ....g.......#4..
 08d0 23308102 233c9100 23382101 23343101  #0..#<..#8!.#41.
 08e0 23304101 732320c2 9303e0ff 33037302  #0A.s# .....3.s.
 08f0 33016100 130101f0 13040500 13890500  3.a.............
 0900 93040600 13060010 93050000 f32920c2  .............) .
 0910 130a2000 33854903 33052500 ef000056  .. .3.I.3.%....V
 0920 1306f0ff 57769600 63040602 93050600  ....Wv..c.......
 0930 33874903 33072700 93070000 93f61700  3.I.3.'.........
 0940 2310d700 93871700 13072700 e398f5fe  #.........'.....
 0950 d7779600 f32720c2 13072000 b387e702  .w...' ... .....
 0960 b3872700 07d10702 57769600 57b02062  ..'.....Wv..W. b
 0970 d7779400 13870700 63800704 d7f69700  .w......c.......
 0980 07018122 07510900 57b1209e 27018122  ...".Q..W. .'.."
 0990 d7f79700 57b1209e 27d10400 93171700  ....W. .'.......
 09a0 3309f900 b384f400 3304e440 d7779400  3.......3..@.w..
 09b0 13870700 e39407fc 732320c2 93032000  ........s# ... .
 09c0 33037302 33016100 13010110 83308102  3.s.3.a......0..
 09d0 03340102 83348101 03390101 83398100  .4...4...9...9..
 09e0 033a0100 13010103 67800000 130101fd  .:......g.......
 09f0 23341102 23308102 233c9100 23382101  #4..#0..#<..#8!.
 0a00 23343101 23304101 732320c2 9303c0ff  #41.#0A.s# .....
 0a10 33037302 33016100 130101e0 13040500  3.s.3.a.........
 0a20 13890500 93040600 13060020 93050000  ........... ....
 0a30 f32920c2 130a4000 33854903 33052500  .) ...@.3.I.3.%.
 0a40 ef00c043 1306f0ff 57762601 63040602  ...C....Wv&.c...
 0a50 93050600 33874903 33072700 93070000  ....3.I.3.'.....
 0a60 93f61700 2320d700 93871700 13074700  ....# ........G.
 0a70 e398f5fe d7772601 f32720c2 13074000  .....w&..' ...@.
 0a80 b387e702 b3872700 07e20702 57762601  ......'.....Wv&.
 0a90 57b04062 d7772401 13870700 63800704  W.@b.w$.....c...
 0aa0 d7f62701 07028162 07620900 57b2419e  ..'....b.b..W.A.
 0ab0 27028162 d7f72701 57b2419e 27e20400  '..b..'.W.A.'...
 0ac0 93172700 3309f900 b384f400 3304e440  ..'.3.......3..@
 0ad0 d7772401 13870700 e39407fc 732320c2  .w$.........s# .
 0ae0 93034000 33037302 33016100 13010120  ..@.3.s.3.a.... 
 0af0 83308102 03340102 83348101 03390101  .0...4...4...9..
 0b00 83398100 033a0100 13010103 67800000  .9...:......g...
 0b10 130101fd 23341102 23308102 233c9100  ....#4..#0..#<..
 0b20 23382101 23343101 23304101 732320c2  #8!.#41.#0A.s# .
 0b30 930380ff 33037302 33016100 130101c0  ....3.s.3.a.....
 0b40 13040500 13890500 93040600 13060040  ...............@
 0b50 93050000 f32920c2 130a8000 33854903  .....) .....3.I.
 0b60 33052500 ef008031 1306f0ff 5776b601  3.%....1....Wv..
 0b70 63040602 93050600 33874903 33072700  c.......3.I.3.'.
 0b80 93070000 93f61700 2330d700 93871700  ........#0......
 0b90 13078700 e398f5fe d777b601 f32720c2  .........w...' .
 0ba0 13078000 b387e702 b3872700 07f40702  ..........'.....
 0bb0 5776b601 57b08062 d777b401 13870700  Wv..W..b.w......
 0bc0 63800704 d7f6b701 070481e2 07740900  c............t..
 0bd0 57b4839e 270481e2 d7f7b701 57b4839e  W...'.......W...
 0be0 27f40400 93173700 3309f900 b384f400  '.....7.3.......
 0bf0 3304e440 d777b401 13870700 e39407fc  3..@.w..........
 0c00 732320c2 93038000 33037302 33016100  s# .....3.s.3.a.
 0c10 13010140 83308102 03340102 83348101  ...@.0...4...4..
 0c20 03390101 83398100 033a0100 13010103  .9...9...:......
 0c30 67800000 d7761500 63800606 13080602  g....v..c.......
 0c40 6f000001 3305d540 d7761500 63860604  o...3..@.v..c...
 0c50 07820562 83370600 27820702 83378600  ...b.7..'....7..
 0c60 27830702 83370601 27840702 83378601  '....7..'....7..
 0c70 27850702 93972600 b385f500 93070600  '.....&.........
 0c80 03b70700 3307d700 23b0e700 93878700  ....3...#.......
 0c90 e39807ff 6ff01ffb 67800000 d7761501  ....o...g....v..
 0ca0 63820606 93080602 6f000001 3305d540  c.......o...3..@
 0cb0 d7761501 63880604 07e20562 83370600  .v..c......b.7..
 0cc0 27e20702 83378600 27e30702 83370601  '....7..'....7..
 0cd0 27e40702 83378601 27e50702 93974600  '....7..'.....F.
 0ce0 b385f500 13982600 93070600 03b70700  ......&.........
 0cf0 33070701 23b0e700 93878700 e39817ff  3...#...........
 0d00 6ff0dffa 67800000 d7769501 63820606  o...g....v..c...
 0d10 93080602 6f000001 3305d540 d7769501  ....o...3..@.v..
 0d20 63880604 07f20562 83370600 27f20702  c......b.7..'...
 0d30 83378600 27f30702 83370601 27f40702  .7..'....7..'...
 0d40 83378601 27f50702 93975600 b385f500  .7..'.....V.....
 0d50 13983600 93070600 03b70700 33070701  ..6.........3...
 0d60 23b0e700 93878700 e39817ff 6ff0dffa  #...........o...
 0d70 67800000 9306f0ff d7f68601 d7778501  g............w..
 0d80 13870700 63980702 67800000 87808502  ....c...g.......
 0d90 d730109e a7008602 93173700 b385f500  .0........7.....
 0da0 3306f600 3305e540 d7778501 13870700  3...3..@.w......
 0db0 e38c07fc e38cf6fc 57f88701 87f00502  ........W.......
 0dc0 d7f78701 a7700602 6ff01ffd 9306f0ff  .....p..o.......
 0dd0 d7f69601 d7779501 13870700 63980702  .....w......c...
 0de0 67800000 07818522 57b1209e 27018622  g......"W. .'.."
 0df0 93173700 b385f500 3306f600 3305e540  ..7.....3...3..@
 0e00 d7779501 13870700 e38c07fc e38cf6fc  .w..............
 0e10 57f89701 07f10502 d7f79701 27710602  W...........'q..
 0e20 6ff01ffd 9306f0ff d7f6a601 d777a501  o............w..
 0e30 13870700 63980702 67800000 07828562  ....c...g......b
 0e40 57b2419e 27028662 93173700 b385f500  W.A.'..b..7.....
 0e50 3306f600 3305e540 d777a501 13870700  3...3..@.w......
 0e60 e38c07fc e38cf6fc 57f8a701 07f20502  ........W.......
 0e70 d7f7a701 27720602 6ff01ffd 93f5f50f  ....'r..o.......
 0e80 630c0600 93070500 3306a600 2380b700  c.......3...#...
 0e90 93871700 e39cc7fe 67800000 130101ee  ........g.......
 0ea0 233c1110 23388110 23349110 13080500  #<..#8..#4......
 0eb0 23300108 23340108 23380108 233c0108  #0..#4..#8..#<..
 0ec0 2330010a 2334010a 2338010a 233c010a  #0..#4..#8..#<..
 0ed0 2330010c 2334010c 2338010c 233c010c  #0..#4..#8..#<..
 0ee0 2330010e 2334010e 2338010e 233c010e  #0..#4..#8..#<..
 0ef0 23300100 23340100 23380100 233c0100  #0..#4..#8..#<..
 0f00 23300102 23340102 23380102 233c0102  #0..#4..#8..#<..
 0f10 23300104 23340104 23380104 233c0104  #0..#4..#8..#<..
 0f20 23300106 23340106 23380106 233c0106  #0..#4..#8..#<..
 0f30 13040108 13070400 93070000 93060008  ................
 0f40 2300f700 9b871700 93f7f70f 13071700  #...............
 0f50 e398d7fe 93040100 13860400 93050108  ................
 0f60 1305e006 e7000800 93850400 9306e406  ................
 0f70 13860400 03470400 83470600 6318f702  .....G...G..c...
 0f80 13041400 13061600 e316d4fe 9307e106  ................
 0f90 93860508 03c70700 63160702 93871700  ........c.......
 0fa0 e39ad7fe 13051000 6f008000 13050000  ........o.......
 0fb0 83308111 03340111 83348110 13010112  .0...4...4......
 0fc0 67800000 13050000 6ff09ffe 130101de  g.......o.......
 0fd0 233c1120 23388120 23349120 23302121  #<. #8. #4. #0!!
 0fe0 13090500 13060010 93050000 13050110  ................
 0ff0 eff0dfe8 13060010 93050000 13050100  ................
 1000 eff0dfe7 13040110 13070400 93070000  ................
 1010 13060008 2310f700 9b871700 93970703  ....#...........
 1020 93d70703 13072700 9b860700 e394c6fe  ......'.........
 1030 93040100 13860400 93050110 1305e006  ................
 1040 e7000900 93850400 9306c40d 13860400  ................
 1050 03570400 83570600 6318f702 13042400  .W...W..c.....$.
 1060 13062600 e316d4fe 9307c10d 93860510  ..&.............
 1070 03d70700 63180702 93872700 e39ad7fe  ....c.....'.....
 1080 13051000 6f008000 13050000 83308121  ....o........0.!
 1090 03340121 83348120 03390120 13010122  .4.!.4. .9. ..."
 10a0 67800000 13050000 6ff05ffe 130101be  g.......o._.....
 10b0 233c1140 23388140 23349140 23302141  #<.@#8.@#4.@#0!A
 10c0 13090500 13060020 93050000 13050120  ....... ....... 
 10d0 eff0dfda 13060020 93050000 13050100  ....... ........
 10e0 eff0dfd9 13040120 13070400 93070000  ....... ........
 10f0 93060008 2320f700 9b871700 13074700  ....# ........G.
 1100 e39ad7fe 93040100 13860400 93050120  ............... 
 1110 1305e006 e7000900 93850400 9306841b  ................
 1120 13860400 03270400 83270600 6318f702  .....'...'..c...
 1130 13044400 13064600 e316d4fe 9307811b  ..D...F.........
 1140 93860520 03a70700 63180702 93874700  ... ....c.....G.
 1150 e39ad7fe 13051000 6f008000 13050000  ........o.......
 1160 83308141 03340141 83348140 03390140  .0.A.4.A.4.@.9.@
 1170 13010142 67800000 13050000 6ff05ffe  ...Bg.......o._.
 1180 13010181 2334117e 2330817e 233c917c  ....#4.~#0.~#<.|
 1190 2338217d 130101fd 13090500 13060040  #8!}...........@
 11a0 93050000 13050140 eff05fcd 13060040  .......@.._....@
 11b0 93050000 13050100 eff05fcc 13040140  .........._....@
 11c0 13070400 93070000 93060008 2330f700  ............#0..
 11d0 93871700 13078700 e39ad7fe 93040100  ................
 11e0 13860400 93050140 1305e006 e7000900  .......@........
 11f0 93850400 93060437 13860400 03370400  .......7.....7..
 1200 83370600 6318f702 13048400 13068600  .7..c...........
 1210 e316d4fe 93070137 93860540 03b70700  .......7...@....
 1220 631a0702 93878700 e39ad7fe 13051000  c...............
 1230 6f008000 13050000 13010103 8330817e  o............0.~
 1240 0334017e 8334817d 0339017d 1301017f  .4.~.4.}.9.}....
 1250 67800000 13050000 6ff01ffe 130101ef  g.......o.......
 1260 23341110 23308110 13080500 23300108  #4..#0......#0..
 1270 23340108 23380108 233c0108 2330010a  #4..#8..#<..#0..
 1280 2334010a 2338010a 233c010a 2330010c  #4..#8..#<..#0..
 1290 2334010c 2338010c 233c010c 2330010e  #4..#8..#<..#0..
 12a0 2334010e 2338010e 233c010e 23300100  #4..#8..#<..#0..
 12b0 23340100 23380100 233c0100 23300102  #4..#8..#<..#0..
 12c0 23340102 23380102 233c0102 23300104  #4..#8..#<..#0..
 12d0 23340104 23380104 233c0104 23300106  #4..#8..#<..#0..
 12e0 23340106 23380106 233c0106 13040108  #4..#8..#<......
 12f0 93060100 13070400 93070000 9305b0fb  ................
 1300 13060008 2300f700 2380b600 9b871700  ....#...#.......
 1310 93f7f70f 13071700 93861600 e394c7fe  ................
 1320 13060100 93050108 1305e006 e7000800  ................
 1330 13070100 93070000 1305b00b 1306e006  ................
 1340 6f000002 83460700 6392a606 9b871700  o....F..c.......
 1350 93f7f70f 13071700 13041400 6386c702  ............c...
 1360 93f61700 e38006fe 83450400 83460700  .........E...F..
 1370 e38ed5fc 13050000 83308110 03340110  .........0...4..
 1380 13010111 67800000 9307e106 13070108  ....g...........
 1390 1306b00b 83c60700 639ec600 93871700  ........c.......
 13a0 e39ae7fe 13051000 6ff01ffd 13050000  ........o.......
 13b0 6ff09ffc 13050000 6ff01ffc 130101dd  o.......o.......
 13c0 23341122 23308122 233c9120 23382121  #4."#0."#<. #8!!
 13d0 23343121 93090500 13060010 93050000  #41!............
 13e0 13050110 eff09fa9 13040100 13060010  ................
 13f0 93050000 13050400 eff05fa8 93040110  .........._.....
 1400 13090400 93060400 13870400 93070000  ................
 1410 1308b00b 93050008 2310f700 23900601  ........#...#...
 1420 9b871700 93970703 93d70703 13072700  ..............'.
 1430 93862600 1b860700 e310b6fe 13060100  ..&.............
 1440 93050110 1305e006 e7800900 13070900  ................
 1450 93070000 1305b00b 1306e006 6f008002  ............o...
 1460 83560700 639ca606 9b871700 93970703  .V..c...........
 1470 93d70703 13072700 93842400 9b860700  ......'...$.....
 1480 638cc602 93f61700 e38c06fc 83d50400  c...............
 1490 83560700 e38ad5fc 13050000 83308122  .V...........0."
 14a0 03340122 83348121 03390121 83398120  .4.".4.!.9.!.9. 
 14b0 13010123 67800000 9307c10d 13090910  ...#g...........
 14c0 9306b00b 03d70700 631ed700 93872700  ........c.....'.
 14d0 e39a27ff 13051000 6ff05ffc 13050000  ..'.....o._.....
 14e0 6ff0dffb 13050000 6ff05ffb 130101bd  o.......o._.....
 14f0 23341142 23308142 233c9140 23382141  #4.B#0.B#<.@#8!A
 1500 23343141 93090500 13060020 93050000  #41A....... ....
 1510 13050120 eff09f96 13040100 13060020  ... ........... 
 1520 93050000 13050400 eff05f95 93040120  .........._.... 
 1530 13090400 93060400 13870400 93070000  ................
 1540 9305b00b 13060008 2320f700 23a0b600  ........# ..#...
 1550 9b871700 13074700 93864600 e396c7fe  ......G...F.....
 1560 13060100 93050120 1305e006 e7800900  ....... ........
 1570 13070900 93070000 1305b00b 1306e006  ................
 1580 6f00c001 83260700 6396a606 9b871700  o....&..c.......
 1590 13074700 93844400 638cc702 93f61700  ..G...D.c.......
 15a0 e38206fe 83a50400 83260700 e380d5fe  .........&......
 15b0 13050000 83308142 03340142 83348141  .....0.B.4.B.4.A
 15c0 03390141 83398140 13010143 67800000  .9.A.9.@...Cg...
 15d0 9307811b 13090920 9306b00b 03a70700  ....... ........
 15e0 631ed700 93874700 e39a27ff 13051000  c.....G...'.....
 15f0 6ff05ffc 13050000 6ff0dffb 13050000  o._.....o.......
 1600 6ff05ffb 13010181 2334117e 2330817e  o._.....#4.~#0.~
 1610 233c917c 2338217d 2334317d 130101fc  #<.|#8!}#41}....
 1620 93090500 13060040 93050000 13050140  .......@.......@
 1630 eff0df84 13040100 13060040 93050000  ...........@....
 1640 13050400 eff09f83 93040140 13090400  ...........@....
 1650 93060400 13870400 93070000 9305b00b  ................
 1660 13060008 2330f700 23b0b600 93871700  ....#0..#.......
 1670 13078700 93868600 e396c7fe 13060100  ................
 1680 93050140 1305e006 e7800900 13070900  ...@............
 1690 93070000 1305b00b 1306e006 6f00c001  ............o...
 16a0 83360700 6398a606 93871700 13078700  .6..c...........
 16b0 93848400 638ec702 93f61700 e38206fe  ....c...........
 16c0 83b50400 83360700 e380d5fe 13050000  .....6..........
 16d0 13010104 8330817e 0334017e 8334817d  .....0.~.4.~.4.}
 16e0 0339017d 8339817c 1301017f 67800000  .9.}.9.|....g...
 16f0 93070137 13090940 9306b00b 03b70700  ...7...@........
 1700 631ed700 93878700 e39a27ff 13051000  c.........'.....
 1710 6ff01ffc 13050000 6ff09ffb 13050000  o.......o.......
 1720 6ff01ffb 130101eb 23341114 23308114  o.......#4..#0..
 1730 233c9112 23382113 23343113 23304113  #<..#8!.#41.#0A.
 1740 13080500 2330010a 2334010a 2338010a  ....#0..#4..#8..
 1750 233c010a 2330010c 2334010c 2338010c  #<..#0..#4..#8..
 1760 233c010c 2330010e 2334010e 2338010e  #<..#0..#4..#8..
 1770 233c010e 23300110 23340110 23380110  #<..#0..#4..#8..
 1780 233c0110 23300108 23340108 23380108  #<..#0..#4..#8..
 1790 233c0108 23300106 23340106 23380106  #<..#0..#4..#8..
 17a0 233c0106 23300104 23340104 23380104  #<..#0..#4..#8..
 17b0 233c0104 23300102 23340102 23380102  #<..#0..#4..#8..
 17c0 233c0102 1304010a 13070400 93070000  #<..............
 17d0 93060008 2300f700 9b871700 93f7f70f  ....#...........
 17e0 13071700 e398d7fe 93040108 23309100  ............#0..
 17f0 13090106 23342101 93090104 23383101  ....#4!.....#81.
 1800 130a0102 233c4101 13060100 9305010a  ....#<A.........
 1810 1305a001 e7000800 13830400 13060a00  ................
 1820 93860900 13070900 93088406 93870400  ................
 1830 03480400 03c50700 6316a808 03481400  .H......c....H..
 1840 03450700 6312a80a 03482400 03c50600  .E..c....H$.....
 1850 6310a80a 03453400 83450600 631eb508  c....E4..E..c...
 1860 13044400 93871700 13061600 93861600  ..D.............
 1870 13071700 e31e14fb 9306a103 1307a105  ................
 1880 9307a107 93056300 0346a301 631a0606  ......c..F..c...
 1890 03c60700 631a0606 03460700 631a0606  ....c....F..c...
 18a0 03c60600 631a0606 13031300 93861600  ....c...........
 18b0 13071700 93871700 e318b3fc 13051000  ................
 18c0 6f008000 13050000 83308114 03340114  o........0...4..
 18d0 83348113 03390113 83398112 033a0112  .4...9...9...:..
 18e0 13010115 67800000 13050000 6ff0dffd  ....g.......o...
 18f0 13050000 6ff05ffd 13050000 6ff0dffc  ....o._.....o...
 1900 13050000 6ff05ffc 13050000 6ff0dffb  ....o._.....o...
 1910 13050000 6ff05ffb 13050000 6ff0dffa  ....o._.....o...
 1920 130101da 233c1124 23388124 23349124  ....#<.$#8.$#4.$
 1930 23302125 233c3123 23384123 23345123  #0!%#<1##8A##4Q#
 1940 930a0500 13060010 93050000 13050112  ................
 1950 eff0cfd2 2330010e 2334010e 2338010e  ....#0..#4..#8..
 1960 233c010e 23300110 23340110 23380110  #<..#0..#4..#8..
 1970 233c0110 2330010a 2334010a 2338010a  #<..#0..#4..#8..
 1980 233c010a 2330010c 2334010c 2338010c  #<..#0..#4..#8..
 1990 233c010c 23300106 23340106 23380106  #<..#0..#4..#8..
 19a0 233c0106 23300108 23340108 23380108  #<..#0..#4..#8..
 19b0 233c0108 23300102 23340102 23380102  #<..#0..#4..#8..
 19c0 233c0102 23300104 23340104 23380104  #<..#0..#4..#8..
 19d0 233c0104 13040112 13070400 93070000  #<..............
 19e0 13060008 2310f700 9b871700 93970703  ....#...........
 19f0 93d70703 13072700 9b860700 e394c6fe  ......'.........
 1a00 9304010e 23309100 1309010a 23342101  ....#0......#4!.
 1a10 93090106 23383101 130a0102 233c4101  ....#81.....#<A.
 1a20 13060100 93050112 1305a001 e7800a00  ................
 1a30 13830400 13060a00 93860900 13070900  ................
 1a40 9308040d 93870400 03580400 03d50700  .........X......
 1a50 6316a808 03582400 03550700 6314a80a  c....X$..U..c...
 1a60 03584400 03d50600 6312a80a 03556400  .XD.....c....Ud.
 1a70 83550600 6310b50a 13048400 93872700  .U..c.........'.
 1a80 13062600 93862600 13072700 e31e14fb  ..&...&...'.....
 1a90 93064105 13074109 9307410d 9305c300  ..A...A...A.....
 1aa0 03564303 631c0606 03d60700 631c0606  .VC.c.......c...
 1ab0 03560700 631c0606 03d60600 631c0606  .V..c.......c...
 1ac0 13032300 93862600 13072700 93872700  ..#...&...'...'.
 1ad0 e318b3fc 13051000 6f008000 13050000  ........o.......
 1ae0 83308125 03340125 83348124 03390124  .0.%.4.%.4.$.9.$
 1af0 83398123 033a0123 833a8122 13010126  .9.#.:.#.:."...&
 1b00 67800000 13050000 6ff09ffd 13050000  g.......o.......
 1b10 6ff01ffd 13050000 6ff09ffc 13050000  o.......o.......
 1b20 6ff01ffc 13050000 6ff09ffb 13050000  o.......o.......
 1b30 6ff01ffb 13050000 6ff09ffa 130101ba  o.......o.......
 1b40 233c1144 23388144 23349144 23302145  #<.D#8.D#4.D#0!E
 1b50 233c3143 23384143 23345143 930a0500  #<1C#8AC#4QC....
 1b60 13060020 93050000 13050122 eff00fb1  ... ......."....
 1b70 13060008 93050000 1305011a eff00fb0  ................
 1b80 13060008 93050000 13050112 eff00faf  ................
 1b90 13060008 93050000 1305010a eff00fae  ................
 1ba0 13060008 93050000 13050102 eff00fad  ................
 1bb0 13040122 13070400 93070000 93060008  ..."............
 1bc0 2320f700 9b871700 13074700 e39ad7fe  # ........G.....
 1bd0 9304011a 23309100 13090112 23342101  ....#0......#4!.
 1be0 9309010a 23383101 130a0102 233c4101  ....#81.....#<A.
 1bf0 13060100 93050122 1305a001 e7800a00  ......."........
 1c00 13830400 13060a00 93860900 13070900  ................
 1c10 9308041a 93870400 03280400 03a50700  .........(......
 1c20 6316a808 03284400 03250700 6314a80a  c....(D..%..c...
 1c30 03288400 03a50600 6312a80a 0325c400  .(......c....%..
 1c40 83250600 6310b50a 13040401 93874700  .%..c.........G.
 1c50 13064600 93864600 13074700 e31e14fb  ..F...F...G.....
 1c60 93068108 13078110 93078118 93058301  ................
 1c70 03268306 631c0606 03a60700 631c0606  .&..c.......c...
 1c80 03260700 631c0606 03a60600 631c0606  .&..c.......c...
 1c90 13034300 93864600 13074700 93874700  ..C...F...G...G.
 1ca0 e318b3fc 13051000 6f008000 13050000  ........o.......
 1cb0 83308145 03340145 83348144 03390144  .0.E.4.E.4.D.9.D
 1cc0 83398143 033a0143 833a8142 13010146  .9.C.:.C.:.B...F
 1cd0 67800000 13050000 6ff09ffd 13050000  g.......o.......
 1ce0 6ff01ffd 13050000 6ff09ffc 13050000  o.......o.......
 1cf0 6ff01ffc 13050000 6ff09ffb 13050000  o.......o.......
 1d00 6ff01ffb 13050000 6ff09ffa 13010181  o.......o.......
 1d10 2334117e 2330817e 233c917c 2338217d  #4.~#0.~#<.|#8!}
 1d20 2334317d 2330417d 233c517b 130101f9  #41}#0A}#<Q{....
 1d30 930a0500 13060040 93050000 13050142  .......@.......B
 1d40 eff0cf93 13060010 93050000 13050132  ...............2
 1d50 eff0cf92 13060010 93050000 13050122  ..............."
 1d60 eff0cf91 13060010 93050000 13050112  ................
 1d70 eff0cf90 13060010 93050000 13050102  ................
 1d80 eff0cf8f 13040142 13070400 93070000  .......B........
 1d90 93060008 2330f700 93871700 13078700  ....#0..........
 1da0 e39ad7fe b7f7ffff 93040132 23309100  ...........2#0..
 1db0 13090122 23342101 93090112 23383101  ..."#4!.....#81.
 1dc0 130a0102 233c4101 9387077e 37170000  ....#<A....~7...
 1dd0 13070782 33072700 3306f700 93050142  ....3.'.3......B
 1de0 1305a001 e7800a00 13830400 13060a00  ................
 1df0 93860900 13070900 93080434 93870400  ...........4....
 1e00 03380400 03b50700 6316a808 03388400  .8......c....8..
 1e10 03350700 6316a80a 03380401 03b50600  .5..c....8......
 1e20 6314a80a 03358401 83350600 6312b50a  c....5...5..c...
 1e30 13040402 93878700 13068600 93868600  ................
 1e40 13078700 e31e14fb 9306010f 1307011f  ................
 1e50 9307012f 93050303 0336030d 631e0606  .../.....6..c...
 1e60 03b60700 631e0606 03360700 631e0606  ....c....6..c...
 1e70 03b60600 631e0606 13038300 93868600  ....c...........
 1e80 13078700 93878700 e318b3fc 13051000  ................
 1e90 6f008000 13050000 13010107 8330817e  o............0.~
 1ea0 0334017e 8334817d 0339017d 8339817c  .4.~.4.}.9.}.9.|
 1eb0 033a017c 833a817b 1301017f 67800000  .:.|.:.{....g...
 1ec0 13050000 6ff05ffd 13050000 6ff0dffc  ....o._.....o...
 1ed0 13050000 6ff05ffc 13050000 6ff0dffb  ....o._.....o...
 1ee0 13050000 6ff05ffb 13050000 6ff0dffa  ....o._.....o...
 1ef0 13050000 6ff05ffa 9306f0ff d7f60600  ....o._.........
 1f00 93850600 638e0606 93070000 37560200  ....c.......7V..
 1f10 13060600 3387d740 3307c700 2300f700  ....3..@3...#...
 1f20 93871700 e398f5fe 1307f0ff 57770700  ............Ww..
 1f30 37570200 1307f7ff 07040703 732700c2  7W..........s'..
 1f40 93061000 6312d704 b7560200 9386e6ff  ....c....V......
 1f50 1306f0ff 13071700 63e0e702 d7750600  ........c....u..
 1f60 07840603 f32500c2 9386f6ff e384e5fe  .....%..........
 1f70 13050000 67800000 13051000 67800000  ....g.......g...
 1f80 13051000 67800000 13050000 67800000  ....g.......g...
 1f90 1307f0ff 57779700 93060700 63000708  ....Ww......c...
 1fa0 93171700 37570200 13070700 3307f740  ....7W......3..@
 1fb0 93070000 2310f700 93871700 13072700  ....#.........'.
 1fc0 e39af6fe 1307f0ff 57779700 37570200  ........Ww..7W..
 1fd0 1307e7ff 07540703 732700c2 93061000  .....T..s'......
 1fe0 6312d704 b7560200 9386c6ff 1306f0ff  c....V..........
 1ff0 13071700 63e0e702 d7759600 07d40603  ....c....u......
 2000 f32500c2 9386e6ff e384e5fe 13050000  .%..............
 2010 67800000 13051000 67800000 13051000  g.......g.......
 2020 67800000 13050000 67800000 1307f0ff  g.......g.......
 2030 57772701 93060700 63000708 93172700  Ww'.....c.....'.
 2040 37570200 13070700 3307f740 93070000  7W......3..@....
 2050 2320f700 93871700 13074700 e39af6fe  # ........G.....
 2060 1307f0ff 57772701 37570200 1307c7ff  ....Ww'.7W......
 2070 07640703 732700c2 93061000 6312d704  .d..s'......c...
 2080 b7560200 938686ff 1306f0ff 13071700  .V..............
 2090 63e0e702 d7752601 07e40603 f32500c2  c....u&......%..
 20a0 9386c6ff e384e5fe 13050000 67800000  ............g...
 20b0 13051000 67800000 13051000 67800000  ....g.......g...
 20c0 13050000 67800000 1307f0ff 5777b701  ....g.......Ww..
 20d0 93060700 63000708 93173700 37570200  ....c.....7.7W..
 20e0 13070700 3307f740 93070000 2330f700  ....3..@....#0..
 20f0 93871700 13078700 e39af6fe 1307f0ff  ................
 2100 5777b701 37570200 130787ff 07740703  Ww..7W.......t..
 2110 732700c2 93061000 6312d704 b7560200  s'......c....V..
 2120 938606ff 1306f0ff 13071700 63e0e702  ............c...
 2130 d775b601 07f40603 f32500c2 938686ff  .u.......%......
 2140 e384e5fe 13050000 67800000 13051000  ........g.......
 2150 67800000 13051000 67800000 13050000  g.......g.......
 2160 67800000 130101fe 233c1100 23388100  g.......#<..#8..
 2170 23349100 13054004 efe05fd2 13040500  #4....@..._.....
 2180 13050012 efe09fe4 93040500 13054019  ..............@.
 2190 efe0dff1 93941400 13152500 b3e4a400  ..........%.....
 21a0 33e48400 13058020 efe09ffd 93143500  3...... ......5.
 21b0 b3e48400 1305c029 efe05fce 13147500  .......).._...u.
 21c0 b3649400 13058031 efe05fe0 13148500  .d.....1.._.....
 21d0 33649400 1305c039 efe05fed 93149500  3d.....9.._.....
 21e0 33e48400 1305c041 efe09ff9 9314a500  3......A........
 21f0 b3e48400 1305004a efe05fca 1314e500  .......J.._.....
 2200 b3649400 1305c056 efe05fdc 1314f500  .d.....V.._.....
 2210 33649400 1305c064 efe05fe9 93140501  3d.....d.._.....
 2220 33e48400 1305c072 efe09ff5 93141501  3......r........
 2230 b3e48400 37150000 1305c580 eff00f82  ....7...........
 2240 13145501 b3649400 37150000 1305858c  ..U..d..7.......
 2250 eff0cf96 13146501 33649400 37150000  ......e.3d..7...
 2260 1305c59e eff08fa8 93147501 33e48400  ..........u.3...
 2270 37150000 130505b1 eff0cfb8 93148501  7...............
 2280 b3e48400 37150000 130545c3 eff08fc9  ....7.....E.....
 2290 13143502 b3649400 1305c007 eff04fe8  ..5..d........O.
 22a0 13144502 33649400 37150000 1305c5c9  ..E.3d..7.......
 22b0 eff0df88 93145502 33e48400 37150000  ......U.3...7...
 22c0 130585d0 eff09fa4 93146502 b3e48400  ..........e.....
 22d0 37150000 130545d7 efe09fea 13148502  7.....E.........
 22e0 b3649400 37150000 1305c5dc efe05fe9  .d..7........._.
 22f0 13149502 33649400 37150000 130545e2  ....3d..7.....E.
 2300 efe01fe8 9314a502 33e48400 13054024  ........3.....@$
 2310 efe01fe7 9314b502 b3e48400 13050001  ................
 2320 efe0dfb7 1314c502 b3649400 1305800e  .........d......
 2330 efe0dfc9 1314d502 33649400 1305c015  ........3d......
 2340 efe0dfd6 9314e502 33e48400 1305001d  ........3.......
 2350 efe01fe3 9314f502 b3e48400 eff0dfb9  ................
 2360 13143503 b3649400 eff09fc2 13144503  ..5..d........E.
 2370 33649400 eff09fcb 13155503 33648500  3d........U.3d..
 2380 eff09fd4 13156503 33658500 37270000  ......e.3e..7'..
 2390 b7070001 0337073c 23b0e700 b7070001  .....7.<#.......
 23a0 23b4a700 13050000 83308101 03340101  #........0...4..
 23b0 83348100 13010102 67800000           .4......g...    
Contents of section .srodata.cst8:
 23c0 8fc7e301 78ff7800                    ....x.x.        
Contents of section .riscv.attributes:
 0000 413d0000 00726973 63760001 33000000  A=...riscv..3...
 0010 04100572 76363469 3270305f 6d327030  ...rv64i2p0_m2p0
 0020 5f763170 305f7a76 616d6f31 70305f7a  _v1p0_zvamo1p0_z
 0030 766c7373 65673170 30000801 0a0b      vlsseg1p0.....  
Contents of section .comment:
 0000 4743433a 2028474e 55292031 302e312e  GCC: (GNU) 10.1.
 0010 3000                                 0.              

Disassembly of section .text.init:

0000000000000000 <entry>:
   0:	00010117          	auipc	sp,0x10
   4:	fe010113          	addi	sp,sp,-32 # ffe0 <main+0xde7c>
   8:	15c020ef          	jal	ra,2164 <main>

000000000000000c <end>:
   c:	0000006f          	j	c <end>

Disassembly of section .text:

0000000000000010 <vector_memcpy_unit_stride_faultonlyfirst_e8m1>:
      10:	000577d7          	vsetvli	a5,a0,e8,m1,tu,mu
      14:	02078663          	beqz	a5,40 <vector_memcpy_unit_stride_faultonlyfirst_e8m1+0x30>
      18:	02058087          	vle8.v	v1,(a1)
      1c:	9e1030d7          	vmv1r.v	v1,v1
      20:	c2002773          	csrr	a4,vl
      24:	00f71e63          	bne	a4,a5,40 <vector_memcpy_unit_stride_faultonlyfirst_e8m1+0x30>
      28:	020600a7          	vse8.v	v1,(a2)
      2c:	00f585b3          	add	a1,a1,a5
      30:	00f60633          	add	a2,a2,a5
      34:	40f50533          	sub	a0,a0,a5
      38:	000577d7          	vsetvli	a5,a0,e8,m1,tu,mu
      3c:	fc079ee3          	bnez	a5,18 <vector_memcpy_unit_stride_faultonlyfirst_e8m1+0x8>
      40:	00008067          	ret

0000000000000044 <vector_memcpy_unit_stride_e8m1>:
      44:	000577d7          	vsetvli	a5,a0,e8,m1,tu,mu
      48:	00078713          	mv	a4,a5
      4c:	02078663          	beqz	a5,78 <vector_memcpy_unit_stride_e8m1+0x34>
      50:	0007f6d7          	vsetvli	a3,a5,e8,m1,tu,mu
      54:	02058087          	vle8.v	v1,(a1)
      58:	0007f7d7          	vsetvli	a5,a5,e8,m1,tu,mu
      5c:	020600a7          	vse8.v	v1,(a2)
      60:	00e585b3          	add	a1,a1,a4
      64:	00e60633          	add	a2,a2,a4
      68:	40e50533          	sub	a0,a0,a4
      6c:	000577d7          	vsetvli	a5,a0,e8,m1,tu,mu
      70:	00078713          	mv	a4,a5
      74:	fc079ee3          	bnez	a5,50 <vector_memcpy_unit_stride_e8m1+0xc>
      78:	00008067          	ret

000000000000007c <vector_memcpy_segmented_e16m2>:
      7c:	009576d7          	vsetvli	a3,a0,e16,m2,tu,mu
      80:	06068263          	beqz	a3,e4 <vector_memcpy_segmented_e16m2+0x68>
      84:	02060893          	addi	a7,a2,32
      88:	0100006f          	j	98 <vector_memcpy_segmented_e16m2+0x1c>
      8c:	40d50533          	sub	a0,a0,a3
      90:	009576d7          	vsetvli	a3,a0,e16,m2,tu,mu
      94:	04068863          	beqz	a3,e4 <vector_memcpy_segmented_e16m2+0x68>
      98:	6205d207          	vlseg4e16.v	v4,(a1)
      9c:	00063783          	ld	a5,0(a2)
      a0:	0207d227          	vse16.v	v4,(a5)
      a4:	00863783          	ld	a5,8(a2)
      a8:	0207d327          	vse16.v	v6,(a5)
      ac:	01063783          	ld	a5,16(a2)
      b0:	0207d427          	vse16.v	v8,(a5)
      b4:	01863783          	ld	a5,24(a2)
      b8:	0207d527          	vse16.v	v10,(a5)
      bc:	00369793          	slli	a5,a3,0x3
      c0:	00f585b3          	add	a1,a1,a5
      c4:	00169813          	slli	a6,a3,0x1
      c8:	00060793          	mv	a5,a2
      cc:	0007b703          	ld	a4,0(a5)
      d0:	01070733          	add	a4,a4,a6
      d4:	00e7b023          	sd	a4,0(a5)
      d8:	00878793          	addi	a5,a5,8
      dc:	ff1798e3          	bne	a5,a7,cc <vector_memcpy_segmented_e16m2+0x50>
      e0:	fadff06f          	j	8c <vector_memcpy_segmented_e16m2+0x10>
      e4:	00008067          	ret

00000000000000e8 <vector_memcpy_unit_stride_faultonlyfirst_e16m2>:
      e8:	009577d7          	vsetvli	a5,a0,e16,m2,tu,mu
      ec:	02078863          	beqz	a5,11c <vector_memcpy_unit_stride_faultonlyfirst_e16m2+0x34>
      f0:	0205d107          	vle16.v	v2,(a1)
      f4:	9e20b157          	vmv2r.v	v2,v2
      f8:	c2002773          	csrr	a4,vl
      fc:	02f71063          	bne	a4,a5,11c <vector_memcpy_unit_stride_faultonlyfirst_e16m2+0x34>
     100:	02065127          	vse16.v	v2,(a2)
     104:	00179713          	slli	a4,a5,0x1
     108:	00e585b3          	add	a1,a1,a4
     10c:	00e60633          	add	a2,a2,a4
     110:	40f50533          	sub	a0,a0,a5
     114:	009577d7          	vsetvli	a5,a0,e16,m2,tu,mu
     118:	fc079ce3          	bnez	a5,f0 <vector_memcpy_unit_stride_faultonlyfirst_e16m2+0x8>
     11c:	00008067          	ret

0000000000000120 <vector_memcpy_unit_stride_e16m2>:
     120:	009577d7          	vsetvli	a5,a0,e16,m2,tu,mu
     124:	00078713          	mv	a4,a5
     128:	02078863          	beqz	a5,158 <vector_memcpy_unit_stride_e16m2+0x38>
     12c:	0097f6d7          	vsetvli	a3,a5,e16,m2,tu,mu
     130:	0205d107          	vle16.v	v2,(a1)
     134:	0097f7d7          	vsetvli	a5,a5,e16,m2,tu,mu
     138:	02065127          	vse16.v	v2,(a2)
     13c:	00171793          	slli	a5,a4,0x1
     140:	00f585b3          	add	a1,a1,a5
     144:	00f60633          	add	a2,a2,a5
     148:	40e50533          	sub	a0,a0,a4
     14c:	009577d7          	vsetvli	a5,a0,e16,m2,tu,mu
     150:	00078713          	mv	a4,a5
     154:	fc079ce3          	bnez	a5,12c <vector_memcpy_unit_stride_e16m2+0xc>
     158:	00008067          	ret

000000000000015c <vector_memcpy_unit_stride_faultonlyfirst_e32m4>:
     15c:	012577d7          	vsetvli	a5,a0,e32,m4,tu,mu
     160:	02078863          	beqz	a5,190 <vector_memcpy_unit_stride_faultonlyfirst_e32m4+0x34>
     164:	0205e207          	vle32.v	v4,(a1)
     168:	9e41b257          	vmv4r.v	v4,v4
     16c:	c2002773          	csrr	a4,vl
     170:	02f71063          	bne	a4,a5,190 <vector_memcpy_unit_stride_faultonlyfirst_e32m4+0x34>
     174:	02066227          	vse32.v	v4,(a2)
     178:	00279713          	slli	a4,a5,0x2
     17c:	00e585b3          	add	a1,a1,a4
     180:	00e60633          	add	a2,a2,a4
     184:	40f50533          	sub	a0,a0,a5
     188:	012577d7          	vsetvli	a5,a0,e32,m4,tu,mu
     18c:	fc079ce3          	bnez	a5,164 <vector_memcpy_unit_stride_faultonlyfirst_e32m4+0x8>
     190:	00008067          	ret

0000000000000194 <vector_memcpy_unit_stride_e32m4>:
     194:	012577d7          	vsetvli	a5,a0,e32,m4,tu,mu
     198:	00078713          	mv	a4,a5
     19c:	02078863          	beqz	a5,1cc <vector_memcpy_unit_stride_e32m4+0x38>
     1a0:	0127f6d7          	vsetvli	a3,a5,e32,m4,tu,mu
     1a4:	0205e207          	vle32.v	v4,(a1)
     1a8:	0127f7d7          	vsetvli	a5,a5,e32,m4,tu,mu
     1ac:	02066227          	vse32.v	v4,(a2)
     1b0:	00271793          	slli	a5,a4,0x2
     1b4:	00f585b3          	add	a1,a1,a5
     1b8:	00f60633          	add	a2,a2,a5
     1bc:	40e50533          	sub	a0,a0,a4
     1c0:	012577d7          	vsetvli	a5,a0,e32,m4,tu,mu
     1c4:	00078713          	mv	a4,a5
     1c8:	fc079ce3          	bnez	a5,1a0 <vector_memcpy_unit_stride_e32m4+0xc>
     1cc:	00008067          	ret

00000000000001d0 <vector_memcpy_unit_stride_faultonlyfirst_e64m8>:
     1d0:	01b577d7          	vsetvli	a5,a0,e64,m8,tu,mu
     1d4:	02078863          	beqz	a5,204 <vector_memcpy_unit_stride_faultonlyfirst_e64m8+0x34>
     1d8:	0205f407          	vle64.v	v8,(a1)
     1dc:	9e83b457          	vmv8r.v	v8,v8
     1e0:	c2002773          	csrr	a4,vl
     1e4:	02f71063          	bne	a4,a5,204 <vector_memcpy_unit_stride_faultonlyfirst_e64m8+0x34>
     1e8:	02067427          	vse64.v	v8,(a2)
     1ec:	00379713          	slli	a4,a5,0x3
     1f0:	00e585b3          	add	a1,a1,a4
     1f4:	00e60633          	add	a2,a2,a4
     1f8:	40f50533          	sub	a0,a0,a5
     1fc:	01b577d7          	vsetvli	a5,a0,e64,m8,tu,mu
     200:	fc079ce3          	bnez	a5,1d8 <vector_memcpy_unit_stride_faultonlyfirst_e64m8+0x8>
     204:	00008067          	ret

0000000000000208 <vector_memcpy_unit_stride_e64m8>:
     208:	01b577d7          	vsetvli	a5,a0,e64,m8,tu,mu
     20c:	00078713          	mv	a4,a5
     210:	02078863          	beqz	a5,240 <vector_memcpy_unit_stride_e64m8+0x38>
     214:	01b7f6d7          	vsetvli	a3,a5,e64,m8,tu,mu
     218:	0205f407          	vle64.v	v8,(a1)
     21c:	01b7f7d7          	vsetvli	a5,a5,e64,m8,tu,mu
     220:	02067427          	vse64.v	v8,(a2)
     224:	00371793          	slli	a5,a4,0x3
     228:	00f585b3          	add	a1,a1,a5
     22c:	00f60633          	add	a2,a2,a5
     230:	40e50533          	sub	a0,a0,a4
     234:	01b577d7          	vsetvli	a5,a0,e64,m8,tu,mu
     238:	00078713          	mv	a4,a5
     23c:	fc079ce3          	bnez	a5,214 <vector_memcpy_unit_stride_e64m8+0xc>
     240:	00008067          	ret

0000000000000244 <vector_memcpy_wholereg_e64m8>:
     244:	fff00693          	li	a3,-1
     248:	01b6f6d7          	vsetvli	a3,a3,e64,m8,tu,mu
     24c:	01b577d7          	vsetvli	a5,a0,e64,m8,tu,mu
     250:	00078713          	mv	a4,a5
     254:	02079863          	bnez	a5,284 <vector_memcpy_wholereg_e64m8+0x40>
     258:	00008067          	ret
     25c:	e2858407          	vl8r.v	v8,(a1)
     260:	9e83b457          	vmv8r.v	v8,v8
     264:	e2860427          	vs8r.v	v8,(a2)
     268:	00371793          	slli	a5,a4,0x3
     26c:	00f585b3          	add	a1,a1,a5
     270:	00f60633          	add	a2,a2,a5
     274:	40e50533          	sub	a0,a0,a4
     278:	01b577d7          	vsetvli	a5,a0,e64,m8,tu,mu
     27c:	00078713          	mv	a4,a5
     280:	fc078ce3          	beqz	a5,258 <vector_memcpy_wholereg_e64m8+0x14>
     284:	fcf68ce3          	beq	a3,a5,25c <vector_memcpy_wholereg_e64m8+0x18>
     288:	01b7f857          	vsetvli	a6,a5,e64,m8,tu,mu
     28c:	0205f407          	vle64.v	v8,(a1)
     290:	01b7f7d7          	vsetvli	a5,a5,e64,m8,tu,mu
     294:	02067427          	vse64.v	v8,(a2)
     298:	fd1ff06f          	j	268 <vector_memcpy_wholereg_e64m8+0x24>

000000000000029c <vector_memcpy_strided_e8m1>:
     29c:	000577d7          	vsetvli	a5,a0,e8,m1,tu,mu
     2a0:	00078713          	mv	a4,a5
     2a4:	06078863          	beqz	a5,314 <vector_memcpy_strided_e8m1+0x78>
     2a8:	00400693          	li	a3,4
     2ac:	0400006f          	j	2ec <vector_memcpy_strided_e8m1+0x50>
     2b0:	00000713          	li	a4,0
     2b4:	0007f8d7          	vsetvli	a7,a5,e8,m1,tu,mu
     2b8:	00e588b3          	add	a7,a1,a4
     2bc:	0ad88087          	vlse8.v	v1,(a7),a3
     2c0:	0007f8d7          	vsetvli	a7,a5,e8,m1,tu,mu
     2c4:	00e608b3          	add	a7,a2,a4
     2c8:	0ad880a7          	vsse8.v	v1,(a7),a3
     2cc:	00170713          	addi	a4,a4,1
     2d0:	fed712e3          	bne	a4,a3,2b4 <vector_memcpy_strided_e8m1+0x18>
     2d4:	010585b3          	add	a1,a1,a6
     2d8:	01060633          	add	a2,a2,a6
     2dc:	41050533          	sub	a0,a0,a6
     2e0:	000577d7          	vsetvli	a5,a0,e8,m1,tu,mu
     2e4:	00078713          	mv	a4,a5
     2e8:	02078663          	beqz	a5,314 <vector_memcpy_strided_e8m1+0x78>
     2ec:	00271813          	slli	a6,a4,0x2
     2f0:	fca860e3          	bltu	a6,a0,2b0 <vector_memcpy_strided_e8m1+0x14>
     2f4:	0007f857          	vsetvli	a6,a5,e8,m1,tu,mu
     2f8:	02058087          	vle8.v	v1,(a1)
     2fc:	0007f7d7          	vsetvli	a5,a5,e8,m1,tu,mu
     300:	020600a7          	vse8.v	v1,(a2)
     304:	00e585b3          	add	a1,a1,a4
     308:	00e60633          	add	a2,a2,a4
     30c:	40e50533          	sub	a0,a0,a4
     310:	fd1ff06f          	j	2e0 <vector_memcpy_strided_e8m1+0x44>
     314:	00008067          	ret

0000000000000318 <vector_memcpy_strided_e16m2>:
     318:	009577d7          	vsetvli	a5,a0,e16,m2,tu,mu
     31c:	00078693          	mv	a3,a5
     320:	06078c63          	beqz	a5,398 <vector_memcpy_strided_e16m2+0x80>
     324:	00800813          	li	a6,8
     328:	0440006f          	j	36c <vector_memcpy_strided_e16m2+0x54>
     32c:	00000713          	li	a4,0
     330:	0097f357          	vsetvli	t1,a5,e16,m2,tu,mu
     334:	00e58333          	add	t1,a1,a4
     338:	0b035107          	vlse16.v	v2,(t1),a6
     33c:	0097f357          	vsetvli	t1,a5,e16,m2,tu,mu
     340:	00e60333          	add	t1,a2,a4
     344:	0b035127          	vsse16.v	v2,(t1),a6
     348:	00270713          	addi	a4,a4,2
     34c:	ff0712e3          	bne	a4,a6,330 <vector_memcpy_strided_e16m2+0x18>
     350:	00369693          	slli	a3,a3,0x3
     354:	00d585b3          	add	a1,a1,a3
     358:	00d60633          	add	a2,a2,a3
     35c:	41150533          	sub	a0,a0,a7
     360:	009577d7          	vsetvli	a5,a0,e16,m2,tu,mu
     364:	00078693          	mv	a3,a5
     368:	02078863          	beqz	a5,398 <vector_memcpy_strided_e16m2+0x80>
     36c:	00269893          	slli	a7,a3,0x2
     370:	faa8eee3          	bltu	a7,a0,32c <vector_memcpy_strided_e16m2+0x14>
     374:	0097f757          	vsetvli	a4,a5,e16,m2,tu,mu
     378:	0205d107          	vle16.v	v2,(a1)
     37c:	0097f7d7          	vsetvli	a5,a5,e16,m2,tu,mu
     380:	02065127          	vse16.v	v2,(a2)
     384:	00169793          	slli	a5,a3,0x1
     388:	00f585b3          	add	a1,a1,a5
     38c:	00f60633          	add	a2,a2,a5
     390:	40d50533          	sub	a0,a0,a3
     394:	fcdff06f          	j	360 <vector_memcpy_strided_e16m2+0x48>
     398:	00008067          	ret

000000000000039c <vector_memcpy_strided_e32m4>:
     39c:	012577d7          	vsetvli	a5,a0,e32,m4,tu,mu
     3a0:	00078693          	mv	a3,a5
     3a4:	06078a63          	beqz	a5,418 <vector_memcpy_strided_e32m4+0x7c>
     3a8:	01000893          	li	a7,16
     3ac:	0440006f          	j	3f0 <vector_memcpy_strided_e32m4+0x54>
     3b0:	00000713          	li	a4,0
     3b4:	0127f357          	vsetvli	t1,a5,e32,m4,tu,mu
     3b8:	00e58333          	add	t1,a1,a4
     3bc:	0b136207          	vlse32.v	v4,(t1),a7
     3c0:	0127f357          	vsetvli	t1,a5,e32,m4,tu,mu
     3c4:	00e60333          	add	t1,a2,a4
     3c8:	0b136227          	vsse32.v	v4,(t1),a7
     3cc:	00470713          	addi	a4,a4,4
     3d0:	ff1712e3          	bne	a4,a7,3b4 <vector_memcpy_strided_e32m4+0x18>
     3d4:	00469693          	slli	a3,a3,0x4
     3d8:	00d585b3          	add	a1,a1,a3
     3dc:	00d60633          	add	a2,a2,a3
     3e0:	41050533          	sub	a0,a0,a6
     3e4:	012577d7          	vsetvli	a5,a0,e32,m4,tu,mu
     3e8:	00078693          	mv	a3,a5
     3ec:	02078663          	beqz	a5,418 <vector_memcpy_strided_e32m4+0x7c>
     3f0:	00269813          	slli	a6,a3,0x2
     3f4:	faa86ee3          	bltu	a6,a0,3b0 <vector_memcpy_strided_e32m4+0x14>
     3f8:	0127f757          	vsetvli	a4,a5,e32,m4,tu,mu
     3fc:	0205e207          	vle32.v	v4,(a1)
     400:	0127f7d7          	vsetvli	a5,a5,e32,m4,tu,mu
     404:	02066227          	vse32.v	v4,(a2)
     408:	010585b3          	add	a1,a1,a6
     40c:	01060633          	add	a2,a2,a6
     410:	40d50533          	sub	a0,a0,a3
     414:	fd1ff06f          	j	3e4 <vector_memcpy_strided_e32m4+0x48>
     418:	00008067          	ret

000000000000041c <vector_memcpy_strided_e64m8>:
     41c:	01b577d7          	vsetvli	a5,a0,e64,m8,tu,mu
     420:	00078693          	mv	a3,a5
     424:	06078c63          	beqz	a5,49c <vector_memcpy_strided_e64m8+0x80>
     428:	02000813          	li	a6,32
     42c:	0440006f          	j	470 <vector_memcpy_strided_e64m8+0x54>
     430:	00000713          	li	a4,0
     434:	01b7f357          	vsetvli	t1,a5,e64,m8,tu,mu
     438:	00e58333          	add	t1,a1,a4
     43c:	0b037407          	vlse64.v	v8,(t1),a6
     440:	01b7f357          	vsetvli	t1,a5,e64,m8,tu,mu
     444:	00e60333          	add	t1,a2,a4
     448:	0b037427          	vsse64.v	v8,(t1),a6
     44c:	00870713          	addi	a4,a4,8
     450:	ff0712e3          	bne	a4,a6,434 <vector_memcpy_strided_e64m8+0x18>
     454:	00569693          	slli	a3,a3,0x5
     458:	00d585b3          	add	a1,a1,a3
     45c:	00d60633          	add	a2,a2,a3
     460:	41150533          	sub	a0,a0,a7
     464:	01b577d7          	vsetvli	a5,a0,e64,m8,tu,mu
     468:	00078693          	mv	a3,a5
     46c:	02078863          	beqz	a5,49c <vector_memcpy_strided_e64m8+0x80>
     470:	00269893          	slli	a7,a3,0x2
     474:	faa8eee3          	bltu	a7,a0,430 <vector_memcpy_strided_e64m8+0x14>
     478:	01b7f757          	vsetvli	a4,a5,e64,m8,tu,mu
     47c:	0205f407          	vle64.v	v8,(a1)
     480:	01b7f7d7          	vsetvli	a5,a5,e64,m8,tu,mu
     484:	02067427          	vse64.v	v8,(a2)
     488:	00369793          	slli	a5,a3,0x3
     48c:	00f585b3          	add	a1,a1,a5
     490:	00f60633          	add	a2,a2,a5
     494:	40d50533          	sub	a0,a0,a3
     498:	fcdff06f          	j	464 <vector_memcpy_strided_e64m8+0x48>
     49c:	00008067          	ret

00000000000004a0 <vector_memcpy_indexed_e8m1>:
     4a0:	f8010113          	addi	sp,sp,-128
     4a4:	fff00893          	li	a7,-1
     4a8:	0008f8d7          	vsetvli	a7,a7,e8,m1,tu,mu
     4ac:	00088693          	mv	a3,a7
     4b0:	00013023          	sd	zero,0(sp)
     4b4:	00013423          	sd	zero,8(sp)
     4b8:	00013823          	sd	zero,16(sp)
     4bc:	00013c23          	sd	zero,24(sp)
     4c0:	02013023          	sd	zero,32(sp)
     4c4:	02013423          	sd	zero,40(sp)
     4c8:	02013823          	sd	zero,48(sp)
     4cc:	02013c23          	sd	zero,56(sp)
     4d0:	04013023          	sd	zero,64(sp)
     4d4:	04013423          	sd	zero,72(sp)
     4d8:	04013823          	sd	zero,80(sp)
     4dc:	04013c23          	sd	zero,88(sp)
     4e0:	06013023          	sd	zero,96(sp)
     4e4:	06013423          	sd	zero,104(sp)
     4e8:	06013823          	sd	zero,112(sp)
     4ec:	06013c23          	sd	zero,120(sp)
     4f0:	02088063          	beqz	a7,510 <vector_memcpy_indexed_e8m1+0x70>
     4f4:	00010713          	mv	a4,sp
     4f8:	00000793          	li	a5,0
     4fc:	0017c813          	xori	a6,a5,1
     500:	01070023          	sb	a6,0(a4)
     504:	00178793          	addi	a5,a5,1
     508:	00170713          	addi	a4,a4,1
     50c:	fef698e3          	bne	a3,a5,4fc <vector_memcpy_indexed_e8m1+0x5c>
     510:	0008f8d7          	vsetvli	a7,a7,e8,m1,tu,mu
     514:	02010107          	vle8.v	v2,(sp)
     518:	000577d7          	vsetvli	a5,a0,e8,m1,tu,mu
     51c:	00078713          	mv	a4,a5
     520:	02079a63          	bnez	a5,554 <vector_memcpy_indexed_e8m1+0xb4>
     524:	08010113          	addi	sp,sp,128
     528:	00008067          	ret
     52c:	0007f857          	vsetvli	a6,a5,e8,m1,tu,mu
     530:	06258087          	vluxei8.v	v1,(a1),v2
     534:	0007f7d7          	vsetvli	a5,a5,e8,m1,tu,mu
     538:	062600a7          	vsuxei8.v	v1,(a2),v2
     53c:	00e585b3          	add	a1,a1,a4
     540:	00e60633          	add	a2,a2,a4
     544:	40e50533          	sub	a0,a0,a4
     548:	000577d7          	vsetvli	a5,a0,e8,m1,tu,mu
     54c:	00078713          	mv	a4,a5
     550:	fc078ae3          	beqz	a5,524 <vector_memcpy_indexed_e8m1+0x84>
     554:	fce68ce3          	beq	a3,a4,52c <vector_memcpy_indexed_e8m1+0x8c>
     558:	0007f857          	vsetvli	a6,a5,e8,m1,tu,mu
     55c:	02058087          	vle8.v	v1,(a1)
     560:	0007f7d7          	vsetvli	a5,a5,e8,m1,tu,mu
     564:	020600a7          	vse8.v	v1,(a2)
     568:	fd5ff06f          	j	53c <vector_memcpy_indexed_e8m1+0x9c>

000000000000056c <vector_memcpy_indexed_e16m2>:
     56c:	ed010113          	addi	sp,sp,-304
     570:	12113423          	sd	ra,296(sp)
     574:	12813023          	sd	s0,288(sp)
     578:	10913c23          	sd	s1,280(sp)
     57c:	11213823          	sd	s2,272(sp)
     580:	11313423          	sd	s3,264(sp)
     584:	11413023          	sd	s4,256(sp)
     588:	00050413          	mv	s0,a0
     58c:	00058913          	mv	s2,a1
     590:	00060493          	mv	s1,a2
     594:	fff00a13          	li	s4,-1
     598:	009a7a57          	vsetvli	s4,s4,e16,m2,tu,mu
     59c:	000a0993          	mv	s3,s4
     5a0:	10000613          	li	a2,256
     5a4:	00000593          	li	a1,0
     5a8:	00010513          	mv	a0,sp
     5ac:	0d1000ef          	jal	ra,e7c <memset>
     5b0:	020a0263          	beqz	s4,5d4 <vector_memcpy_indexed_e16m2+0x68>
     5b4:	00010693          	mv	a3,sp
     5b8:	00000793          	li	a5,0
     5bc:	0017c713          	xori	a4,a5,1
     5c0:	0017171b          	slliw	a4,a4,0x1
     5c4:	00e69023          	sh	a4,0(a3)
     5c8:	00178793          	addi	a5,a5,1
     5cc:	00268693          	addi	a3,a3,2
     5d0:	fef996e3          	bne	s3,a5,5bc <vector_memcpy_indexed_e16m2+0x50>
     5d4:	009a7a57          	vsetvli	s4,s4,e16,m2,tu,mu
     5d8:	02015207          	vle16.v	v4,(sp)
     5dc:	009477d7          	vsetvli	a5,s0,e16,m2,tu,mu
     5e0:	00078713          	mv	a4,a5
     5e4:	04079863          	bnez	a5,634 <vector_memcpy_indexed_e16m2+0xc8>
     5e8:	12813083          	ld	ra,296(sp)
     5ec:	12013403          	ld	s0,288(sp)
     5f0:	11813483          	ld	s1,280(sp)
     5f4:	11013903          	ld	s2,272(sp)
     5f8:	10813983          	ld	s3,264(sp)
     5fc:	10013a03          	ld	s4,256(sp)
     600:	13010113          	addi	sp,sp,304
     604:	00008067          	ret
     608:	0097f6d7          	vsetvli	a3,a5,e16,m2,tu,mu
     60c:	06495107          	vluxei16.v	v2,(s2),v4
     610:	0097f7d7          	vsetvli	a5,a5,e16,m2,tu,mu
     614:	0644d127          	vsuxei16.v	v2,(s1),v4
     618:	00171793          	slli	a5,a4,0x1
     61c:	00f90933          	add	s2,s2,a5
     620:	00f484b3          	add	s1,s1,a5
     624:	40e40433          	sub	s0,s0,a4
     628:	009477d7          	vsetvli	a5,s0,e16,m2,tu,mu
     62c:	00078713          	mv	a4,a5
     630:	fa078ce3          	beqz	a5,5e8 <vector_memcpy_indexed_e16m2+0x7c>
     634:	fce98ae3          	beq	s3,a4,608 <vector_memcpy_indexed_e16m2+0x9c>
     638:	0097f6d7          	vsetvli	a3,a5,e16,m2,tu,mu
     63c:	02095107          	vle16.v	v2,(s2)
     640:	0097f7d7          	vsetvli	a5,a5,e16,m2,tu,mu
     644:	0204d127          	vse16.v	v2,(s1)
     648:	fd1ff06f          	j	618 <vector_memcpy_indexed_e16m2+0xac>

000000000000064c <vector_memcpy_indexed_e32m4>:
     64c:	dd010113          	addi	sp,sp,-560
     650:	22113423          	sd	ra,552(sp)
     654:	22813023          	sd	s0,544(sp)
     658:	20913c23          	sd	s1,536(sp)
     65c:	21213823          	sd	s2,528(sp)
     660:	21313423          	sd	s3,520(sp)
     664:	21413023          	sd	s4,512(sp)
     668:	00050413          	mv	s0,a0
     66c:	00058913          	mv	s2,a1
     670:	00060493          	mv	s1,a2
     674:	fff00a13          	li	s4,-1
     678:	012a7a57          	vsetvli	s4,s4,e32,m4,tu,mu
     67c:	000a0993          	mv	s3,s4
     680:	20000613          	li	a2,512
     684:	00000593          	li	a1,0
     688:	00010513          	mv	a0,sp
     68c:	7f0000ef          	jal	ra,e7c <memset>
     690:	020a0263          	beqz	s4,6b4 <vector_memcpy_indexed_e32m4+0x68>
     694:	00010693          	mv	a3,sp
     698:	00000793          	li	a5,0
     69c:	0017c713          	xori	a4,a5,1
     6a0:	0027171b          	slliw	a4,a4,0x2
     6a4:	00e6a023          	sw	a4,0(a3)
     6a8:	00178793          	addi	a5,a5,1
     6ac:	00468693          	addi	a3,a3,4
     6b0:	fef996e3          	bne	s3,a5,69c <vector_memcpy_indexed_e32m4+0x50>
     6b4:	012a7a57          	vsetvli	s4,s4,e32,m4,tu,mu
     6b8:	02016407          	vle32.v	v8,(sp)
     6bc:	012477d7          	vsetvli	a5,s0,e32,m4,tu,mu
     6c0:	00078713          	mv	a4,a5
     6c4:	04079863          	bnez	a5,714 <vector_memcpy_indexed_e32m4+0xc8>
     6c8:	22813083          	ld	ra,552(sp)
     6cc:	22013403          	ld	s0,544(sp)
     6d0:	21813483          	ld	s1,536(sp)
     6d4:	21013903          	ld	s2,528(sp)
     6d8:	20813983          	ld	s3,520(sp)
     6dc:	20013a03          	ld	s4,512(sp)
     6e0:	23010113          	addi	sp,sp,560
     6e4:	00008067          	ret
     6e8:	0127f6d7          	vsetvli	a3,a5,e32,m4,tu,mu
     6ec:	06896207          	vluxei32.v	v4,(s2),v8
     6f0:	0127f7d7          	vsetvli	a5,a5,e32,m4,tu,mu
     6f4:	0684e227          	vsuxei32.v	v4,(s1),v8
     6f8:	00271793          	slli	a5,a4,0x2
     6fc:	00f90933          	add	s2,s2,a5
     700:	00f484b3          	add	s1,s1,a5
     704:	40e40433          	sub	s0,s0,a4
     708:	012477d7          	vsetvli	a5,s0,e32,m4,tu,mu
     70c:	00078713          	mv	a4,a5
     710:	fa078ce3          	beqz	a5,6c8 <vector_memcpy_indexed_e32m4+0x7c>
     714:	fce98ae3          	beq	s3,a4,6e8 <vector_memcpy_indexed_e32m4+0x9c>
     718:	0127f6d7          	vsetvli	a3,a5,e32,m4,tu,mu
     71c:	02096207          	vle32.v	v4,(s2)
     720:	0127f7d7          	vsetvli	a5,a5,e32,m4,tu,mu
     724:	0204e227          	vse32.v	v4,(s1)
     728:	fd1ff06f          	j	6f8 <vector_memcpy_indexed_e32m4+0xac>

000000000000072c <vector_memcpy_indexed_e64m8>:
     72c:	bd010113          	addi	sp,sp,-1072
     730:	42113423          	sd	ra,1064(sp)
     734:	42813023          	sd	s0,1056(sp)
     738:	40913c23          	sd	s1,1048(sp)
     73c:	41213823          	sd	s2,1040(sp)
     740:	41313423          	sd	s3,1032(sp)
     744:	41413023          	sd	s4,1024(sp)
     748:	00050413          	mv	s0,a0
     74c:	00058913          	mv	s2,a1
     750:	00060493          	mv	s1,a2
     754:	fff00a13          	li	s4,-1
     758:	01ba7a57          	vsetvli	s4,s4,e64,m8,tu,mu
     75c:	000a0993          	mv	s3,s4
     760:	40000613          	li	a2,1024
     764:	00000593          	li	a1,0
     768:	00010513          	mv	a0,sp
     76c:	710000ef          	jal	ra,e7c <memset>
     770:	020a0263          	beqz	s4,794 <vector_memcpy_indexed_e64m8+0x68>
     774:	00010693          	mv	a3,sp
     778:	00000793          	li	a5,0
     77c:	0017c713          	xori	a4,a5,1
     780:	00371713          	slli	a4,a4,0x3
     784:	00e6b023          	sd	a4,0(a3)
     788:	00178793          	addi	a5,a5,1
     78c:	00868693          	addi	a3,a3,8
     790:	fef996e3          	bne	s3,a5,77c <vector_memcpy_indexed_e64m8+0x50>
     794:	01ba7a57          	vsetvli	s4,s4,e64,m8,tu,mu
     798:	02017807          	vle64.v	v16,(sp)
     79c:	01b477d7          	vsetvli	a5,s0,e64,m8,tu,mu
     7a0:	00078713          	mv	a4,a5
     7a4:	04079863          	bnez	a5,7f4 <vector_memcpy_indexed_e64m8+0xc8>
     7a8:	42813083          	ld	ra,1064(sp)
     7ac:	42013403          	ld	s0,1056(sp)
     7b0:	41813483          	ld	s1,1048(sp)
     7b4:	41013903          	ld	s2,1040(sp)
     7b8:	40813983          	ld	s3,1032(sp)
     7bc:	40013a03          	ld	s4,1024(sp)
     7c0:	43010113          	addi	sp,sp,1072
     7c4:	00008067          	ret
     7c8:	01b7f6d7          	vsetvli	a3,a5,e64,m8,tu,mu
     7cc:	07097407          	vluxei64.v	v8,(s2),v16
     7d0:	01b7f7d7          	vsetvli	a5,a5,e64,m8,tu,mu
     7d4:	0704f427          	vsuxei64.v	v8,(s1),v16
     7d8:	00371793          	slli	a5,a4,0x3
     7dc:	00f90933          	add	s2,s2,a5
     7e0:	00f484b3          	add	s1,s1,a5
     7e4:	40e40433          	sub	s0,s0,a4
     7e8:	01b477d7          	vsetvli	a5,s0,e64,m8,tu,mu
     7ec:	00078713          	mv	a4,a5
     7f0:	fa078ce3          	beqz	a5,7a8 <vector_memcpy_indexed_e64m8+0x7c>
     7f4:	fce98ae3          	beq	s3,a4,7c8 <vector_memcpy_indexed_e64m8+0x9c>
     7f8:	01b7f6d7          	vsetvli	a3,a5,e64,m8,tu,mu
     7fc:	02097407          	vle64.v	v8,(s2)
     800:	01b7f7d7          	vsetvli	a5,a5,e64,m8,tu,mu
     804:	0204f427          	vse64.v	v8,(s1)
     808:	fd1ff06f          	j	7d8 <vector_memcpy_indexed_e64m8+0xac>

000000000000080c <vector_memcpy_masked_e8m1>:
     80c:	f8010113          	addi	sp,sp,-128
     810:	00013023          	sd	zero,0(sp)
     814:	00013423          	sd	zero,8(sp)
     818:	00013823          	sd	zero,16(sp)
     81c:	00013c23          	sd	zero,24(sp)
     820:	02013023          	sd	zero,32(sp)
     824:	02013423          	sd	zero,40(sp)
     828:	02013823          	sd	zero,48(sp)
     82c:	02013c23          	sd	zero,56(sp)
     830:	04013023          	sd	zero,64(sp)
     834:	04013423          	sd	zero,72(sp)
     838:	04013823          	sd	zero,80(sp)
     83c:	04013c23          	sd	zero,88(sp)
     840:	06013023          	sd	zero,96(sp)
     844:	06013423          	sd	zero,104(sp)
     848:	06013823          	sd	zero,112(sp)
     84c:	06013c23          	sd	zero,120(sp)
     850:	fff00813          	li	a6,-1
     854:	00087857          	vsetvli	a6,a6,e8,m1,tu,mu
     858:	02080263          	beqz	a6,87c <vector_memcpy_masked_e8m1+0x70>
     85c:	00080893          	mv	a7,a6
     860:	00010713          	mv	a4,sp
     864:	00000793          	li	a5,0
     868:	0017f693          	andi	a3,a5,1
     86c:	00d70023          	sb	a3,0(a4)
     870:	00178793          	addi	a5,a5,1
     874:	00170713          	addi	a4,a4,1
     878:	fef898e3          	bne	a7,a5,868 <vector_memcpy_masked_e8m1+0x5c>
     87c:	000877d7          	vsetvli	a5,a6,e8,m1,tu,mu
     880:	02010107          	vle8.v	v2,(sp)
     884:	00087857          	vsetvli	a6,a6,e8,m1,tu,mu
     888:	6220b057          	vmseq.vi	v0,v2,1
     88c:	000577d7          	vsetvli	a5,a0,e8,m1,tu,mu
     890:	00078713          	mv	a4,a5
     894:	02078663          	beqz	a5,8c0 <vector_memcpy_masked_e8m1+0xb4>
     898:	0007f6d7          	vsetvli	a3,a5,e8,m1,tu,mu
     89c:	00058087          	vle8.v	v1,(a1),v0.t
     8a0:	0007f7d7          	vsetvli	a5,a5,e8,m1,tu,mu
     8a4:	000600a7          	vse8.v	v1,(a2),v0.t
     8a8:	00e585b3          	add	a1,a1,a4
     8ac:	00e60633          	add	a2,a2,a4
     8b0:	40e50533          	sub	a0,a0,a4
     8b4:	000577d7          	vsetvli	a5,a0,e8,m1,tu,mu
     8b8:	00078713          	mv	a4,a5
     8bc:	fc079ee3          	bnez	a5,898 <vector_memcpy_masked_e8m1+0x8c>
     8c0:	08010113          	addi	sp,sp,128
     8c4:	00008067          	ret

00000000000008c8 <vector_memcpy_masked_e16m2>:
     8c8:	fd010113          	addi	sp,sp,-48
     8cc:	02113423          	sd	ra,40(sp)
     8d0:	02813023          	sd	s0,32(sp)
     8d4:	00913c23          	sd	s1,24(sp)
     8d8:	01213823          	sd	s2,16(sp)
     8dc:	01313423          	sd	s3,8(sp)
     8e0:	01413023          	sd	s4,0(sp)
     8e4:	c2202373          	csrr	t1,vlenb
     8e8:	ffe00393          	li	t2,-2
     8ec:	02730333          	mul	t1,t1,t2
     8f0:	00610133          	add	sp,sp,t1
     8f4:	f0010113          	addi	sp,sp,-256
     8f8:	00050413          	mv	s0,a0
     8fc:	00058913          	mv	s2,a1
     900:	00060493          	mv	s1,a2
     904:	10000613          	li	a2,256
     908:	00000593          	li	a1,0
     90c:	c22029f3          	csrr	s3,vlenb
     910:	00200a13          	li	s4,2
     914:	03498533          	mul	a0,s3,s4
     918:	00250533          	add	a0,a0,sp
     91c:	560000ef          	jal	ra,e7c <memset>
     920:	fff00613          	li	a2,-1
     924:	00967657          	vsetvli	a2,a2,e16,m2,tu,mu
     928:	02060463          	beqz	a2,950 <vector_memcpy_masked_e16m2+0x88>
     92c:	00060593          	mv	a1,a2
     930:	03498733          	mul	a4,s3,s4
     934:	00270733          	add	a4,a4,sp
     938:	00000793          	li	a5,0
     93c:	0017f693          	andi	a3,a5,1
     940:	00d71023          	sh	a3,0(a4)
     944:	00178793          	addi	a5,a5,1
     948:	00270713          	addi	a4,a4,2
     94c:	fef598e3          	bne	a1,a5,93c <vector_memcpy_masked_e16m2+0x74>
     950:	009677d7          	vsetvli	a5,a2,e16,m2,tu,mu
     954:	c22027f3          	csrr	a5,vlenb
     958:	00200713          	li	a4,2
     95c:	02e787b3          	mul	a5,a5,a4
     960:	002787b3          	add	a5,a5,sp
     964:	0207d107          	vle16.v	v2,(a5)
     968:	00967657          	vsetvli	a2,a2,e16,m2,tu,mu
     96c:	6220b057          	vmseq.vi	v0,v2,1
     970:	009477d7          	vsetvli	a5,s0,e16,m2,tu,mu
     974:	00078713          	mv	a4,a5
     978:	04078063          	beqz	a5,9b8 <vector_memcpy_masked_e16m2+0xf0>
     97c:	0097f6d7          	vsetvli	a3,a5,e16,m2,tu,mu
     980:	22810107          	vl2r.v	v2,(sp)
     984:	00095107          	vle16.v	v2,(s2),v0.t
     988:	9e20b157          	vmv2r.v	v2,v2
     98c:	22810127          	vs2r.v	v2,(sp)
     990:	0097f7d7          	vsetvli	a5,a5,e16,m2,tu,mu
     994:	9e20b157          	vmv2r.v	v2,v2
     998:	0004d127          	vse16.v	v2,(s1),v0.t
     99c:	00171793          	slli	a5,a4,0x1
     9a0:	00f90933          	add	s2,s2,a5
     9a4:	00f484b3          	add	s1,s1,a5
     9a8:	40e40433          	sub	s0,s0,a4
     9ac:	009477d7          	vsetvli	a5,s0,e16,m2,tu,mu
     9b0:	00078713          	mv	a4,a5
     9b4:	fc0794e3          	bnez	a5,97c <vector_memcpy_masked_e16m2+0xb4>
     9b8:	c2202373          	csrr	t1,vlenb
     9bc:	00200393          	li	t2,2
     9c0:	02730333          	mul	t1,t1,t2
     9c4:	00610133          	add	sp,sp,t1
     9c8:	10010113          	addi	sp,sp,256
     9cc:	02813083          	ld	ra,40(sp)
     9d0:	02013403          	ld	s0,32(sp)
     9d4:	01813483          	ld	s1,24(sp)
     9d8:	01013903          	ld	s2,16(sp)
     9dc:	00813983          	ld	s3,8(sp)
     9e0:	00013a03          	ld	s4,0(sp)
     9e4:	03010113          	addi	sp,sp,48
     9e8:	00008067          	ret

00000000000009ec <vector_memcpy_masked_e32m4>:
     9ec:	fd010113          	addi	sp,sp,-48
     9f0:	02113423          	sd	ra,40(sp)
     9f4:	02813023          	sd	s0,32(sp)
     9f8:	00913c23          	sd	s1,24(sp)
     9fc:	01213823          	sd	s2,16(sp)
     a00:	01313423          	sd	s3,8(sp)
     a04:	01413023          	sd	s4,0(sp)
     a08:	c2202373          	csrr	t1,vlenb
     a0c:	ffc00393          	li	t2,-4
     a10:	02730333          	mul	t1,t1,t2
     a14:	00610133          	add	sp,sp,t1
     a18:	e0010113          	addi	sp,sp,-512
     a1c:	00050413          	mv	s0,a0
     a20:	00058913          	mv	s2,a1
     a24:	00060493          	mv	s1,a2
     a28:	20000613          	li	a2,512
     a2c:	00000593          	li	a1,0
     a30:	c22029f3          	csrr	s3,vlenb
     a34:	00400a13          	li	s4,4
     a38:	03498533          	mul	a0,s3,s4
     a3c:	00250533          	add	a0,a0,sp
     a40:	43c000ef          	jal	ra,e7c <memset>
     a44:	fff00613          	li	a2,-1
     a48:	01267657          	vsetvli	a2,a2,e32,m4,tu,mu
     a4c:	02060463          	beqz	a2,a74 <vector_memcpy_masked_e32m4+0x88>
     a50:	00060593          	mv	a1,a2
     a54:	03498733          	mul	a4,s3,s4
     a58:	00270733          	add	a4,a4,sp
     a5c:	00000793          	li	a5,0
     a60:	0017f693          	andi	a3,a5,1
     a64:	00d72023          	sw	a3,0(a4)
     a68:	00178793          	addi	a5,a5,1
     a6c:	00470713          	addi	a4,a4,4
     a70:	fef598e3          	bne	a1,a5,a60 <vector_memcpy_masked_e32m4+0x74>
     a74:	012677d7          	vsetvli	a5,a2,e32,m4,tu,mu
     a78:	c22027f3          	csrr	a5,vlenb
     a7c:	00400713          	li	a4,4
     a80:	02e787b3          	mul	a5,a5,a4
     a84:	002787b3          	add	a5,a5,sp
     a88:	0207e207          	vle32.v	v4,(a5)
     a8c:	01267657          	vsetvli	a2,a2,e32,m4,tu,mu
     a90:	6240b057          	vmseq.vi	v0,v4,1
     a94:	012477d7          	vsetvli	a5,s0,e32,m4,tu,mu
     a98:	00078713          	mv	a4,a5
     a9c:	04078063          	beqz	a5,adc <vector_memcpy_masked_e32m4+0xf0>
     aa0:	0127f6d7          	vsetvli	a3,a5,e32,m4,tu,mu
     aa4:	62810207          	vl4r.v	v4,(sp)
     aa8:	00096207          	vle32.v	v4,(s2),v0.t
     aac:	9e41b257          	vmv4r.v	v4,v4
     ab0:	62810227          	vs4r.v	v4,(sp)
     ab4:	0127f7d7          	vsetvli	a5,a5,e32,m4,tu,mu
     ab8:	9e41b257          	vmv4r.v	v4,v4
     abc:	0004e227          	vse32.v	v4,(s1),v0.t
     ac0:	00271793          	slli	a5,a4,0x2
     ac4:	00f90933          	add	s2,s2,a5
     ac8:	00f484b3          	add	s1,s1,a5
     acc:	40e40433          	sub	s0,s0,a4
     ad0:	012477d7          	vsetvli	a5,s0,e32,m4,tu,mu
     ad4:	00078713          	mv	a4,a5
     ad8:	fc0794e3          	bnez	a5,aa0 <vector_memcpy_masked_e32m4+0xb4>
     adc:	c2202373          	csrr	t1,vlenb
     ae0:	00400393          	li	t2,4
     ae4:	02730333          	mul	t1,t1,t2
     ae8:	00610133          	add	sp,sp,t1
     aec:	20010113          	addi	sp,sp,512
     af0:	02813083          	ld	ra,40(sp)
     af4:	02013403          	ld	s0,32(sp)
     af8:	01813483          	ld	s1,24(sp)
     afc:	01013903          	ld	s2,16(sp)
     b00:	00813983          	ld	s3,8(sp)
     b04:	00013a03          	ld	s4,0(sp)
     b08:	03010113          	addi	sp,sp,48
     b0c:	00008067          	ret

0000000000000b10 <vector_memcpy_masked_e64m8>:
     b10:	fd010113          	addi	sp,sp,-48
     b14:	02113423          	sd	ra,40(sp)
     b18:	02813023          	sd	s0,32(sp)
     b1c:	00913c23          	sd	s1,24(sp)
     b20:	01213823          	sd	s2,16(sp)
     b24:	01313423          	sd	s3,8(sp)
     b28:	01413023          	sd	s4,0(sp)
     b2c:	c2202373          	csrr	t1,vlenb
     b30:	ff800393          	li	t2,-8
     b34:	02730333          	mul	t1,t1,t2
     b38:	00610133          	add	sp,sp,t1
     b3c:	c0010113          	addi	sp,sp,-1024
     b40:	00050413          	mv	s0,a0
     b44:	00058913          	mv	s2,a1
     b48:	00060493          	mv	s1,a2
     b4c:	40000613          	li	a2,1024
     b50:	00000593          	li	a1,0
     b54:	c22029f3          	csrr	s3,vlenb
     b58:	00800a13          	li	s4,8
     b5c:	03498533          	mul	a0,s3,s4
     b60:	00250533          	add	a0,a0,sp
     b64:	318000ef          	jal	ra,e7c <memset>
     b68:	fff00613          	li	a2,-1
     b6c:	01b67657          	vsetvli	a2,a2,e64,m8,tu,mu
     b70:	02060463          	beqz	a2,b98 <vector_memcpy_masked_e64m8+0x88>
     b74:	00060593          	mv	a1,a2
     b78:	03498733          	mul	a4,s3,s4
     b7c:	00270733          	add	a4,a4,sp
     b80:	00000793          	li	a5,0
     b84:	0017f693          	andi	a3,a5,1
     b88:	00d73023          	sd	a3,0(a4)
     b8c:	00178793          	addi	a5,a5,1
     b90:	00870713          	addi	a4,a4,8
     b94:	fef598e3          	bne	a1,a5,b84 <vector_memcpy_masked_e64m8+0x74>
     b98:	01b677d7          	vsetvli	a5,a2,e64,m8,tu,mu
     b9c:	c22027f3          	csrr	a5,vlenb
     ba0:	00800713          	li	a4,8
     ba4:	02e787b3          	mul	a5,a5,a4
     ba8:	002787b3          	add	a5,a5,sp
     bac:	0207f407          	vle64.v	v8,(a5)
     bb0:	01b67657          	vsetvli	a2,a2,e64,m8,tu,mu
     bb4:	6280b057          	vmseq.vi	v0,v8,1
     bb8:	01b477d7          	vsetvli	a5,s0,e64,m8,tu,mu
     bbc:	00078713          	mv	a4,a5
     bc0:	04078063          	beqz	a5,c00 <vector_memcpy_masked_e64m8+0xf0>
     bc4:	01b7f6d7          	vsetvli	a3,a5,e64,m8,tu,mu
     bc8:	e2810407          	vl8r.v	v8,(sp)
     bcc:	00097407          	vle64.v	v8,(s2),v0.t
     bd0:	9e83b457          	vmv8r.v	v8,v8
     bd4:	e2810427          	vs8r.v	v8,(sp)
     bd8:	01b7f7d7          	vsetvli	a5,a5,e64,m8,tu,mu
     bdc:	9e83b457          	vmv8r.v	v8,v8
     be0:	0004f427          	vse64.v	v8,(s1),v0.t
     be4:	00371793          	slli	a5,a4,0x3
     be8:	00f90933          	add	s2,s2,a5
     bec:	00f484b3          	add	s1,s1,a5
     bf0:	40e40433          	sub	s0,s0,a4
     bf4:	01b477d7          	vsetvli	a5,s0,e64,m8,tu,mu
     bf8:	00078713          	mv	a4,a5
     bfc:	fc0794e3          	bnez	a5,bc4 <vector_memcpy_masked_e64m8+0xb4>
     c00:	c2202373          	csrr	t1,vlenb
     c04:	00800393          	li	t2,8
     c08:	02730333          	mul	t1,t1,t2
     c0c:	00610133          	add	sp,sp,t1
     c10:	40010113          	addi	sp,sp,1024
     c14:	02813083          	ld	ra,40(sp)
     c18:	02013403          	ld	s0,32(sp)
     c1c:	01813483          	ld	s1,24(sp)
     c20:	01013903          	ld	s2,16(sp)
     c24:	00813983          	ld	s3,8(sp)
     c28:	00013a03          	ld	s4,0(sp)
     c2c:	03010113          	addi	sp,sp,48
     c30:	00008067          	ret

0000000000000c34 <vector_memcpy_segmented_e8m2>:
     c34:	001576d7          	vsetvli	a3,a0,e8,m2,tu,mu
     c38:	06068063          	beqz	a3,c98 <vector_memcpy_segmented_e8m2+0x64>
     c3c:	02060813          	addi	a6,a2,32
     c40:	0100006f          	j	c50 <vector_memcpy_segmented_e8m2+0x1c>
     c44:	40d50533          	sub	a0,a0,a3
     c48:	001576d7          	vsetvli	a3,a0,e8,m2,tu,mu
     c4c:	04068663          	beqz	a3,c98 <vector_memcpy_segmented_e8m2+0x64>
     c50:	62058207          	vlseg4e8.v	v4,(a1)
     c54:	00063783          	ld	a5,0(a2)
     c58:	02078227          	vse8.v	v4,(a5)
     c5c:	00863783          	ld	a5,8(a2)
     c60:	02078327          	vse8.v	v6,(a5)
     c64:	01063783          	ld	a5,16(a2)
     c68:	02078427          	vse8.v	v8,(a5)
     c6c:	01863783          	ld	a5,24(a2)
     c70:	02078527          	vse8.v	v10,(a5)
     c74:	00269793          	slli	a5,a3,0x2
     c78:	00f585b3          	add	a1,a1,a5
     c7c:	00060793          	mv	a5,a2
     c80:	0007b703          	ld	a4,0(a5)
     c84:	00d70733          	add	a4,a4,a3
     c88:	00e7b023          	sd	a4,0(a5)
     c8c:	00878793          	addi	a5,a5,8
     c90:	ff0798e3          	bne	a5,a6,c80 <vector_memcpy_segmented_e8m2+0x4c>
     c94:	fb1ff06f          	j	c44 <vector_memcpy_segmented_e8m2+0x10>
     c98:	00008067          	ret

0000000000000c9c <vector_memcpy_segmented_e32m2>:
     c9c:	011576d7          	vsetvli	a3,a0,e32,m2,tu,mu
     ca0:	06068263          	beqz	a3,d04 <vector_memcpy_segmented_e32m2+0x68>
     ca4:	02060893          	addi	a7,a2,32
     ca8:	0100006f          	j	cb8 <vector_memcpy_segmented_e32m2+0x1c>
     cac:	40d50533          	sub	a0,a0,a3
     cb0:	011576d7          	vsetvli	a3,a0,e32,m2,tu,mu
     cb4:	04068863          	beqz	a3,d04 <vector_memcpy_segmented_e32m2+0x68>
     cb8:	6205e207          	vlseg4e32.v	v4,(a1)
     cbc:	00063783          	ld	a5,0(a2)
     cc0:	0207e227          	vse32.v	v4,(a5)
     cc4:	00863783          	ld	a5,8(a2)
     cc8:	0207e327          	vse32.v	v6,(a5)
     ccc:	01063783          	ld	a5,16(a2)
     cd0:	0207e427          	vse32.v	v8,(a5)
     cd4:	01863783          	ld	a5,24(a2)
     cd8:	0207e527          	vse32.v	v10,(a5)
     cdc:	00469793          	slli	a5,a3,0x4
     ce0:	00f585b3          	add	a1,a1,a5
     ce4:	00269813          	slli	a6,a3,0x2
     ce8:	00060793          	mv	a5,a2
     cec:	0007b703          	ld	a4,0(a5)
     cf0:	01070733          	add	a4,a4,a6
     cf4:	00e7b023          	sd	a4,0(a5)
     cf8:	00878793          	addi	a5,a5,8
     cfc:	ff1798e3          	bne	a5,a7,cec <vector_memcpy_segmented_e32m2+0x50>
     d00:	fadff06f          	j	cac <vector_memcpy_segmented_e32m2+0x10>
     d04:	00008067          	ret

0000000000000d08 <vector_memcpy_segmented_e64m2>:
     d08:	019576d7          	vsetvli	a3,a0,e64,m2,tu,mu
     d0c:	06068263          	beqz	a3,d70 <vector_memcpy_segmented_e64m2+0x68>
     d10:	02060893          	addi	a7,a2,32
     d14:	0100006f          	j	d24 <vector_memcpy_segmented_e64m2+0x1c>
     d18:	40d50533          	sub	a0,a0,a3
     d1c:	019576d7          	vsetvli	a3,a0,e64,m2,tu,mu
     d20:	04068863          	beqz	a3,d70 <vector_memcpy_segmented_e64m2+0x68>
     d24:	6205f207          	vlseg4e64.v	v4,(a1)
     d28:	00063783          	ld	a5,0(a2)
     d2c:	0207f227          	vse64.v	v4,(a5)
     d30:	00863783          	ld	a5,8(a2)
     d34:	0207f327          	vse64.v	v6,(a5)
     d38:	01063783          	ld	a5,16(a2)
     d3c:	0207f427          	vse64.v	v8,(a5)
     d40:	01863783          	ld	a5,24(a2)
     d44:	0207f527          	vse64.v	v10,(a5)
     d48:	00569793          	slli	a5,a3,0x5
     d4c:	00f585b3          	add	a1,a1,a5
     d50:	00369813          	slli	a6,a3,0x3
     d54:	00060793          	mv	a5,a2
     d58:	0007b703          	ld	a4,0(a5)
     d5c:	01070733          	add	a4,a4,a6
     d60:	00e7b023          	sd	a4,0(a5)
     d64:	00878793          	addi	a5,a5,8
     d68:	ff1798e3          	bne	a5,a7,d58 <vector_memcpy_segmented_e64m2+0x50>
     d6c:	fadff06f          	j	d18 <vector_memcpy_segmented_e64m2+0x10>
     d70:	00008067          	ret

0000000000000d74 <vector_memcpy_wholereg_e64m1>:
     d74:	fff00693          	li	a3,-1
     d78:	0186f6d7          	vsetvli	a3,a3,e64,m1,tu,mu
     d7c:	018577d7          	vsetvli	a5,a0,e64,m1,tu,mu
     d80:	00078713          	mv	a4,a5
     d84:	02079863          	bnez	a5,db4 <vector_memcpy_wholereg_e64m1+0x40>
     d88:	00008067          	ret
     d8c:	02858087          	vl1r.v	v1,(a1)
     d90:	9e1030d7          	vmv1r.v	v1,v1
     d94:	028600a7          	vs1r.v	v1,(a2)
     d98:	00371793          	slli	a5,a4,0x3
     d9c:	00f585b3          	add	a1,a1,a5
     da0:	00f60633          	add	a2,a2,a5
     da4:	40e50533          	sub	a0,a0,a4
     da8:	018577d7          	vsetvli	a5,a0,e64,m1,tu,mu
     dac:	00078713          	mv	a4,a5
     db0:	fc078ce3          	beqz	a5,d88 <vector_memcpy_wholereg_e64m1+0x14>
     db4:	fcf68ce3          	beq	a3,a5,d8c <vector_memcpy_wholereg_e64m1+0x18>
     db8:	0187f857          	vsetvli	a6,a5,e64,m1,tu,mu
     dbc:	0205f087          	vle64.v	v1,(a1)
     dc0:	0187f7d7          	vsetvli	a5,a5,e64,m1,tu,mu
     dc4:	020670a7          	vse64.v	v1,(a2)
     dc8:	fd1ff06f          	j	d98 <vector_memcpy_wholereg_e64m1+0x24>

0000000000000dcc <vector_memcpy_wholereg_e64m2>:
     dcc:	fff00693          	li	a3,-1
     dd0:	0196f6d7          	vsetvli	a3,a3,e64,m2,tu,mu
     dd4:	019577d7          	vsetvli	a5,a0,e64,m2,tu,mu
     dd8:	00078713          	mv	a4,a5
     ddc:	02079863          	bnez	a5,e0c <vector_memcpy_wholereg_e64m2+0x40>
     de0:	00008067          	ret
     de4:	22858107          	vl2r.v	v2,(a1)
     de8:	9e20b157          	vmv2r.v	v2,v2
     dec:	22860127          	vs2r.v	v2,(a2)
     df0:	00371793          	slli	a5,a4,0x3
     df4:	00f585b3          	add	a1,a1,a5
     df8:	00f60633          	add	a2,a2,a5
     dfc:	40e50533          	sub	a0,a0,a4
     e00:	019577d7          	vsetvli	a5,a0,e64,m2,tu,mu
     e04:	00078713          	mv	a4,a5
     e08:	fc078ce3          	beqz	a5,de0 <vector_memcpy_wholereg_e64m2+0x14>
     e0c:	fcf68ce3          	beq	a3,a5,de4 <vector_memcpy_wholereg_e64m2+0x18>
     e10:	0197f857          	vsetvli	a6,a5,e64,m2,tu,mu
     e14:	0205f107          	vle64.v	v2,(a1)
     e18:	0197f7d7          	vsetvli	a5,a5,e64,m2,tu,mu
     e1c:	02067127          	vse64.v	v2,(a2)
     e20:	fd1ff06f          	j	df0 <vector_memcpy_wholereg_e64m2+0x24>

0000000000000e24 <vector_memcpy_wholereg_e64m4>:
     e24:	fff00693          	li	a3,-1
     e28:	01a6f6d7          	vsetvli	a3,a3,e64,m4,tu,mu
     e2c:	01a577d7          	vsetvli	a5,a0,e64,m4,tu,mu
     e30:	00078713          	mv	a4,a5
     e34:	02079863          	bnez	a5,e64 <vector_memcpy_wholereg_e64m4+0x40>
     e38:	00008067          	ret
     e3c:	62858207          	vl4r.v	v4,(a1)
     e40:	9e41b257          	vmv4r.v	v4,v4
     e44:	62860227          	vs4r.v	v4,(a2)
     e48:	00371793          	slli	a5,a4,0x3
     e4c:	00f585b3          	add	a1,a1,a5
     e50:	00f60633          	add	a2,a2,a5
     e54:	40e50533          	sub	a0,a0,a4
     e58:	01a577d7          	vsetvli	a5,a0,e64,m4,tu,mu
     e5c:	00078713          	mv	a4,a5
     e60:	fc078ce3          	beqz	a5,e38 <vector_memcpy_wholereg_e64m4+0x14>
     e64:	fcf68ce3          	beq	a3,a5,e3c <vector_memcpy_wholereg_e64m4+0x18>
     e68:	01a7f857          	vsetvli	a6,a5,e64,m4,tu,mu
     e6c:	0205f207          	vle64.v	v4,(a1)
     e70:	01a7f7d7          	vsetvli	a5,a5,e64,m4,tu,mu
     e74:	02067227          	vse64.v	v4,(a2)
     e78:	fd1ff06f          	j	e48 <vector_memcpy_wholereg_e64m4+0x24>

0000000000000e7c <memset>:
     e7c:	0ff5f593          	andi	a1,a1,255
     e80:	00060c63          	beqz	a2,e98 <memset+0x1c>
     e84:	00050793          	mv	a5,a0
     e88:	00a60633          	add	a2,a2,a0
     e8c:	00b78023          	sb	a1,0(a5)
     e90:	00178793          	addi	a5,a5,1
     e94:	fec79ce3          	bne	a5,a2,e8c <memset+0x10>
     e98:	00008067          	ret

0000000000000e9c <vector_memcpy_harness_uint8_t>:
     e9c:	ee010113          	addi	sp,sp,-288
     ea0:	10113c23          	sd	ra,280(sp)
     ea4:	10813823          	sd	s0,272(sp)
     ea8:	10913423          	sd	s1,264(sp)
     eac:	00050813          	mv	a6,a0
     eb0:	08013023          	sd	zero,128(sp)
     eb4:	08013423          	sd	zero,136(sp)
     eb8:	08013823          	sd	zero,144(sp)
     ebc:	08013c23          	sd	zero,152(sp)
     ec0:	0a013023          	sd	zero,160(sp)
     ec4:	0a013423          	sd	zero,168(sp)
     ec8:	0a013823          	sd	zero,176(sp)
     ecc:	0a013c23          	sd	zero,184(sp)
     ed0:	0c013023          	sd	zero,192(sp)
     ed4:	0c013423          	sd	zero,200(sp)
     ed8:	0c013823          	sd	zero,208(sp)
     edc:	0c013c23          	sd	zero,216(sp)
     ee0:	0e013023          	sd	zero,224(sp)
     ee4:	0e013423          	sd	zero,232(sp)
     ee8:	0e013823          	sd	zero,240(sp)
     eec:	0e013c23          	sd	zero,248(sp)
     ef0:	00013023          	sd	zero,0(sp)
     ef4:	00013423          	sd	zero,8(sp)
     ef8:	00013823          	sd	zero,16(sp)
     efc:	00013c23          	sd	zero,24(sp)
     f00:	02013023          	sd	zero,32(sp)
     f04:	02013423          	sd	zero,40(sp)
     f08:	02013823          	sd	zero,48(sp)
     f0c:	02013c23          	sd	zero,56(sp)
     f10:	04013023          	sd	zero,64(sp)
     f14:	04013423          	sd	zero,72(sp)
     f18:	04013823          	sd	zero,80(sp)
     f1c:	04013c23          	sd	zero,88(sp)
     f20:	06013023          	sd	zero,96(sp)
     f24:	06013423          	sd	zero,104(sp)
     f28:	06013823          	sd	zero,112(sp)
     f2c:	06013c23          	sd	zero,120(sp)
     f30:	08010413          	addi	s0,sp,128
     f34:	00040713          	mv	a4,s0
     f38:	00000793          	li	a5,0
     f3c:	08000693          	li	a3,128
     f40:	00f70023          	sb	a5,0(a4)
     f44:	0017879b          	addiw	a5,a5,1
     f48:	0ff7f793          	andi	a5,a5,255
     f4c:	00170713          	addi	a4,a4,1
     f50:	fed798e3          	bne	a5,a3,f40 <vector_memcpy_harness_uint8_t+0xa4>
     f54:	00010493          	mv	s1,sp
     f58:	00048613          	mv	a2,s1
     f5c:	08010593          	addi	a1,sp,128
     f60:	06e00513          	li	a0,110
     f64:	000800e7          	jalr	a6
     f68:	00048593          	mv	a1,s1
     f6c:	06e40693          	addi	a3,s0,110
     f70:	00048613          	mv	a2,s1
     f74:	00044703          	lbu	a4,0(s0)
     f78:	00064783          	lbu	a5,0(a2)
     f7c:	02f71863          	bne	a4,a5,fac <vector_memcpy_harness_uint8_t+0x110>
     f80:	00140413          	addi	s0,s0,1
     f84:	00160613          	addi	a2,a2,1
     f88:	fed416e3          	bne	s0,a3,f74 <vector_memcpy_harness_uint8_t+0xd8>
     f8c:	06e10793          	addi	a5,sp,110
     f90:	08058693          	addi	a3,a1,128
     f94:	0007c703          	lbu	a4,0(a5)
     f98:	02071663          	bnez	a4,fc4 <vector_memcpy_harness_uint8_t+0x128>
     f9c:	00178793          	addi	a5,a5,1
     fa0:	fed79ae3          	bne	a5,a3,f94 <vector_memcpy_harness_uint8_t+0xf8>
     fa4:	00100513          	li	a0,1
     fa8:	0080006f          	j	fb0 <vector_memcpy_harness_uint8_t+0x114>
     fac:	00000513          	li	a0,0
     fb0:	11813083          	ld	ra,280(sp)
     fb4:	11013403          	ld	s0,272(sp)
     fb8:	10813483          	ld	s1,264(sp)
     fbc:	12010113          	addi	sp,sp,288
     fc0:	00008067          	ret
     fc4:	00000513          	li	a0,0
     fc8:	fe9ff06f          	j	fb0 <vector_memcpy_harness_uint8_t+0x114>

0000000000000fcc <vector_memcpy_harness_uint16_t>:
     fcc:	de010113          	addi	sp,sp,-544
     fd0:	20113c23          	sd	ra,536(sp)
     fd4:	20813823          	sd	s0,528(sp)
     fd8:	20913423          	sd	s1,520(sp)
     fdc:	21213023          	sd	s2,512(sp)
     fe0:	00050913          	mv	s2,a0
     fe4:	10000613          	li	a2,256
     fe8:	00000593          	li	a1,0
     fec:	10010513          	addi	a0,sp,256
     ff0:	e8dff0ef          	jal	ra,e7c <memset>
     ff4:	10000613          	li	a2,256
     ff8:	00000593          	li	a1,0
     ffc:	00010513          	mv	a0,sp
    1000:	e7dff0ef          	jal	ra,e7c <memset>
    1004:	10010413          	addi	s0,sp,256
    1008:	00040713          	mv	a4,s0
    100c:	00000793          	li	a5,0
    1010:	08000613          	li	a2,128
    1014:	00f71023          	sh	a5,0(a4)
    1018:	0017879b          	addiw	a5,a5,1
    101c:	03079793          	slli	a5,a5,0x30
    1020:	0307d793          	srli	a5,a5,0x30
    1024:	00270713          	addi	a4,a4,2
    1028:	0007869b          	sext.w	a3,a5
    102c:	fec694e3          	bne	a3,a2,1014 <vector_memcpy_harness_uint16_t+0x48>
    1030:	00010493          	mv	s1,sp
    1034:	00048613          	mv	a2,s1
    1038:	10010593          	addi	a1,sp,256
    103c:	06e00513          	li	a0,110
    1040:	000900e7          	jalr	s2
    1044:	00048593          	mv	a1,s1
    1048:	0dc40693          	addi	a3,s0,220
    104c:	00048613          	mv	a2,s1
    1050:	00045703          	lhu	a4,0(s0)
    1054:	00065783          	lhu	a5,0(a2)
    1058:	02f71863          	bne	a4,a5,1088 <vector_memcpy_harness_uint16_t+0xbc>
    105c:	00240413          	addi	s0,s0,2
    1060:	00260613          	addi	a2,a2,2
    1064:	fed416e3          	bne	s0,a3,1050 <vector_memcpy_harness_uint16_t+0x84>
    1068:	0dc10793          	addi	a5,sp,220
    106c:	10058693          	addi	a3,a1,256
    1070:	0007d703          	lhu	a4,0(a5)
    1074:	02071863          	bnez	a4,10a4 <vector_memcpy_harness_uint16_t+0xd8>
    1078:	00278793          	addi	a5,a5,2
    107c:	fed79ae3          	bne	a5,a3,1070 <vector_memcpy_harness_uint16_t+0xa4>
    1080:	00100513          	li	a0,1
    1084:	0080006f          	j	108c <vector_memcpy_harness_uint16_t+0xc0>
    1088:	00000513          	li	a0,0
    108c:	21813083          	ld	ra,536(sp)
    1090:	21013403          	ld	s0,528(sp)
    1094:	20813483          	ld	s1,520(sp)
    1098:	20013903          	ld	s2,512(sp)
    109c:	22010113          	addi	sp,sp,544
    10a0:	00008067          	ret
    10a4:	00000513          	li	a0,0
    10a8:	fe5ff06f          	j	108c <vector_memcpy_harness_uint16_t+0xc0>

00000000000010ac <vector_memcpy_harness_uint32_t>:
    10ac:	be010113          	addi	sp,sp,-1056
    10b0:	40113c23          	sd	ra,1048(sp)
    10b4:	40813823          	sd	s0,1040(sp)
    10b8:	40913423          	sd	s1,1032(sp)
    10bc:	41213023          	sd	s2,1024(sp)
    10c0:	00050913          	mv	s2,a0
    10c4:	20000613          	li	a2,512
    10c8:	00000593          	li	a1,0
    10cc:	20010513          	addi	a0,sp,512
    10d0:	dadff0ef          	jal	ra,e7c <memset>
    10d4:	20000613          	li	a2,512
    10d8:	00000593          	li	a1,0
    10dc:	00010513          	mv	a0,sp
    10e0:	d9dff0ef          	jal	ra,e7c <memset>
    10e4:	20010413          	addi	s0,sp,512
    10e8:	00040713          	mv	a4,s0
    10ec:	00000793          	li	a5,0
    10f0:	08000693          	li	a3,128
    10f4:	00f72023          	sw	a5,0(a4)
    10f8:	0017879b          	addiw	a5,a5,1
    10fc:	00470713          	addi	a4,a4,4
    1100:	fed79ae3          	bne	a5,a3,10f4 <vector_memcpy_harness_uint32_t+0x48>
    1104:	00010493          	mv	s1,sp
    1108:	00048613          	mv	a2,s1
    110c:	20010593          	addi	a1,sp,512
    1110:	06e00513          	li	a0,110
    1114:	000900e7          	jalr	s2
    1118:	00048593          	mv	a1,s1
    111c:	1b840693          	addi	a3,s0,440
    1120:	00048613          	mv	a2,s1
    1124:	00042703          	lw	a4,0(s0)
    1128:	00062783          	lw	a5,0(a2)
    112c:	02f71863          	bne	a4,a5,115c <vector_memcpy_harness_uint32_t+0xb0>
    1130:	00440413          	addi	s0,s0,4
    1134:	00460613          	addi	a2,a2,4
    1138:	fed416e3          	bne	s0,a3,1124 <vector_memcpy_harness_uint32_t+0x78>
    113c:	1b810793          	addi	a5,sp,440
    1140:	20058693          	addi	a3,a1,512
    1144:	0007a703          	lw	a4,0(a5)
    1148:	02071863          	bnez	a4,1178 <vector_memcpy_harness_uint32_t+0xcc>
    114c:	00478793          	addi	a5,a5,4
    1150:	fed79ae3          	bne	a5,a3,1144 <vector_memcpy_harness_uint32_t+0x98>
    1154:	00100513          	li	a0,1
    1158:	0080006f          	j	1160 <vector_memcpy_harness_uint32_t+0xb4>
    115c:	00000513          	li	a0,0
    1160:	41813083          	ld	ra,1048(sp)
    1164:	41013403          	ld	s0,1040(sp)
    1168:	40813483          	ld	s1,1032(sp)
    116c:	40013903          	ld	s2,1024(sp)
    1170:	42010113          	addi	sp,sp,1056
    1174:	00008067          	ret
    1178:	00000513          	li	a0,0
    117c:	fe5ff06f          	j	1160 <vector_memcpy_harness_uint32_t+0xb4>

0000000000001180 <vector_memcpy_harness_uint64_t>:
    1180:	81010113          	addi	sp,sp,-2032
    1184:	7e113423          	sd	ra,2024(sp)
    1188:	7e813023          	sd	s0,2016(sp)
    118c:	7c913c23          	sd	s1,2008(sp)
    1190:	7d213823          	sd	s2,2000(sp)
    1194:	fd010113          	addi	sp,sp,-48
    1198:	00050913          	mv	s2,a0
    119c:	40000613          	li	a2,1024
    11a0:	00000593          	li	a1,0
    11a4:	40010513          	addi	a0,sp,1024
    11a8:	cd5ff0ef          	jal	ra,e7c <memset>
    11ac:	40000613          	li	a2,1024
    11b0:	00000593          	li	a1,0
    11b4:	00010513          	mv	a0,sp
    11b8:	cc5ff0ef          	jal	ra,e7c <memset>
    11bc:	40010413          	addi	s0,sp,1024
    11c0:	00040713          	mv	a4,s0
    11c4:	00000793          	li	a5,0
    11c8:	08000693          	li	a3,128
    11cc:	00f73023          	sd	a5,0(a4)
    11d0:	00178793          	addi	a5,a5,1
    11d4:	00870713          	addi	a4,a4,8
    11d8:	fed79ae3          	bne	a5,a3,11cc <vector_memcpy_harness_uint64_t+0x4c>
    11dc:	00010493          	mv	s1,sp
    11e0:	00048613          	mv	a2,s1
    11e4:	40010593          	addi	a1,sp,1024
    11e8:	06e00513          	li	a0,110
    11ec:	000900e7          	jalr	s2
    11f0:	00048593          	mv	a1,s1
    11f4:	37040693          	addi	a3,s0,880
    11f8:	00048613          	mv	a2,s1
    11fc:	00043703          	ld	a4,0(s0)
    1200:	00063783          	ld	a5,0(a2)
    1204:	02f71863          	bne	a4,a5,1234 <vector_memcpy_harness_uint64_t+0xb4>
    1208:	00840413          	addi	s0,s0,8
    120c:	00860613          	addi	a2,a2,8
    1210:	fed416e3          	bne	s0,a3,11fc <vector_memcpy_harness_uint64_t+0x7c>
    1214:	37010793          	addi	a5,sp,880
    1218:	40058693          	addi	a3,a1,1024
    121c:	0007b703          	ld	a4,0(a5)
    1220:	02071a63          	bnez	a4,1254 <vector_memcpy_harness_uint64_t+0xd4>
    1224:	00878793          	addi	a5,a5,8
    1228:	fed79ae3          	bne	a5,a3,121c <vector_memcpy_harness_uint64_t+0x9c>
    122c:	00100513          	li	a0,1
    1230:	0080006f          	j	1238 <vector_memcpy_harness_uint64_t+0xb8>
    1234:	00000513          	li	a0,0
    1238:	03010113          	addi	sp,sp,48
    123c:	7e813083          	ld	ra,2024(sp)
    1240:	7e013403          	ld	s0,2016(sp)
    1244:	7d813483          	ld	s1,2008(sp)
    1248:	7d013903          	ld	s2,2000(sp)
    124c:	7f010113          	addi	sp,sp,2032
    1250:	00008067          	ret
    1254:	00000513          	li	a0,0
    1258:	fe1ff06f          	j	1238 <vector_memcpy_harness_uint64_t+0xb8>

000000000000125c <vector_memcpy_masked_harness_uint8_t>:
    125c:	ef010113          	addi	sp,sp,-272
    1260:	10113423          	sd	ra,264(sp)
    1264:	10813023          	sd	s0,256(sp)
    1268:	00050813          	mv	a6,a0
    126c:	08013023          	sd	zero,128(sp)
    1270:	08013423          	sd	zero,136(sp)
    1274:	08013823          	sd	zero,144(sp)
    1278:	08013c23          	sd	zero,152(sp)
    127c:	0a013023          	sd	zero,160(sp)
    1280:	0a013423          	sd	zero,168(sp)
    1284:	0a013823          	sd	zero,176(sp)
    1288:	0a013c23          	sd	zero,184(sp)
    128c:	0c013023          	sd	zero,192(sp)
    1290:	0c013423          	sd	zero,200(sp)
    1294:	0c013823          	sd	zero,208(sp)
    1298:	0c013c23          	sd	zero,216(sp)
    129c:	0e013023          	sd	zero,224(sp)
    12a0:	0e013423          	sd	zero,232(sp)
    12a4:	0e013823          	sd	zero,240(sp)
    12a8:	0e013c23          	sd	zero,248(sp)
    12ac:	00013023          	sd	zero,0(sp)
    12b0:	00013423          	sd	zero,8(sp)
    12b4:	00013823          	sd	zero,16(sp)
    12b8:	00013c23          	sd	zero,24(sp)
    12bc:	02013023          	sd	zero,32(sp)
    12c0:	02013423          	sd	zero,40(sp)
    12c4:	02013823          	sd	zero,48(sp)
    12c8:	02013c23          	sd	zero,56(sp)
    12cc:	04013023          	sd	zero,64(sp)
    12d0:	04013423          	sd	zero,72(sp)
    12d4:	04013823          	sd	zero,80(sp)
    12d8:	04013c23          	sd	zero,88(sp)
    12dc:	06013023          	sd	zero,96(sp)
    12e0:	06013423          	sd	zero,104(sp)
    12e4:	06013823          	sd	zero,112(sp)
    12e8:	06013c23          	sd	zero,120(sp)
    12ec:	08010413          	addi	s0,sp,128
    12f0:	00010693          	mv	a3,sp
    12f4:	00040713          	mv	a4,s0
    12f8:	00000793          	li	a5,0
    12fc:	fbb00593          	li	a1,-69
    1300:	08000613          	li	a2,128
    1304:	00f70023          	sb	a5,0(a4)
    1308:	00b68023          	sb	a1,0(a3)
    130c:	0017879b          	addiw	a5,a5,1
    1310:	0ff7f793          	andi	a5,a5,255
    1314:	00170713          	addi	a4,a4,1
    1318:	00168693          	addi	a3,a3,1
    131c:	fec794e3          	bne	a5,a2,1304 <vector_memcpy_masked_harness_uint8_t+0xa8>
    1320:	00010613          	mv	a2,sp
    1324:	08010593          	addi	a1,sp,128
    1328:	06e00513          	li	a0,110
    132c:	000800e7          	jalr	a6
    1330:	00010713          	mv	a4,sp
    1334:	00000793          	li	a5,0
    1338:	0bb00513          	li	a0,187
    133c:	06e00613          	li	a2,110
    1340:	0200006f          	j	1360 <vector_memcpy_masked_harness_uint8_t+0x104>
    1344:	00074683          	lbu	a3,0(a4)
    1348:	06a69263          	bne	a3,a0,13ac <vector_memcpy_masked_harness_uint8_t+0x150>
    134c:	0017879b          	addiw	a5,a5,1
    1350:	0ff7f793          	andi	a5,a5,255
    1354:	00170713          	addi	a4,a4,1
    1358:	00140413          	addi	s0,s0,1
    135c:	02c78663          	beq	a5,a2,1388 <vector_memcpy_masked_harness_uint8_t+0x12c>
    1360:	0017f693          	andi	a3,a5,1
    1364:	fe0680e3          	beqz	a3,1344 <vector_memcpy_masked_harness_uint8_t+0xe8>
    1368:	00044583          	lbu	a1,0(s0)
    136c:	00074683          	lbu	a3,0(a4)
    1370:	fcd58ee3          	beq	a1,a3,134c <vector_memcpy_masked_harness_uint8_t+0xf0>
    1374:	00000513          	li	a0,0
    1378:	10813083          	ld	ra,264(sp)
    137c:	10013403          	ld	s0,256(sp)
    1380:	11010113          	addi	sp,sp,272
    1384:	00008067          	ret
    1388:	06e10793          	addi	a5,sp,110
    138c:	08010713          	addi	a4,sp,128
    1390:	0bb00613          	li	a2,187
    1394:	0007c683          	lbu	a3,0(a5)
    1398:	00c69e63          	bne	a3,a2,13b4 <vector_memcpy_masked_harness_uint8_t+0x158>
    139c:	00178793          	addi	a5,a5,1
    13a0:	fee79ae3          	bne	a5,a4,1394 <vector_memcpy_masked_harness_uint8_t+0x138>
    13a4:	00100513          	li	a0,1
    13a8:	fd1ff06f          	j	1378 <vector_memcpy_masked_harness_uint8_t+0x11c>
    13ac:	00000513          	li	a0,0
    13b0:	fc9ff06f          	j	1378 <vector_memcpy_masked_harness_uint8_t+0x11c>
    13b4:	00000513          	li	a0,0
    13b8:	fc1ff06f          	j	1378 <vector_memcpy_masked_harness_uint8_t+0x11c>

00000000000013bc <vector_memcpy_masked_harness_uint16_t>:
    13bc:	dd010113          	addi	sp,sp,-560
    13c0:	22113423          	sd	ra,552(sp)
    13c4:	22813023          	sd	s0,544(sp)
    13c8:	20913c23          	sd	s1,536(sp)
    13cc:	21213823          	sd	s2,528(sp)
    13d0:	21313423          	sd	s3,520(sp)
    13d4:	00050993          	mv	s3,a0
    13d8:	10000613          	li	a2,256
    13dc:	00000593          	li	a1,0
    13e0:	10010513          	addi	a0,sp,256
    13e4:	a99ff0ef          	jal	ra,e7c <memset>
    13e8:	00010413          	mv	s0,sp
    13ec:	10000613          	li	a2,256
    13f0:	00000593          	li	a1,0
    13f4:	00040513          	mv	a0,s0
    13f8:	a85ff0ef          	jal	ra,e7c <memset>
    13fc:	10010493          	addi	s1,sp,256
    1400:	00040913          	mv	s2,s0
    1404:	00040693          	mv	a3,s0
    1408:	00048713          	mv	a4,s1
    140c:	00000793          	li	a5,0
    1410:	0bb00813          	li	a6,187
    1414:	08000593          	li	a1,128
    1418:	00f71023          	sh	a5,0(a4)
    141c:	01069023          	sh	a6,0(a3)
    1420:	0017879b          	addiw	a5,a5,1
    1424:	03079793          	slli	a5,a5,0x30
    1428:	0307d793          	srli	a5,a5,0x30
    142c:	00270713          	addi	a4,a4,2
    1430:	00268693          	addi	a3,a3,2
    1434:	0007861b          	sext.w	a2,a5
    1438:	feb610e3          	bne	a2,a1,1418 <vector_memcpy_masked_harness_uint16_t+0x5c>
    143c:	00010613          	mv	a2,sp
    1440:	10010593          	addi	a1,sp,256
    1444:	06e00513          	li	a0,110
    1448:	000980e7          	jalr	s3
    144c:	00090713          	mv	a4,s2
    1450:	00000793          	li	a5,0
    1454:	0bb00513          	li	a0,187
    1458:	06e00613          	li	a2,110
    145c:	0280006f          	j	1484 <vector_memcpy_masked_harness_uint16_t+0xc8>
    1460:	00075683          	lhu	a3,0(a4)
    1464:	06a69c63          	bne	a3,a0,14dc <vector_memcpy_masked_harness_uint16_t+0x120>
    1468:	0017879b          	addiw	a5,a5,1
    146c:	03079793          	slli	a5,a5,0x30
    1470:	0307d793          	srli	a5,a5,0x30
    1474:	00270713          	addi	a4,a4,2
    1478:	00248493          	addi	s1,s1,2
    147c:	0007869b          	sext.w	a3,a5
    1480:	02c68c63          	beq	a3,a2,14b8 <vector_memcpy_masked_harness_uint16_t+0xfc>
    1484:	0017f693          	andi	a3,a5,1
    1488:	fc068ce3          	beqz	a3,1460 <vector_memcpy_masked_harness_uint16_t+0xa4>
    148c:	0004d583          	lhu	a1,0(s1)
    1490:	00075683          	lhu	a3,0(a4)
    1494:	fcd58ae3          	beq	a1,a3,1468 <vector_memcpy_masked_harness_uint16_t+0xac>
    1498:	00000513          	li	a0,0
    149c:	22813083          	ld	ra,552(sp)
    14a0:	22013403          	ld	s0,544(sp)
    14a4:	21813483          	ld	s1,536(sp)
    14a8:	21013903          	ld	s2,528(sp)
    14ac:	20813983          	ld	s3,520(sp)
    14b0:	23010113          	addi	sp,sp,560
    14b4:	00008067          	ret
    14b8:	0dc10793          	addi	a5,sp,220
    14bc:	10090913          	addi	s2,s2,256
    14c0:	0bb00693          	li	a3,187
    14c4:	0007d703          	lhu	a4,0(a5)
    14c8:	00d71e63          	bne	a4,a3,14e4 <vector_memcpy_masked_harness_uint16_t+0x128>
    14cc:	00278793          	addi	a5,a5,2
    14d0:	ff279ae3          	bne	a5,s2,14c4 <vector_memcpy_masked_harness_uint16_t+0x108>
    14d4:	00100513          	li	a0,1
    14d8:	fc5ff06f          	j	149c <vector_memcpy_masked_harness_uint16_t+0xe0>
    14dc:	00000513          	li	a0,0
    14e0:	fbdff06f          	j	149c <vector_memcpy_masked_harness_uint16_t+0xe0>
    14e4:	00000513          	li	a0,0
    14e8:	fb5ff06f          	j	149c <vector_memcpy_masked_harness_uint16_t+0xe0>

00000000000014ec <vector_memcpy_masked_harness_uint32_t>:
    14ec:	bd010113          	addi	sp,sp,-1072
    14f0:	42113423          	sd	ra,1064(sp)
    14f4:	42813023          	sd	s0,1056(sp)
    14f8:	40913c23          	sd	s1,1048(sp)
    14fc:	41213823          	sd	s2,1040(sp)
    1500:	41313423          	sd	s3,1032(sp)
    1504:	00050993          	mv	s3,a0
    1508:	20000613          	li	a2,512
    150c:	00000593          	li	a1,0
    1510:	20010513          	addi	a0,sp,512
    1514:	969ff0ef          	jal	ra,e7c <memset>
    1518:	00010413          	mv	s0,sp
    151c:	20000613          	li	a2,512
    1520:	00000593          	li	a1,0
    1524:	00040513          	mv	a0,s0
    1528:	955ff0ef          	jal	ra,e7c <memset>
    152c:	20010493          	addi	s1,sp,512
    1530:	00040913          	mv	s2,s0
    1534:	00040693          	mv	a3,s0
    1538:	00048713          	mv	a4,s1
    153c:	00000793          	li	a5,0
    1540:	0bb00593          	li	a1,187
    1544:	08000613          	li	a2,128
    1548:	00f72023          	sw	a5,0(a4)
    154c:	00b6a023          	sw	a1,0(a3)
    1550:	0017879b          	addiw	a5,a5,1
    1554:	00470713          	addi	a4,a4,4
    1558:	00468693          	addi	a3,a3,4
    155c:	fec796e3          	bne	a5,a2,1548 <vector_memcpy_masked_harness_uint32_t+0x5c>
    1560:	00010613          	mv	a2,sp
    1564:	20010593          	addi	a1,sp,512
    1568:	06e00513          	li	a0,110
    156c:	000980e7          	jalr	s3
    1570:	00090713          	mv	a4,s2
    1574:	00000793          	li	a5,0
    1578:	0bb00513          	li	a0,187
    157c:	06e00613          	li	a2,110
    1580:	01c0006f          	j	159c <vector_memcpy_masked_harness_uint32_t+0xb0>
    1584:	00072683          	lw	a3,0(a4)
    1588:	06a69663          	bne	a3,a0,15f4 <vector_memcpy_masked_harness_uint32_t+0x108>
    158c:	0017879b          	addiw	a5,a5,1
    1590:	00470713          	addi	a4,a4,4
    1594:	00448493          	addi	s1,s1,4
    1598:	02c78c63          	beq	a5,a2,15d0 <vector_memcpy_masked_harness_uint32_t+0xe4>
    159c:	0017f693          	andi	a3,a5,1
    15a0:	fe0682e3          	beqz	a3,1584 <vector_memcpy_masked_harness_uint32_t+0x98>
    15a4:	0004a583          	lw	a1,0(s1)
    15a8:	00072683          	lw	a3,0(a4)
    15ac:	fed580e3          	beq	a1,a3,158c <vector_memcpy_masked_harness_uint32_t+0xa0>
    15b0:	00000513          	li	a0,0
    15b4:	42813083          	ld	ra,1064(sp)
    15b8:	42013403          	ld	s0,1056(sp)
    15bc:	41813483          	ld	s1,1048(sp)
    15c0:	41013903          	ld	s2,1040(sp)
    15c4:	40813983          	ld	s3,1032(sp)
    15c8:	43010113          	addi	sp,sp,1072
    15cc:	00008067          	ret
    15d0:	1b810793          	addi	a5,sp,440
    15d4:	20090913          	addi	s2,s2,512
    15d8:	0bb00693          	li	a3,187
    15dc:	0007a703          	lw	a4,0(a5)
    15e0:	00d71e63          	bne	a4,a3,15fc <vector_memcpy_masked_harness_uint32_t+0x110>
    15e4:	00478793          	addi	a5,a5,4
    15e8:	ff279ae3          	bne	a5,s2,15dc <vector_memcpy_masked_harness_uint32_t+0xf0>
    15ec:	00100513          	li	a0,1
    15f0:	fc5ff06f          	j	15b4 <vector_memcpy_masked_harness_uint32_t+0xc8>
    15f4:	00000513          	li	a0,0
    15f8:	fbdff06f          	j	15b4 <vector_memcpy_masked_harness_uint32_t+0xc8>
    15fc:	00000513          	li	a0,0
    1600:	fb5ff06f          	j	15b4 <vector_memcpy_masked_harness_uint32_t+0xc8>

0000000000001604 <vector_memcpy_masked_harness_uint64_t>:
    1604:	81010113          	addi	sp,sp,-2032
    1608:	7e113423          	sd	ra,2024(sp)
    160c:	7e813023          	sd	s0,2016(sp)
    1610:	7c913c23          	sd	s1,2008(sp)
    1614:	7d213823          	sd	s2,2000(sp)
    1618:	7d313423          	sd	s3,1992(sp)
    161c:	fc010113          	addi	sp,sp,-64
    1620:	00050993          	mv	s3,a0
    1624:	40000613          	li	a2,1024
    1628:	00000593          	li	a1,0
    162c:	40010513          	addi	a0,sp,1024
    1630:	84dff0ef          	jal	ra,e7c <memset>
    1634:	00010413          	mv	s0,sp
    1638:	40000613          	li	a2,1024
    163c:	00000593          	li	a1,0
    1640:	00040513          	mv	a0,s0
    1644:	839ff0ef          	jal	ra,e7c <memset>
    1648:	40010493          	addi	s1,sp,1024
    164c:	00040913          	mv	s2,s0
    1650:	00040693          	mv	a3,s0
    1654:	00048713          	mv	a4,s1
    1658:	00000793          	li	a5,0
    165c:	0bb00593          	li	a1,187
    1660:	08000613          	li	a2,128
    1664:	00f73023          	sd	a5,0(a4)
    1668:	00b6b023          	sd	a1,0(a3)
    166c:	00178793          	addi	a5,a5,1
    1670:	00870713          	addi	a4,a4,8
    1674:	00868693          	addi	a3,a3,8
    1678:	fec796e3          	bne	a5,a2,1664 <vector_memcpy_masked_harness_uint64_t+0x60>
    167c:	00010613          	mv	a2,sp
    1680:	40010593          	addi	a1,sp,1024
    1684:	06e00513          	li	a0,110
    1688:	000980e7          	jalr	s3
    168c:	00090713          	mv	a4,s2
    1690:	00000793          	li	a5,0
    1694:	0bb00513          	li	a0,187
    1698:	06e00613          	li	a2,110
    169c:	01c0006f          	j	16b8 <vector_memcpy_masked_harness_uint64_t+0xb4>
    16a0:	00073683          	ld	a3,0(a4)
    16a4:	06a69863          	bne	a3,a0,1714 <vector_memcpy_masked_harness_uint64_t+0x110>
    16a8:	00178793          	addi	a5,a5,1
    16ac:	00870713          	addi	a4,a4,8
    16b0:	00848493          	addi	s1,s1,8
    16b4:	02c78e63          	beq	a5,a2,16f0 <vector_memcpy_masked_harness_uint64_t+0xec>
    16b8:	0017f693          	andi	a3,a5,1
    16bc:	fe0682e3          	beqz	a3,16a0 <vector_memcpy_masked_harness_uint64_t+0x9c>
    16c0:	0004b583          	ld	a1,0(s1)
    16c4:	00073683          	ld	a3,0(a4)
    16c8:	fed580e3          	beq	a1,a3,16a8 <vector_memcpy_masked_harness_uint64_t+0xa4>
    16cc:	00000513          	li	a0,0
    16d0:	04010113          	addi	sp,sp,64
    16d4:	7e813083          	ld	ra,2024(sp)
    16d8:	7e013403          	ld	s0,2016(sp)
    16dc:	7d813483          	ld	s1,2008(sp)
    16e0:	7d013903          	ld	s2,2000(sp)
    16e4:	7c813983          	ld	s3,1992(sp)
    16e8:	7f010113          	addi	sp,sp,2032
    16ec:	00008067          	ret
    16f0:	37010793          	addi	a5,sp,880
    16f4:	40090913          	addi	s2,s2,1024
    16f8:	0bb00693          	li	a3,187
    16fc:	0007b703          	ld	a4,0(a5)
    1700:	00d71e63          	bne	a4,a3,171c <vector_memcpy_masked_harness_uint64_t+0x118>
    1704:	00878793          	addi	a5,a5,8
    1708:	ff279ae3          	bne	a5,s2,16fc <vector_memcpy_masked_harness_uint64_t+0xf8>
    170c:	00100513          	li	a0,1
    1710:	fc1ff06f          	j	16d0 <vector_memcpy_masked_harness_uint64_t+0xcc>
    1714:	00000513          	li	a0,0
    1718:	fb9ff06f          	j	16d0 <vector_memcpy_masked_harness_uint64_t+0xcc>
    171c:	00000513          	li	a0,0
    1720:	fb1ff06f          	j	16d0 <vector_memcpy_masked_harness_uint64_t+0xcc>

0000000000001724 <vector_memcpy_segmented_harness_uint8_t>:
    1724:	eb010113          	addi	sp,sp,-336
    1728:	14113423          	sd	ra,328(sp)
    172c:	14813023          	sd	s0,320(sp)
    1730:	12913c23          	sd	s1,312(sp)
    1734:	13213823          	sd	s2,304(sp)
    1738:	13313423          	sd	s3,296(sp)
    173c:	13413023          	sd	s4,288(sp)
    1740:	00050813          	mv	a6,a0
    1744:	0a013023          	sd	zero,160(sp)
    1748:	0a013423          	sd	zero,168(sp)
    174c:	0a013823          	sd	zero,176(sp)
    1750:	0a013c23          	sd	zero,184(sp)
    1754:	0c013023          	sd	zero,192(sp)
    1758:	0c013423          	sd	zero,200(sp)
    175c:	0c013823          	sd	zero,208(sp)
    1760:	0c013c23          	sd	zero,216(sp)
    1764:	0e013023          	sd	zero,224(sp)
    1768:	0e013423          	sd	zero,232(sp)
    176c:	0e013823          	sd	zero,240(sp)
    1770:	0e013c23          	sd	zero,248(sp)
    1774:	10013023          	sd	zero,256(sp)
    1778:	10013423          	sd	zero,264(sp)
    177c:	10013823          	sd	zero,272(sp)
    1780:	10013c23          	sd	zero,280(sp)
    1784:	08013023          	sd	zero,128(sp)
    1788:	08013423          	sd	zero,136(sp)
    178c:	08013823          	sd	zero,144(sp)
    1790:	08013c23          	sd	zero,152(sp)
    1794:	06013023          	sd	zero,96(sp)
    1798:	06013423          	sd	zero,104(sp)
    179c:	06013823          	sd	zero,112(sp)
    17a0:	06013c23          	sd	zero,120(sp)
    17a4:	04013023          	sd	zero,64(sp)
    17a8:	04013423          	sd	zero,72(sp)
    17ac:	04013823          	sd	zero,80(sp)
    17b0:	04013c23          	sd	zero,88(sp)
    17b4:	02013023          	sd	zero,32(sp)
    17b8:	02013423          	sd	zero,40(sp)
    17bc:	02013823          	sd	zero,48(sp)
    17c0:	02013c23          	sd	zero,56(sp)
    17c4:	0a010413          	addi	s0,sp,160
    17c8:	00040713          	mv	a4,s0
    17cc:	00000793          	li	a5,0
    17d0:	08000693          	li	a3,128
    17d4:	00f70023          	sb	a5,0(a4)
    17d8:	0017879b          	addiw	a5,a5,1
    17dc:	0ff7f793          	andi	a5,a5,255
    17e0:	00170713          	addi	a4,a4,1
    17e4:	fed798e3          	bne	a5,a3,17d4 <vector_memcpy_segmented_harness_uint8_t+0xb0>
    17e8:	08010493          	addi	s1,sp,128
    17ec:	00913023          	sd	s1,0(sp)
    17f0:	06010913          	addi	s2,sp,96
    17f4:	01213423          	sd	s2,8(sp)
    17f8:	04010993          	addi	s3,sp,64
    17fc:	01313823          	sd	s3,16(sp)
    1800:	02010a13          	addi	s4,sp,32
    1804:	01413c23          	sd	s4,24(sp)
    1808:	00010613          	mv	a2,sp
    180c:	0a010593          	addi	a1,sp,160
    1810:	01a00513          	li	a0,26
    1814:	000800e7          	jalr	a6
    1818:	00048313          	mv	t1,s1
    181c:	000a0613          	mv	a2,s4
    1820:	00098693          	mv	a3,s3
    1824:	00090713          	mv	a4,s2
    1828:	06840893          	addi	a7,s0,104
    182c:	00048793          	mv	a5,s1
    1830:	00044803          	lbu	a6,0(s0)
    1834:	0007c503          	lbu	a0,0(a5)
    1838:	08a81663          	bne	a6,a0,18c4 <vector_memcpy_segmented_harness_uint8_t+0x1a0>
    183c:	00144803          	lbu	a6,1(s0)
    1840:	00074503          	lbu	a0,0(a4)
    1844:	0aa81263          	bne	a6,a0,18e8 <vector_memcpy_segmented_harness_uint8_t+0x1c4>
    1848:	00244803          	lbu	a6,2(s0)
    184c:	0006c503          	lbu	a0,0(a3)
    1850:	0aa81063          	bne	a6,a0,18f0 <vector_memcpy_segmented_harness_uint8_t+0x1cc>
    1854:	00344503          	lbu	a0,3(s0)
    1858:	00064583          	lbu	a1,0(a2)
    185c:	08b51e63          	bne	a0,a1,18f8 <vector_memcpy_segmented_harness_uint8_t+0x1d4>
    1860:	00440413          	addi	s0,s0,4
    1864:	00178793          	addi	a5,a5,1
    1868:	00160613          	addi	a2,a2,1
    186c:	00168693          	addi	a3,a3,1
    1870:	00170713          	addi	a4,a4,1
    1874:	fb141ee3          	bne	s0,a7,1830 <vector_memcpy_segmented_harness_uint8_t+0x10c>
    1878:	03a10693          	addi	a3,sp,58
    187c:	05a10713          	addi	a4,sp,90
    1880:	07a10793          	addi	a5,sp,122
    1884:	00630593          	addi	a1,t1,6
    1888:	01a34603          	lbu	a2,26(t1)
    188c:	06061a63          	bnez	a2,1900 <vector_memcpy_segmented_harness_uint8_t+0x1dc>
    1890:	0007c603          	lbu	a2,0(a5)
    1894:	06061a63          	bnez	a2,1908 <vector_memcpy_segmented_harness_uint8_t+0x1e4>
    1898:	00074603          	lbu	a2,0(a4)
    189c:	06061a63          	bnez	a2,1910 <vector_memcpy_segmented_harness_uint8_t+0x1ec>
    18a0:	0006c603          	lbu	a2,0(a3)
    18a4:	06061a63          	bnez	a2,1918 <vector_memcpy_segmented_harness_uint8_t+0x1f4>
    18a8:	00130313          	addi	t1,t1,1
    18ac:	00168693          	addi	a3,a3,1
    18b0:	00170713          	addi	a4,a4,1
    18b4:	00178793          	addi	a5,a5,1
    18b8:	fcb318e3          	bne	t1,a1,1888 <vector_memcpy_segmented_harness_uint8_t+0x164>
    18bc:	00100513          	li	a0,1
    18c0:	0080006f          	j	18c8 <vector_memcpy_segmented_harness_uint8_t+0x1a4>
    18c4:	00000513          	li	a0,0
    18c8:	14813083          	ld	ra,328(sp)
    18cc:	14013403          	ld	s0,320(sp)
    18d0:	13813483          	ld	s1,312(sp)
    18d4:	13013903          	ld	s2,304(sp)
    18d8:	12813983          	ld	s3,296(sp)
    18dc:	12013a03          	ld	s4,288(sp)
    18e0:	15010113          	addi	sp,sp,336
    18e4:	00008067          	ret
    18e8:	00000513          	li	a0,0
    18ec:	fddff06f          	j	18c8 <vector_memcpy_segmented_harness_uint8_t+0x1a4>
    18f0:	00000513          	li	a0,0
    18f4:	fd5ff06f          	j	18c8 <vector_memcpy_segmented_harness_uint8_t+0x1a4>
    18f8:	00000513          	li	a0,0
    18fc:	fcdff06f          	j	18c8 <vector_memcpy_segmented_harness_uint8_t+0x1a4>
    1900:	00000513          	li	a0,0
    1904:	fc5ff06f          	j	18c8 <vector_memcpy_segmented_harness_uint8_t+0x1a4>
    1908:	00000513          	li	a0,0
    190c:	fbdff06f          	j	18c8 <vector_memcpy_segmented_harness_uint8_t+0x1a4>
    1910:	00000513          	li	a0,0
    1914:	fb5ff06f          	j	18c8 <vector_memcpy_segmented_harness_uint8_t+0x1a4>
    1918:	00000513          	li	a0,0
    191c:	fadff06f          	j	18c8 <vector_memcpy_segmented_harness_uint8_t+0x1a4>

0000000000001920 <vector_memcpy_segmented_harness_uint16_t>:
    1920:	da010113          	addi	sp,sp,-608
    1924:	24113c23          	sd	ra,600(sp)
    1928:	24813823          	sd	s0,592(sp)
    192c:	24913423          	sd	s1,584(sp)
    1930:	25213023          	sd	s2,576(sp)
    1934:	23313c23          	sd	s3,568(sp)
    1938:	23413823          	sd	s4,560(sp)
    193c:	23513423          	sd	s5,552(sp)
    1940:	00050a93          	mv	s5,a0
    1944:	10000613          	li	a2,256
    1948:	00000593          	li	a1,0
    194c:	12010513          	addi	a0,sp,288
    1950:	d2cff0ef          	jal	ra,e7c <memset>
    1954:	0e013023          	sd	zero,224(sp)
    1958:	0e013423          	sd	zero,232(sp)
    195c:	0e013823          	sd	zero,240(sp)
    1960:	0e013c23          	sd	zero,248(sp)
    1964:	10013023          	sd	zero,256(sp)
    1968:	10013423          	sd	zero,264(sp)
    196c:	10013823          	sd	zero,272(sp)
    1970:	10013c23          	sd	zero,280(sp)
    1974:	0a013023          	sd	zero,160(sp)
    1978:	0a013423          	sd	zero,168(sp)
    197c:	0a013823          	sd	zero,176(sp)
    1980:	0a013c23          	sd	zero,184(sp)
    1984:	0c013023          	sd	zero,192(sp)
    1988:	0c013423          	sd	zero,200(sp)
    198c:	0c013823          	sd	zero,208(sp)
    1990:	0c013c23          	sd	zero,216(sp)
    1994:	06013023          	sd	zero,96(sp)
    1998:	06013423          	sd	zero,104(sp)
    199c:	06013823          	sd	zero,112(sp)
    19a0:	06013c23          	sd	zero,120(sp)
    19a4:	08013023          	sd	zero,128(sp)
    19a8:	08013423          	sd	zero,136(sp)
    19ac:	08013823          	sd	zero,144(sp)
    19b0:	08013c23          	sd	zero,152(sp)
    19b4:	02013023          	sd	zero,32(sp)
    19b8:	02013423          	sd	zero,40(sp)
    19bc:	02013823          	sd	zero,48(sp)
    19c0:	02013c23          	sd	zero,56(sp)
    19c4:	04013023          	sd	zero,64(sp)
    19c8:	04013423          	sd	zero,72(sp)
    19cc:	04013823          	sd	zero,80(sp)
    19d0:	04013c23          	sd	zero,88(sp)
    19d4:	12010413          	addi	s0,sp,288
    19d8:	00040713          	mv	a4,s0
    19dc:	00000793          	li	a5,0
    19e0:	08000613          	li	a2,128
    19e4:	00f71023          	sh	a5,0(a4)
    19e8:	0017879b          	addiw	a5,a5,1
    19ec:	03079793          	slli	a5,a5,0x30
    19f0:	0307d793          	srli	a5,a5,0x30
    19f4:	00270713          	addi	a4,a4,2
    19f8:	0007869b          	sext.w	a3,a5
    19fc:	fec694e3          	bne	a3,a2,19e4 <vector_memcpy_segmented_harness_uint16_t+0xc4>
    1a00:	0e010493          	addi	s1,sp,224
    1a04:	00913023          	sd	s1,0(sp)
    1a08:	0a010913          	addi	s2,sp,160
    1a0c:	01213423          	sd	s2,8(sp)
    1a10:	06010993          	addi	s3,sp,96
    1a14:	01313823          	sd	s3,16(sp)
    1a18:	02010a13          	addi	s4,sp,32
    1a1c:	01413c23          	sd	s4,24(sp)
    1a20:	00010613          	mv	a2,sp
    1a24:	12010593          	addi	a1,sp,288
    1a28:	01a00513          	li	a0,26
    1a2c:	000a80e7          	jalr	s5
    1a30:	00048313          	mv	t1,s1
    1a34:	000a0613          	mv	a2,s4
    1a38:	00098693          	mv	a3,s3
    1a3c:	00090713          	mv	a4,s2
    1a40:	0d040893          	addi	a7,s0,208
    1a44:	00048793          	mv	a5,s1
    1a48:	00045803          	lhu	a6,0(s0)
    1a4c:	0007d503          	lhu	a0,0(a5)
    1a50:	08a81663          	bne	a6,a0,1adc <vector_memcpy_segmented_harness_uint16_t+0x1bc>
    1a54:	00245803          	lhu	a6,2(s0)
    1a58:	00075503          	lhu	a0,0(a4)
    1a5c:	0aa81463          	bne	a6,a0,1b04 <vector_memcpy_segmented_harness_uint16_t+0x1e4>
    1a60:	00445803          	lhu	a6,4(s0)
    1a64:	0006d503          	lhu	a0,0(a3)
    1a68:	0aa81263          	bne	a6,a0,1b0c <vector_memcpy_segmented_harness_uint16_t+0x1ec>
    1a6c:	00645503          	lhu	a0,6(s0)
    1a70:	00065583          	lhu	a1,0(a2)
    1a74:	0ab51063          	bne	a0,a1,1b14 <vector_memcpy_segmented_harness_uint16_t+0x1f4>
    1a78:	00840413          	addi	s0,s0,8
    1a7c:	00278793          	addi	a5,a5,2
    1a80:	00260613          	addi	a2,a2,2
    1a84:	00268693          	addi	a3,a3,2
    1a88:	00270713          	addi	a4,a4,2
    1a8c:	fb141ee3          	bne	s0,a7,1a48 <vector_memcpy_segmented_harness_uint16_t+0x128>
    1a90:	05410693          	addi	a3,sp,84
    1a94:	09410713          	addi	a4,sp,148
    1a98:	0d410793          	addi	a5,sp,212
    1a9c:	00c30593          	addi	a1,t1,12
    1aa0:	03435603          	lhu	a2,52(t1)
    1aa4:	06061c63          	bnez	a2,1b1c <vector_memcpy_segmented_harness_uint16_t+0x1fc>
    1aa8:	0007d603          	lhu	a2,0(a5)
    1aac:	06061c63          	bnez	a2,1b24 <vector_memcpy_segmented_harness_uint16_t+0x204>
    1ab0:	00075603          	lhu	a2,0(a4)
    1ab4:	06061c63          	bnez	a2,1b2c <vector_memcpy_segmented_harness_uint16_t+0x20c>
    1ab8:	0006d603          	lhu	a2,0(a3)
    1abc:	06061c63          	bnez	a2,1b34 <vector_memcpy_segmented_harness_uint16_t+0x214>
    1ac0:	00230313          	addi	t1,t1,2
    1ac4:	00268693          	addi	a3,a3,2
    1ac8:	00270713          	addi	a4,a4,2
    1acc:	00278793          	addi	a5,a5,2
    1ad0:	fcb318e3          	bne	t1,a1,1aa0 <vector_memcpy_segmented_harness_uint16_t+0x180>
    1ad4:	00100513          	li	a0,1
    1ad8:	0080006f          	j	1ae0 <vector_memcpy_segmented_harness_uint16_t+0x1c0>
    1adc:	00000513          	li	a0,0
    1ae0:	25813083          	ld	ra,600(sp)
    1ae4:	25013403          	ld	s0,592(sp)
    1ae8:	24813483          	ld	s1,584(sp)
    1aec:	24013903          	ld	s2,576(sp)
    1af0:	23813983          	ld	s3,568(sp)
    1af4:	23013a03          	ld	s4,560(sp)
    1af8:	22813a83          	ld	s5,552(sp)
    1afc:	26010113          	addi	sp,sp,608
    1b00:	00008067          	ret
    1b04:	00000513          	li	a0,0
    1b08:	fd9ff06f          	j	1ae0 <vector_memcpy_segmented_harness_uint16_t+0x1c0>
    1b0c:	00000513          	li	a0,0
    1b10:	fd1ff06f          	j	1ae0 <vector_memcpy_segmented_harness_uint16_t+0x1c0>
    1b14:	00000513          	li	a0,0
    1b18:	fc9ff06f          	j	1ae0 <vector_memcpy_segmented_harness_uint16_t+0x1c0>
    1b1c:	00000513          	li	a0,0
    1b20:	fc1ff06f          	j	1ae0 <vector_memcpy_segmented_harness_uint16_t+0x1c0>
    1b24:	00000513          	li	a0,0
    1b28:	fb9ff06f          	j	1ae0 <vector_memcpy_segmented_harness_uint16_t+0x1c0>
    1b2c:	00000513          	li	a0,0
    1b30:	fb1ff06f          	j	1ae0 <vector_memcpy_segmented_harness_uint16_t+0x1c0>
    1b34:	00000513          	li	a0,0
    1b38:	fa9ff06f          	j	1ae0 <vector_memcpy_segmented_harness_uint16_t+0x1c0>

0000000000001b3c <vector_memcpy_segmented_harness_uint32_t>:
    1b3c:	ba010113          	addi	sp,sp,-1120
    1b40:	44113c23          	sd	ra,1112(sp)
    1b44:	44813823          	sd	s0,1104(sp)
    1b48:	44913423          	sd	s1,1096(sp)
    1b4c:	45213023          	sd	s2,1088(sp)
    1b50:	43313c23          	sd	s3,1080(sp)
    1b54:	43413823          	sd	s4,1072(sp)
    1b58:	43513423          	sd	s5,1064(sp)
    1b5c:	00050a93          	mv	s5,a0
    1b60:	20000613          	li	a2,512
    1b64:	00000593          	li	a1,0
    1b68:	22010513          	addi	a0,sp,544
    1b6c:	b10ff0ef          	jal	ra,e7c <memset>
    1b70:	08000613          	li	a2,128
    1b74:	00000593          	li	a1,0
    1b78:	1a010513          	addi	a0,sp,416
    1b7c:	b00ff0ef          	jal	ra,e7c <memset>
    1b80:	08000613          	li	a2,128
    1b84:	00000593          	li	a1,0
    1b88:	12010513          	addi	a0,sp,288
    1b8c:	af0ff0ef          	jal	ra,e7c <memset>
    1b90:	08000613          	li	a2,128
    1b94:	00000593          	li	a1,0
    1b98:	0a010513          	addi	a0,sp,160
    1b9c:	ae0ff0ef          	jal	ra,e7c <memset>
    1ba0:	08000613          	li	a2,128
    1ba4:	00000593          	li	a1,0
    1ba8:	02010513          	addi	a0,sp,32
    1bac:	ad0ff0ef          	jal	ra,e7c <memset>
    1bb0:	22010413          	addi	s0,sp,544
    1bb4:	00040713          	mv	a4,s0
    1bb8:	00000793          	li	a5,0
    1bbc:	08000693          	li	a3,128
    1bc0:	00f72023          	sw	a5,0(a4)
    1bc4:	0017879b          	addiw	a5,a5,1
    1bc8:	00470713          	addi	a4,a4,4
    1bcc:	fed79ae3          	bne	a5,a3,1bc0 <vector_memcpy_segmented_harness_uint32_t+0x84>
    1bd0:	1a010493          	addi	s1,sp,416
    1bd4:	00913023          	sd	s1,0(sp)
    1bd8:	12010913          	addi	s2,sp,288
    1bdc:	01213423          	sd	s2,8(sp)
    1be0:	0a010993          	addi	s3,sp,160
    1be4:	01313823          	sd	s3,16(sp)
    1be8:	02010a13          	addi	s4,sp,32
    1bec:	01413c23          	sd	s4,24(sp)
    1bf0:	00010613          	mv	a2,sp
    1bf4:	22010593          	addi	a1,sp,544
    1bf8:	01a00513          	li	a0,26
    1bfc:	000a80e7          	jalr	s5
    1c00:	00048313          	mv	t1,s1
    1c04:	000a0613          	mv	a2,s4
    1c08:	00098693          	mv	a3,s3
    1c0c:	00090713          	mv	a4,s2
    1c10:	1a040893          	addi	a7,s0,416
    1c14:	00048793          	mv	a5,s1
    1c18:	00042803          	lw	a6,0(s0)
    1c1c:	0007a503          	lw	a0,0(a5)
    1c20:	08a81663          	bne	a6,a0,1cac <vector_memcpy_segmented_harness_uint32_t+0x170>
    1c24:	00442803          	lw	a6,4(s0)
    1c28:	00072503          	lw	a0,0(a4)
    1c2c:	0aa81463          	bne	a6,a0,1cd4 <vector_memcpy_segmented_harness_uint32_t+0x198>
    1c30:	00842803          	lw	a6,8(s0)
    1c34:	0006a503          	lw	a0,0(a3)
    1c38:	0aa81263          	bne	a6,a0,1cdc <vector_memcpy_segmented_harness_uint32_t+0x1a0>
    1c3c:	00c42503          	lw	a0,12(s0)
    1c40:	00062583          	lw	a1,0(a2)
    1c44:	0ab51063          	bne	a0,a1,1ce4 <vector_memcpy_segmented_harness_uint32_t+0x1a8>
    1c48:	01040413          	addi	s0,s0,16
    1c4c:	00478793          	addi	a5,a5,4
    1c50:	00460613          	addi	a2,a2,4
    1c54:	00468693          	addi	a3,a3,4
    1c58:	00470713          	addi	a4,a4,4
    1c5c:	fb141ee3          	bne	s0,a7,1c18 <vector_memcpy_segmented_harness_uint32_t+0xdc>
    1c60:	08810693          	addi	a3,sp,136
    1c64:	10810713          	addi	a4,sp,264
    1c68:	18810793          	addi	a5,sp,392
    1c6c:	01830593          	addi	a1,t1,24
    1c70:	06832603          	lw	a2,104(t1)
    1c74:	06061c63          	bnez	a2,1cec <vector_memcpy_segmented_harness_uint32_t+0x1b0>
    1c78:	0007a603          	lw	a2,0(a5)
    1c7c:	06061c63          	bnez	a2,1cf4 <vector_memcpy_segmented_harness_uint32_t+0x1b8>
    1c80:	00072603          	lw	a2,0(a4)
    1c84:	06061c63          	bnez	a2,1cfc <vector_memcpy_segmented_harness_uint32_t+0x1c0>
    1c88:	0006a603          	lw	a2,0(a3)
    1c8c:	06061c63          	bnez	a2,1d04 <vector_memcpy_segmented_harness_uint32_t+0x1c8>
    1c90:	00430313          	addi	t1,t1,4
    1c94:	00468693          	addi	a3,a3,4
    1c98:	00470713          	addi	a4,a4,4
    1c9c:	00478793          	addi	a5,a5,4
    1ca0:	fcb318e3          	bne	t1,a1,1c70 <vector_memcpy_segmented_harness_uint32_t+0x134>
    1ca4:	00100513          	li	a0,1
    1ca8:	0080006f          	j	1cb0 <vector_memcpy_segmented_harness_uint32_t+0x174>
    1cac:	00000513          	li	a0,0
    1cb0:	45813083          	ld	ra,1112(sp)
    1cb4:	45013403          	ld	s0,1104(sp)
    1cb8:	44813483          	ld	s1,1096(sp)
    1cbc:	44013903          	ld	s2,1088(sp)
    1cc0:	43813983          	ld	s3,1080(sp)
    1cc4:	43013a03          	ld	s4,1072(sp)
    1cc8:	42813a83          	ld	s5,1064(sp)
    1ccc:	46010113          	addi	sp,sp,1120
    1cd0:	00008067          	ret
    1cd4:	00000513          	li	a0,0
    1cd8:	fd9ff06f          	j	1cb0 <vector_memcpy_segmented_harness_uint32_t+0x174>
    1cdc:	00000513          	li	a0,0
    1ce0:	fd1ff06f          	j	1cb0 <vector_memcpy_segmented_harness_uint32_t+0x174>
    1ce4:	00000513          	li	a0,0
    1ce8:	fc9ff06f          	j	1cb0 <vector_memcpy_segmented_harness_uint32_t+0x174>
    1cec:	00000513          	li	a0,0
    1cf0:	fc1ff06f          	j	1cb0 <vector_memcpy_segmented_harness_uint32_t+0x174>
    1cf4:	00000513          	li	a0,0
    1cf8:	fb9ff06f          	j	1cb0 <vector_memcpy_segmented_harness_uint32_t+0x174>
    1cfc:	00000513          	li	a0,0
    1d00:	fb1ff06f          	j	1cb0 <vector_memcpy_segmented_harness_uint32_t+0x174>
    1d04:	00000513          	li	a0,0
    1d08:	fa9ff06f          	j	1cb0 <vector_memcpy_segmented_harness_uint32_t+0x174>

0000000000001d0c <vector_memcpy_segmented_harness_uint64_t>:
    1d0c:	81010113          	addi	sp,sp,-2032
    1d10:	7e113423          	sd	ra,2024(sp)
    1d14:	7e813023          	sd	s0,2016(sp)
    1d18:	7c913c23          	sd	s1,2008(sp)
    1d1c:	7d213823          	sd	s2,2000(sp)
    1d20:	7d313423          	sd	s3,1992(sp)
    1d24:	7d413023          	sd	s4,1984(sp)
    1d28:	7b513c23          	sd	s5,1976(sp)
    1d2c:	f9010113          	addi	sp,sp,-112
    1d30:	00050a93          	mv	s5,a0
    1d34:	40000613          	li	a2,1024
    1d38:	00000593          	li	a1,0
    1d3c:	42010513          	addi	a0,sp,1056
    1d40:	93cff0ef          	jal	ra,e7c <memset>
    1d44:	10000613          	li	a2,256
    1d48:	00000593          	li	a1,0
    1d4c:	32010513          	addi	a0,sp,800
    1d50:	92cff0ef          	jal	ra,e7c <memset>
    1d54:	10000613          	li	a2,256
    1d58:	00000593          	li	a1,0
    1d5c:	22010513          	addi	a0,sp,544
    1d60:	91cff0ef          	jal	ra,e7c <memset>
    1d64:	10000613          	li	a2,256
    1d68:	00000593          	li	a1,0
    1d6c:	12010513          	addi	a0,sp,288
    1d70:	90cff0ef          	jal	ra,e7c <memset>
    1d74:	10000613          	li	a2,256
    1d78:	00000593          	li	a1,0
    1d7c:	02010513          	addi	a0,sp,32
    1d80:	8fcff0ef          	jal	ra,e7c <memset>
    1d84:	42010413          	addi	s0,sp,1056
    1d88:	00040713          	mv	a4,s0
    1d8c:	00000793          	li	a5,0
    1d90:	08000693          	li	a3,128
    1d94:	00f73023          	sd	a5,0(a4)
    1d98:	00178793          	addi	a5,a5,1
    1d9c:	00870713          	addi	a4,a4,8
    1da0:	fed79ae3          	bne	a5,a3,1d94 <vector_memcpy_segmented_harness_uint64_t+0x88>
    1da4:	fffff7b7          	lui	a5,0xfffff
    1da8:	32010493          	addi	s1,sp,800
    1dac:	00913023          	sd	s1,0(sp)
    1db0:	22010913          	addi	s2,sp,544
    1db4:	01213423          	sd	s2,8(sp)
    1db8:	12010993          	addi	s3,sp,288
    1dbc:	01313823          	sd	s3,16(sp)
    1dc0:	02010a13          	addi	s4,sp,32
    1dc4:	01413c23          	sd	s4,24(sp)
    1dc8:	7e078793          	addi	a5,a5,2016 # fffffffffffff7e0 <outputSucceeded+0xfffffffffefff7d8>
    1dcc:	00001737          	lui	a4,0x1
    1dd0:	82070713          	addi	a4,a4,-2016 # 820 <vector_memcpy_masked_e8m1+0x14>
    1dd4:	00270733          	add	a4,a4,sp
    1dd8:	00f70633          	add	a2,a4,a5
    1ddc:	42010593          	addi	a1,sp,1056
    1de0:	01a00513          	li	a0,26
    1de4:	000a80e7          	jalr	s5
    1de8:	00048313          	mv	t1,s1
    1dec:	000a0613          	mv	a2,s4
    1df0:	00098693          	mv	a3,s3
    1df4:	00090713          	mv	a4,s2
    1df8:	34040893          	addi	a7,s0,832
    1dfc:	00048793          	mv	a5,s1
    1e00:	00043803          	ld	a6,0(s0)
    1e04:	0007b503          	ld	a0,0(a5)
    1e08:	08a81663          	bne	a6,a0,1e94 <vector_memcpy_segmented_harness_uint64_t+0x188>
    1e0c:	00843803          	ld	a6,8(s0)
    1e10:	00073503          	ld	a0,0(a4)
    1e14:	0aa81663          	bne	a6,a0,1ec0 <vector_memcpy_segmented_harness_uint64_t+0x1b4>
    1e18:	01043803          	ld	a6,16(s0)
    1e1c:	0006b503          	ld	a0,0(a3)
    1e20:	0aa81463          	bne	a6,a0,1ec8 <vector_memcpy_segmented_harness_uint64_t+0x1bc>
    1e24:	01843503          	ld	a0,24(s0)
    1e28:	00063583          	ld	a1,0(a2)
    1e2c:	0ab51263          	bne	a0,a1,1ed0 <vector_memcpy_segmented_harness_uint64_t+0x1c4>
    1e30:	02040413          	addi	s0,s0,32
    1e34:	00878793          	addi	a5,a5,8
    1e38:	00860613          	addi	a2,a2,8
    1e3c:	00868693          	addi	a3,a3,8
    1e40:	00870713          	addi	a4,a4,8
    1e44:	fb141ee3          	bne	s0,a7,1e00 <vector_memcpy_segmented_harness_uint64_t+0xf4>
    1e48:	0f010693          	addi	a3,sp,240
    1e4c:	1f010713          	addi	a4,sp,496
    1e50:	2f010793          	addi	a5,sp,752
    1e54:	03030593          	addi	a1,t1,48
    1e58:	0d033603          	ld	a2,208(t1)
    1e5c:	06061e63          	bnez	a2,1ed8 <vector_memcpy_segmented_harness_uint64_t+0x1cc>
    1e60:	0007b603          	ld	a2,0(a5)
    1e64:	06061e63          	bnez	a2,1ee0 <vector_memcpy_segmented_harness_uint64_t+0x1d4>
    1e68:	00073603          	ld	a2,0(a4)
    1e6c:	06061e63          	bnez	a2,1ee8 <vector_memcpy_segmented_harness_uint64_t+0x1dc>
    1e70:	0006b603          	ld	a2,0(a3)
    1e74:	06061e63          	bnez	a2,1ef0 <vector_memcpy_segmented_harness_uint64_t+0x1e4>
    1e78:	00830313          	addi	t1,t1,8
    1e7c:	00868693          	addi	a3,a3,8
    1e80:	00870713          	addi	a4,a4,8
    1e84:	00878793          	addi	a5,a5,8
    1e88:	fcb318e3          	bne	t1,a1,1e58 <vector_memcpy_segmented_harness_uint64_t+0x14c>
    1e8c:	00100513          	li	a0,1
    1e90:	0080006f          	j	1e98 <vector_memcpy_segmented_harness_uint64_t+0x18c>
    1e94:	00000513          	li	a0,0
    1e98:	07010113          	addi	sp,sp,112
    1e9c:	7e813083          	ld	ra,2024(sp)
    1ea0:	7e013403          	ld	s0,2016(sp)
    1ea4:	7d813483          	ld	s1,2008(sp)
    1ea8:	7d013903          	ld	s2,2000(sp)
    1eac:	7c813983          	ld	s3,1992(sp)
    1eb0:	7c013a03          	ld	s4,1984(sp)
    1eb4:	7b813a83          	ld	s5,1976(sp)
    1eb8:	7f010113          	addi	sp,sp,2032
    1ebc:	00008067          	ret
    1ec0:	00000513          	li	a0,0
    1ec4:	fd5ff06f          	j	1e98 <vector_memcpy_segmented_harness_uint64_t+0x18c>
    1ec8:	00000513          	li	a0,0
    1ecc:	fcdff06f          	j	1e98 <vector_memcpy_segmented_harness_uint64_t+0x18c>
    1ed0:	00000513          	li	a0,0
    1ed4:	fc5ff06f          	j	1e98 <vector_memcpy_segmented_harness_uint64_t+0x18c>
    1ed8:	00000513          	li	a0,0
    1edc:	fbdff06f          	j	1e98 <vector_memcpy_segmented_harness_uint64_t+0x18c>
    1ee0:	00000513          	li	a0,0
    1ee4:	fb5ff06f          	j	1e98 <vector_memcpy_segmented_harness_uint64_t+0x18c>
    1ee8:	00000513          	li	a0,0
    1eec:	fadff06f          	j	1e98 <vector_memcpy_segmented_harness_uint64_t+0x18c>
    1ef0:	00000513          	li	a0,0
    1ef4:	fa5ff06f          	j	1e98 <vector_memcpy_segmented_harness_uint64_t+0x18c>

0000000000001ef8 <vector_memcpy_boundary_faultonlyfirst_e8m1>:
    1ef8:	fff00693          	li	a3,-1
    1efc:	0006f6d7          	vsetvli	a3,a3,e8,m1,tu,mu
    1f00:	00068593          	mv	a1,a3
    1f04:	06068e63          	beqz	a3,1f80 <vector_memcpy_boundary_faultonlyfirst_e8m1+0x88>
    1f08:	00000793          	li	a5,0
    1f0c:	00025637          	lui	a2,0x25
    1f10:	00060613          	mv	a2,a2
    1f14:	40d78733          	sub	a4,a5,a3
    1f18:	00c70733          	add	a4,a4,a2
    1f1c:	00f70023          	sb	a5,0(a4)
    1f20:	00178793          	addi	a5,a5,1
    1f24:	fef598e3          	bne	a1,a5,1f14 <vector_memcpy_boundary_faultonlyfirst_e8m1+0x1c>
    1f28:	fff00713          	li	a4,-1
    1f2c:	00077757          	vsetvli	a4,a4,e8,m1,tu,mu
    1f30:	00025737          	lui	a4,0x25
    1f34:	fff70713          	addi	a4,a4,-1 # 24fff <__sp+0x14fff>
    1f38:	03070407          	vle8ff.v	v8,(a4)
    1f3c:	c2002773          	csrr	a4,vl
    1f40:	00100693          	li	a3,1
    1f44:	04d71263          	bne	a4,a3,1f88 <vector_memcpy_boundary_faultonlyfirst_e8m1+0x90>
    1f48:	000256b7          	lui	a3,0x25
    1f4c:	ffe68693          	addi	a3,a3,-2 # 24ffe <__sp+0x14ffe>
    1f50:	fff00613          	li	a2,-1
    1f54:	00170713          	addi	a4,a4,1
    1f58:	02e7e063          	bltu	a5,a4,1f78 <vector_memcpy_boundary_faultonlyfirst_e8m1+0x80>
    1f5c:	000675d7          	vsetvli	a1,a2,e8,m1,tu,mu
    1f60:	03068407          	vle8ff.v	v8,(a3)
    1f64:	c20025f3          	csrr	a1,vl
    1f68:	fff68693          	addi	a3,a3,-1
    1f6c:	fee584e3          	beq	a1,a4,1f54 <vector_memcpy_boundary_faultonlyfirst_e8m1+0x5c>
    1f70:	00000513          	li	a0,0
    1f74:	00008067          	ret
    1f78:	00100513          	li	a0,1
    1f7c:	00008067          	ret
    1f80:	00100513          	li	a0,1
    1f84:	00008067          	ret
    1f88:	00000513          	li	a0,0
    1f8c:	00008067          	ret

0000000000001f90 <vector_memcpy_boundary_faultonlyfirst_e16m2>:
    1f90:	fff00713          	li	a4,-1
    1f94:	00977757          	vsetvli	a4,a4,e16,m2,tu,mu
    1f98:	00070693          	mv	a3,a4
    1f9c:	08070063          	beqz	a4,201c <vector_memcpy_boundary_faultonlyfirst_e16m2+0x8c>
    1fa0:	00171793          	slli	a5,a4,0x1
    1fa4:	00025737          	lui	a4,0x25
    1fa8:	00070713          	mv	a4,a4
    1fac:	40f70733          	sub	a4,a4,a5
    1fb0:	00000793          	li	a5,0
    1fb4:	00f71023          	sh	a5,0(a4) # 25000 <ramBoundary>
    1fb8:	00178793          	addi	a5,a5,1
    1fbc:	00270713          	addi	a4,a4,2
    1fc0:	fef69ae3          	bne	a3,a5,1fb4 <vector_memcpy_boundary_faultonlyfirst_e16m2+0x24>
    1fc4:	fff00713          	li	a4,-1
    1fc8:	00977757          	vsetvli	a4,a4,e16,m2,tu,mu
    1fcc:	00025737          	lui	a4,0x25
    1fd0:	ffe70713          	addi	a4,a4,-2 # 24ffe <__sp+0x14ffe>
    1fd4:	03075407          	vle16ff.v	v8,(a4)
    1fd8:	c2002773          	csrr	a4,vl
    1fdc:	00100693          	li	a3,1
    1fe0:	04d71263          	bne	a4,a3,2024 <vector_memcpy_boundary_faultonlyfirst_e16m2+0x94>
    1fe4:	000256b7          	lui	a3,0x25
    1fe8:	ffc68693          	addi	a3,a3,-4 # 24ffc <__sp+0x14ffc>
    1fec:	fff00613          	li	a2,-1
    1ff0:	00170713          	addi	a4,a4,1
    1ff4:	02e7e063          	bltu	a5,a4,2014 <vector_memcpy_boundary_faultonlyfirst_e16m2+0x84>
    1ff8:	009675d7          	vsetvli	a1,a2,e16,m2,tu,mu
    1ffc:	0306d407          	vle16ff.v	v8,(a3)
    2000:	c20025f3          	csrr	a1,vl
    2004:	ffe68693          	addi	a3,a3,-2
    2008:	fee584e3          	beq	a1,a4,1ff0 <vector_memcpy_boundary_faultonlyfirst_e16m2+0x60>
    200c:	00000513          	li	a0,0
    2010:	00008067          	ret
    2014:	00100513          	li	a0,1
    2018:	00008067          	ret
    201c:	00100513          	li	a0,1
    2020:	00008067          	ret
    2024:	00000513          	li	a0,0
    2028:	00008067          	ret

000000000000202c <vector_memcpy_boundary_faultonlyfirst_e32m4>:
    202c:	fff00713          	li	a4,-1
    2030:	01277757          	vsetvli	a4,a4,e32,m4,tu,mu
    2034:	00070693          	mv	a3,a4
    2038:	08070063          	beqz	a4,20b8 <vector_memcpy_boundary_faultonlyfirst_e32m4+0x8c>
    203c:	00271793          	slli	a5,a4,0x2
    2040:	00025737          	lui	a4,0x25
    2044:	00070713          	mv	a4,a4
    2048:	40f70733          	sub	a4,a4,a5
    204c:	00000793          	li	a5,0
    2050:	00f72023          	sw	a5,0(a4) # 25000 <ramBoundary>
    2054:	00178793          	addi	a5,a5,1
    2058:	00470713          	addi	a4,a4,4
    205c:	fef69ae3          	bne	a3,a5,2050 <vector_memcpy_boundary_faultonlyfirst_e32m4+0x24>
    2060:	fff00713          	li	a4,-1
    2064:	01277757          	vsetvli	a4,a4,e32,m4,tu,mu
    2068:	00025737          	lui	a4,0x25
    206c:	ffc70713          	addi	a4,a4,-4 # 24ffc <__sp+0x14ffc>
    2070:	03076407          	vle32ff.v	v8,(a4)
    2074:	c2002773          	csrr	a4,vl
    2078:	00100693          	li	a3,1
    207c:	04d71263          	bne	a4,a3,20c0 <vector_memcpy_boundary_faultonlyfirst_e32m4+0x94>
    2080:	000256b7          	lui	a3,0x25
    2084:	ff868693          	addi	a3,a3,-8 # 24ff8 <__sp+0x14ff8>
    2088:	fff00613          	li	a2,-1
    208c:	00170713          	addi	a4,a4,1
    2090:	02e7e063          	bltu	a5,a4,20b0 <vector_memcpy_boundary_faultonlyfirst_e32m4+0x84>
    2094:	012675d7          	vsetvli	a1,a2,e32,m4,tu,mu
    2098:	0306e407          	vle32ff.v	v8,(a3)
    209c:	c20025f3          	csrr	a1,vl
    20a0:	ffc68693          	addi	a3,a3,-4
    20a4:	fee584e3          	beq	a1,a4,208c <vector_memcpy_boundary_faultonlyfirst_e32m4+0x60>
    20a8:	00000513          	li	a0,0
    20ac:	00008067          	ret
    20b0:	00100513          	li	a0,1
    20b4:	00008067          	ret
    20b8:	00100513          	li	a0,1
    20bc:	00008067          	ret
    20c0:	00000513          	li	a0,0
    20c4:	00008067          	ret

00000000000020c8 <vector_memcpy_boundary_faultonlyfirst_e64m8>:
    20c8:	fff00713          	li	a4,-1
    20cc:	01b77757          	vsetvli	a4,a4,e64,m8,tu,mu
    20d0:	00070693          	mv	a3,a4
    20d4:	08070063          	beqz	a4,2154 <vector_memcpy_boundary_faultonlyfirst_e64m8+0x8c>
    20d8:	00371793          	slli	a5,a4,0x3
    20dc:	00025737          	lui	a4,0x25
    20e0:	00070713          	mv	a4,a4
    20e4:	40f70733          	sub	a4,a4,a5
    20e8:	00000793          	li	a5,0
    20ec:	00f73023          	sd	a5,0(a4) # 25000 <ramBoundary>
    20f0:	00178793          	addi	a5,a5,1
    20f4:	00870713          	addi	a4,a4,8
    20f8:	fef69ae3          	bne	a3,a5,20ec <vector_memcpy_boundary_faultonlyfirst_e64m8+0x24>
    20fc:	fff00713          	li	a4,-1
    2100:	01b77757          	vsetvli	a4,a4,e64,m8,tu,mu
    2104:	00025737          	lui	a4,0x25
    2108:	ff870713          	addi	a4,a4,-8 # 24ff8 <__sp+0x14ff8>
    210c:	03077407          	vle64ff.v	v8,(a4)
    2110:	c2002773          	csrr	a4,vl
    2114:	00100693          	li	a3,1
    2118:	04d71263          	bne	a4,a3,215c <vector_memcpy_boundary_faultonlyfirst_e64m8+0x94>
    211c:	000256b7          	lui	a3,0x25
    2120:	ff068693          	addi	a3,a3,-16 # 24ff0 <__sp+0x14ff0>
    2124:	fff00613          	li	a2,-1
    2128:	00170713          	addi	a4,a4,1
    212c:	02e7e063          	bltu	a5,a4,214c <vector_memcpy_boundary_faultonlyfirst_e64m8+0x84>
    2130:	01b675d7          	vsetvli	a1,a2,e64,m8,tu,mu
    2134:	0306f407          	vle64ff.v	v8,(a3)
    2138:	c20025f3          	csrr	a1,vl
    213c:	ff868693          	addi	a3,a3,-8
    2140:	fee584e3          	beq	a1,a4,2128 <vector_memcpy_boundary_faultonlyfirst_e64m8+0x60>
    2144:	00000513          	li	a0,0
    2148:	00008067          	ret
    214c:	00100513          	li	a0,1
    2150:	00008067          	ret
    2154:	00100513          	li	a0,1
    2158:	00008067          	ret
    215c:	00000513          	li	a0,0
    2160:	00008067          	ret

0000000000002164 <main>:
    2164:	fe010113          	addi	sp,sp,-32
    2168:	00113c23          	sd	ra,24(sp)
    216c:	00813823          	sd	s0,16(sp)
    2170:	00913423          	sd	s1,8(sp)
    2174:	04400513          	li	a0,68
    2178:	d25fe0ef          	jal	ra,e9c <vector_memcpy_harness_uint8_t>
    217c:	00050413          	mv	s0,a0
    2180:	12000513          	li	a0,288
    2184:	e49fe0ef          	jal	ra,fcc <vector_memcpy_harness_uint16_t>
    2188:	00050493          	mv	s1,a0
    218c:	19400513          	li	a0,404
    2190:	f1dfe0ef          	jal	ra,10ac <vector_memcpy_harness_uint32_t>
    2194:	00149493          	slli	s1,s1,0x1
    2198:	00251513          	slli	a0,a0,0x2
    219c:	00a4e4b3          	or	s1,s1,a0
    21a0:	0084e433          	or	s0,s1,s0
    21a4:	20800513          	li	a0,520
    21a8:	fd9fe0ef          	jal	ra,1180 <vector_memcpy_harness_uint64_t>
    21ac:	00351493          	slli	s1,a0,0x3
    21b0:	0084e4b3          	or	s1,s1,s0
    21b4:	29c00513          	li	a0,668
    21b8:	ce5fe0ef          	jal	ra,e9c <vector_memcpy_harness_uint8_t>
    21bc:	00751413          	slli	s0,a0,0x7
    21c0:	009464b3          	or	s1,s0,s1
    21c4:	31800513          	li	a0,792
    21c8:	e05fe0ef          	jal	ra,fcc <vector_memcpy_harness_uint16_t>
    21cc:	00851413          	slli	s0,a0,0x8
    21d0:	00946433          	or	s0,s0,s1
    21d4:	39c00513          	li	a0,924
    21d8:	ed5fe0ef          	jal	ra,10ac <vector_memcpy_harness_uint32_t>
    21dc:	00951493          	slli	s1,a0,0x9
    21e0:	0084e433          	or	s0,s1,s0
    21e4:	41c00513          	li	a0,1052
    21e8:	f99fe0ef          	jal	ra,1180 <vector_memcpy_harness_uint64_t>
    21ec:	00a51493          	slli	s1,a0,0xa
    21f0:	0084e4b3          	or	s1,s1,s0
    21f4:	4a000513          	li	a0,1184
    21f8:	ca5fe0ef          	jal	ra,e9c <vector_memcpy_harness_uint8_t>
    21fc:	00e51413          	slli	s0,a0,0xe
    2200:	009464b3          	or	s1,s0,s1
    2204:	56c00513          	li	a0,1388
    2208:	dc5fe0ef          	jal	ra,fcc <vector_memcpy_harness_uint16_t>
    220c:	00f51413          	slli	s0,a0,0xf
    2210:	00946433          	or	s0,s0,s1
    2214:	64c00513          	li	a0,1612
    2218:	e95fe0ef          	jal	ra,10ac <vector_memcpy_harness_uint32_t>
    221c:	01051493          	slli	s1,a0,0x10
    2220:	0084e433          	or	s0,s1,s0
    2224:	72c00513          	li	a0,1836
    2228:	f59fe0ef          	jal	ra,1180 <vector_memcpy_harness_uint64_t>
    222c:	01151493          	slli	s1,a0,0x11
    2230:	0084e4b3          	or	s1,s1,s0
    2234:	00001537          	lui	a0,0x1
    2238:	80c50513          	addi	a0,a0,-2036 # 80c <vector_memcpy_masked_e8m1>
    223c:	820ff0ef          	jal	ra,125c <vector_memcpy_masked_harness_uint8_t>
    2240:	01551413          	slli	s0,a0,0x15
    2244:	009464b3          	or	s1,s0,s1
    2248:	00001537          	lui	a0,0x1
    224c:	8c850513          	addi	a0,a0,-1848 # 8c8 <vector_memcpy_masked_e16m2>
    2250:	96cff0ef          	jal	ra,13bc <vector_memcpy_masked_harness_uint16_t>
    2254:	01651413          	slli	s0,a0,0x16
    2258:	00946433          	or	s0,s0,s1
    225c:	00001537          	lui	a0,0x1
    2260:	9ec50513          	addi	a0,a0,-1556 # 9ec <vector_memcpy_masked_e32m4>
    2264:	a88ff0ef          	jal	ra,14ec <vector_memcpy_masked_harness_uint32_t>
    2268:	01751493          	slli	s1,a0,0x17
    226c:	0084e433          	or	s0,s1,s0
    2270:	00001537          	lui	a0,0x1
    2274:	b1050513          	addi	a0,a0,-1264 # b10 <vector_memcpy_masked_e64m8>
    2278:	b8cff0ef          	jal	ra,1604 <vector_memcpy_masked_harness_uint64_t>
    227c:	01851493          	slli	s1,a0,0x18
    2280:	0084e4b3          	or	s1,s1,s0
    2284:	00001537          	lui	a0,0x1
    2288:	c3450513          	addi	a0,a0,-972 # c34 <vector_memcpy_segmented_e8m2>
    228c:	c98ff0ef          	jal	ra,1724 <vector_memcpy_segmented_harness_uint8_t>
    2290:	02351413          	slli	s0,a0,0x23
    2294:	009464b3          	or	s1,s0,s1
    2298:	07c00513          	li	a0,124
    229c:	e84ff0ef          	jal	ra,1920 <vector_memcpy_segmented_harness_uint16_t>
    22a0:	02451413          	slli	s0,a0,0x24
    22a4:	00946433          	or	s0,s0,s1
    22a8:	00001537          	lui	a0,0x1
    22ac:	c9c50513          	addi	a0,a0,-868 # c9c <vector_memcpy_segmented_e32m2>
    22b0:	88dff0ef          	jal	ra,1b3c <vector_memcpy_segmented_harness_uint32_t>
    22b4:	02551493          	slli	s1,a0,0x25
    22b8:	0084e433          	or	s0,s1,s0
    22bc:	00001537          	lui	a0,0x1
    22c0:	d0850513          	addi	a0,a0,-760 # d08 <vector_memcpy_segmented_e64m2>
    22c4:	a49ff0ef          	jal	ra,1d0c <vector_memcpy_segmented_harness_uint64_t>
    22c8:	02651493          	slli	s1,a0,0x26
    22cc:	0084e4b3          	or	s1,s1,s0
    22d0:	00001537          	lui	a0,0x1
    22d4:	d7450513          	addi	a0,a0,-652 # d74 <vector_memcpy_wholereg_e64m1>
    22d8:	ea9fe0ef          	jal	ra,1180 <vector_memcpy_harness_uint64_t>
    22dc:	02851413          	slli	s0,a0,0x28
    22e0:	009464b3          	or	s1,s0,s1
    22e4:	00001537          	lui	a0,0x1
    22e8:	dcc50513          	addi	a0,a0,-564 # dcc <vector_memcpy_wholereg_e64m2>
    22ec:	e95fe0ef          	jal	ra,1180 <vector_memcpy_harness_uint64_t>
    22f0:	02951413          	slli	s0,a0,0x29
    22f4:	00946433          	or	s0,s0,s1
    22f8:	00001537          	lui	a0,0x1
    22fc:	e2450513          	addi	a0,a0,-476 # e24 <vector_memcpy_wholereg_e64m4>
    2300:	e81fe0ef          	jal	ra,1180 <vector_memcpy_harness_uint64_t>
    2304:	02a51493          	slli	s1,a0,0x2a
    2308:	0084e433          	or	s0,s1,s0
    230c:	24400513          	li	a0,580
    2310:	e71fe0ef          	jal	ra,1180 <vector_memcpy_harness_uint64_t>
    2314:	02b51493          	slli	s1,a0,0x2b
    2318:	0084e4b3          	or	s1,s1,s0
    231c:	01000513          	li	a0,16
    2320:	b7dfe0ef          	jal	ra,e9c <vector_memcpy_harness_uint8_t>
    2324:	02c51413          	slli	s0,a0,0x2c
    2328:	009464b3          	or	s1,s0,s1
    232c:	0e800513          	li	a0,232
    2330:	c9dfe0ef          	jal	ra,fcc <vector_memcpy_harness_uint16_t>
    2334:	02d51413          	slli	s0,a0,0x2d
    2338:	00946433          	or	s0,s0,s1
    233c:	15c00513          	li	a0,348
    2340:	d6dfe0ef          	jal	ra,10ac <vector_memcpy_harness_uint32_t>
    2344:	02e51493          	slli	s1,a0,0x2e
    2348:	0084e433          	or	s0,s1,s0
    234c:	1d000513          	li	a0,464
    2350:	e31fe0ef          	jal	ra,1180 <vector_memcpy_harness_uint64_t>
    2354:	02f51493          	slli	s1,a0,0x2f
    2358:	0084e4b3          	or	s1,s1,s0
    235c:	b9dff0ef          	jal	ra,1ef8 <vector_memcpy_boundary_faultonlyfirst_e8m1>
    2360:	03351413          	slli	s0,a0,0x33
    2364:	009464b3          	or	s1,s0,s1
    2368:	c29ff0ef          	jal	ra,1f90 <vector_memcpy_boundary_faultonlyfirst_e16m2>
    236c:	03451413          	slli	s0,a0,0x34
    2370:	00946433          	or	s0,s0,s1
    2374:	cb9ff0ef          	jal	ra,202c <vector_memcpy_boundary_faultonlyfirst_e32m4>
    2378:	03551513          	slli	a0,a0,0x35
    237c:	00856433          	or	s0,a0,s0
    2380:	d49ff0ef          	jal	ra,20c8 <vector_memcpy_boundary_faultonlyfirst_e64m8>
    2384:	03651513          	slli	a0,a0,0x36
    2388:	00856533          	or	a0,a0,s0
    238c:	00002737          	lui	a4,0x2
    2390:	010007b7          	lui	a5,0x1000
    2394:	3c073703          	ld	a4,960(a4) # 23c0 <main+0x25c>
    2398:	00e7b023          	sd	a4,0(a5) # 1000000 <outputAttempted>
    239c:	010007b7          	lui	a5,0x1000
    23a0:	00a7b423          	sd	a0,8(a5) # 1000008 <outputSucceeded>
    23a4:	00000513          	li	a0,0
    23a8:	01813083          	ld	ra,24(sp)
    23ac:	01013403          	ld	s0,16(sp)
    23b0:	00813483          	ld	s1,8(sp)
    23b4:	02010113          	addi	sp,sp,32
    23b8:	00008067          	ret
