
/media/common/University/Edu/Year4_Masters/Project/riscv-v-lite/programs/build/llvm-13-rv64imvxcheri/vector_memcpy_pointers/vector_memcpy_pointers.elf:	file format elf64-littleriscv
Contents of section __cap_relocs:
 0000 d00a0000 00000000 e0ff0000 00000000  ................
 0010 00000000 00000000 00000000 00000000  ................
 0020 00000000 00000000 e00a0000 00000000  ................
 0030 54060000 00000000 00000000 00000000  T...............
 0040 70000000 00000000 00000000 00000080  p...............
 0050 f00a0000 00000000 c8060000 00000000  ................
 0060 00000000 00000000 00020000 00000000  ................
 0070 00000000 00000040 000b0000 00000000  .......@........
 0080 c8080000 00000000 00000000 00000000  ................
 0090 00020000 00000000 00000000 00000040  ...............@
 00a0 100b0000 00000000 00000001 00000000  ................
 00b0 00000000 00000000 00000000 00000000  ................
 00c0 00000000 00000000 200b0000 00000000  ........ .......
 00d0 08000001 00000000 00000000 00000000  ................
 00e0 00000000 00000000 00000000 00000000  ................
 00f0 300b0000 00000000 10000001 00000000  0...............
 0100 00000000 00000000 00000000 00000000  ................
 0110 00000000 00000000                    ........
Contents of section .text.init:
 0118 17110000 0f21819b 17130000 0f23039c  .....!.......#..
 0128 e7000300 6f000000                    ....o...
Contents of section .text:
 0130 630c0600 93060000 5b07d522 93861600  c.......[.."....
 0140 2300b700 e31ad6fe 67800000 63000602  #.......g...c...
 0150 db06a5fe 03870500 2380e600 db961600  ........#.......
 0160 1306f6ff db951500 e31606fe 67800000  ............g...
 0170 93060001 6366d602 9306f000 13574600  ....cf.......WF.
 0180 57773702 07840512 27040512 13174700  Ww7.....'.....G.
 0190 db85e522 3306e640 5b05e522 e3e0c6fe  ..."3..@[.."....
 01a0 63000602 d7763604 07840502 27040502  c....v6.....'...
 01b0 db85d522 3306d640 5b05d522 e31406fe  ..."3..@[.."....
 01c0 67800000 93060001 636ed602 9306f000  g.......cn......
 01d0 13574600 57772702 07840512 93171700  .WF.Ww'.........
 01e0 57f0b701 57348002 57702002 27040512  W...W4..Wp .'...
 01f0 13174700 db85e522 3306e640 5b05e522  ..G...."3..@[.."
 0200 e3e8c6fc 63000602 d7763604 07840502  ....c....v6.....
 0210 27040502 db85d522 3306d640 5b05d522  '......"3..@[.."
 0220 e31406fe 67800000 5b110181 2340117e  ....g...[...#@.~
 0230 2348817c 2340917c 37e5ffff 1b050577  #H.|#@.|7......w
 0240 5b01a122 13050000 b7250000 9b850501  [..".....%......
 0250 db05b122 dba50504 23c80502 23c00502  ..."....#...#...
 0260 23c80500 23c00500 37767400 1b0616ef  #...#...7vt.....
 0270 1316f600 13063695 1316d600 130696b4  ......6.........
 0280 1316c600 1306a675 b7260000 9b860601  .......u.&......
 0290 db06d122 23b0c600 374667fc 1b0636f0  ..."#...7Fg...6.
 02a0 1316c600 1306d621 1316d600 1306b662  .......!.......b
 02b0 1316c600 1306464a b7260000 9b860602  ......FJ.&......
 02c0 db06d122 23b0c600 3756ce00 1b0636f3  ..."#...7V....6.
 02d0 1316d600 1306765c 1316e600 1306f633  ......v\.......3
 02e0 1316c600 1306e6cd b7260000 9b860603  .........&......
 02f0 db06d122 23b0c600 37062aff 1b0696eb  ..."#...7.*.....
 0300 1316e600 1306b6e3 1316c600 1306f6d6  ................
 0310 1316d600 13067669 b7260000 9b860604  ......vi.&......
 0320 db06d122 23b0c600 37160000 b7160000  ..."#...7.......
 0330 9b860601 db06d122 db84c610 13060008  ......."........
 0340 97060000 8fa6067b 13172500 db86e622  .......{..%...."
 0350 83a60600 93964600 db86d522 03b70600  ......F...."....
 0360 93175500 5b84f422 2330e400 13e70701  ..U.[.."#0......
 0370 5b87e422 13051500 2340d700 e312c5fc  [.."....#@......
 0380 37150000 db150101 5b84a510 37160000  7.......[...7...
 0390 5b05a4fe 93050000 97000000 e78080d9  [...............
 03a0 37160000 5b05a4fe db85a4fe 97000000  7...[...........
 03b0 e78040dc 13050000 b7250000 9b850501  ..@......%......
 03c0 db05b122 dba50504 13060008 13175500  ..."..........U.
 03d0 93660701 db06d422 8fa60600 83b70600  .f....."........
 03e0 5b07e422 03370700 639ae702 17070000  [..".7..c.......
 03f0 0f274770 93172500 5b07f722 03270700  .'Gp..%.[..".'..
 0400 13174700 5b87e522 639ae600 13051500  ..G.[.."c.......
 0410 e31ec5fa 13051000 6f008000 13050000  ........o.......
 0420 b7250000 9b850589 5b01b122 8f24017c  .%......[..".$.|
 0430 0f24017d 8f20017e 5b11017f 67800000  .$.}. .~[...g...
 0440 5b110181 2340117e 2348817c 2340917c  [...#@.~#H.|#@.|
 0450 2348217b 2340317b 37e5ffff 1b050575  #H!{#@1{7......u
 0460 5b01a122 13050000 b7250000 9b850501  [..".....%......
 0470 db05b122 dba50504 23c80502 23c00502  ..."....#...#...
 0480 23c80500 23c00500 37767400 1b0616ef  #...#...7vt.....
 0490 1316f600 13063695 1316d600 130696b4  ......6.........
 04a0 1316c600 1306a675 b7260000 9b860601  .......u.&......
 04b0 db06d122 23b0c600 374667fc 1b0636f0  ..."#...7Fg...6.
 04c0 1316c600 1306d621 1316d600 1306b662  .......!.......b
 04d0 1316c600 1306464a b7260000 9b860602  ......FJ.&......
 04e0 db06d122 23b0c600 3756ce00 1b0636f3  ..."#...7V....6.
 04f0 1316d600 1306765c 1316e600 1306f633  ......v\.......3
 0500 1316c600 1306e6cd b7260000 9b860603  .........&......
 0510 db06d122 23b0c600 37062aff 1b0696eb  ..."#...7.*.....
 0520 1316e600 1306b6e3 1316c600 1306f6d6  ................
 0530 1316d600 13067669 b7260000 9b860604  ......vi.&......
 0540 db06d122 23b0c600 37160000 b7160000  ..."#...7.......
 0550 9b860601 db06d122 db84c610 13060008  ......."........
 0560 97060000 8fa6065a 13172500 db86e622  .......Z..%...."
 0570 83a60600 93964600 db86d522 03b70600  ......F...."....
 0580 93175500 5b84f422 2330e400 13e70701  ..U.[.."#0......
 0590 5b87e422 13051500 2340d700 e312c5fc  [.."....#@......
 05a0 37150000 db150101 db89a510 37160000  7...........7...
 05b0 5b85a9fe 93050000 97000000 e78080b7  [...............
 05c0 37160000 5b85a9fe db85a4fe 97000000  7...[...........
 05d0 e78080bf 0f250102 97000000 e7804007  .....%........@.
 05e0 93050500 13050000 639e0502 93040000  ........c.......
 05f0 1309f007 13840400 63822403 93041400  ........c.$.....
 0600 13955400 13650501 5b85a922 0f250500  ..T..e..[..".%..
 0610 97000000 e780c003 e30e05fc 1305e007  ................
 0620 33358500 b7250000 9b85058b 5b01b122  35...%......[.."
 0630 8f29017a 0f29017b 8f24017c 0f24017d  .).z.).{.$.|.$.}
 0640 8f20017e 5b11017f 67800000 5b0545fe  . .~[...g...[.E.
 0650 67800000 5b1101fe 23481100 23408100  g...[...#H..#@..
 0660 97000000 e78080bc 13040500 97000000  ................
 0670 e78040dd 97050000 8fa5c549 13151500  ..@........I....
 0680 13063000 23b0c500 97050000 8fa58549  ..0.#..........I
 0690 33658500 13160502 13560602 23b0c500  3e.......V..#...
 06a0 97050000 8fa50549 13061000 1b050500  .......I........
 06b0 2380c500 0f240100 8f200101 5b110102  #....$... ..[...
 06c0 67800000                             g...
Contents of section .data:
 06c8 01000000 01000000 01000000 01000000  ................
 06d8 02000000 02000000 03000000 00000000  ................
 06e8 01000000 00000000 03000000 00000000  ................
 06f8 00000000 03000000 03000000 00000000  ................
 0708 01000000 00000000 00000000 02000000  ................
 0718 02000000 00000000 02000000 01000000  ................
 0728 00000000 00000000 00000000 03000000  ................
 0738 02000000 00000000 01000000 01000000  ................
 0748 03000000 02000000 03000000 00000000  ................
 0758 02000000 02000000 00000000 00000000  ................
 0768 00000000 01000000 01000000 03000000  ................
 0778 00000000 00000000 01000000 03000000  ................
 0788 01000000 02000000 03000000 02000000  ................
 0798 02000000 00000000 02000000 01000000  ................
 07a8 00000000 03000000 01000000 01000000  ................
 07b8 03000000 03000000 02000000 02000000  ................
 07c8 00000000 01000000 03000000 02000000  ................
 07d8 02000000 01000000 01000000 03000000  ................
 07e8 02000000 02000000 00000000 01000000  ................
 07f8 01000000 03000000 00000000 01000000  ................
 0808 00000000 00000000 03000000 02000000  ................
 0818 02000000 03000000 03000000 01000000  ................
 0828 01000000 01000000 01000000 02000000  ................
 0838 01000000 01000000 02000000 01000000  ................
 0848 02000000 02000000 01000000 01000000  ................
 0858 03000000 01000000 01000000 03000000  ................
 0868 00000000 02000000 03000000 01000000  ................
 0878 01000000 03000000 02000000 03000000  ................
 0888 02000000 01000000 02000000 00000000  ................
 0898 02000000 02000000 02000000 03000000  ................
 08a8 00000000 03000000 01000000 00000000  ................
 08b8 03000000 02000000 01000000 00000000  ................
 08c8 01000000 01000000 01000000 01000000  ................
 08d8 02000000 02000000 03000000 00000000  ................
 08e8 01000000 00000000 03000000 00000000  ................
 08f8 00000000 03000000 03000000 00000000  ................
 0908 01000000 00000000 00000000 02000000  ................
 0918 02000000 00000000 02000000 01000000  ................
 0928 00000000 00000000 00000000 03000000  ................
 0938 02000000 00000000 01000000 01000000  ................
 0948 03000000 02000000 03000000 00000000  ................
 0958 02000000 02000000 00000000 00000000  ................
 0968 00000000 01000000 01000000 03000000  ................
 0978 00000000 00000000 01000000 03000000  ................
 0988 01000000 02000000 03000000 02000000  ................
 0998 02000000 00000000 02000000 01000000  ................
 09a8 00000000 03000000 01000000 01000000  ................
 09b8 03000000 03000000 02000000 02000000  ................
 09c8 00000000 01000000 03000000 02000000  ................
 09d8 02000000 01000000 01000000 03000000  ................
 09e8 02000000 02000000 00000000 01000000  ................
 09f8 01000000 03000000 00000000 01000000  ................
 0a08 00000000 00000000 03000000 02000000  ................
 0a18 02000000 03000000 03000000 01000000  ................
 0a28 01000000 01000000 01000000 02000000  ................
 0a38 01000000 01000000 02000000 01000000  ................
 0a48 02000000 02000000 01000000 01000000  ................
 0a58 03000000 01000000 01000000 03000000  ................
 0a68 00000000 02000000 03000000 01000000  ................
 0a78 01000000 03000000 02000000 03000000  ................
 0a88 02000000 01000000 02000000 00000000  ................
 0a98 02000000 02000000 02000000 03000000  ................
 0aa8 00000000 03000000 01000000 00000000  ................
 0ab8 03000000 02000000 01000000 00000000  ................
Contents of section .captable:
 0ad0 00000000 00000000 00000000 00000000  ................
 0ae0 00000000 00000000 00000000 00000000  ................
 0af0 00000000 00000000 00000000 00000000  ................
 0b00 00000000 00000000 00000000 00000000  ................
 0b10 00000000 00000000 00000000 00000000  ................
 0b20 00000000 00000000 00000000 00000000  ................
 0b30 00000000 00000000 00000000 00000000  ................
Contents of section .debug_loc:
 0000 00000000 00000000 08000000 00000000  ................
 0010 03001100 9f080000 00000000 00180000  ................
 0020 00000000 0001005d 00000000 00000000  .......]........
 0030 00000000 00000000 1c000000 00000000  ................
 0040 24000000 00000000 01005b00 00000000  $.........[.....
 0050 00000000 00000000 0000001c 00000000  ................
 0060 00000024 00000000 00000001 005a2400  ...$.........Z$.
 0070 00000000 00003c00 00000000 00000100  ......<.........
 0080 5d000000 00000000 00000000 00000000  ]...............
 0090 00500000 00000000 00540000 00000000  .P.......T......
 00a0 0001005e 00000000 00000000 00000000  ...^............
 00b0 00000000 54000000 00000000 60000000  ....T.......`...
 00c0 00000000 01005e00 00000000 00000000  ......^.........
 00d0 00000000 00000078 00000000 00000090  .......x........
 00e0 00000000 00000001 005d0000 00000000  .........]......
 00f0 00000000 00000000 00007c00 00000000  ..........|.....
 0100 00009000 00000000 00000200 90680000  .............h..
 0110 00000000 00000000 00000000 0000a400  ................
 0120 00000000 0000a800 00000000 00000100  ................
 0130 5e000000 00000000 00000000 00000000  ^...............
 0140 00a80000 00000000 00c40000 00000000  ................
 0150 0001005e 00000000 00000000 00000000  ...^............
 0160 00000000 b0000000 00000000 d4000000  ................
 0170 00000000 01005f00 00000000 00000000  ......_.........
 0180 00000000 000000dc 00000000 000000f4  ................
 0190 00000000 00000001 005d0000 00000000  .........]......
 01a0 00000000 00000000 0000e000 00000000  ................
 01b0 0000f400 00000000 00000200 90680000  .............h..
 01c0 00000000 00000000 00000000 00004802  ..............H.
 01d0 00000000 00005002 00000000 00000100  ......P.........
 01e0 5a000000 00000000 00000000 00000000  Z...............
 01f0 00700200 00000000 00bc0200 00000000  .p..............
 0200 00030072 109fdc02 00000000 00001003  ...r............
 0210 00000000 00000300 72109f00 00000000  ........r.......
 0220 00000000 00000000 00000070 02000000  ...........p....
 0230 000000bc 02000000 00000004 00729020  .............r. 
 0240 9fdc0200 00000000 00100300 00000000  ................
 0250 00040072 90209f00 00000000 00000000  ...r. ..........
 0260 00000000 0000009c 02000000 000000bc  ................
 0270 02000000 00000001 005ae002 00000000  .........Z......
 0280 0000e402 00000000 00000100 5a000000  ............Z...
 0290 00000000 00000000 00000000 00680400  .............h..
 02a0 00000000 00700400 00000000 0001005a  .....p.........Z
 02b0 00000000 00000000 00000000 00000000  ................
 02c0 90040000 00000000 1c050000 00000000  ................
 02d0 03007210 9f000000 00000000 00000000  ..r.............
 02e0 00000000 00900400 00000000 001c0500  ................
 02f0 00000000 00040072 90209f00 00000000  .......r. ......
 0300 00000000 00000000 000000a4 04000000  ................
 0310 000000b4 04000000 00000002 00309fb4  .............0..
 0320 04000000 000000c4 04000000 00000002  ................
 0330 00319fc8 04000000 000000e8 04000000  .1..............
 0340 00000006 00780011 01229fe8 04000000  .....x..."......
 0350 000000ec 04000000 00000006 00780011  .............x..
 0360 02229f00 00000000 00000000 00000000  ."..............
 0370 0000001c 05000000 00000020 05000000  ........... ....
 0380 00000001 005a0000 00000000 00000000  .....Z..........
 0390 00000000 00003005 00000000 00003c05  ......0.......<.
 03a0 00000000 00000200 309f3c05 00000000  ........0.<.....
 03b0 00004405 00000000 00000a00 780010ff  ..D.........x...
 03c0 ffffff0f 1a9f6c05 00000000 00007005  ......l.......p.
 03d0 00000000 00000100 5c000000 00000000  ........\.......
 03e0 00000000 00000000 00300500 00000000  .........0......
 03f0 003c0500 00000000 00020031 9f3c0500  .<.........1.<..
 0400 00000000 00440500 00000000 00020033  .....D.........3
 0410 9f000000 00000000 00000000 00000000  ................
 0420 00                                   .
Contents of section .debug_abbrev:
 0000 01110125 0e130503 0e10171b 0e110112  ...%............
 0010 06000002 2400030e 3e0b0b0b 0000030f  ....$...>.......
 0020 0049130b 0b000004 26004913 00000516  .I......&.I.....
 0030 00491303 0e3a0b3b 0b000006 1301360b  .I...:.;......6.
 0040 030e0b0b 3a0b3b0b 88010f00 00070d00  ....:.;.........
 0050 030e4913 3a0b3b0b 380b0000 082e0111  ..I.:.;.8.......
 0060 01120640 18974219 030e3a0b 3b0b4913  ...@..B...:.;.I.
 0070 3f190000 09050002 18030e3a 0b3b0b49  ?..........:.;.I
 0080 1300000a 34000218 030e3a0b 3b0b4913  ....4.....:.;.I.
 0090 00000b0b 01110112 0600000c 34000217  ............4...
 00a0 030e3a0b 3b0b4913 00000d05 00021703  ..:.;.I.........
 00b0 0e3a0b3b 0b491300 000e2e01 11011206  .:.;.I..........
 00c0 40189742 196e0e03 0e3a0b3b 0b3f1900  @..B.n...:.;.?..
 00d0 000f2e01 11011206 40189742 196e0e03  ........@..B.n..
 00e0 0e3a0b3b 0b49133f 19000010 34000218  .:.;.I.?....4...
 00f0 030e3a0b 3b054913 00001134 00021703  ..:.;.I....4....
 0100 0e3a0b3b 05491300 00123400 030e3a0b  .:.;.I....4...:.
 0110 3b054913 0000130b 01551700 00148982  ;.I......U......
 0120 01003113 11010000 152e0111 01120640  ..1............@
 0130 18974219 6e0e030e 3a0b3b05 49133f19  ..B.n...:.;.I.?.
 0140 0000162e 01110112 06401897 42196e0e  .........@..B.n.
 0150 030e3a0b 3b0b4913 0000172e 01110112  ..:.;.I.........
 0160 06401897 4219030e 3a0b3b05 49133f19  .@..B...:.;.I.?.
 0170 0000180f 000b0b00 00192600 00001a16  ..........&.....
 0180 00491303 0e00001b 01018742 19491300  .I.........B.I..
 0190 001c2100 4913220d 2f180000 1d240003  ..!.I."./....$..
 01a0 0e0b0b3e 0b00001e 01014913 00001f21  ...>......I....!
 01b0 00491337 0b000020 0d00030e 49133a0b  .I.7... ....I.:.
 01c0 3b0b8801 0f380b00 0000               ;....8....
Contents of section .debug_info:
 0000 ae050000 04000000 00000801 21010000  ............!...
 0010 2100b501 00000000 00004803 00003001  !.........H...0.
 0020 00000000 00009405 0000023b 00000008  ...........;....
 0030 01032a00 00001003 3d000000 10042a00  ..*.....=.....*.
 0040 0000054d 0000009c 02000001 32022900  ...M........2.).
 0050 00000708 035a0000 00100605 43030000  .....Z......C...
 0060 10038610 07100000 00710000 00038700  .........q......
 0070 00054d00 00003002 00000262 03820000  ..M...0....b....
 0080 0010052a 000000d2 02000002 e2039300  ...*............
 0090 00001004 82000000 08300100 00000000  .........0......
 00a0 001c0000 000152a8 02000003 080a0500  ......R.........
 00b0 0009015a 24000000 03080a05 00000901  ...Z$...........
 00c0 5b960100 0003080c 05000009 015cb300  [............\..
 00d0 00000308 42000000 0a037b00 9fdf0200  ....B.....{.....
 00e0 0003092a 0000000a 015af600 0000030a  ...*.....Z......
 00f0 31000000 0b300100 00000000 00180000  1....0..........
 0100 000c0000 00005700 0000030b 0c050000  ......W.........
 0110 0000084c 01000000 00000024 00000001  ...L.......$....
 0120 52ef0000 0003130a 05000009 015a2400  R............Z$.
 0130 00000313 0a050000 0d380000 00fe0000  .........8......
 0140 0003131a 05000009 015cb300 00000313  .........\......
 0150 42000000 0c5b0000 00f60000 00031431  B....[.........1
 0160 0000000a 015b0d03 00000315 37000000  .....[......7...
 0170 000e7001 00000000 00005400 00000152  ..p.......T....R
 0180 84020000 49000000 039c0901 5a380300  ....I.......Z8..
 0190 00039c7c 00000009 015bfe00 0000039c  ...|.....[......
 01a0 8d000000 09015cc4 02000003 9c420000  ......\......B..
 01b0 000b7c01 00000000 00002000 00000c91  ..|....... .....
 01c0 000000cc 03000003 a0420000 000cb400  .........B......
 01d0 0000f002 000003a1 42000000 000ba401  ........B.......
 01e0 00000000 00001800 00000cd7 00000000  ................
 01f0 00000003 b0420000 000cfa00 0000eb02  .....B..........
 0200 000003b2 21050000 00000ec4 01000000  ....!...........
 0210 00000064 00000001 52cc0000 00390200  ...d....R....9..
 0220 0003c409 015a3803 000003c4 7c000000  .....Z8.....|...
 0230 09015bfe 00000003 c48d0000 0009015c  ..[............\
 0240 c4020000 03c44200 00000bd0 01000000  ......B.........
 0250 00000030 0000000c 1e010000 cc030000  ...0............
 0260 03c74200 00000c41 010000f0 02000003  ..B....A........
 0270 c8420000 000c6401 00000201 000003d3  .B....d.........
 0280 42000000 000b0802 00000000 00001800  B...............
 0290 00000c87 01000000 00000003 e4420000  .............B..
 02a0 000caa01 0000eb02 000003e6 21050000  ............!...
 02b0 00000f28 02000000 00000018 02000001  ...(............
 02c0 52250300 00520200 0003f60c 0500000a  R%...R..........
 02d0 049190c0 00e50200 0003fa51 05000010  ...........Q....
 02e0 03919020 59000000 0316015d 05000010  ... Y......]....
 02f0 0291107f 00000003 1f015d05 000011f1  ..........].....
 0300 010000ad 01000003 22018d05 0000112b  ........"......+
 0310 0200008a 00000003 21018d05 00001214  ........!.......
 0320 03000003 03019305 00000b40 03000000  ...........@....
 0330 00000040 00000011 ce010000 57000000  ...@........W...
 0340 03170142 00000013 00000000 121b0100  ...B............
 0350 00031801 0c050000 00000bcc 03000000  ................
 0360 00000048 00000011 67020000 57000000  ...H....g...W...
 0370 03280142 00000000 14710100 00b40300  .(.B.....q......
 0380 00000000 00001540 04000000 0000000c  .......@........
 0390 02000001 52660000 00600200 00033601  ....Rf...`....6.
 03a0 0c050000 10049190 c000e502 0000033a  ...............:
 03b0 01510500 00100391 90205900 00000356  .Q....... Y....V
 03c0 015d0500 00100291 107f0000 00035f01  .]............_.
 03d0 5d050000 11c00200 00ad0100 00036201  ].............b.
 03e0 8d050000 11e50200 008a0000 00036101  ..............a.
 03f0 8d050000 12140300 00034301 93050000  ..........C.....
 0400 0b600500 00000000 00400000 00119d02  .`.......@......
 0410 00005700 00000357 01420000 00133000  ..W....W.B....0.
 0420 0000121b 01000003 58010c05 00000000  ........X.......
 0430 0bd40500 00000000 00500000 00110b03  .........P......
 0440 00005700 00000368 01420000 00136000  ..W....h.B....`.
 0450 000012ce 02000003 6a015400 00000000  ........j.T.....
 0460 140a0200 00d40500 00000000 00148804  ................
 0470 0000e005 00000000 00001488 04000018  ................
 0480 06000000 00000000 164c0600 00000000  .........L......
 0490 00080000 000152af 02000016 00000004  ......R.........
 04a0 52130500 000d7303 00001501 00000452  R.....s........R
 04b0 0a050000 00175406 00000000 00007000  ......T.......p.
 04c0 00000152 da020000 037c010c 05000011  ...R.....|......
 04d0 96030000 3c030000 037e019f 05000011  ....<....~......
 04e0 e9030000 d9030000 037f019f 05000014  ................
 04f0 b2020000 68060000 00000000 14860300  ....h...........
 0500 00740600 00000000 00001810 02af0000  .t..............
 0510 00050402 a3020000 02010320 05000010  ........... ....
 0520 19052c05 0000b900 00000563 1a350500  ..,........c.5..
 0530 00740200 001b2a00 00001c4a 05000000  .t....*....J....
 0540 0892a238 00311b38 1e001d92 00000008  ...8.1.8........
 0550 071e5a00 00001f4a 05000004 001e6905  ..Z....J......i.
 0560 00001f4a 05000080 000605c4 03000020  ...J........... 
 0570 038b1007 99010000 71000000 038d0020  ........q...... 
 0580 a6000000 54000000 038f1010 00036905  ....T.........i.
 0590 0000101e 0c050000 1f4a0500 00800005  .........J......
 05a0 aa050000 c4000000 0260021c 03000005  .........`......
 05b0 0800                                 ..
Contents of section .debug_ranges:
 0000 10020000 00000000 44020000 00000000  ........D.......
 0010 48020000 00000000 4c020000 00000000  H.......L.......
 0020 00000000 00000000 00000000 00000000  ................
 0030 30040000 00000000 64040000 00000000  0.......d.......
 0040 68040000 00000000 6c040000 00000000  h.......l.......
 0050 00000000 00000000 00000000 00000000  ................
 0060 a4040000 00000000 bc040000 00000000  ................
 0070 d0040000 00000000 ec040000 00000000  ................
 0080 00000000 00000000 00000000 00000000  ................
Contents of section .debug_str:
 0000 636f7069 65645f70 65725f69 74657200  copied_per_iter.
 0010 76616c75 65006368 6572695f 7461675f  value.cheri_tag_
 0020 67657400 64657374 006c6f6e 6720756e  get.dest.long un
 0030 7369676e 65642069 6e740075 6e736967  signed int.unsig
 0040 6e656420 63686172 00766563 746f725f  ned char.vector_
 0050 6d656d63 70790069 00736f75 7263655f  memcpy.i.source_
 0060 61727261 79005f5a 31397275 6e5f696e  array._Z19run_in
 0070 76616c69 64617465 5f746573 74760064  validate_testv.d
 0080 6573745f 61727261 79007372 635f7074  est_array.src_pt
 0090 72005f5f 41525241 595f5349 5a455f54  r.__ARRAY_SIZE_T
 00a0 5950455f 5f006261 73655f70 74720069  YPE__.base_ptr.i
 00b0 6e740063 6f756e74 00767569 6e74386d  nt.count.vuint8m
 00c0 385f7400 696e7436 345f7400 5f5a3234  8_t.int64_t._Z24
 00d0 76656374 6f725f6d 656d6370 795f696e  vector_memcpy_in
 00e0 76616c69 64617465 5068504b 686d006d  validatePhPKhm.m
 00f0 656d6370 79006465 73745f75 63007372  emcpy.dest_uc.sr
 0100 63006e75 6d5f3634 6269745f 656c656d  c.num_64bit_elem
 0110 656e7473 005f5f63 61700069 6e646578  ents.__cap.index
 0120 00636c61 6e672076 65727369 6f6e2031  .clang version 1
 0130 332e302e 30202873 73683a2f 2f676974  3.0.0 (ssh://git
 0140 40676974 6875622e 636f6d2f 74686574  @github.com/thet
 0150 7572626f 7475726e 69702f6c 6c766d2d  urboturnip/llvm-
 0160 70726f6a 6563742e 67697420 38383231  project.git 8821
 0170 33646366 31653962 63343534 66343731  3dcf1e9bc454f471
 0180 62396539 61386232 65646533 32356463  b9e9a8b2ede325dc
 0190 35653234 29006368 00657870 65637465  5e24).ch.expecte
 01a0 645f6261 73655f76 616c7565 00647374  d_base_value.dst
 01b0 5f707472 002f6d65 6469612f 636f6d6d  _ptr./media/comm
 01c0 6f6e2f55 6e697665 72736974 792f4564  on/University/Ed
 01d0 752f5965 6172345f 4d617374 6572732f  u/Year4_Masters/
 01e0 50726f6a 6563742f 72697363 762d762d  Project/riscv-v-
 01f0 6c697465 2f70726f 6772616d 732f7665  lite/programs/ve
 0200 63746f72 5f6d656d 6370795f 706f696e  ctor_memcpy_poin
 0210 74657273 2f766563 746f725f 6d656d63  ters/vector_memc
 0220 70795f70 6f696e74 6572732e 63707000  py_pointers.cpp.
 0230 75696e74 36345f74 00766563 746f725f  uint64_t.vector_
 0240 6d656d63 70795f69 6e76616c 69646174  memcpy_invalidat
 0250 65007275 6e5f6261 73655f74 65737400  e.run_base_test.
 0260 72756e5f 696e7661 6c696461 74655f74  run_invalidate_t
 0270 65737400 5f5f7276 765f7569 6e74386d  est.__rvv_uint8m
 0280 385f7400 5f5a3133 76656374 6f725f6d  8_t._Z13vector_m
 0290 656d6370 79506850 4b686d00 73697a65  emcpyPhPKhm.size
 02a0 5f740062 6f6f6c00 6d656d73 6574005f  _t.bool.memset._
 02b0 5a4c3133 63686572 695f7461 675f6765  ZL13cheri_tag_ge
 02c0 74507600 6e756d5f 62797465 73007074  tPv.num_bytes.pt
 02d0 72007569 6e74385f 74006d61 696e0063  r.uint8_t.main.c
 02e0 685f7563 00626173 65730064 61746100  h_uc.bases.data.
 02f0 636f7069 65645f31 32386269 745f656c  copied_128bit_el
 0300 656d735f 7065725f 69746572 00737263  ems_per_iter.src
 0310 5f756300 696e6469 63657300 6c6f6e67  _uc.indices.long
 0320 20696e74 005f5a31 3372756e 5f626173   int._Z13run_bas
 0330 655f7465 73747600 64737400 72657375  e_testv.dst.resu
 0340 6c740042 61736500 2f6d6564 69612f63  lt.Base./media/c
 0350 6f6d6d6f 6e2f556e 69766572 73697479  ommon/University
 0360 2f456475 2f596561 72345f4d 61737465  /Edu/Year4_Maste
 0370 72732f50 726f6a65 63742f72 69736376  rs/Project/riscv
 0380 2d762d6c 6974652f 70726f67 72616d73  -v-lite/programs
 0390 2f627569 6c642f6c 6c766d2d 31332d72  /build/llvm-13-r
 03a0 76363469 6d767863 68657269 2f766563  v64imvxcheri/vec
 03b0 746f725f 6d656d63 70795f70 6f696e74  tor_memcpy_point
 03c0 65727300 456c656d 656e7400 6e756d5f  ers.Element.num_
 03d0 656c656d 656e7473 00617474 656d7074  elements.attempt
 03e0 656400                               ed.
Contents of section .comment:
 0000 636c616e 67207665 7273696f 6e203133  clang version 13
 0010 2e302e30 20287373 683a2f2f 67697440  .0.0 (ssh://git@
 0020 67697468 75622e63 6f6d2f74 68657475  github.com/thetu
 0030 72626f74 75726e69 702f6c6c 766d2d70  rboturnip/llvm-p
 0040 726f6a65 63742e67 69742038 38323133  roject.git 88213
 0050 64636631 65396263 34353466 34373162  dcf1e9bc454f471b
 0060 39653961 38623265 64653332 35646335  9e9a8b2ede325dc5
 0070 65323429 00004c69 6e6b6572 3a204c4c  e24)..Linker: LL
 0080 44203133 2e302e30 20287373 683a2f2f  D 13.0.0 (ssh://
 0090 67697440 67697468 75622e63 6f6d2f74  git@github.com/t
 00a0 68657475 72626f74 75726e69 702f6c6c  heturboturnip/ll
 00b0 766d2d70 726f6a65 63742e67 69742038  vm-project.git 8
 00c0 38323133 64636631 65396263 34353466  8213dcf1e9bc454f
 00d0 34373162 39653961 38623265 64653332  471b9e9a8b2ede32
 00e0 35646335 65323429 00                 5dc5e24).
Contents of section .riscv.attributes:
 0000 413c0000 00726973 63760001 32000000  A<...riscv..2...
 0010 04100572 76363469 3270305f 6d327030  ...rv64i2p0_m2p0
 0020 5f763070 31305f7a 766c7373 65673070  _v0p10_zvlsseg0p
 0030 31305f78 63686572 69307030 00        10_xcheri0p0.
Contents of section .debug_frame:
 0000 14000000 ffffffff 04000800 0178010c  .............x..
 0010 02000000 00000000 14000000 00000000  ................
 0020 30010000 00000000 1c000000 00000000  0...............
 0030 14000000 00000000 4c010000 00000000  ........L.......
 0040 24000000 00000000 14000000 00000000  $...............
 0050 70010000 00000000 54000000 00000000  p.......T.......
 0060 14000000 00000000 c4010000 00000000  ................
 0070 64000000 00000000 24000000 00000000  d.......$.......
 0080 28020000 00000000 18020000 00000000  (...............
 0090 440ef00f 4c810288 0489064c 0e804100  D...L......L..A.
 00a0 2c000000 00000000 40040000 00000000  ,.......@.......
 00b0 0c020000 00000000 440ef00f 54810288  ........D...T...
 00c0 04890692 08930a4c 0ea04100 00000000  .......L..A.....
 00d0 14000000 00000000 4c060000 00000000  ........L.......
 00e0 08000000 00000000 1c000000 00000000  ................
 00f0 54060000 00000000 70000000 00000000  T.......p.......
 0100 440e2048 81028804                    D. H....
Contents of section .debug_line:
 0000 05050000 0400fe00 00000101 01fb0e0d  ................
 0010 00010101 01000000 01000001 2f686f6d  ............/hom
 0020 652f7361 6d75656c 2f636865 72692f6f  e/samuel/cheri/o
 0030 75747075 742f7364 6b2f6c69 622f636c  utput/sdk/lib/cl
 0040 616e672f 31332e30 2e302f69 6e636c75  ang/13.0.0/inclu
 0050 6465002f 6d656469 612f636f 6d6d6f6e  de./media/common
 0060 2f556e69 76657273 6974792f 4564752f  /University/Edu/
 0070 59656172 345f4d61 73746572 732f5072  Year4_Masters/Pr
 0080 6f6a6563 742f7269 7363762d 762d6c69  oject/riscv-v-li
 0090 74652f70 726f6772 616d7300 00737464  te/programs..std
 00a0 6465662e 68000100 00737464 696e742e  def.h....stdint.
 00b0 68000100 00766563 746f725f 6d656d63  h....vector_memc
 00c0 70795f70 6f696e74 6572732f 76656374  py_pointers/vect
 00d0 6f725f6d 656d6370 795f706f 696e7465  or_memcpy_pointe
 00e0 72732e63 70700002 00006368 6572692e  rs.cpp....cheri.
 00f0 68000100 00726973 63765f76 6563746f  h....riscv_vecto
 0100 722e6800 01000000 04030009 02300100  r.h..........0..
 0110 00000000 00190505 0a030309 00000106  ................
 0120 03750904 00010513 06030c09 04000105  .u..............
 0130 21037f09 04000105 18030109 04000105  !...............
 0140 05037f09 04000103 04090400 01050003  ................
 0150 04090400 0105050a 03030900 00010603  ................
 0160 6a090400 01051406 03170904 00010512  j...............
 0170 06030009 04000105 10060301 09040001  ................
 0180 050e0302 09040001 050f037f 09040001  ................
 0190 0505037d 09040001 03060904 00010500  ...}............
 01a0 03800109 04000105 050a0303 09040001  ................
 01b0 0603e17e 09040001 05290603 a0010904  ...~.....)......
 01c0 00010509 03040904 00010301 09040001  ................
 01d0 03010904 0001052d 03020904 0001050d  .......-........
 01e0 06030009 04000105 13060302 09040001  ................
 01f0 050d037f 09040001 05050376 09040001  ...........v....
 0200 03100904 00010522 03010904 00010509  ......."........
 0210 03040904 00010301 09040001 050d0306  ................
 0220 09040001 05130302 09040001 050d037f  ................
 0230 09040001 05050373 09040001 05010310  .......s........
 0240 09040001 05000305 09040001 05050a03  ................
 0250 02090400 010603ba 7e090400 01052906  ........~.....).
 0260 03c70109 04000105 09030509 04000103  ................
 0270 01090400 01052703 06090400 01050903  ......'.........
 0280 01090400 01030209 04000103 04090400  ................
 0290 01030109 04000105 2d030209 04000105  ........-.......
 02a0 0d060300 09040001 05130603 02090400  ................
 02b0 01050d03 7f090400 01050503 68090400  ............h...
 02c0 01031d09 04000105 22030109 04000105  ........".......
 02d0 09030409 04000103 01090400 01050d03  ................
 02e0 06090400 01051303 02090400 01050d03  ................
 02f0 7f090400 01050503 73090400 01050103  ........s.......
 0300 10090400 01050003 03090400 01050a0a  ................
 0310 03040930 00010515 031e09e8 00010524  ...0...........$
 0320 03020914 00010531 06030009 08000105  .......1........
 0330 1906037f 09040001 0522037e 09140001  .........".~....
 0340 05190302 09040001 0505037e 09040001  ...........~....
 0350 0603e97d 09040001 050d0603 9f02090c  ...}............
 0360 00010505 03060914 00010603 db7d0914  .............}..
 0370 0001051b 0603ab02 09180001 05250603  .............%..
 0380 00091000 01053c03 00090400 01054e06  ......<.......N.
 0390 0303090c 00010548 06030009 14000103  .......H........
 03a0 d27d0908 00010505 0603a802 09080001  .}..............
 03b0 0603d87d 09040001 05010603 b302090c  ...}............
 03c0 00010500 03030920 0001050a 0a030409  ....... ........
 03d0 38000105 15031e09 e8000105 24030209  8...........$...
 03e0 14000105 31060300 09080001 05190603  ....1...........
 03f0 7f090400 01052203 7e091400 01051903  ......".~.......
 0400 02090400 01050503 7e090400 010603a9  ........~.......
 0410 7d090400 01050d06 03df0209 0c000105  }...............
 0420 05030609 14000105 3b030509 14000105  ........;.......
 0430 0d030109 04000106 03957d09 0c000105  ..........}.....
 0440 050603e8 02091400 01050006 03987d09  ..............}.
 0450 04000105 3b0603ea 02090400 01050d03  ....;...........
 0460 01091000 01060395 7d090800 01051a06  ........}.......
 0470 03e80209 08000105 01030809 04000104  ................
 0480 04050003 e27d0928 00010501 0a030009  .....}.(........
 0490 00000104 03050003 ab020908 00010a03  ................
 04a0 837d0904 0001050f 03820309 08000103  .}..............
 04b0 04090c00 01051903 03090800 01052503  ..............%.
 04c0 7d090800 01051903 03090800 01030109  }...............
 04d0 04000105 0c037c09 08000105 19030409  ......|.........
 04e0 0c000105 0e030109 04000105 05030109  ................
 04f0 0c000105 0e037f09 04000105 05030109  ................
 0500 04000109 10000001 01                 .........
Contents of section .symtab:
 0000 00000000 00000000 00000000 00000000  ................
 0010 00000000 00000000 01000000 00000200  ................
 0020 18010000 00000000 00000000 00000000  ................
 0030 00000000 00000200 18010000 00000000  ................
 0040 00000000 00000000 00000000 00000200  ................
 0050 20010000 00000000 00000000 00000000   ...............
 0060 07000000 00000200 2c010000 00000000  ........,.......
 0070 00000000 00000000 0b000000 0400f1ff  ................
 0080 00000000 00000000 00000000 00000000  ................
 0090 00000000 00000300 30010000 00000000  ........0.......
 00a0 00000000 00000000 00000000 00000300  ................
 00b0 30010000 00000000 00000000 00000000  0...............
 00c0 00000000 00000300 30010000 00000000  ........0.......
 00d0 00000000 00000000 00000000 00000300  ................
 00e0 30010000 00000000 00000000 00000000  0...............
 00f0 00000000 00000300 34010000 00000000  ........4.......
 0100 00000000 00000000 00000000 00000300  ................
 0110 38010000 00000000 00000000 00000000  8...............
 0120 00000000 00000300 38010000 00000000  ........8.......
 0130 00000000 00000000 00000000 00000300  ................
 0140 3c010000 00000000 00000000 00000000  <...............
 0150 00000000 00000300 40010000 00000000  ........@.......
 0160 00000000 00000000 00000000 00000300  ................
 0170 44010000 00000000 00000000 00000000  D...............
 0180 00000000 00000300 48010000 00000000  ........H.......
 0190 00000000 00000000 00000000 00000300  ................
 01a0 48010000 00000000 00000000 00000000  H...............
 01b0 00000000 00000300 4c010000 00000000  ........L.......
 01c0 00000000 00000000 00000000 00000300  ................
 01d0 4c010000 00000000 00000000 00000000  L...............
 01e0 00000000 00000300 4c010000 00000000  ........L.......
 01f0 00000000 00000000 00000000 00000300  ................
 0200 4c010000 00000000 00000000 00000000  L...............
 0210 00000000 00000300 4c010000 00000000  ........L.......
 0220 00000000 00000000 00000000 00000300  ................
 0230 4c010000 00000000 00000000 00000000  L...............
 0240 00000000 00000300 50010000 00000000  ........P.......
 0250 00000000 00000000 00000000 00000300  ................
 0260 54010000 00000000 00000000 00000000  T...............
 0270 00000000 00000300 54010000 00000000  ........T.......
 0280 00000000 00000000 00000000 00000300  ................
 0290 58010000 00000000 00000000 00000000  X...............
 02a0 00000000 00000300 5c010000 00000000  ........\.......
 02b0 00000000 00000000 00000000 00000300  ................
 02c0 60010000 00000000 00000000 00000000  `...............
 02d0 00000000 00000300 64010000 00000000  ........d.......
 02e0 00000000 00000000 00000000 00000300  ................
 02f0 68010000 00000000 00000000 00000000  h...............
 0300 00000000 00000300 6c010000 00000000  ........l.......
 0310 00000000 00000000 00000000 00000300  ................
 0320 6c010000 00000000 00000000 00000000  l...............
 0330 00000000 00000300 70010000 00000000  ........p.......
 0340 00000000 00000000 00000000 00000300  ................
 0350 70010000 00000000 00000000 00000000  p...............
 0360 00000000 00000300 70010000 00000000  ........p.......
 0370 00000000 00000000 00000000 00000300  ................
 0380 70010000 00000000 00000000 00000000  p...............
 0390 00000000 00000300 70010000 00000000  ........p.......
 03a0 00000000 00000000 00000000 00000300  ................
 03b0 74010000 00000000 00000000 00000000  t...............
 03c0 00000000 00000300 78010000 00000000  ........x.......
 03d0 00000000 00000000 00000000 00000300  ................
 03e0 7c010000 00000000 00000000 00000000  |...............
 03f0 00000000 00000300 7c010000 00000000  ........|.......
 0400 00000000 00000000 00000000 00000300  ................
 0410 80010000 00000000 00000000 00000000  ................
 0420 00000000 00000300 80010000 00000000  ................
 0430 00000000 00000000 00000000 00000300  ................
 0440 84010000 00000000 00000000 00000000  ................
 0450 00000000 00000300 84010000 00000000  ................
 0460 00000000 00000000 00000000 00000300  ................
 0470 88010000 00000000 00000000 00000000  ................
 0480 00000000 00000300 8c010000 00000000  ................
 0490 00000000 00000000 00000000 00000300  ................
 04a0 90010000 00000000 00000000 00000000  ................
 04b0 00000000 00000300 90010000 00000000  ................
 04c0 00000000 00000000 00000000 00000300  ................
 04d0 94010000 00000000 00000000 00000000  ................
 04e0 00000000 00000300 98010000 00000000  ................
 04f0 00000000 00000000 00000000 00000300  ................
 0500 9c010000 00000000 00000000 00000000  ................
 0510 00000000 00000300 9c010000 00000000  ................
 0520 00000000 00000000 00000000 00000300  ................
 0530 a0010000 00000000 00000000 00000000  ................
 0540 00000000 00000300 a4010000 00000000  ................
 0550 00000000 00000000 00000000 00000300  ................
 0560 a4010000 00000000 00000000 00000000  ................
 0570 00000000 00000300 a8010000 00000000  ................
 0580 00000000 00000000 00000000 00000300  ................
 0590 a8010000 00000000 00000000 00000000  ................
 05a0 00000000 00000300 ac010000 00000000  ................
 05b0 00000000 00000000 00000000 00000300  ................
 05c0 ac010000 00000000 00000000 00000000  ................
 05d0 00000000 00000300 b0010000 00000000  ................
 05e0 00000000 00000000 00000000 00000300  ................
 05f0 b4010000 00000000 00000000 00000000  ................
 0600 00000000 00000300 b8010000 00000000  ................
 0610 00000000 00000000 00000000 00000300  ................
 0620 bc010000 00000000 00000000 00000000  ................
 0630 00000000 00000300 bc010000 00000000  ................
 0640 00000000 00000000 00000000 00000300  ................
 0650 c0010000 00000000 00000000 00000000  ................
 0660 00000000 00000300 c0010000 00000000  ................
 0670 00000000 00000000 00000000 00000300  ................
 0680 c4010000 00000000 00000000 00000000  ................
 0690 00000000 00000300 c4010000 00000000  ................
 06a0 00000000 00000000 00000000 00000300  ................
 06b0 c4010000 00000000 00000000 00000000  ................
 06c0 00000000 00000300 c4010000 00000000  ................
 06d0 00000000 00000000 00000000 00000300  ................
 06e0 c4010000 00000000 00000000 00000000  ................
 06f0 00000000 00000300 c8010000 00000000  ................
 0700 00000000 00000000 00000000 00000300  ................
 0710 cc010000 00000000 00000000 00000000  ................
 0720 00000000 00000300 d0010000 00000000  ................
 0730 00000000 00000000 00000000 00000300  ................
 0740 d0010000 00000000 00000000 00000000  ................
 0750 00000000 00000300 d4010000 00000000  ................
 0760 00000000 00000000 00000000 00000300  ................
 0770 d4010000 00000000 00000000 00000000  ................
 0780 00000000 00000300 d8010000 00000000  ................
 0790 00000000 00000000 00000000 00000300  ................
 07a0 d8010000 00000000 00000000 00000000  ................
 07b0 00000000 00000300 dc010000 00000000  ................
 07c0 00000000 00000000 00000000 00000300  ................
 07d0 e0010000 00000000 00000000 00000000  ................
 07e0 00000000 00000300 e0010000 00000000  ................
 07f0 00000000 00000000 00000000 00000300  ................
 0800 e4010000 00000000 00000000 00000000  ................
 0810 00000000 00000300 e8010000 00000000  ................
 0820 00000000 00000000 00000000 00000300  ................
 0830 ec010000 00000000 00000000 00000000  ................
 0840 00000000 00000300 f0010000 00000000  ................
 0850 00000000 00000000 00000000 00000300  ................
 0860 f4010000 00000000 00000000 00000000  ................
 0870 00000000 00000300 f4010000 00000000  ................
 0880 00000000 00000000 00000000 00000300  ................
 0890 f8010000 00000000 00000000 00000000  ................
 08a0 00000000 00000300 fc010000 00000000  ................
 08b0 00000000 00000000 00000000 00000300  ................
 08c0 00020000 00000000 00000000 00000000  ................
 08d0 00000000 00000300 00020000 00000000  ................
 08e0 00000000 00000000 00000000 00000300  ................
 08f0 04020000 00000000 00000000 00000000  ................
 0900 00000000 00000300 04020000 00000000  ................
 0910 00000000 00000000 00000000 00000300  ................
 0920 08020000 00000000 00000000 00000000  ................
 0930 00000000 00000300 08020000 00000000  ................
 0940 00000000 00000000 00000000 00000300  ................
 0950 0c020000 00000000 00000000 00000000  ................
 0960 00000000 00000300 0c020000 00000000  ................
 0970 00000000 00000000 00000000 00000300  ................
 0980 10020000 00000000 00000000 00000000  ................
 0990 00000000 00000300 10020000 00000000  ................
 09a0 00000000 00000000 00000000 00000300  ................
 09b0 14020000 00000000 00000000 00000000  ................
 09c0 00000000 00000300 18020000 00000000  ................
 09d0 00000000 00000000 00000000 00000300  ................
 09e0 1c020000 00000000 00000000 00000000  ................
 09f0 00000000 00000300 20020000 00000000  ........ .......
 0a00 00000000 00000000 00000000 00000300  ................
 0a10 20020000 00000000 00000000 00000000   ...............
 0a20 00000000 00000300 24020000 00000000  ........$.......
 0a30 00000000 00000000 00000000 00000300  ................
 0a40 24020000 00000000 00000000 00000000  $...............
 0a50 00000000 00000300 28020000 00000000  ........(.......
 0a60 00000000 00000000 00000000 00000300  ................
 0a70 28020000 00000000 00000000 00000000  (...............
 0a80 00000000 00000300 28020000 00000000  ........(.......
 0a90 00000000 00000000 00000000 00000300  ................
 0aa0 28020000 00000000 00000000 00000000  (...............
 0ab0 00000000 00000300 28020000 00000000  ........(.......
 0ac0 00000000 00000000 00000000 00000300  ................
 0ad0 2c020000 00000000 00000000 00000000  ,...............
 0ae0 00000000 00000300 38020000 00000000  ........8.......
 0af0 00000000 00000000 00000000 00000300  ................
 0b00 38020000 00000000 00000000 00000000  8...............
 0b10 00000000 00000300 44020000 00000000  ........D.......
 0b20 00000000 00000000 00000000 00000300  ................
 0b30 58020000 00000000 00000000 00000000  X...............
 0b40 26000000 00000300 40030000 00000000  &.......@.......
 0b50 00000000 00000000 00000000 00000300  ................
 0b60 40030000 00000000 00000000 00000000  @...............
 0b70 2e000000 01000400 c8060000 00000000  ................
 0b80 00020000 00000000 00000000 00000300  ................
 0b90 40030000 00000000 00000000 00000000  @...............
 0ba0 00000000 00000300 54030000 00000000  ........T.......
 0bb0 00000000 00000000 00000000 00000300  ................
 0bc0 5c030000 00000000 00000000 00000000  \...............
 0bd0 00000000 00000300 60030000 00000000  ........`.......
 0be0 00000000 00000000 00000000 00000300  ................
 0bf0 74030000 00000000 00000000 00000000  t...............
 0c00 00000000 00000300 74030000 00000000  ........t.......
 0c10 00000000 00000000 00000000 00000300  ................
 0c20 78030000 00000000 00000000 00000000  x...............
 0c30 00000000 00000300 78030000 00000000  ........x.......
 0c40 00000000 00000000 00000000 00000300  ................
 0c50 7c030000 00000000 00000000 00000000  |...............
 0c60 00000000 00000300 7c030000 00000000  ........|.......
 0c70 00000000 00000000 00000000 00000300  ................
 0c80 80030000 00000000 00000000 00000000  ................
 0c90 00000000 00000300 80030000 00000000  ................
 0ca0 00000000 00000000 00000000 00000300  ................
 0cb0 8c030000 00000000 00000000 00000000  ................
 0cc0 00000000 00000300 a0030000 00000000  ................
 0cd0 00000000 00000000 00000000 00000300  ................
 0ce0 a0030000 00000000 00000000 00000000  ................
 0cf0 00000000 00000300 b4030000 00000000  ................
 0d00 00000000 00000000 00000000 00000300  ................
 0d10 b4030000 00000000 00000000 00000000  ................
 0d20 00000000 00000300 cc030000 00000000  ................
 0d30 00000000 00000000 00000000 00000300  ................
 0d40 cc030000 00000000 00000000 00000000  ................
 0d50 00000000 00000300 dc030000 00000000  ................
 0d60 00000000 00000000 00000000 00000300  ................
 0d70 e0030000 00000000 00000000 00000000  ................
 0d80 00000000 00000300 ec030000 00000000  ................
 0d90 00000000 00000000 53000000 00000300  ........S.......
 0da0 ec030000 00000000 00000000 00000000  ................
 0db0 00000000 00000300 ec030000 00000000  ................
 0dc0 00000000 00000000 00000000 00000300  ................
 0dd0 00040000 00000000 00000000 00000000  ................
 0de0 00000000 00000300 08040000 00000000  ................
 0df0 00000000 00000000 00000000 00000300  ................
 0e00 0c040000 00000000 00000000 00000000  ................
 0e10 00000000 00000300 10040000 00000000  ................
 0e20 00000000 00000000 00000000 00000300  ................
 0e30 10040000 00000000 00000000 00000000  ................
 0e40 00000000 00000300 14040000 00000000  ................
 0e50 00000000 00000000 00000000 00000300  ................
 0e60 14040000 00000000 00000000 00000000  ................
 0e70 00000000 00000300 20040000 00000000  ........ .......
 0e80 00000000 00000000 00000000 00000300  ................
 0e90 40040000 00000000 00000000 00000000  @...............
 0ea0 00000000 00000300 40040000 00000000  ........@.......
 0eb0 00000000 00000000 00000000 00000300  ................
 0ec0 40040000 00000000 00000000 00000000  @...............
 0ed0 00000000 00000300 40040000 00000000  ........@.......
 0ee0 00000000 00000000 00000000 00000300  ................
 0ef0 40040000 00000000 00000000 00000000  @...............
 0f00 00000000 00000300 44040000 00000000  ........D.......
 0f10 00000000 00000000 00000000 00000300  ................
 0f20 58040000 00000000 00000000 00000000  X...............
 0f30 00000000 00000300 58040000 00000000  ........X.......
 0f40 00000000 00000000 00000000 00000300  ................
 0f50 64040000 00000000 00000000 00000000  d...............
 0f60 00000000 00000300 78040000 00000000  ........x.......
 0f70 00000000 00000000 5c000000 00000300  ........\.......
 0f80 60050000 00000000 00000000 00000000  `...............
 0f90 00000000 00000300 60050000 00000000  ........`.......
 0fa0 00000000 00000000 64000000 01000400  ........d.......
 0fb0 c8080000 00000000 00020000 00000000  ................
 0fc0 00000000 00000300 60050000 00000000  ........`.......
 0fd0 00000000 00000000 00000000 00000300  ................
 0fe0 74050000 00000000 00000000 00000000  t...............
 0ff0 00000000 00000300 7c050000 00000000  ........|.......
 1000 00000000 00000000 00000000 00000300  ................
 1010 80050000 00000000 00000000 00000000  ................
 1020 00000000 00000300 94050000 00000000  ................
 1030 00000000 00000000 00000000 00000300  ................
 1040 94050000 00000000 00000000 00000000  ................
 1050 00000000 00000300 98050000 00000000  ................
 1060 00000000 00000000 00000000 00000300  ................
 1070 98050000 00000000 00000000 00000000  ................
 1080 00000000 00000300 9c050000 00000000  ................
 1090 00000000 00000000 00000000 00000300  ................
 10a0 9c050000 00000000 00000000 00000000  ................
 10b0 00000000 00000300 a0050000 00000000  ................
 10c0 00000000 00000000 00000000 00000300  ................
 10d0 a0050000 00000000 00000000 00000000  ................
 10e0 00000000 00000300 ac050000 00000000  ................
 10f0 00000000 00000000 00000000 00000300  ................
 1100 c0050000 00000000 00000000 00000000  ................
 1110 00000000 00000300 c0050000 00000000  ................
 1120 00000000 00000000 00000000 00000300  ................
 1130 d4050000 00000000 00000000 00000000  ................
 1140 00000000 00000300 d4050000 00000000  ................
 1150 00000000 00000000 8f000000 02000300  ................
 1160 4c060000 00000000 08000000 00000000  L...............
 1170 00000000 00000300 d8050000 00000000  ................
 1180 00000000 00000000 00000000 00000300  ................
 1190 e0050000 00000000 00000000 00000000  ................
 11a0 00000000 00000300 e4050000 00000000  ................
 11b0 00000000 00000000 00000000 00000300  ................
 11c0 e4050000 00000000 00000000 00000000  ................
 11d0 00000000 00000300 ec050000 00000000  ................
 11e0 00000000 00000000 00000000 00000300  ................
 11f0 f4050000 00000000 00000000 00000000  ................
 1200 00000000 00000300 f8050000 00000000  ................
 1210 00000000 00000000 00000000 00000300  ................
 1220 f8050000 00000000 00000000 00000000  ................
 1230 00000000 00000300 fc050000 00000000  ................
 1240 00000000 00000000 00000000 00000300  ................
 1250 00060000 00000000 00000000 00000000  ................
 1260 00000000 00000300 00060000 00000000  ................
 1270 00000000 00000000 00000000 00000300  ................
 1280 10060000 00000000 00000000 00000000  ................
 1290 00000000 00000300 18060000 00000000  ................
 12a0 00000000 00000000 00000000 00000300  ................
 12b0 18060000 00000000 00000000 00000000  ................
 12c0 00000000 00000300 1c060000 00000000  ................
 12d0 00000000 00000000 00000000 00000300  ................
 12e0 20060000 00000000 00000000 00000000   ...............
 12f0 00000000 00000300 24060000 00000000  ........$.......
 1300 00000000 00000000 00000000 00000300  ................
 1310 24060000 00000000 00000000 00000000  $...............
 1320 00000000 00000300 4c060000 00000000  ........L.......
 1330 00000000 00000000 00000000 00000300  ................
 1340 4c060000 00000000 00000000 00000000  L...............
 1350 00000000 00000300 4c060000 00000000  ........L.......
 1360 00000000 00000000 00000000 00000300  ................
 1370 4c060000 00000000 00000000 00000000  L...............
 1380 00000000 00000300 4c060000 00000000  ........L.......
 1390 00000000 00000000 00000000 00000300  ................
 13a0 4c060000 00000000 00000000 00000000  L...............
 13b0 00000000 00000300 50060000 00000000  ........P.......
 13c0 00000000 00000000 00000000 00000300  ................
 13d0 54060000 00000000 00000000 00000000  T...............
 13e0 00000000 00000300 54060000 00000000  ........T.......
 13f0 00000000 00000000 00000000 00000300  ................
 1400 54060000 00000000 00000000 00000000  T...............
 1410 00000000 00000300 54060000 00000000  ........T.......
 1420 00000000 00000000 00000000 00000300  ................
 1430 54060000 00000000 00000000 00000000  T...............
 1440 00000000 00000300 58060000 00000000  ........X.......
 1450 00000000 00000000 00000000 00000300  ................
 1460 58060000 00000000 00000000 00000000  X...............
 1470 00000000 00000300 60060000 00000000  ........`.......
 1480 00000000 00000000 00000000 00000300  ................
 1490 60060000 00000000 00000000 00000000  `...............
 14a0 00000000 00000300 60060000 00000000  ........`.......
 14b0 00000000 00000000 00000000 00000300  ................
 14c0 68060000 00000000 00000000 00000000  h...............
 14d0 00000000 00000300 6c060000 00000000  ........l.......
 14e0 00000000 00000000 00000000 00000300  ................
 14f0 6c060000 00000000 00000000 00000000  l...............
 1500 00000000 00000300 74060000 00000000  ........t.......
 1510 00000000 00000000 a4000000 00000300  ................
 1520 74060000 00000000 00000000 00000000  t...............
 1530 00000000 00000300 74060000 00000000  ........t.......
 1540 00000000 00000000 00000000 00000300  ................
 1550 7c060000 00000000 00000000 00000000  |...............
 1560 00000000 00000300 84060000 00000000  ................
 1570 00000000 00000000 ac000000 00000300  ................
 1580 88060000 00000000 00000000 00000000  ................
 1590 00000000 00000300 88060000 00000000  ................
 15a0 00000000 00000000 00000000 00000300  ................
 15b0 90060000 00000000 00000000 00000000  ................
 15c0 00000000 00000300 9c060000 00000000  ................
 15d0 00000000 00000000 00000000 00000300  ................
 15e0 9c060000 00000000 00000000 00000000  ................
 15f0 00000000 00000300 a0060000 00000000  ................
 1600 00000000 00000000 b4000000 00000300  ................
 1610 a0060000 00000000 00000000 00000000  ................
 1620 00000000 00000300 a0060000 00000000  ................
 1630 00000000 00000000 00000000 00000300  ................
 1640 ac060000 00000000 00000000 00000000  ................
 1650 00000000 00000300 b0060000 00000000  ................
 1660 00000000 00000000 00000000 00000300  ................
 1670 b4060000 00000000 00000000 00000000  ................
 1680 00000000 00000300 c4060000 00000000  ................
 1690 00000000 00000000 00000000 00000300  ................
 16a0 c4060000 00000000 00000000 00000000  ................
 16b0 00000000 00000600 00000000 00000000  ................
 16c0 00000000 00000000 00000000 00000600  ................
 16d0 38000000 00000000 00000000 00000000  8...............
 16e0 00000000 00000600 5b000000 00000000  ........[.......
 16f0 00000000 00000000 00000000 00000600  ................
 1700 91000000 00000000 00000000 00000000  ................
 1710 00000000 00000600 b4000000 00000000  ................
 1720 00000000 00000000 00000000 00000600  ................
 1730 d7000000 00000000 00000000 00000000  ................
 1740 00000000 00000600 fa000000 00000000  ................
 1750 00000000 00000000 00000000 00000600  ................
 1760 1e010000 00000000 00000000 00000000  ................
 1770 00000000 00000600 41010000 00000000  ........A.......
 1780 00000000 00000000 00000000 00000600  ................
 1790 64010000 00000000 00000000 00000000  d...............
 17a0 00000000 00000600 87010000 00000000  ................
 17b0 00000000 00000000 00000000 00000600  ................
 17c0 aa010000 00000000 00000000 00000000  ................
 17d0 00000000 00000600 ce010000 00000000  ................
 17e0 00000000 00000000 00000000 00000600  ................
 17f0 f1010000 00000000 00000000 00000000  ................
 1800 00000000 00000600 2b020000 00000000  ........+.......
 1810 00000000 00000000 00000000 00000600  ................
 1820 67020000 00000000 00000000 00000000  g...............
 1830 00000000 00000600 9d020000 00000000  ................
 1840 00000000 00000000 00000000 00000600  ................
 1850 c0020000 00000000 00000000 00000000  ................
 1860 00000000 00000600 e5020000 00000000  ................
 1870 00000000 00000000 00000000 00000600  ................
 1880 0b030000 00000000 00000000 00000000  ................
 1890 00000000 00000600 73030000 00000000  ........s.......
 18a0 00000000 00000000 00000000 00000600  ................
 18b0 96030000 00000000 00000000 00000000  ................
 18c0 00000000 00000600 e9030000 00000000  ................
 18d0 00000000 00000000 bc000000 00000e00  ................
 18e0 00000000 00000000 00000000 00000000  ................
 18f0 00000000 00000900 00000000 00000000  ................
 1900 00000000 00000000 00000000 00000900  ................
 1910 30000000 00000000 00000000 00000000  0...............
 1920 00000000 00000900 60000000 00000000  ........`.......
 1930 00000000 00000000 00000000 00000d00  ................
 1940 00000000 00000000 00000000 00000000  ................
 1950 00000000 00000300 c4060000 00000000  ................
 1960 00000000 00000000 84010000 00000500  ................
 1970 d00a0000 00000000 70000000 00000000  ........p.......
 1980 d0000000 1000f1ff e0ff0000 00000000  ................
 1990 00000000 00000000 d5000000 12000300  ................
 19a0 54060000 00000000 70000000 00000000  T.......p.......
 19b0 da000000 12000300 30010000 00000000  ........0.......
 19c0 1c000000 00000000 e1000000 12000300  ................
 19d0 4c010000 00000000 24000000 00000000  L.......$.......
 19e0 e8000000 12000300 70010000 00000000  ........p.......
 19f0 54000000 00000000 00010000 12000300  T...............
 1a00 c4010000 00000000 64000000 00000000  ........d.......
 1a10 23010000 12000300 28020000 00000000  #.......(.......
 1a20 18020000 00000000 36010000 12000300  ........6.......
 1a30 40040000 00000000 0c020000 00000000  @...............
 1a40 4f010000 1000f1ff 00000001 00000000  O...............
 1a50 00000000 00000000 5f010000 1000f1ff  ........_.......
 1a60 08000001 00000000 00000000 00000000  ................
 1a70 6f010000 1000f1ff 10000001 00000000  o...............
 1a80 00000000 00000000 78010000 1000f1ff  ........x.......
 1a90 00500200 00000000 00000000 00000000  .P..............
Contents of section .shstrtab:
 0000 005f5f63 61705f72 656c6f63 73002e74  .__cap_relocs..t
 0010 6578742e 696e6974 002e7465 7874002e  ext.init..text..
 0020 64617461 002e6361 70746162 6c65002e  data..captable..
 0030 64656275 675f6c6f 63002e64 65627567  debug_loc..debug
 0040 5f616262 72657600 2e646562 75675f69  _abbrev..debug_i
 0050 6e666f00 2e646562 75675f72 616e6765  nfo..debug_range
 0060 73002e64 65627567 5f737472 002e636f  s..debug_str..co
 0070 6d6d656e 74002e72 69736376 2e617474  mment..riscv.att
 0080 72696275 74657300 2e646562 75675f66  ributes..debug_f
 0090 72616d65 002e6465 6275675f 6c696e65  rame..debug_line
 00a0 002e7379 6d746162 002e7368 73747274  ..symtab..shstrt
 00b0 6162002e 73747274 616200             ab..strtab.
Contents of section .strtab:
 0000 00656e74 72790065 6e640076 6563746f  .entry.end.vecto
 0010 725f6d65 6d637079 5f706f69 6e746572  r_memcpy_pointer
 0020 732e6370 70002e4c 4242345f 39002e4c  s.cpp..LBB4_9..L
 0030 5f5f636f 6e73742e 5f5a3133 72756e5f  __const._Z13run_
 0040 62617365 5f746573 74762e69 6e646963  base_testv.indic
 0050 6573002e 4c424234 5f313000 2e4c4242  es..LBB4_10..LBB
 0060 355f3800 2e4c5f5f 636f6e73 742e5f5a  5_8..L__const._Z
 0070 31397275 6e5f696e 76616c69 64617465  19run_invalidate
 0080 5f746573 74762e69 6e646963 6573005f  _testv.indices._
 0090 5a4c3133 63686572 695f7461 675f6765  ZL13cheri_tag_ge
 00a0 74507600 2e4c4242 375f3100 2e4c4242  tPv..LBB7_1..LBB
 00b0 375f3200 2e4c4242 375f3300 2e4c6c69  7_2..LBB7_3..Lli
 00c0 6e655f74 61626c65 5f737461 72743000  ne_table_start0.
 00d0 5f5f7370 006d6169 6e006d65 6d736574  __sp.main.memset
 00e0 006d656d 63707900 5f5a3133 76656374  .memcpy._Z13vect
 00f0 6f725f6d 656d6370 79506850 4b686d00  or_memcpyPhPKhm.
 0100 5f5a3234 76656374 6f725f6d 656d6370  _Z24vector_memcp
 0110 795f696e 76616c69 64617465 5068504b  y_invalidatePhPK
 0120 686d005f 5a313372 756e5f62 6173655f  hm._Z13run_base_
 0130 74657374 76005f5a 31397275 6e5f696e  testv._Z19run_in
 0140 76616c69 64617465 5f746573 7476006f  validate_testv.o
 0150 75747075 74417474 656d7074 6564006f  utputAttempted.o
 0160 75747075 74537563 63656564 65640066  utputSucceeded.f
 0170 696e6973 68656400 72616d42 6f756e64  inished.ramBound
 0180 61727900 5f434845 52495f43 41504142  ary._CHERI_CAPAB
 0190 494c4954 595f5441 424c455f 00        ILITY_TABLE_.

Disassembly of section .text.init:

0000000000000118 <entry>:
     118: 17 11 00 00  	auipcc	csp, 1
     11c: 0f 21 81 9b  	clc	csp, -1608(csp)
     120: 17 13 00 00  	auipcc	ct1, 1
     124: 0f 23 03 9c  	clc	ct1, -1600(ct1)
     128: e7 00 03 00  	cjalr	ct1

000000000000012c <end>:
     12c: 6f 00 00 00  	j	0x12c <end>

Disassembly of section .text:

0000000000000130 <memset>:
;     for (int i = 0; i < count; i++) {
     130: 63 0c 06 00  	beqz	a2, 0x148 <memset+0x18>
     134: 93 06 00 00  	mv	a3, zero
;         *(dest_uc + i) = ch_uc;
     138: 5b 07 d5 22  	cincoffset	ca4, ca0, a3
;     for (int i = 0; i < count; i++) {
     13c: 93 86 16 00  	addi	a3, a3, 1
;         *(dest_uc + i) = ch_uc;
     140: 23 00 b7 00  	csb	a1, 0(ca4)
;     for (int i = 0; i < count; i++) {
     144: e3 1a d6 fe  	bne	a2, a3, 0x138 <memset+0x8>
;     return dest_uc;
     148: 67 80 00 00  	cret

000000000000014c <memcpy>:
;     while(count > 0) {
     14c: 63 00 06 02  	beqz	a2, 0x16c <memcpy+0x20>
     150: db 06 a5 fe  	cmove	ca3, ca0
;         *dest_uc = *src_uc;
     154: 03 87 05 00  	clb	a4, 0(ca1)
     158: 23 80 e6 00  	csb	a4, 0(ca3)
;         dest_uc++;
     15c: db 96 16 00  	cincoffset	ca3, ca3, 1
;         count--;
     160: 13 06 f6 ff  	addi	a2, a2, -1
;         src_uc++;
     164: db 95 15 00  	cincoffset	ca1, ca1, 1
;     while(count > 0) {
     168: e3 16 06 fe  	bnez	a2, 0x154 <memcpy+0x8>
;     return dest;
     16c: 67 80 00 00  	cret

0000000000000170 <_Z13vector_memcpyPhPKhm>:
; void vector_memcpy(uint8_t* dst, const uint8_t* src, size_t num_bytes) {
     170: 93 06 00 01  	addi	a3, zero, 16
;     while (num_bytes >= 16) {
     174: 63 66 d6 02  	bltu	a2, a3, 0x1a0 <_Z13vector_memcpyPhPKhm+0x30>
     178: 93 06 f0 00  	addi	a3, zero, 15
;         size_t num_elements = num_bytes / 16;
     17c: 13 57 46 00  	srli	a4, a2, 4
;         asm volatile ("vsetvli %0, %1, e128, m8, tu, mu" : "=r"(copied_128bit_elems_per_iter) : "r"(num_elements));
     180: 57 77 37 02  	<unknown>
;         asm volatile ("vle128.v v8, (%0)" :: ASM_PREG(src));
     184: 07 84 05 12  	<unknown>
;         asm volatile ("vse128.v v8, (%0)" :: ASM_PREG(dst));
     188: 27 04 05 12  	<unknown>
;         src += copied_128bit_elems_per_iter * 16;
     18c: 13 17 47 00  	slli	a4, a4, 4
     190: db 85 e5 22  	cincoffset	ca1, ca1, a4
;         num_bytes -= copied_128bit_elems_per_iter * 16;
     194: 33 06 e6 40  	sub	a2, a2, a4
;         dst += copied_128bit_elems_per_iter * 16;
     198: 5b 05 e5 22  	cincoffset	ca0, ca0, a4
;     while (num_bytes >= 16) {
     19c: e3 e0 c6 fe  	bltu	a3, a2, 0x17c <_Z13vector_memcpyPhPKhm+0xc>
;     while (num_bytes > 0) {
     1a0: 63 00 06 02  	beqz	a2, 0x1c0 <_Z13vector_memcpyPhPKhm+0x50>
;         size_t copied_per_iter = vsetvl_e8m8(num_bytes);
     1a4: d7 76 36 04  	<unknown>
;         asm volatile ("vle8.v %0, (%1)" : "=vr"(data) : ASM_PREG(src));
     1a8: 07 84 05 02  	<unknown>
;         asm volatile ("vse8.v %0, (%1)" :: "vr"(data),  ASM_PREG(dst));
     1ac: 27 04 05 02  	<unknown>
;         src += copied_per_iter;
     1b0: db 85 d5 22  	cincoffset	ca1, ca1, a3
;         num_bytes -= copied_per_iter;
     1b4: 33 06 d6 40  	sub	a2, a2, a3
;         dst += copied_per_iter;
     1b8: 5b 05 d5 22  	cincoffset	ca0, ca0, a3
;     while (num_bytes > 0) {
     1bc: e3 14 06 fe  	bnez	a2, 0x1a4 <_Z13vector_memcpyPhPKhm+0x34>
; }
     1c0: 67 80 00 00  	cret

00000000000001c4 <_Z24vector_memcpy_invalidatePhPKhm>:
; void vector_memcpy_invalidate(uint8_t __attribute__((aligned(16)))* dst, const uint8_t __attribute__((aligned(16)))* src, size_t num_bytes) {
     1c4: 93 06 00 01  	addi	a3, zero, 16
;     while (num_bytes >= 16) {
     1c8: 63 6e d6 02  	bltu	a2, a3, 0x204 <_Z24vector_memcpy_invalidatePhPKhm+0x40>
     1cc: 93 06 f0 00  	addi	a3, zero, 15
;         size_t num_elements = num_bytes / 16;
     1d0: 13 57 46 00  	srli	a4, a2, 4
;         asm volatile ("vsetvli %0, %1, e128, m4, tu, mu" : "=r"(copied_128bit_elems_per_iter) : "r"(num_elements));
     1d4: 57 77 27 02  	<unknown>
;         asm volatile ("vle128.v v8, (%0)" :: ASM_PREG(src));
     1d8: 07 84 05 12  	<unknown>
;         size_t num_64bit_elements = 2 * copied_128bit_elems_per_iter;
     1dc: 93 17 17 00  	slli	a5, a4, 1
;         asm volatile ("vsetvli x0, %0, e64, m8, tu, mu" :: "r"(num_64bit_elements));
     1e0: 57 f0 b7 01  	<unknown>
;         asm volatile ("vadd.vi v8, v8, 0");
     1e4: 57 34 80 02  	<unknown>
;         asm volatile ("vsetvli x0, x0, e128, m4, tu, mu");
     1e8: 57 70 20 02  	<unknown>
;         asm volatile ("vse128.v v8, (%0)" :: ASM_PREG(dst));
     1ec: 27 04 05 12  	<unknown>
;         src += copied_128bit_elems_per_iter * 16;
     1f0: 13 17 47 00  	slli	a4, a4, 4
     1f4: db 85 e5 22  	cincoffset	ca1, ca1, a4
;         num_bytes -= copied_128bit_elems_per_iter * 16;
     1f8: 33 06 e6 40  	sub	a2, a2, a4
;         dst += copied_128bit_elems_per_iter * 16;
     1fc: 5b 05 e5 22  	cincoffset	ca0, ca0, a4
;     while (num_bytes >= 16) {
     200: e3 e8 c6 fc  	bltu	a3, a2, 0x1d0 <_Z24vector_memcpy_invalidatePhPKhm+0xc>
;     while (num_bytes > 0) {
     204: 63 00 06 02  	beqz	a2, 0x224 <_Z24vector_memcpy_invalidatePhPKhm+0x60>
;         size_t copied_per_iter = vsetvl_e8m8(num_bytes);
     208: d7 76 36 04  	<unknown>
;         asm volatile ("vle8.v %0, (%1)" : "=vr"(data) : ASM_PREG(src));
     20c: 07 84 05 02  	<unknown>
;         asm volatile ("vse8.v %0, (%1)" :: "vr"(data),  ASM_PREG(dst));
     210: 27 04 05 02  	<unknown>
;         src += copied_per_iter;
     214: db 85 d5 22  	cincoffset	ca1, ca1, a3
;         num_bytes -= copied_per_iter;
     218: 33 06 d6 40  	sub	a2, a2, a3
;         dst += copied_per_iter;
     21c: 5b 05 d5 22  	cincoffset	ca0, ca0, a3
;     while (num_bytes > 0) {
     220: e3 14 06 fe  	bnez	a2, 0x208 <_Z24vector_memcpy_invalidatePhPKhm+0x44>
; }
     224: 67 80 00 00  	cret

0000000000000228 <_Z13run_base_testv>:
; int run_base_test(void) {
     228: 5b 11 01 81  	cincoffset	csp, csp, -2032
     22c: 23 40 11 7e  	csc	cra, 2016(csp)
     230: 23 48 81 7c  	csc	cs0, 2000(csp)
     234: 23 40 91 7c  	csc	cs1, 1984(csp)
     238: 37 e5 ff ff  	lui	a0, 1048574
     23c: 1b 05 05 77  	addiw	a0, a0, 1904
     240: 5b 01 a1 22  	cincoffset	csp, csp, a0
     244: 13 05 00 00  	mv	a0, zero
     248: b7 25 00 00  	lui	a1, 2
     24c: 9b 85 05 01  	addiw	a1, a1, 16
     250: db 05 b1 22  	cincoffset	ca1, csp, a1
     254: db a5 05 04  	csetbounds	ca1, ca1, 64
;     Base bases[4] = {
     258: 23 c8 05 02  	csc	cnull, 48(ca1)
     25c: 23 c0 05 02  	csc	cnull, 32(ca1)
     260: 23 c8 05 00  	csc	cnull, 16(ca1)
     264: 23 c0 05 00  	csc	cnull, 0(ca1)
     268: 37 76 74 00  	lui	a2, 1863
     26c: 1b 06 16 ef  	addiw	a2, a2, -271
     270: 13 16 f6 00  	slli	a2, a2, 15
     274: 13 06 36 95  	addi	a2, a2, -1709
     278: 13 16 d6 00  	slli	a2, a2, 13
     27c: 13 06 96 b4  	addi	a2, a2, -1207
     280: 13 16 c6 00  	slli	a2, a2, 12
     284: 13 06 a6 75  	addi	a2, a2, 1882
     288: b7 26 00 00  	lui	a3, 2
     28c: 9b 86 06 01  	addiw	a3, a3, 16
     290: db 06 d1 22  	cincoffset	ca3, csp, a3
     294: 23 b0 c6 00  	csd	a2, 0(ca3)
     298: 37 46 67 fc  	lui	a2, 1033844
     29c: 1b 06 36 f0  	addiw	a2, a2, -253
     2a0: 13 16 c6 00  	slli	a2, a2, 12
     2a4: 13 06 d6 21  	addi	a2, a2, 541
     2a8: 13 16 d6 00  	slli	a2, a2, 13
     2ac: 13 06 b6 62  	addi	a2, a2, 1579
     2b0: 13 16 c6 00  	slli	a2, a2, 12
     2b4: 13 06 46 4a  	addi	a2, a2, 1188
     2b8: b7 26 00 00  	lui	a3, 2
     2bc: 9b 86 06 02  	addiw	a3, a3, 32
     2c0: db 06 d1 22  	cincoffset	ca3, csp, a3
     2c4: 23 b0 c6 00  	csd	a2, 0(ca3)
     2c8: 37 56 ce 00  	lui	a2, 3301
     2cc: 1b 06 36 f3  	addiw	a2, a2, -205
     2d0: 13 16 d6 00  	slli	a2, a2, 13
     2d4: 13 06 76 5c  	addi	a2, a2, 1479
     2d8: 13 16 e6 00  	slli	a2, a2, 14
     2dc: 13 06 f6 33  	addi	a2, a2, 831
     2e0: 13 16 c6 00  	slli	a2, a2, 12
     2e4: 13 06 e6 cd  	addi	a2, a2, -802
     2e8: b7 26 00 00  	lui	a3, 2
     2ec: 9b 86 06 03  	addiw	a3, a3, 48
     2f0: db 06 d1 22  	cincoffset	ca3, csp, a3
     2f4: 23 b0 c6 00  	csd	a2, 0(ca3)
     2f8: 37 06 2a ff  	lui	a2, 1045152
     2fc: 1b 06 96 eb  	addiw	a2, a2, -327
     300: 13 16 e6 00  	slli	a2, a2, 14
     304: 13 06 b6 e3  	addi	a2, a2, -453
     308: 13 16 c6 00  	slli	a2, a2, 12
     30c: 13 06 f6 d6  	addi	a2, a2, -657
     310: 13 16 d6 00  	slli	a2, a2, 13
     314: 13 06 76 69  	addi	a2, a2, 1687
     318: b7 26 00 00  	lui	a3, 2
     31c: 9b 86 06 04  	addiw	a3, a3, 64
     320: db 06 d1 22  	cincoffset	ca3, csp, a3
     324: 23 b0 c6 00  	csd	a2, 0(ca3)
     328: 37 16 00 00  	lui	a2, 1
     32c: b7 16 00 00  	lui	a3, 1
     330: 9b 86 06 01  	addiw	a3, a3, 16
     334: db 06 d1 22  	cincoffset	ca3, csp, a3
     338: db 84 c6 10  	csetbounds	cs1, ca3, a2
     33c: 13 06 00 08  	addi	a2, zero, 128

0000000000000340 <.LBB4_9>:
;         int index = indices[i];
     340: 97 06 00 00  	auipcc	ca3, 0
     344: 8f a6 06 7b  	clc	ca3, 1968(ca3)
     348: 13 17 25 00  	slli	a4, a0, 2
     34c: db 86 e6 22  	cincoffset	ca3, ca3, a4
     350: 83 a6 06 00  	clw	a3, 0(ca3)
;             .expected_base_value = bases[index].value,
     354: 93 96 46 00  	slli	a3, a3, 4
     358: db 86 d5 22  	cincoffset	ca3, ca1, a3
     35c: 03 b7 06 00  	cld	a4, 0(ca3)
;         source_array[i] = Element {
     360: 93 17 55 00  	slli	a5, a0, 5
     364: 5b 84 f4 22  	cincoffset	cs0, cs1, a5
     368: 23 30 e4 00  	csd	a4, 0(cs0)
     36c: 13 e7 07 01  	ori	a4, a5, 16
     370: 5b 87 e4 22  	cincoffset	ca4, cs1, a4
;     for (size_t i = 0; i < 128; i++) {
     374: 13 05 15 00  	addi	a0, a0, 1
;         source_array[i] = Element {
     378: 23 40 d7 00  	csc	ca3, 0(ca4)
;     for (size_t i = 0; i < 128; i++) {
     37c: e3 12 c5 fc  	bne	a0, a2, 0x340 <.LBB4_9>
     380: 37 15 00 00  	lui	a0, 1
     384: db 15 01 01  	cincoffset	ca1, csp, 16
     388: 5b 84 a5 10  	csetbounds	cs0, ca1, a0
;     Element dest_array[128] = {0};
     38c: 37 16 00 00  	lui	a2, 1
     390: 5b 05 a4 fe  	cmove	ca0, cs0
     394: 93 05 00 00  	mv	a1, zero
     398: 97 00 00 00  	auipcc	cra, 0
     39c: e7 80 80 d9  	cjalr	-616(cra)
;     vector_memcpy((uint8_t*)dst_ptr, (const uint8_t*)src_ptr, sizeof(Element) * 128);
     3a0: 37 16 00 00  	lui	a2, 1
     3a4: 5b 05 a4 fe  	cmove	ca0, cs0
     3a8: db 85 a4 fe  	cmove	ca1, cs1
     3ac: 97 00 00 00  	auipcc	cra, 0
     3b0: e7 80 40 dc  	cjalr	-572(cra)
     3b4: 13 05 00 00  	mv	a0, zero
     3b8: b7 25 00 00  	lui	a1, 2
     3bc: 9b 85 05 01  	addiw	a1, a1, 16
     3c0: db 05 b1 22  	cincoffset	ca1, csp, a1
     3c4: db a5 05 04  	csetbounds	ca1, ca1, 64
     3c8: 13 06 00 08  	addi	a2, zero, 128
;         if (dest_array[i].base_ptr->value != dest_array[i].expected_base_value) {
     3cc: 13 17 55 00  	slli	a4, a0, 5
     3d0: 93 66 07 01  	ori	a3, a4, 16
     3d4: db 06 d4 22  	cincoffset	ca3, cs0, a3
     3d8: 8f a6 06 00  	clc	ca3, 0(ca3)
     3dc: 83 b7 06 00  	cld	a5, 0(ca3)
     3e0: 5b 07 e4 22  	cincoffset	ca4, cs0, a4
     3e4: 03 37 07 00  	cld	a4, 0(ca4)
     3e8: 63 9a e7 02  	bne	a5, a4, 0x41c <.LBB4_10+0x30>

00000000000003ec <.LBB4_10>:
;         if (dest_array[i].base_ptr != (Base* CAPABILITY_IF_SUPPORTED) &bases[indices[i]]) {
     3ec: 17 07 00 00  	auipcc	ca4, 0
     3f0: 0f 27 47 70  	clc	ca4, 1796(ca4)
     3f4: 93 17 25 00  	slli	a5, a0, 2
     3f8: 5b 07 f7 22  	cincoffset	ca4, ca4, a5
     3fc: 03 27 07 00  	clw	a4, 0(ca4)
     400: 13 17 47 00  	slli	a4, a4, 4
     404: 5b 87 e5 22  	cincoffset	ca4, ca1, a4
     408: 63 9a e6 00  	bne	a3, a4, 0x41c <.LBB4_10+0x30>
     40c: 13 05 15 00  	addi	a0, a0, 1
;     for (size_t i = 0; i < 128; i++) {
     410: e3 1e c5 fa  	bne	a0, a2, 0x3cc <.LBB4_9+0x8c>
     414: 13 05 10 00  	addi	a0, zero, 1
     418: 6f 00 80 00  	j	0x420 <.LBB4_10+0x34>
     41c: 13 05 00 00  	mv	a0, zero
; }
     420: b7 25 00 00  	lui	a1, 2
     424: 9b 85 05 89  	addiw	a1, a1, -1904
     428: 5b 01 b1 22  	cincoffset	csp, csp, a1
     42c: 8f 24 01 7c  	clc	cs1, 1984(csp)
     430: 0f 24 01 7d  	clc	cs0, 2000(csp)
     434: 8f 20 01 7e  	clc	cra, 2016(csp)
     438: 5b 11 01 7f  	cincoffset	csp, csp, 2032
     43c: 67 80 00 00  	cret

0000000000000440 <_Z19run_invalidate_testv>:
; int run_invalidate_test(void) {
     440: 5b 11 01 81  	cincoffset	csp, csp, -2032
     444: 23 40 11 7e  	csc	cra, 2016(csp)
     448: 23 48 81 7c  	csc	cs0, 2000(csp)
     44c: 23 40 91 7c  	csc	cs1, 1984(csp)
     450: 23 48 21 7b  	csc	cs2, 1968(csp)
     454: 23 40 31 7b  	csc	cs3, 1952(csp)
     458: 37 e5 ff ff  	lui	a0, 1048574
     45c: 1b 05 05 75  	addiw	a0, a0, 1872
     460: 5b 01 a1 22  	cincoffset	csp, csp, a0
     464: 13 05 00 00  	mv	a0, zero
     468: b7 25 00 00  	lui	a1, 2
     46c: 9b 85 05 01  	addiw	a1, a1, 16
     470: db 05 b1 22  	cincoffset	ca1, csp, a1
     474: db a5 05 04  	csetbounds	ca1, ca1, 64
;     Base bases[4] = {
     478: 23 c8 05 02  	csc	cnull, 48(ca1)
     47c: 23 c0 05 02  	csc	cnull, 32(ca1)
     480: 23 c8 05 00  	csc	cnull, 16(ca1)
     484: 23 c0 05 00  	csc	cnull, 0(ca1)
     488: 37 76 74 00  	lui	a2, 1863
     48c: 1b 06 16 ef  	addiw	a2, a2, -271
     490: 13 16 f6 00  	slli	a2, a2, 15
     494: 13 06 36 95  	addi	a2, a2, -1709
     498: 13 16 d6 00  	slli	a2, a2, 13
     49c: 13 06 96 b4  	addi	a2, a2, -1207
     4a0: 13 16 c6 00  	slli	a2, a2, 12
     4a4: 13 06 a6 75  	addi	a2, a2, 1882
     4a8: b7 26 00 00  	lui	a3, 2
     4ac: 9b 86 06 01  	addiw	a3, a3, 16
     4b0: db 06 d1 22  	cincoffset	ca3, csp, a3
     4b4: 23 b0 c6 00  	csd	a2, 0(ca3)
     4b8: 37 46 67 fc  	lui	a2, 1033844
     4bc: 1b 06 36 f0  	addiw	a2, a2, -253
     4c0: 13 16 c6 00  	slli	a2, a2, 12
     4c4: 13 06 d6 21  	addi	a2, a2, 541
     4c8: 13 16 d6 00  	slli	a2, a2, 13
     4cc: 13 06 b6 62  	addi	a2, a2, 1579
     4d0: 13 16 c6 00  	slli	a2, a2, 12
     4d4: 13 06 46 4a  	addi	a2, a2, 1188
     4d8: b7 26 00 00  	lui	a3, 2
     4dc: 9b 86 06 02  	addiw	a3, a3, 32
     4e0: db 06 d1 22  	cincoffset	ca3, csp, a3
     4e4: 23 b0 c6 00  	csd	a2, 0(ca3)
     4e8: 37 56 ce 00  	lui	a2, 3301
     4ec: 1b 06 36 f3  	addiw	a2, a2, -205
     4f0: 13 16 d6 00  	slli	a2, a2, 13
     4f4: 13 06 76 5c  	addi	a2, a2, 1479
     4f8: 13 16 e6 00  	slli	a2, a2, 14
     4fc: 13 06 f6 33  	addi	a2, a2, 831
     500: 13 16 c6 00  	slli	a2, a2, 12
     504: 13 06 e6 cd  	addi	a2, a2, -802
     508: b7 26 00 00  	lui	a3, 2
     50c: 9b 86 06 03  	addiw	a3, a3, 48
     510: db 06 d1 22  	cincoffset	ca3, csp, a3
     514: 23 b0 c6 00  	csd	a2, 0(ca3)
     518: 37 06 2a ff  	lui	a2, 1045152
     51c: 1b 06 96 eb  	addiw	a2, a2, -327
     520: 13 16 e6 00  	slli	a2, a2, 14
     524: 13 06 b6 e3  	addi	a2, a2, -453
     528: 13 16 c6 00  	slli	a2, a2, 12
     52c: 13 06 f6 d6  	addi	a2, a2, -657
     530: 13 16 d6 00  	slli	a2, a2, 13
     534: 13 06 76 69  	addi	a2, a2, 1687
     538: b7 26 00 00  	lui	a3, 2
     53c: 9b 86 06 04  	addiw	a3, a3, 64
     540: db 06 d1 22  	cincoffset	ca3, csp, a3
     544: 23 b0 c6 00  	csd	a2, 0(ca3)
     548: 37 16 00 00  	lui	a2, 1
     54c: b7 16 00 00  	lui	a3, 1
     550: 9b 86 06 01  	addiw	a3, a3, 16
     554: db 06 d1 22  	cincoffset	ca3, csp, a3
     558: db 84 c6 10  	csetbounds	cs1, ca3, a2
     55c: 13 06 00 08  	addi	a2, zero, 128

0000000000000560 <.LBB5_8>:
;         int index = indices[i];
     560: 97 06 00 00  	auipcc	ca3, 0
     564: 8f a6 06 5a  	clc	ca3, 1440(ca3)
     568: 13 17 25 00  	slli	a4, a0, 2
     56c: db 86 e6 22  	cincoffset	ca3, ca3, a4
     570: 83 a6 06 00  	clw	a3, 0(ca3)
;             .expected_base_value = bases[index].value,
     574: 93 96 46 00  	slli	a3, a3, 4
     578: db 86 d5 22  	cincoffset	ca3, ca1, a3
     57c: 03 b7 06 00  	cld	a4, 0(ca3)
;         source_array[i] = Element {
     580: 93 17 55 00  	slli	a5, a0, 5
     584: 5b 84 f4 22  	cincoffset	cs0, cs1, a5
     588: 23 30 e4 00  	csd	a4, 0(cs0)
     58c: 13 e7 07 01  	ori	a4, a5, 16
     590: 5b 87 e4 22  	cincoffset	ca4, cs1, a4
;     for (size_t i = 0; i < 128; i++) {
     594: 13 05 15 00  	addi	a0, a0, 1
;         source_array[i] = Element {
     598: 23 40 d7 00  	csc	ca3, 0(ca4)
;     for (size_t i = 0; i < 128; i++) {
     59c: e3 12 c5 fc  	bne	a0, a2, 0x560 <.LBB5_8>
     5a0: 37 15 00 00  	lui	a0, 1
     5a4: db 15 01 01  	cincoffset	ca1, csp, 16
     5a8: db 89 a5 10  	csetbounds	cs3, ca1, a0
;     Element dest_array[128] = {0};
     5ac: 37 16 00 00  	lui	a2, 1
     5b0: 5b 85 a9 fe  	cmove	ca0, cs3
     5b4: 93 05 00 00  	mv	a1, zero
     5b8: 97 00 00 00  	auipcc	cra, 0
     5bc: e7 80 80 b7  	cjalr	-1160(cra)
;     vector_memcpy_invalidate((uint8_t*)dst_ptr, (const uint8_t*)src_ptr, sizeof(Element) * 128);
     5c0: 37 16 00 00  	lui	a2, 1
     5c4: 5b 85 a9 fe  	cmove	ca0, cs3
     5c8: db 85 a4 fe  	cmove	ca1, cs1
     5cc: 97 00 00 00  	auipcc	cra, 0
     5d0: e7 80 80 bf  	cjalr	-1032(cra)
;         Base* CAPABILITY_IF_SUPPORTED ptr = dest_array[i].base_ptr;
     5d4: 0f 25 01 02  	clc	ca0, 32(csp)
;         if (cheri_tag_get(ptr)) {
     5d8: 97 00 00 00  	auipcc	cra, 0
     5dc: e7 80 40 07  	cjalr	116(cra)
     5e0: 93 05 05 00  	mv	a1, a0
     5e4: 13 05 00 00  	mv	a0, zero
     5e8: 63 9e 05 02  	bnez	a1, 0x624 <.LBB5_8+0xc4>
     5ec: 93 04 00 00  	mv	s1, zero
     5f0: 13 09 f0 07  	addi	s2, zero, 127
     5f4: 13 84 04 00  	mv	s0, s1
;     for (size_t i = 0; i < 128; i++) {
     5f8: 63 82 24 03  	beq	s1, s2, 0x61c <.LBB5_8+0xbc>
     5fc: 93 04 14 00  	addi	s1, s0, 1
;         Base* CAPABILITY_IF_SUPPORTED ptr = dest_array[i].base_ptr;
     600: 13 95 54 00  	slli	a0, s1, 5
     604: 13 65 05 01  	ori	a0, a0, 16
     608: 5b 85 a9 22  	cincoffset	ca0, cs3, a0
     60c: 0f 25 05 00  	clc	ca0, 0(ca0)
;         if (cheri_tag_get(ptr)) {
     610: 97 00 00 00  	auipcc	cra, 0
     614: e7 80 c0 03  	cjalr	60(cra)
     618: e3 0e 05 fc  	beqz	a0, 0x5f4 <.LBB5_8+0x94>
     61c: 13 05 e0 07  	addi	a0, zero, 126
;     for (size_t i = 0; i < 128; i++) {
     620: 33 35 85 00  	sltu	a0, a0, s0
; }
     624: b7 25 00 00  	lui	a1, 2
     628: 9b 85 05 8b  	addiw	a1, a1, -1872
     62c: 5b 01 b1 22  	cincoffset	csp, csp, a1
     630: 8f 29 01 7a  	clc	cs3, 1952(csp)
     634: 0f 29 01 7b  	clc	cs2, 1968(csp)
     638: 8f 24 01 7c  	clc	cs1, 1984(csp)
     63c: 0f 24 01 7d  	clc	cs0, 2000(csp)
     640: 8f 20 01 7e  	clc	cra, 2016(csp)
     644: 5b 11 01 7f  	cincoffset	csp, csp, 2032
     648: 67 80 00 00  	cret

000000000000064c <_ZL13cheri_tag_getPv>:
; __CHERI_GET(tag, __cheri_bool, _get, 0)
     64c: 5b 05 45 fe  	cgettag	a0, ca0
     650: 67 80 00 00  	cret

0000000000000654 <main>:
; {
     654: 5b 11 01 fe  	cincoffset	csp, csp, -32
     658: 23 48 11 00  	csc	cra, 16(csp)
     65c: 23 40 81 00  	csc	cs0, 0(csp)
;     result |= run_base_test() << 0;
     660: 97 00 00 00  	auipcc	cra, 0
     664: e7 80 80 bc  	cjalr	-1080(cra)
     668: 13 04 05 00  	mv	s0, a0
;     result |= run_invalidate_test() << 1;
     66c: 97 00 00 00  	auipcc	cra, 0
     670: e7 80 40 dd  	cjalr	-556(cra)

0000000000000674 <.LBB7_1>:
;     *(&outputAttempted) = attempted;
     674: 97 05 00 00  	auipcc	ca1, 0
     678: 8f a5 c5 49  	clc	ca1, 1180(ca1)
;     result |= run_invalidate_test() << 1;
     67c: 13 15 15 00  	slli	a0, a0, 1
     680: 13 06 30 00  	addi	a2, zero, 3
;     *(&outputAttempted) = attempted;
     684: 23 b0 c5 00  	csd	a2, 0(ca1)

0000000000000688 <.LBB7_2>:
;     *(&outputSucceeded) = result;
     688: 97 05 00 00  	auipcc	ca1, 0
     68c: 8f a5 85 49  	clc	ca1, 1176(ca1)
;     result |= run_invalidate_test() << 1;
     690: 33 65 85 00  	or	a0, a0, s0
     694: 13 16 05 02  	slli	a2, a0, 32
     698: 13 56 06 02  	srli	a2, a2, 32
;     *(&outputSucceeded) = result;
     69c: 23 b0 c5 00  	csd	a2, 0(ca1)

00000000000006a0 <.LBB7_3>:
;     finished = 1;
     6a0: 97 05 00 00  	auipcc	ca1, 0
     6a4: 8f a5 05 49  	clc	ca1, 1168(ca1)
     6a8: 13 06 10 00  	addi	a2, zero, 1
;     return result;
     6ac: 1b 05 05 00  	sext.w	a0, a0
;     finished = 1;
     6b0: 23 80 c5 00  	csb	a2, 0(ca1)
;     return result;
     6b4: 0f 24 01 00  	clc	cs0, 0(csp)
     6b8: 8f 20 01 01  	clc	cra, 16(csp)
     6bc: 5b 11 01 02  	cincoffset	csp, csp, 32
     6c0: 67 80 00 00  	cret
