
/media/common/University/Edu/Year4_Masters/Project/riscv-v-lite/programs/build/llvm-13-rv64imvxcheri/vector_memcpy_pointers/vector_memcpy_pointers.elf:	file format elf64-littleriscv
Contents of section __cap_relocs:
 0000 c00a0000 00000000 e0ff0000 00000000  ................
 0010 00000000 00000000 00000000 00000000  ................
 0020 00000000 00000000 d00a0000 00000000  ................
 0030 48060000 00000000 00000000 00000000  H...............
 0040 70000000 00000000 00000000 00000080  p...............
 0050 e00a0000 00000000 b8060000 00000000  ................
 0060 00000000 00000000 00020000 00000000  ................
 0070 00000000 00000040 f00a0000 00000000  .......@........
 0080 b8080000 00000000 00000000 00000000  ................
 0090 00020000 00000000 00000000 00000040  ...............@
 00a0 000b0000 00000000 00000001 00000000  ................
 00b0 00000000 00000000 00000000 00000000  ................
 00c0 00000000 00000000 100b0000 00000000  ................
 00d0 08000001 00000000 00000000 00000000  ................
 00e0 00000000 00000000 00000000 00000000  ................
 00f0 200b0000 00000000 10000001 00000000   ...............
 0100 00000000 00000000 00000000 00000000  ................
 0110 00000000 00000000                    ........
Contents of section .text.init:
 0118 17110000 0f21819a 17130000 0f23039b  .....!.......#..
 0128 e7000300 6f000000                    ....o...
Contents of section .text:
 0130 630c0600 93060000 5b07d522 93861600  c.......[.."....
 0140 2300b700 e31ad6fe 67800000 63000602  #.......g...c...
 0150 db06a5fe 03870500 2380e600 db961600  ........#.......
 0160 1306f6ff db951500 e31606fe 67800000  ............g...
 0170 93060001 6366d602 9306f000 13574600  ....cf.......WF.
 0180 57773702 07840512 27040512 13174700  Ww7.....'.....G.
 0190 db85e522 3306e640 5b05e522 e3e0c6fe  ..."3..@[.."....
 01a0 63000602 d7763604 07840502 27040502  c....v6.....'...
 01b0 db85d522 3306d640 5b05d522 e31406fe  ..."3..@[.."....
 01c0 67800000 93060001 6368d602 9306f000  g.......ch......
 01d0 13574600 57772702 07840512 57348002  .WF.Ww'.....W4..
 01e0 27040512 13174700 db85e522 3306e640  '.....G...."3..@
 01f0 5b05e522 e3eec6fc 63000602 d7763604  [.."....c....v6.
 0200 07840502 27040502 db85d522 3306d640  ....'......"3..@
 0210 5b05d522 e31406fe 67800000 5b110181  [.."....g...[...
 0220 2340117e 2348817c 2340917c 37e5ffff  #@.~#H.|#@.|7...
 0230 1b050577 5b01a122 13050000 b7250000  ...w[..".....%..
 0240 9b850501 db05b122 dba50504 23c80502  ......."....#...
 0250 23c00502 23c80500 23c00500 37767400  #...#...#...7vt.
 0260 1b0616ef 1316f600 13063695 1316d600  ..........6.....
 0270 130696b4 1316c600 1306a675 b7260000  ...........u.&..
 0280 9b860601 db06d122 23b0c600 374667fc  ......."#...7Fg.
 0290 1b0636f0 1316c600 1306d621 1316d600  ..6........!....
 02a0 1306b662 1316c600 1306464a b7260000  ...b......FJ.&..
 02b0 9b860602 db06d122 23b0c600 3756ce00  ......."#...7V..
 02c0 1b0636f3 1316d600 1306765c 1316e600  ..6.......v\....
 02d0 1306f633 1316c600 1306e6cd b7260000  ...3.........&..
 02e0 9b860603 db06d122 23b0c600 37062aff  ......."#...7.*.
 02f0 1b0696eb 1316e600 1306b6e3 1316c600  ................
 0300 1306f6d6 1316d600 13067669 b7260000  ..........vi.&..
 0310 9b860604 db06d122 23b0c600 37160000  ......."#...7...
 0320 b7160000 9b860601 db06d122 db84c610  ..........."....
 0330 13060008 97060000 8fa6c67a 13172500  ...........z..%.
 0340 db86e622 83a60600 93964600 db86d522  ..."......F...."
 0350 03b70600 93175500 5b84f422 2330e400  ......U.[.."#0..
 0360 13e70701 5b87e422 13051500 2340d700  ....[.."....#@..
 0370 e312c5fc 37150000 db150101 5b84a510  ....7.......[...
 0380 37160000 5b05a4fe 93050000 97000000  7...[...........
 0390 e78040da 37160000 5b05a4fe db85a4fe  ..@.7...[.......
 03a0 97000000 e78000dd 13050000 b7250000  .............%..
 03b0 9b850501 db05b122 dba50504 13060008  ......."........
 03c0 13175500 93660701 db06d422 8fa60600  ..U..f....."....
 03d0 83b70600 5b07e422 03370700 639ae702  ....[..".7..c...
 03e0 17070000 0f270770 93172500 5b07f722  .....'.p..%.[.."
 03f0 03270700 13174700 5b87e522 639ae600  .'....G.[.."c...
 0400 13051500 e31ec5fa 13051000 6f008000  ............o...
 0410 13050000 b7250000 9b850589 5b01b122  .....%......[.."
 0420 8f24017c 0f24017d 8f20017e 5b11017f  .$.|.$.}. .~[...
 0430 67800000 5b110181 2340117e 2348817c  g...[...#@.~#H.|
 0440 2340917c 2348217b 2340317b 37e5ffff  #@.|#H!{#@1{7...
 0450 1b050575 5b01a122 13050000 b7250000  ...u[..".....%..
 0460 9b850501 db05b122 dba50504 23c80502  ......."....#...
 0470 23c00502 23c80500 23c00500 37767400  #...#...#...7vt.
 0480 1b0616ef 1316f600 13063695 1316d600  ..........6.....
 0490 130696b4 1316c600 1306a675 b7260000  ...........u.&..
 04a0 9b860601 db06d122 23b0c600 374667fc  ......."#...7Fg.
 04b0 1b0636f0 1316c600 1306d621 1316d600  ..6........!....
 04c0 1306b662 1316c600 1306464a b7260000  ...b......FJ.&..
 04d0 9b860602 db06d122 23b0c600 3756ce00  ......."#...7V..
 04e0 1b0636f3 1316d600 1306765c 1316e600  ..6.......v\....
 04f0 1306f633 1316c600 1306e6cd b7260000  ...3.........&..
 0500 9b860603 db06d122 23b0c600 37062aff  ......."#...7.*.
 0510 1b0696eb 1316e600 1306b6e3 1316c600  ................
 0520 1306f6d6 1316d600 13067669 b7260000  ..........vi.&..
 0530 9b860604 db06d122 23b0c600 37160000  ......."#...7...
 0540 b7160000 9b860601 db06d122 db84c610  ..........."....
 0550 13060008 97060000 8fa6c659 13172500  ...........Y..%.
 0560 db86e622 83a60600 93964600 db86d522  ..."......F...."
 0570 03b70600 93175500 5b84f422 2330e400  ......U.[.."#0..
 0580 13e70701 5b87e422 13051500 2340d700  ....[.."....#@..
 0590 e312c5fc 37150000 db150101 db89a510  ....7...........
 05a0 37160000 5b85a9fe 93050000 97000000  7...[...........
 05b0 e78040b8 37160000 5b85a9fe db85a4fe  ..@.7...[.......
 05c0 97000000 e78040c0 0f250102 97000000  ......@..%......
 05d0 e7804007 93050500 13050000 639e0502  ..@.........c...
 05e0 93040000 1309f007 13840400 63822403  ............c.$.
 05f0 93041400 13955400 13650501 5b85a922  ......T..e..[.."
 0600 0f250500 97000000 e780c003 e30e05fc  .%..............
 0610 1305e007 33358500 b7250000 9b85058b  ....35...%......
 0620 5b01b122 8f29017a 0f29017b 8f24017c  [..".).z.).{.$.|
 0630 0f24017d 8f20017e 5b11017f 67800000  .$.}. .~[...g...
 0640 5b0545fe 67800000 5b1101fe 23481100  [.E.g...[...#H..
 0650 23408100 97000000 e78080bc 13040500  #@..............
 0660 97000000 e78040dd 97050000 8fa58549  ......@........I
 0670 13151500 13063000 23b0c500 97050000  ......0.#.......
 0680 8fa54549 33658500 13160502 13560602  ..EI3e.......V..
 0690 23b0c500 97050000 8fa5c548 13061000  #..........H....
 06a0 1b050500 2380c500 0f240100 8f200101  ....#....$... ..
 06b0 5b110102 67800000                    [...g...
Contents of section .data:
 06b8 01000000 01000000 01000000 01000000  ................
 06c8 02000000 02000000 03000000 00000000  ................
 06d8 01000000 00000000 03000000 00000000  ................
 06e8 00000000 03000000 03000000 00000000  ................
 06f8 01000000 00000000 00000000 02000000  ................
 0708 02000000 00000000 02000000 01000000  ................
 0718 00000000 00000000 00000000 03000000  ................
 0728 02000000 00000000 01000000 01000000  ................
 0738 03000000 02000000 03000000 00000000  ................
 0748 02000000 02000000 00000000 00000000  ................
 0758 00000000 01000000 01000000 03000000  ................
 0768 00000000 00000000 01000000 03000000  ................
 0778 01000000 02000000 03000000 02000000  ................
 0788 02000000 00000000 02000000 01000000  ................
 0798 00000000 03000000 01000000 01000000  ................
 07a8 03000000 03000000 02000000 02000000  ................
 07b8 00000000 01000000 03000000 02000000  ................
 07c8 02000000 01000000 01000000 03000000  ................
 07d8 02000000 02000000 00000000 01000000  ................
 07e8 01000000 03000000 00000000 01000000  ................
 07f8 00000000 00000000 03000000 02000000  ................
 0808 02000000 03000000 03000000 01000000  ................
 0818 01000000 01000000 01000000 02000000  ................
 0828 01000000 01000000 02000000 01000000  ................
 0838 02000000 02000000 01000000 01000000  ................
 0848 03000000 01000000 01000000 03000000  ................
 0858 00000000 02000000 03000000 01000000  ................
 0868 01000000 03000000 02000000 03000000  ................
 0878 02000000 01000000 02000000 00000000  ................
 0888 02000000 02000000 02000000 03000000  ................
 0898 00000000 03000000 01000000 00000000  ................
 08a8 03000000 02000000 01000000 00000000  ................
 08b8 01000000 01000000 01000000 01000000  ................
 08c8 02000000 02000000 03000000 00000000  ................
 08d8 01000000 00000000 03000000 00000000  ................
 08e8 00000000 03000000 03000000 00000000  ................
 08f8 01000000 00000000 00000000 02000000  ................
 0908 02000000 00000000 02000000 01000000  ................
 0918 00000000 00000000 00000000 03000000  ................
 0928 02000000 00000000 01000000 01000000  ................
 0938 03000000 02000000 03000000 00000000  ................
 0948 02000000 02000000 00000000 00000000  ................
 0958 00000000 01000000 01000000 03000000  ................
 0968 00000000 00000000 01000000 03000000  ................
 0978 01000000 02000000 03000000 02000000  ................
 0988 02000000 00000000 02000000 01000000  ................
 0998 00000000 03000000 01000000 01000000  ................
 09a8 03000000 03000000 02000000 02000000  ................
 09b8 00000000 01000000 03000000 02000000  ................
 09c8 02000000 01000000 01000000 03000000  ................
 09d8 02000000 02000000 00000000 01000000  ................
 09e8 01000000 03000000 00000000 01000000  ................
 09f8 00000000 00000000 03000000 02000000  ................
 0a08 02000000 03000000 03000000 01000000  ................
 0a18 01000000 01000000 01000000 02000000  ................
 0a28 01000000 01000000 02000000 01000000  ................
 0a38 02000000 02000000 01000000 01000000  ................
 0a48 03000000 01000000 01000000 03000000  ................
 0a58 00000000 02000000 03000000 01000000  ................
 0a68 01000000 03000000 02000000 03000000  ................
 0a78 02000000 01000000 02000000 00000000  ................
 0a88 02000000 02000000 02000000 03000000  ................
 0a98 00000000 03000000 01000000 00000000  ................
 0aa8 03000000 02000000 01000000 00000000  ................
Contents of section .captable:
 0ac0 00000000 00000000 00000000 00000000  ................
 0ad0 00000000 00000000 00000000 00000000  ................
 0ae0 00000000 00000000 00000000 00000000  ................
 0af0 00000000 00000000 00000000 00000000  ................
 0b00 00000000 00000000 00000000 00000000  ................
 0b10 00000000 00000000 00000000 00000000  ................
 0b20 00000000 00000000 00000000 00000000  ................
Contents of section .debug_loc:
 0000 00000000 00000000 08000000 00000000  ................
 0010 03001100 9f080000 00000000 00180000  ................
 0020 00000000 0001005d 00000000 00000000  .......]........
 0030 00000000 00000000 1c000000 00000000  ................
 0040 24000000 00000000 01005b00 00000000  $.........[.....
 0050 00000000 00000000 0000001c 00000000  ................
 0060 00000024 00000000 00000001 005a2400  ...$.........Z$.
 0070 00000000 00003c00 00000000 00000100  ......<.........
 0080 5d000000 00000000 00000000 00000000  ]...............
 0090 00500000 00000000 00540000 00000000  .P.......T......
 00a0 0001005e 00000000 00000000 00000000  ...^............
 00b0 00000000 54000000 00000000 60000000  ....T.......`...
 00c0 00000000 01005e00 00000000 00000000  ......^.........
 00d0 00000000 00000078 00000000 00000090  .......x........
 00e0 00000000 00000001 005d0000 00000000  .........]......
 00f0 00000000 00000000 00007c00 00000000  ..........|.....
 0100 00009000 00000000 00000200 90680000  .............h..
 0110 00000000 00000000 00000000 0000a400  ................
 0120 00000000 0000a800 00000000 00000100  ................
 0130 5e000000 00000000 00000000 00000000  ^...............
 0140 00a80000 00000000 00b80000 00000000  ................
 0150 0001005e 00000000 00000000 00000000  ...^............
 0160 00000000 d0000000 00000000 e8000000  ................
 0170 00000000 01005d00 00000000 00000000  ......].........
 0180 00000000 000000d4 00000000 000000e8  ................
 0190 00000000 00000002 00906800 00000000  ..........h.....
 01a0 00000000 00000000 0000003c 02000000  ...........<....
 01b0 00000044 02000000 00000001 005a0000  ...D.........Z..
 01c0 00000000 00000000 00000000 00006402  ..............d.
 01d0 00000000 0000b002 00000000 00000300  ................
 01e0 72109fd0 02000000 00000004 03000000  r...............
 01f0 00000003 0072109f 00000000 00000000  .....r..........
 0200 00000000 00000000 64020000 00000000  ........d.......
 0210 b0020000 00000000 04007290 209fd002  ..........r. ...
 0220 00000000 00000403 00000000 00000400  ................
 0230 7290209f 00000000 00000000 00000000  r. .............
 0240 00000000 90020000 00000000 b0020000  ................
 0250 00000000 01005ad4 02000000 000000d8  ......Z.........
 0260 02000000 00000001 005a0000 00000000  .........Z......
 0270 00000000 00000000 00005c04 00000000  ..........\.....
 0280 00006404 00000000 00000100 5a000000  ..d.........Z...
 0290 00000000 00000000 00000000 00840400  ................
 02a0 00000000 00100500 00000000 00030072  ...............r
 02b0 109f0000 00000000 00000000 00000000  ................
 02c0 00008404 00000000 00001005 00000000  ................
 02d0 00000400 7290209f 00000000 00000000  ....r. .........
 02e0 00000000 00000000 98040000 00000000  ................
 02f0 a8040000 00000000 0200309f a8040000  ..........0.....
 0300 00000000 b8040000 00000000 0200319f  ..............1.
 0310 bc040000 00000000 dc040000 00000000  ................
 0320 06007800 1101229f dc040000 00000000  ..x...".........
 0330 e0040000 00000000 06007800 1102229f  ..........x...".
 0340 00000000 00000000 00000000 00000000  ................
 0350 10050000 00000000 14050000 00000000  ................
 0360 01005a00 00000000 00000000 00000000  ..Z.............
 0370 00000024 05000000 00000030 05000000  ...$.......0....
 0380 00000002 00309f30 05000000 00000038  .....0.0.......8
 0390 05000000 0000000a 00780010 ffffffff  .........x......
 03a0 0f1a9f60 05000000 00000064 05000000  ...`.......d....
 03b0 00000001 005c0000 00000000 00000000  .....\..........
 03c0 00000000 00002405 00000000 00003005  ......$.......0.
 03d0 00000000 00000200 319f3005 00000000  ........1.0.....
 03e0 00003805 00000000 00000200 339f0000  ..8.........3...
 03f0 00000000 00000000 00000000 0000      ..............
Contents of section .debug_abbrev:
 0000 01110125 0e130503 0e10171b 0e110112  ...%............
 0010 06000002 2400030e 3e0b0b0b 0000030f  ....$...>.......
 0020 0049130b 0b000004 26004913 00000516  .I......&.I.....
 0030 00491303 0e3a0b3b 0b000006 1301360b  .I...:.;......6.
 0040 030e0b0b 3a0b3b0b 88010f00 00070d00  ....:.;.........
 0050 030e4913 3a0b3b0b 380b0000 082e0111  ..I.:.;.8.......
 0060 01120640 18974219 030e3a0b 3b0b4913  ...@..B...:.;.I.
 0070 3f190000 09050002 18030e3a 0b3b0b49  ?..........:.;.I
 0080 1300000a 34000218 030e3a0b 3b0b4913  ....4.....:.;.I.
 0090 00000b0b 01110112 0600000c 34000217  ............4...
 00a0 030e3a0b 3b0b4913 00000d05 00021703  ..:.;.I.........
 00b0 0e3a0b3b 0b491300 000e2e01 11011206  .:.;.I..........
 00c0 40189742 196e0e03 0e3a0b3b 0b3f1900  @..B.n...:.;.?..
 00d0 000f2e01 11011206 40189742 196e0e03  ........@..B.n..
 00e0 0e3a0b3b 0b49133f 19000010 34000218  .:.;.I.?....4...
 00f0 030e3a0b 3b054913 00001134 00021703  ..:.;.I....4....
 0100 0e3a0b3b 05491300 00123400 030e3a0b  .:.;.I....4...:.
 0110 3b0b4913 0000130b 01551700 00143400  ;.I......U....4.
 0120 030e3a0b 3b054913 00001589 82010031  ..:.;.I........1
 0130 13110100 00162e01 11011206 40189742  ............@..B
 0140 196e0e03 0e3a0b3b 0549133f 19000017  .n...:.;.I.?....
 0150 2e011101 12064018 9742196e 0e030e3a  ......@..B.n...:
 0160 0b3b0b49 13000018 2e011101 12064018  .;.I..........@.
 0170 97421903 0e3a0b3b 0549133f 19000019  .B...:.;.I.?....
 0180 0f000b0b 00001a26 0000001b 16004913  .......&......I.
 0190 030e0000 1c010187 42194913 00001d21  ........B.I....!
 01a0 00491322 0d2f1800 001e2400 030e0b0b  .I."./....$.....
 01b0 3e0b0000 1f010149 13000020 21004913  >......I... !.I.
 01c0 370b0000 210d0003 0e49133a 0b3b0b88  7...!....I.:.;..
 01d0 010f380b 000000                      ..8....
Contents of section .debug_info:
 0000 9e050000 04000000 00000801 0e010000  ................
 0010 2100a201 00000000 00003503 00003001  !.........5...0.
 0020 00000000 00008805 0000023b 00000008  ...........;....
 0030 01032a00 00001003 3d000000 10042a00  ..*.....=.....*.
 0040 0000054d 00000089 02000001 32022900  ...M........2.).
 0050 00000708 035a0000 00100605 30030000  .....Z......0...
 0060 10038610 07100000 00710000 00038700  .........q......
 0070 00054d00 00001d02 00000262 03820000  ..M........b....
 0080 0010052a 000000bf 02000002 e2039300  ...*............
 0090 00001004 82000000 08300100 00000000  .........0......
 00a0 001c0000 00015295 02000003 08fa0400  ......R.........
 00b0 0009015a 24000000 0308fa04 00000901  ...Z$...........
 00c0 5b830100 000308fc 04000009 015cb300  [............\..
 00d0 00000308 42000000 0a037b00 9fcc0200  ....B.....{.....
 00e0 0003092a 0000000a 015af600 0000030a  ...*.....Z......
 00f0 31000000 0b300100 00000000 00180000  1....0..........
 0100 000c0000 00005700 0000030b fc040000  ......W.........
 0110 0000084c 01000000 00000024 00000001  ...L.......$....
 0120 52ef0000 000313fa 04000009 015a2400  R............Z$.
 0130 00000313 fa040000 0d380000 00fe0000  .........8......
 0140 0003130a 05000009 015cb300 00000313  .........\......
 0150 42000000 0c5b0000 00f60000 00031431  B....[.........1
 0160 0000000a 015bfa02 00000315 37000000  .....[......7...
 0170 000e7001 00000000 00005400 00000152  ..p.......T....R
 0180 71020000 49000000 039c0901 5a250300  q...I.......Z%..
 0190 00039c7c 00000009 015bfe00 0000039c  ...|.....[......
 01a0 8d000000 09015cb1 02000003 9c420000  ......\......B..
 01b0 000b7c01 00000000 00002000 00000c91  ..|....... .....
 01c0 000000b9 03000003 a0420000 000cb400  .........B......
 01d0 0000dd02 000003a1 42000000 000ba401  ........B.......
 01e0 00000000 00001800 00000cd7 00000000  ................
 01f0 00000003 b0420000 000cfa00 0000d802  .....B..........
 0200 000003b2 11050000 00000ec4 01000000  ................
 0210 00000058 00000001 52cc0000 00260200  ...X....R....&..
 0220 0003c409 015a2503 000003c4 7c000000  .....Z%.....|...
 0230 09015bfe 00000003 c48d0000 0009015c  ..[............\
 0240 b1020000 03c44200 00000bd0 01000000  ......B.........
 0250 00000024 0000000c 1e010000 b9030000  ...$............
 0260 03c74200 00000c41 010000dd 02000003  ..B....A........
 0270 c8420000 00000bfc 01000000 00000018  .B..............
 0280 0000000c 64010000 00000000 03dd4200  ....d.........B.
 0290 00000c87 010000d8 02000003 df110500  ................
 02a0 0000000f 1c020000 00000000 18020000  ................
 02b0 01521203 00003f02 000003ef fc040000  .R....?.........
 02c0 0a049190 c000d202 000003f3 41050000  ............A...
 02d0 10039190 20590000 00030f01 4d050000  .... Y......M...
 02e0 10029110 7f000000 0318014d 05000011  ...........M....
 02f0 ce010000 9a010000 031b017d 05000011  ...........}....
 0300 08020000 8a000000 031a017d 05000012  ...........}....
 0310 01030000 03fc8305 00000b34 03000000  ...........4....
 0320 00000040 00000011 ab010000 57000000  ...@........W...
 0330 03100142 00000013 00000000 14080100  ...B............
 0340 00031101 fc040000 00000bc0 03000000  ................
 0350 00000048 00000011 44020000 57000000  ...H....D...W...
 0360 03210142 00000000 15710100 00a80300  .!.B.....q......
 0370 00000000 00001634 04000000 0000000c  .......4........
 0380 02000001 52660000 004d0200 00032f01  ....Rf...M..../.
 0390 fc040000 10049190 c000d202 00000333  ...............3
 03a0 01410500 00100391 90205900 0000034f  .A....... Y....O
 03b0 014d0500 00100291 107f0000 00035801  .M............X.
 03c0 4d050000 119d0200 009a0100 00035b01  M.............[.
 03d0 7d050000 11c20200 008a0000 00035a01  }.............Z.
 03e0 7d050000 14010300 00033c01 83050000  }.........<.....
 03f0 0b540500 00000000 00400000 00117a02  .T.......@....z.
 0400 00005700 00000350 01420000 00133000  ..W....P.B....0.
 0410 00001408 01000003 5101fc04 00000000  ........Q.......
 0420 0bc80500 00000000 00500000 0011e802  .........P......
 0430 00005700 00000361 01420000 00136000  ..W....a.B....`.
 0440 000014bb 02000003 63015400 00000000  ........c.T.....
 0450 150a0200 00c80500 00000000 00157804  ..............x.
 0460 0000d405 00000000 00001578 0400000c  ...........x....
 0470 06000000 00000000 17400600 00000000  .........@......
 0480 00080000 0001529c 02000016 00000004  ......R.........
 0490 52030500 000d5003 00000201 00000452  R.....P........R
 04a0 fa040000 00184806 00000000 00007000  ......H.......p.
 04b0 00000152 c7020000 037501fc 04000011  ...R.....u......
 04c0 73030000 29030000 0377018f 05000011  s...)....w......
 04d0 c6030000 c6030000 0378018f 05000015  .........x......
 04e0 a3020000 5c060000 00000000 15760300  ....\........v..
 04f0 00680600 00000000 00001910 02af0000  .h..............
 0500 00050402 90020000 02010310 05000010  ................
 0510 1a051c05 0000b900 00000563 1b250500  ...........c.%..
 0520 00610200 001c2a00 00001d3a 05000000  .a....*....:....
 0530 0892a238 00311b38 1e001e92 00000008  ...8.1.8........
 0540 071f5a00 0000203a 05000004 001f5905  ..Z... :......Y.
 0550 0000203a 05000080 000605b1 03000020  .. :........... 
 0560 038b1007 86010000 71000000 038d0021  ........q......!
 0570 a6000000 54000000 038f1010 00035905  ....T.........Y.
 0580 0000101f fc040000 203a0500 00800005  ........ :......
 0590 9a050000 c4000000 02600209 03000005  .........`......
 05a0 0800                                 ..
Contents of section .debug_ranges:
 0000 04020000 00000000 38020000 00000000  ........8.......
 0010 3c020000 00000000 40020000 00000000  <.......@.......
 0020 00000000 00000000 00000000 00000000  ................
 0030 24040000 00000000 58040000 00000000  $.......X.......
 0040 5c040000 00000000 60040000 00000000  \.......`.......
 0050 00000000 00000000 00000000 00000000  ................
 0060 98040000 00000000 b0040000 00000000  ................
 0070 c4040000 00000000 e0040000 00000000  ................
 0080 00000000 00000000 00000000 00000000  ................
Contents of section .debug_str:
 0000 636f7069 65645f70 65725f69 74657200  copied_per_iter.
 0010 76616c75 65006368 6572695f 7461675f  value.cheri_tag_
 0020 67657400 64657374 006c6f6e 6720756e  get.dest.long un
 0030 7369676e 65642069 6e740075 6e736967  signed int.unsig
 0040 6e656420 63686172 00766563 746f725f  ned char.vector_
 0050 6d656d63 70790069 00736f75 7263655f  memcpy.i.source_
 0060 61727261 79005f5a 31397275 6e5f696e  array._Z19run_in
 0070 76616c69 64617465 5f746573 74760064  validate_testv.d
 0080 6573745f 61727261 79007372 635f7074  est_array.src_pt
 0090 72005f5f 41525241 595f5349 5a455f54  r.__ARRAY_SIZE_T
 00a0 5950455f 5f006261 73655f70 74720069  YPE__.base_ptr.i
 00b0 6e740063 6f756e74 00767569 6e74386d  nt.count.vuint8m
 00c0 385f7400 696e7436 345f7400 5f5a3234  8_t.int64_t._Z24
 00d0 76656374 6f725f6d 656d6370 795f696e  vector_memcpy_in
 00e0 76616c69 64617465 5068504b 686d006d  validatePhPKhm.m
 00f0 656d6370 79006465 73745f75 63007372  emcpy.dest_uc.sr
 0100 63005f5f 63617000 696e6465 7800636c  c.__cap.index.cl
 0110 616e6720 76657273 696f6e20 31332e30  ang version 13.0
 0120 2e302028 7373683a 2f2f6769 74406769  .0 (ssh://git@gi
 0130 74687562 2e636f6d 2f746865 74757262  thub.com/theturb
 0140 6f747572 6e69702f 6c6c766d 2d70726f  oturnip/llvm-pro
 0150 6a656374 2e676974 20383832 31336463  ject.git 88213dc
 0160 66316539 62633435 34663437 31623965  f1e9bc454f471b9e
 0170 39613862 32656465 33323564 63356532  9a8b2ede325dc5e2
 0180 34290063 68006578 70656374 65645f62  4).ch.expected_b
 0190 6173655f 76616c75 65006473 745f7074  ase_value.dst_pt
 01a0 72002f6d 65646961 2f636f6d 6d6f6e2f  r./media/common/
 01b0 556e6976 65727369 74792f45 64752f59  University/Edu/Y
 01c0 65617234 5f4d6173 74657273 2f50726f  ear4_Masters/Pro
 01d0 6a656374 2f726973 63762d76 2d6c6974  ject/riscv-v-lit
 01e0 652f7072 6f677261 6d732f76 6563746f  e/programs/vecto
 01f0 725f6d65 6d637079 5f706f69 6e746572  r_memcpy_pointer
 0200 732f7665 63746f72 5f6d656d 6370795f  s/vector_memcpy_
 0210 706f696e 74657273 2e637070 0075696e  pointers.cpp.uin
 0220 7436345f 74007665 63746f72 5f6d656d  t64_t.vector_mem
 0230 6370795f 696e7661 6c696461 74650072  cpy_invalidate.r
 0240 756e5f62 6173655f 74657374 0072756e  un_base_test.run
 0250 5f696e76 616c6964 6174655f 74657374  _invalidate_test
 0260 005f5f72 76765f75 696e7438 6d385f74  .__rvv_uint8m8_t
 0270 005f5a31 33766563 746f725f 6d656d63  ._Z13vector_memc
 0280 70795068 504b686d 0073697a 655f7400  pyPhPKhm.size_t.
 0290 626f6f6c 006d656d 73657400 5f5a4c31  bool.memset._ZL1
 02a0 33636865 72695f74 61675f67 65745076  3cheri_tag_getPv
 02b0 006e756d 5f627974 65730070 74720075  .num_bytes.ptr.u
 02c0 696e7438 5f74006d 61696e00 63685f75  int8_t.main.ch_u
 02d0 63006261 73657300 64617461 00636f70  c.bases.data.cop
 02e0 6965645f 31323862 69745f65 6c656d73  ied_128bit_elems
 02f0 5f706572 5f697465 72007372 635f7563  _per_iter.src_uc
 0300 00696e64 69636573 006c6f6e 6720696e  .indices.long in
 0310 74005f5a 31337275 6e5f6261 73655f74  t._Z13run_base_t
 0320 65737476 00647374 00726573 756c7400  estv.dst.result.
 0330 42617365 002f6d65 6469612f 636f6d6d  Base./media/comm
 0340 6f6e2f55 6e697665 72736974 792f4564  on/University/Ed
 0350 752f5965 6172345f 4d617374 6572732f  u/Year4_Masters/
 0360 50726f6a 6563742f 72697363 762d762d  Project/riscv-v-
 0370 6c697465 2f70726f 6772616d 732f6275  lite/programs/bu
 0380 696c642f 6c6c766d 2d31332d 72763634  ild/llvm-13-rv64
 0390 696d7678 63686572 692f7665 63746f72  imvxcheri/vector
 03a0 5f6d656d 6370795f 706f696e 74657273  _memcpy_pointers
 03b0 00456c65 6d656e74 006e756d 5f656c65  .Element.num_ele
 03c0 6d656e74 73006174 74656d70 74656400  ments.attempted.
Contents of section .comment:
 0000 636c616e 67207665 7273696f 6e203133  clang version 13
 0010 2e302e30 20287373 683a2f2f 67697440  .0.0 (ssh://git@
 0020 67697468 75622e63 6f6d2f74 68657475  github.com/thetu
 0030 72626f74 75726e69 702f6c6c 766d2d70  rboturnip/llvm-p
 0040 726f6a65 63742e67 69742038 38323133  roject.git 88213
 0050 64636631 65396263 34353466 34373162  dcf1e9bc454f471b
 0060 39653961 38623265 64653332 35646335  9e9a8b2ede325dc5
 0070 65323429 00004c69 6e6b6572 3a204c4c  e24)..Linker: LL
 0080 44203133 2e302e30 20287373 683a2f2f  D 13.0.0 (ssh://
 0090 67697440 67697468 75622e63 6f6d2f74  git@github.com/t
 00a0 68657475 72626f74 75726e69 702f6c6c  heturboturnip/ll
 00b0 766d2d70 726f6a65 63742e67 69742038  vm-project.git 8
 00c0 38323133 64636631 65396263 34353466  8213dcf1e9bc454f
 00d0 34373162 39653961 38623265 64653332  471b9e9a8b2ede32
 00e0 35646335 65323429 00                 5dc5e24).
Contents of section .riscv.attributes:
 0000 413c0000 00726973 63760001 32000000  A<...riscv..2...
 0010 04100572 76363469 3270305f 6d327030  ...rv64i2p0_m2p0
 0020 5f763070 31305f7a 766c7373 65673070  _v0p10_zvlsseg0p
 0030 31305f78 63686572 69307030 00        10_xcheri0p0.
Contents of section .debug_frame:
 0000 14000000 ffffffff 04000800 0178010c  .............x..
 0010 02000000 00000000 14000000 00000000  ................
 0020 30010000 00000000 1c000000 00000000  0...............
 0030 14000000 00000000 4c010000 00000000  ........L.......
 0040 24000000 00000000 14000000 00000000  $...............
 0050 70010000 00000000 54000000 00000000  p.......T.......
 0060 14000000 00000000 c4010000 00000000  ................
 0070 58000000 00000000 24000000 00000000  X.......$.......
 0080 1c020000 00000000 18020000 00000000  ................
 0090 440ef00f 4c810288 0489064c 0e804100  D...L......L..A.
 00a0 2c000000 00000000 34040000 00000000  ,.......4.......
 00b0 0c020000 00000000 440ef00f 54810288  ........D...T...
 00c0 04890692 08930a4c 0ea04100 00000000  .......L..A.....
 00d0 14000000 00000000 40060000 00000000  ........@.......
 00e0 08000000 00000000 1c000000 00000000  ................
 00f0 48060000 00000000 70000000 00000000  H.......p.......
 0100 440e2048 81028804                    D. H....
Contents of section .debug_line:
 0000 ef040000 0400fe00 00000101 01fb0e0d  ................
 0010 00010101 01000000 01000001 2f686f6d  ............/hom
 0020 652f7361 6d75656c 2f636865 72692f6f  e/samuel/cheri/o
 0030 75747075 742f7364 6b2f6c69 622f636c  utput/sdk/lib/cl
 0040 616e672f 31332e30 2e302f69 6e636c75  ang/13.0.0/inclu
 0050 6465002f 6d656469 612f636f 6d6d6f6e  de./media/common
 0060 2f556e69 76657273 6974792f 4564752f  /University/Edu/
 0070 59656172 345f4d61 73746572 732f5072  Year4_Masters/Pr
 0080 6f6a6563 742f7269 7363762d 762d6c69  oject/riscv-v-li
 0090 74652f70 726f6772 616d7300 00737464  te/programs..std
 00a0 6465662e 68000100 00737464 696e742e  def.h....stdint.
 00b0 68000100 00766563 746f725f 6d656d63  h....vector_memc
 00c0 70795f70 6f696e74 6572732f 76656374  py_pointers/vect
 00d0 6f725f6d 656d6370 795f706f 696e7465  or_memcpy_pointe
 00e0 72732e63 70700002 00006368 6572692e  rs.cpp....cheri.
 00f0 68000100 00726973 63765f76 6563746f  h....riscv_vecto
 0100 722e6800 01000000 04030009 02300100  r.h..........0..
 0110 00000000 00190505 0a030309 00000106  ................
 0120 03750904 00010513 06030c09 04000105  .u..............
 0130 21037f09 04000105 18030109 04000105  !...............
 0140 05037f09 04000103 04090400 01050003  ................
 0150 04090400 0105050a 03030900 00010603  ................
 0160 6a090400 01051406 03170904 00010512  j...............
 0170 06030009 04000105 10060301 09040001  ................
 0180 050e0302 09040001 050f037f 09040001  ................
 0190 0505037d 09040001 03060904 00010500  ...}............
 01a0 03800109 04000105 050a0303 09040001  ................
 01b0 0603e17e 09040001 05290603 a0010904  ...~.....)......
 01c0 00010509 03040904 00010301 09040001  ................
 01d0 03010904 0001052d 03020904 0001050d  .......-........
 01e0 06030009 04000105 13060302 09040001  ................
 01f0 050d037f 09040001 05050376 09040001  ...........v....
 0200 03100904 00010522 03010904 00010509  ......."........
 0210 03040904 00010301 09040001 050d0306  ................
 0220 09040001 05130302 09040001 050d037f  ................
 0230 09040001 05050373 09040001 05010310  .......s........
 0240 09040001 05000305 09040001 05050a03  ................
 0250 02090400 010603ba 7e090400 01052906  ........~.....).
 0260 03c70109 04000105 09030509 04000103  ................
 0270 01090400 01030409 04000103 03090400  ................
 0280 01052d03 02090400 01050d06 03000904  ..-.............
 0290 00010513 06030209 04000105 0d037f09  ................
 02a0 04000105 05036f09 04000103 16090400  ......o.........
 02b0 01052203 01090400 01050903 04090400  ..".............
 02c0 01030109 04000105 0d030609 04000105  ................
 02d0 13030209 04000105 0d037f09 04000105  ................
 02e0 05037309 04000105 01031009 04000105  ..s.............
 02f0 00030309 04000105 0a0a0304 09300001  .............0..
 0300 0515031e 09e80001 05240302 09140001  .........$......
 0310 05310603 00090800 01051906 037f0904  .1..............
 0320 00010522 037e0914 00010519 03020904  ...".~..........
 0330 00010505 037e0904 00010603 f07d0904  .....~.......}..
 0340 0001050d 06039802 090c0001 05050306  ................
 0350 09140001 0603e27d 09140001 051b0603  .......}........
 0360 a4020918 00010525 06030009 10000105  .......%........
 0370 3c030009 04000105 4e060303 090c0001  <.......N.......
 0380 05480603 00091400 0103d97d 09080001  .H.........}....
 0390 05050603 a1020908 00010603 df7d0904  .............}..
 03a0 00010501 0603ac02 090c0001 05000303  ................
 03b0 09200001 050a0a03 04093800 01051503  . ........8.....
 03c0 1e09e800 01052403 02091400 01053106  ......$.......1.
 03d0 03000908 00010519 06037f09 04000105  ................
 03e0 22037e09 14000105 19030209 04000105  ".~.............
 03f0 05037e09 04000106 03b07d09 04000105  ..~.......}.....
 0400 0d0603d8 02090c00 01050503 06091400  ................
 0410 01053b03 05091400 01050d03 01090400  ..;.............
 0420 0106039c 7d090c00 01050506 03e10209  ....}...........
 0430 14000105 0006039f 7d090400 01053b06  ........}.....;.
 0440 03e30209 04000105 0d030109 10000106  ................
 0450 039c7d09 08000105 1a0603e1 02090800  ..}.............
 0460 01050103 08090400 01040405 0003e97d  ...............}
 0470 09280001 05010a03 00090000 01040305  .(..............
 0480 0003a402 09080001 0a038a7d 09040001  ...........}....
 0490 050f03fb 02090800 01030409 0c000105  ................
 04a0 19030309 08000105 25037d09 08000105  ........%.}.....
 04b0 19030309 08000103 01090400 01050c03  ................
 04c0 7c090800 01051903 04090c00 01050e03  |...............
 04d0 01090400 01050503 01090c00 01050e03  ................
 04e0 7f090400 01050503 01090400 01091000  ................
 04f0 000101                               ...
Contents of section .symtab:
 0000 00000000 00000000 00000000 00000000  ................
 0010 00000000 00000000 01000000 00000200  ................
 0020 18010000 00000000 00000000 00000000  ................
 0030 00000000 00000200 18010000 00000000  ................
 0040 00000000 00000000 00000000 00000200  ................
 0050 20010000 00000000 00000000 00000000   ...............
 0060 07000000 00000200 2c010000 00000000  ........,.......
 0070 00000000 00000000 0b000000 0400f1ff  ................
 0080 00000000 00000000 00000000 00000000  ................
 0090 00000000 00000300 30010000 00000000  ........0.......
 00a0 00000000 00000000 00000000 00000300  ................
 00b0 30010000 00000000 00000000 00000000  0...............
 00c0 00000000 00000300 30010000 00000000  ........0.......
 00d0 00000000 00000000 00000000 00000300  ................
 00e0 30010000 00000000 00000000 00000000  0...............
 00f0 00000000 00000300 34010000 00000000  ........4.......
 0100 00000000 00000000 00000000 00000300  ................
 0110 38010000 00000000 00000000 00000000  8...............
 0120 00000000 00000300 38010000 00000000  ........8.......
 0130 00000000 00000000 00000000 00000300  ................
 0140 3c010000 00000000 00000000 00000000  <...............
 0150 00000000 00000300 40010000 00000000  ........@.......
 0160 00000000 00000000 00000000 00000300  ................
 0170 44010000 00000000 00000000 00000000  D...............
 0180 00000000 00000300 48010000 00000000  ........H.......
 0190 00000000 00000000 00000000 00000300  ................
 01a0 48010000 00000000 00000000 00000000  H...............
 01b0 00000000 00000300 4c010000 00000000  ........L.......
 01c0 00000000 00000000 00000000 00000300  ................
 01d0 4c010000 00000000 00000000 00000000  L...............
 01e0 00000000 00000300 4c010000 00000000  ........L.......
 01f0 00000000 00000000 00000000 00000300  ................
 0200 4c010000 00000000 00000000 00000000  L...............
 0210 00000000 00000300 4c010000 00000000  ........L.......
 0220 00000000 00000000 00000000 00000300  ................
 0230 4c010000 00000000 00000000 00000000  L...............
 0240 00000000 00000300 50010000 00000000  ........P.......
 0250 00000000 00000000 00000000 00000300  ................
 0260 54010000 00000000 00000000 00000000  T...............
 0270 00000000 00000300 54010000 00000000  ........T.......
 0280 00000000 00000000 00000000 00000300  ................
 0290 58010000 00000000 00000000 00000000  X...............
 02a0 00000000 00000300 5c010000 00000000  ........\.......
 02b0 00000000 00000000 00000000 00000300  ................
 02c0 60010000 00000000 00000000 00000000  `...............
 02d0 00000000 00000300 64010000 00000000  ........d.......
 02e0 00000000 00000000 00000000 00000300  ................
 02f0 68010000 00000000 00000000 00000000  h...............
 0300 00000000 00000300 6c010000 00000000  ........l.......
 0310 00000000 00000000 00000000 00000300  ................
 0320 6c010000 00000000 00000000 00000000  l...............
 0330 00000000 00000300 70010000 00000000  ........p.......
 0340 00000000 00000000 00000000 00000300  ................
 0350 70010000 00000000 00000000 00000000  p...............
 0360 00000000 00000300 70010000 00000000  ........p.......
 0370 00000000 00000000 00000000 00000300  ................
 0380 70010000 00000000 00000000 00000000  p...............
 0390 00000000 00000300 70010000 00000000  ........p.......
 03a0 00000000 00000000 00000000 00000300  ................
 03b0 74010000 00000000 00000000 00000000  t...............
 03c0 00000000 00000300 78010000 00000000  ........x.......
 03d0 00000000 00000000 00000000 00000300  ................
 03e0 7c010000 00000000 00000000 00000000  |...............
 03f0 00000000 00000300 7c010000 00000000  ........|.......
 0400 00000000 00000000 00000000 00000300  ................
 0410 80010000 00000000 00000000 00000000  ................
 0420 00000000 00000300 80010000 00000000  ................
 0430 00000000 00000000 00000000 00000300  ................
 0440 84010000 00000000 00000000 00000000  ................
 0450 00000000 00000300 84010000 00000000  ................
 0460 00000000 00000000 00000000 00000300  ................
 0470 88010000 00000000 00000000 00000000  ................
 0480 00000000 00000300 8c010000 00000000  ................
 0490 00000000 00000000 00000000 00000300  ................
 04a0 90010000 00000000 00000000 00000000  ................
 04b0 00000000 00000300 90010000 00000000  ................
 04c0 00000000 00000000 00000000 00000300  ................
 04d0 94010000 00000000 00000000 00000000  ................
 04e0 00000000 00000300 98010000 00000000  ................
 04f0 00000000 00000000 00000000 00000300  ................
 0500 9c010000 00000000 00000000 00000000  ................
 0510 00000000 00000300 9c010000 00000000  ................
 0520 00000000 00000000 00000000 00000300  ................
 0530 a0010000 00000000 00000000 00000000  ................
 0540 00000000 00000300 a4010000 00000000  ................
 0550 00000000 00000000 00000000 00000300  ................
 0560 a4010000 00000000 00000000 00000000  ................
 0570 00000000 00000300 a8010000 00000000  ................
 0580 00000000 00000000 00000000 00000300  ................
 0590 a8010000 00000000 00000000 00000000  ................
 05a0 00000000 00000300 ac010000 00000000  ................
 05b0 00000000 00000000 00000000 00000300  ................
 05c0 ac010000 00000000 00000000 00000000  ................
 05d0 00000000 00000300 b0010000 00000000  ................
 05e0 00000000 00000000 00000000 00000300  ................
 05f0 b4010000 00000000 00000000 00000000  ................
 0600 00000000 00000300 b8010000 00000000  ................
 0610 00000000 00000000 00000000 00000300  ................
 0620 bc010000 00000000 00000000 00000000  ................
 0630 00000000 00000300 bc010000 00000000  ................
 0640 00000000 00000000 00000000 00000300  ................
 0650 c0010000 00000000 00000000 00000000  ................
 0660 00000000 00000300 c0010000 00000000  ................
 0670 00000000 00000000 00000000 00000300  ................
 0680 c4010000 00000000 00000000 00000000  ................
 0690 00000000 00000300 c4010000 00000000  ................
 06a0 00000000 00000000 00000000 00000300  ................
 06b0 c4010000 00000000 00000000 00000000  ................
 06c0 00000000 00000300 c4010000 00000000  ................
 06d0 00000000 00000000 00000000 00000300  ................
 06e0 c4010000 00000000 00000000 00000000  ................
 06f0 00000000 00000300 c8010000 00000000  ................
 0700 00000000 00000000 00000000 00000300  ................
 0710 cc010000 00000000 00000000 00000000  ................
 0720 00000000 00000300 d0010000 00000000  ................
 0730 00000000 00000000 00000000 00000300  ................
 0740 d0010000 00000000 00000000 00000000  ................
 0750 00000000 00000300 d4010000 00000000  ................
 0760 00000000 00000000 00000000 00000300  ................
 0770 d4010000 00000000 00000000 00000000  ................
 0780 00000000 00000300 d8010000 00000000  ................
 0790 00000000 00000000 00000000 00000300  ................
 07a0 d8010000 00000000 00000000 00000000  ................
 07b0 00000000 00000300 dc010000 00000000  ................
 07c0 00000000 00000000 00000000 00000300  ................
 07d0 e0010000 00000000 00000000 00000000  ................
 07e0 00000000 00000300 e4010000 00000000  ................
 07f0 00000000 00000000 00000000 00000300  ................
 0800 e8010000 00000000 00000000 00000000  ................
 0810 00000000 00000300 e8010000 00000000  ................
 0820 00000000 00000000 00000000 00000300  ................
 0830 ec010000 00000000 00000000 00000000  ................
 0840 00000000 00000300 f0010000 00000000  ................
 0850 00000000 00000000 00000000 00000300  ................
 0860 f4010000 00000000 00000000 00000000  ................
 0870 00000000 00000300 f4010000 00000000  ................
 0880 00000000 00000000 00000000 00000300  ................
 0890 f8010000 00000000 00000000 00000000  ................
 08a0 00000000 00000300 fc010000 00000000  ................
 08b0 00000000 00000000 00000000 00000300  ................
 08c0 fc010000 00000000 00000000 00000000  ................
 08d0 00000000 00000300 00020000 00000000  ................
 08e0 00000000 00000000 00000000 00000300  ................
 08f0 00020000 00000000 00000000 00000000  ................
 0900 00000000 00000300 04020000 00000000  ................
 0910 00000000 00000000 00000000 00000300  ................
 0920 04020000 00000000 00000000 00000000  ................
 0930 00000000 00000300 08020000 00000000  ................
 0940 00000000 00000000 00000000 00000300  ................
 0950 0c020000 00000000 00000000 00000000  ................
 0960 00000000 00000300 10020000 00000000  ................
 0970 00000000 00000000 00000000 00000300  ................
 0980 14020000 00000000 00000000 00000000  ................
 0990 00000000 00000300 14020000 00000000  ................
 09a0 00000000 00000000 00000000 00000300  ................
 09b0 18020000 00000000 00000000 00000000  ................
 09c0 00000000 00000300 18020000 00000000  ................
 09d0 00000000 00000000 00000000 00000300  ................
 09e0 1c020000 00000000 00000000 00000000  ................
 09f0 00000000 00000300 1c020000 00000000  ................
 0a00 00000000 00000000 00000000 00000300  ................
 0a10 1c020000 00000000 00000000 00000000  ................
 0a20 00000000 00000300 1c020000 00000000  ................
 0a30 00000000 00000000 00000000 00000300  ................
 0a40 1c020000 00000000 00000000 00000000  ................
 0a50 00000000 00000300 20020000 00000000  ........ .......
 0a60 00000000 00000000 00000000 00000300  ................
 0a70 2c020000 00000000 00000000 00000000  ,...............
 0a80 00000000 00000300 2c020000 00000000  ........,.......
 0a90 00000000 00000000 00000000 00000300  ................
 0aa0 38020000 00000000 00000000 00000000  8...............
 0ab0 00000000 00000300 4c020000 00000000  ........L.......
 0ac0 00000000 00000000 26000000 00000300  ........&.......
 0ad0 34030000 00000000 00000000 00000000  4...............
 0ae0 00000000 00000300 34030000 00000000  ........4.......
 0af0 00000000 00000000 2e000000 01000400  ................
 0b00 b8060000 00000000 00020000 00000000  ................
 0b10 00000000 00000300 34030000 00000000  ........4.......
 0b20 00000000 00000000 00000000 00000300  ................
 0b30 48030000 00000000 00000000 00000000  H...............
 0b40 00000000 00000300 50030000 00000000  ........P.......
 0b50 00000000 00000000 00000000 00000300  ................
 0b60 54030000 00000000 00000000 00000000  T...............
 0b70 00000000 00000300 68030000 00000000  ........h.......
 0b80 00000000 00000000 00000000 00000300  ................
 0b90 68030000 00000000 00000000 00000000  h...............
 0ba0 00000000 00000300 6c030000 00000000  ........l.......
 0bb0 00000000 00000000 00000000 00000300  ................
 0bc0 6c030000 00000000 00000000 00000000  l...............
 0bd0 00000000 00000300 70030000 00000000  ........p.......
 0be0 00000000 00000000 00000000 00000300  ................
 0bf0 70030000 00000000 00000000 00000000  p...............
 0c00 00000000 00000300 74030000 00000000  ........t.......
 0c10 00000000 00000000 00000000 00000300  ................
 0c20 74030000 00000000 00000000 00000000  t...............
 0c30 00000000 00000300 80030000 00000000  ................
 0c40 00000000 00000000 00000000 00000300  ................
 0c50 94030000 00000000 00000000 00000000  ................
 0c60 00000000 00000300 94030000 00000000  ................
 0c70 00000000 00000000 00000000 00000300  ................
 0c80 a8030000 00000000 00000000 00000000  ................
 0c90 00000000 00000300 a8030000 00000000  ................
 0ca0 00000000 00000000 00000000 00000300  ................
 0cb0 c0030000 00000000 00000000 00000000  ................
 0cc0 00000000 00000300 c0030000 00000000  ................
 0cd0 00000000 00000000 00000000 00000300  ................
 0ce0 d0030000 00000000 00000000 00000000  ................
 0cf0 00000000 00000300 d4030000 00000000  ................
 0d00 00000000 00000000 00000000 00000300  ................
 0d10 e0030000 00000000 00000000 00000000  ................
 0d20 53000000 00000300 e0030000 00000000  S...............
 0d30 00000000 00000000 00000000 00000300  ................
 0d40 e0030000 00000000 00000000 00000000  ................
 0d50 00000000 00000300 f4030000 00000000  ................
 0d60 00000000 00000000 00000000 00000300  ................
 0d70 fc030000 00000000 00000000 00000000  ................
 0d80 00000000 00000300 00040000 00000000  ................
 0d90 00000000 00000000 00000000 00000300  ................
 0da0 04040000 00000000 00000000 00000000  ................
 0db0 00000000 00000300 04040000 00000000  ................
 0dc0 00000000 00000000 00000000 00000300  ................
 0dd0 08040000 00000000 00000000 00000000  ................
 0de0 00000000 00000300 08040000 00000000  ................
 0df0 00000000 00000000 00000000 00000300  ................
 0e00 14040000 00000000 00000000 00000000  ................
 0e10 00000000 00000300 34040000 00000000  ........4.......
 0e20 00000000 00000000 00000000 00000300  ................
 0e30 34040000 00000000 00000000 00000000  4...............
 0e40 00000000 00000300 34040000 00000000  ........4.......
 0e50 00000000 00000000 00000000 00000300  ................
 0e60 34040000 00000000 00000000 00000000  4...............
 0e70 00000000 00000300 34040000 00000000  ........4.......
 0e80 00000000 00000000 00000000 00000300  ................
 0e90 38040000 00000000 00000000 00000000  8...............
 0ea0 00000000 00000300 4c040000 00000000  ........L.......
 0eb0 00000000 00000000 00000000 00000300  ................
 0ec0 4c040000 00000000 00000000 00000000  L...............
 0ed0 00000000 00000300 58040000 00000000  ........X.......
 0ee0 00000000 00000000 00000000 00000300  ................
 0ef0 6c040000 00000000 00000000 00000000  l...............
 0f00 5c000000 00000300 54050000 00000000  \.......T.......
 0f10 00000000 00000000 00000000 00000300  ................
 0f20 54050000 00000000 00000000 00000000  T...............
 0f30 64000000 01000400 b8080000 00000000  d...............
 0f40 00020000 00000000 00000000 00000300  ................
 0f50 54050000 00000000 00000000 00000000  T...............
 0f60 00000000 00000300 68050000 00000000  ........h.......
 0f70 00000000 00000000 00000000 00000300  ................
 0f80 70050000 00000000 00000000 00000000  p...............
 0f90 00000000 00000300 74050000 00000000  ........t.......
 0fa0 00000000 00000000 00000000 00000300  ................
 0fb0 88050000 00000000 00000000 00000000  ................
 0fc0 00000000 00000300 88050000 00000000  ................
 0fd0 00000000 00000000 00000000 00000300  ................
 0fe0 8c050000 00000000 00000000 00000000  ................
 0ff0 00000000 00000300 8c050000 00000000  ................
 1000 00000000 00000000 00000000 00000300  ................
 1010 90050000 00000000 00000000 00000000  ................
 1020 00000000 00000300 90050000 00000000  ................
 1030 00000000 00000000 00000000 00000300  ................
 1040 94050000 00000000 00000000 00000000  ................
 1050 00000000 00000300 94050000 00000000  ................
 1060 00000000 00000000 00000000 00000300  ................
 1070 a0050000 00000000 00000000 00000000  ................
 1080 00000000 00000300 b4050000 00000000  ................
 1090 00000000 00000000 00000000 00000300  ................
 10a0 b4050000 00000000 00000000 00000000  ................
 10b0 00000000 00000300 c8050000 00000000  ................
 10c0 00000000 00000000 00000000 00000300  ................
 10d0 c8050000 00000000 00000000 00000000  ................
 10e0 8f000000 02000300 40060000 00000000  ........@.......
 10f0 08000000 00000000 00000000 00000300  ................
 1100 cc050000 00000000 00000000 00000000  ................
 1110 00000000 00000300 d4050000 00000000  ................
 1120 00000000 00000000 00000000 00000300  ................
 1130 d8050000 00000000 00000000 00000000  ................
 1140 00000000 00000300 d8050000 00000000  ................
 1150 00000000 00000000 00000000 00000300  ................
 1160 e0050000 00000000 00000000 00000000  ................
 1170 00000000 00000300 e8050000 00000000  ................
 1180 00000000 00000000 00000000 00000300  ................
 1190 ec050000 00000000 00000000 00000000  ................
 11a0 00000000 00000300 ec050000 00000000  ................
 11b0 00000000 00000000 00000000 00000300  ................
 11c0 f0050000 00000000 00000000 00000000  ................
 11d0 00000000 00000300 f4050000 00000000  ................
 11e0 00000000 00000000 00000000 00000300  ................
 11f0 f4050000 00000000 00000000 00000000  ................
 1200 00000000 00000300 04060000 00000000  ................
 1210 00000000 00000000 00000000 00000300  ................
 1220 0c060000 00000000 00000000 00000000  ................
 1230 00000000 00000300 0c060000 00000000  ................
 1240 00000000 00000000 00000000 00000300  ................
 1250 10060000 00000000 00000000 00000000  ................
 1260 00000000 00000300 14060000 00000000  ................
 1270 00000000 00000000 00000000 00000300  ................
 1280 18060000 00000000 00000000 00000000  ................
 1290 00000000 00000300 18060000 00000000  ................
 12a0 00000000 00000000 00000000 00000300  ................
 12b0 40060000 00000000 00000000 00000000  @...............
 12c0 00000000 00000300 40060000 00000000  ........@.......
 12d0 00000000 00000000 00000000 00000300  ................
 12e0 40060000 00000000 00000000 00000000  @...............
 12f0 00000000 00000300 40060000 00000000  ........@.......
 1300 00000000 00000000 00000000 00000300  ................
 1310 40060000 00000000 00000000 00000000  @...............
 1320 00000000 00000300 40060000 00000000  ........@.......
 1330 00000000 00000000 00000000 00000300  ................
 1340 44060000 00000000 00000000 00000000  D...............
 1350 00000000 00000300 48060000 00000000  ........H.......
 1360 00000000 00000000 00000000 00000300  ................
 1370 48060000 00000000 00000000 00000000  H...............
 1380 00000000 00000300 48060000 00000000  ........H.......
 1390 00000000 00000000 00000000 00000300  ................
 13a0 48060000 00000000 00000000 00000000  H...............
 13b0 00000000 00000300 48060000 00000000  ........H.......
 13c0 00000000 00000000 00000000 00000300  ................
 13d0 4c060000 00000000 00000000 00000000  L...............
 13e0 00000000 00000300 4c060000 00000000  ........L.......
 13f0 00000000 00000000 00000000 00000300  ................
 1400 54060000 00000000 00000000 00000000  T...............
 1410 00000000 00000300 54060000 00000000  ........T.......
 1420 00000000 00000000 00000000 00000300  ................
 1430 54060000 00000000 00000000 00000000  T...............
 1440 00000000 00000300 5c060000 00000000  ........\.......
 1450 00000000 00000000 00000000 00000300  ................
 1460 60060000 00000000 00000000 00000000  `...............
 1470 00000000 00000300 60060000 00000000  ........`.......
 1480 00000000 00000000 00000000 00000300  ................
 1490 68060000 00000000 00000000 00000000  h...............
 14a0 a4000000 00000300 68060000 00000000  ........h.......
 14b0 00000000 00000000 00000000 00000300  ................
 14c0 68060000 00000000 00000000 00000000  h...............
 14d0 00000000 00000300 70060000 00000000  ........p.......
 14e0 00000000 00000000 00000000 00000300  ................
 14f0 78060000 00000000 00000000 00000000  x...............
 1500 ac000000 00000300 7c060000 00000000  ........|.......
 1510 00000000 00000000 00000000 00000300  ................
 1520 7c060000 00000000 00000000 00000000  |...............
 1530 00000000 00000300 84060000 00000000  ................
 1540 00000000 00000000 00000000 00000300  ................
 1550 90060000 00000000 00000000 00000000  ................
 1560 00000000 00000300 90060000 00000000  ................
 1570 00000000 00000000 00000000 00000300  ................
 1580 94060000 00000000 00000000 00000000  ................
 1590 b4000000 00000300 94060000 00000000  ................
 15a0 00000000 00000000 00000000 00000300  ................
 15b0 94060000 00000000 00000000 00000000  ................
 15c0 00000000 00000300 a0060000 00000000  ................
 15d0 00000000 00000000 00000000 00000300  ................
 15e0 a4060000 00000000 00000000 00000000  ................
 15f0 00000000 00000300 a8060000 00000000  ................
 1600 00000000 00000000 00000000 00000300  ................
 1610 b8060000 00000000 00000000 00000000  ................
 1620 00000000 00000300 b8060000 00000000  ................
 1630 00000000 00000000 00000000 00000600  ................
 1640 00000000 00000000 00000000 00000000  ................
 1650 00000000 00000600 38000000 00000000  ........8.......
 1660 00000000 00000000 00000000 00000600  ................
 1670 5b000000 00000000 00000000 00000000  [...............
 1680 00000000 00000600 91000000 00000000  ................
 1690 00000000 00000000 00000000 00000600  ................
 16a0 b4000000 00000000 00000000 00000000  ................
 16b0 00000000 00000600 d7000000 00000000  ................
 16c0 00000000 00000000 00000000 00000600  ................
 16d0 fa000000 00000000 00000000 00000000  ................
 16e0 00000000 00000600 1e010000 00000000  ................
 16f0 00000000 00000000 00000000 00000600  ................
 1700 41010000 00000000 00000000 00000000  A...............
 1710 00000000 00000600 64010000 00000000  ........d.......
 1720 00000000 00000000 00000000 00000600  ................
 1730 87010000 00000000 00000000 00000000  ................
 1740 00000000 00000600 ab010000 00000000  ................
 1750 00000000 00000000 00000000 00000600  ................
 1760 ce010000 00000000 00000000 00000000  ................
 1770 00000000 00000600 08020000 00000000  ................
 1780 00000000 00000000 00000000 00000600  ................
 1790 44020000 00000000 00000000 00000000  D...............
 17a0 00000000 00000600 7a020000 00000000  ........z.......
 17b0 00000000 00000000 00000000 00000600  ................
 17c0 9d020000 00000000 00000000 00000000  ................
 17d0 00000000 00000600 c2020000 00000000  ................
 17e0 00000000 00000000 00000000 00000600  ................
 17f0 e8020000 00000000 00000000 00000000  ................
 1800 00000000 00000600 50030000 00000000  ........P.......
 1810 00000000 00000000 00000000 00000600  ................
 1820 73030000 00000000 00000000 00000000  s...............
 1830 00000000 00000600 c6030000 00000000  ................
 1840 00000000 00000000 bc000000 00000e00  ................
 1850 00000000 00000000 00000000 00000000  ................
 1860 00000000 00000900 00000000 00000000  ................
 1870 00000000 00000000 00000000 00000900  ................
 1880 30000000 00000000 00000000 00000000  0...............
 1890 00000000 00000900 60000000 00000000  ........`.......
 18a0 00000000 00000000 00000000 00000d00  ................
 18b0 00000000 00000000 00000000 00000000  ................
 18c0 00000000 00000300 b8060000 00000000  ................
 18d0 00000000 00000000 84010000 00000500  ................
 18e0 c00a0000 00000000 70000000 00000000  ........p.......
 18f0 d0000000 1000f1ff e0ff0000 00000000  ................
 1900 00000000 00000000 d5000000 12000300  ................
 1910 48060000 00000000 70000000 00000000  H.......p.......
 1920 da000000 12000300 30010000 00000000  ........0.......
 1930 1c000000 00000000 e1000000 12000300  ................
 1940 4c010000 00000000 24000000 00000000  L.......$.......
 1950 e8000000 12000300 70010000 00000000  ........p.......
 1960 54000000 00000000 00010000 12000300  T...............
 1970 c4010000 00000000 58000000 00000000  ........X.......
 1980 23010000 12000300 1c020000 00000000  #...............
 1990 18020000 00000000 36010000 12000300  ........6.......
 19a0 34040000 00000000 0c020000 00000000  4...............
 19b0 4f010000 1000f1ff 00000001 00000000  O...............
 19c0 00000000 00000000 5f010000 1000f1ff  ........_.......
 19d0 08000001 00000000 00000000 00000000  ................
 19e0 6f010000 1000f1ff 10000001 00000000  o...............
 19f0 00000000 00000000 78010000 1000f1ff  ........x.......
 1a00 00500200 00000000 00000000 00000000  .P..............
Contents of section .shstrtab:
 0000 005f5f63 61705f72 656c6f63 73002e74  .__cap_relocs..t
 0010 6578742e 696e6974 002e7465 7874002e  ext.init..text..
 0020 64617461 002e6361 70746162 6c65002e  data..captable..
 0030 64656275 675f6c6f 63002e64 65627567  debug_loc..debug
 0040 5f616262 72657600 2e646562 75675f69  _abbrev..debug_i
 0050 6e666f00 2e646562 75675f72 616e6765  nfo..debug_range
 0060 73002e64 65627567 5f737472 002e636f  s..debug_str..co
 0070 6d6d656e 74002e72 69736376 2e617474  mment..riscv.att
 0080 72696275 74657300 2e646562 75675f66  ributes..debug_f
 0090 72616d65 002e6465 6275675f 6c696e65  rame..debug_line
 00a0 002e7379 6d746162 002e7368 73747274  ..symtab..shstrt
 00b0 6162002e 73747274 616200             ab..strtab.
Contents of section .strtab:
 0000 00656e74 72790065 6e640076 6563746f  .entry.end.vecto
 0010 725f6d65 6d637079 5f706f69 6e746572  r_memcpy_pointer
 0020 732e6370 70002e4c 4242345f 39002e4c  s.cpp..LBB4_9..L
 0030 5f5f636f 6e73742e 5f5a3133 72756e5f  __const._Z13run_
 0040 62617365 5f746573 74762e69 6e646963  base_testv.indic
 0050 6573002e 4c424234 5f313000 2e4c4242  es..LBB4_10..LBB
 0060 355f3800 2e4c5f5f 636f6e73 742e5f5a  5_8..L__const._Z
 0070 31397275 6e5f696e 76616c69 64617465  19run_invalidate
 0080 5f746573 74762e69 6e646963 6573005f  _testv.indices._
 0090 5a4c3133 63686572 695f7461 675f6765  ZL13cheri_tag_ge
 00a0 74507600 2e4c4242 375f3100 2e4c4242  tPv..LBB7_1..LBB
 00b0 375f3200 2e4c4242 375f3300 2e4c6c69  7_2..LBB7_3..Lli
 00c0 6e655f74 61626c65 5f737461 72743000  ne_table_start0.
 00d0 5f5f7370 006d6169 6e006d65 6d736574  __sp.main.memset
 00e0 006d656d 63707900 5f5a3133 76656374  .memcpy._Z13vect
 00f0 6f725f6d 656d6370 79506850 4b686d00  or_memcpyPhPKhm.
 0100 5f5a3234 76656374 6f725f6d 656d6370  _Z24vector_memcp
 0110 795f696e 76616c69 64617465 5068504b  y_invalidatePhPK
 0120 686d005f 5a313372 756e5f62 6173655f  hm._Z13run_base_
 0130 74657374 76005f5a 31397275 6e5f696e  testv._Z19run_in
 0140 76616c69 64617465 5f746573 7476006f  validate_testv.o
 0150 75747075 74417474 656d7074 6564006f  utputAttempted.o
 0160 75747075 74537563 63656564 65640066  utputSucceeded.f
 0170 696e6973 68656400 72616d42 6f756e64  inished.ramBound
 0180 61727900 5f434845 52495f43 41504142  ary._CHERI_CAPAB
 0190 494c4954 595f5441 424c455f 00        ILITY_TABLE_.

Disassembly of section .text.init:

0000000000000118 <entry>:
     118: 17 11 00 00  	auipcc	csp, 1
     11c: 0f 21 81 9a  	clc	csp, -1624(csp)
     120: 17 13 00 00  	auipcc	ct1, 1
     124: 0f 23 03 9b  	clc	ct1, -1616(ct1)
     128: e7 00 03 00  	cjalr	ct1

000000000000012c <end>:
     12c: 6f 00 00 00  	j	0x12c <end>

Disassembly of section .text:

0000000000000130 <memset>:
;     for (int i = 0; i < count; i++) {
     130: 63 0c 06 00  	beqz	a2, 0x148 <memset+0x18>
     134: 93 06 00 00  	mv	a3, zero
;         *(dest_uc + i) = ch_uc;
     138: 5b 07 d5 22  	cincoffset	ca4, ca0, a3
;     for (int i = 0; i < count; i++) {
     13c: 93 86 16 00  	addi	a3, a3, 1
;         *(dest_uc + i) = ch_uc;
     140: 23 00 b7 00  	csb	a1, 0(ca4)
;     for (int i = 0; i < count; i++) {
     144: e3 1a d6 fe  	bne	a2, a3, 0x138 <memset+0x8>
;     return dest_uc;
     148: 67 80 00 00  	cret

000000000000014c <memcpy>:
;     while(count > 0) {
     14c: 63 00 06 02  	beqz	a2, 0x16c <memcpy+0x20>
     150: db 06 a5 fe  	cmove	ca3, ca0
;         *dest_uc = *src_uc;
     154: 03 87 05 00  	clb	a4, 0(ca1)
     158: 23 80 e6 00  	csb	a4, 0(ca3)
;         dest_uc++;
     15c: db 96 16 00  	cincoffset	ca3, ca3, 1
;         count--;
     160: 13 06 f6 ff  	addi	a2, a2, -1
;         src_uc++;
     164: db 95 15 00  	cincoffset	ca1, ca1, 1
;     while(count > 0) {
     168: e3 16 06 fe  	bnez	a2, 0x154 <memcpy+0x8>
;     return dest;
     16c: 67 80 00 00  	cret

0000000000000170 <_Z13vector_memcpyPhPKhm>:
; void vector_memcpy(uint8_t* dst, const uint8_t* src, size_t num_bytes) {
     170: 93 06 00 01  	addi	a3, zero, 16
;     while (num_bytes >= 16) {
     174: 63 66 d6 02  	bltu	a2, a3, 0x1a0 <_Z13vector_memcpyPhPKhm+0x30>
     178: 93 06 f0 00  	addi	a3, zero, 15
;         size_t num_elements = num_bytes / 16;
     17c: 13 57 46 00  	srli	a4, a2, 4
;         asm volatile ("vsetvli %0, %1, e128, m8, tu, mu" : "=r"(copied_128bit_elems_per_iter) : "r"(num_elements));
     180: 57 77 37 02  	<unknown>
;         asm volatile ("vle128.v v8, (%0)" :: ASM_PREG(src));
     184: 07 84 05 12  	<unknown>
;         asm volatile ("vse128.v v8, (%0)" :: ASM_PREG(dst));
     188: 27 04 05 12  	<unknown>
;         src += copied_128bit_elems_per_iter * 16;
     18c: 13 17 47 00  	slli	a4, a4, 4
     190: db 85 e5 22  	cincoffset	ca1, ca1, a4
;         num_bytes -= copied_128bit_elems_per_iter * 16;
     194: 33 06 e6 40  	sub	a2, a2, a4
;         dst += copied_128bit_elems_per_iter * 16;
     198: 5b 05 e5 22  	cincoffset	ca0, ca0, a4
;     while (num_bytes >= 16) {
     19c: e3 e0 c6 fe  	bltu	a3, a2, 0x17c <_Z13vector_memcpyPhPKhm+0xc>
;     while (num_bytes > 0) {
     1a0: 63 00 06 02  	beqz	a2, 0x1c0 <_Z13vector_memcpyPhPKhm+0x50>
;         size_t copied_per_iter = vsetvl_e8m8(num_bytes);
     1a4: d7 76 36 04  	<unknown>
;         asm volatile ("vle8.v %0, (%1)" : "=vr"(data) : ASM_PREG(src));
     1a8: 07 84 05 02  	<unknown>
;         asm volatile ("vse8.v %0, (%1)" :: "vr"(data),  ASM_PREG(dst));
     1ac: 27 04 05 02  	<unknown>
;         src += copied_per_iter;
     1b0: db 85 d5 22  	cincoffset	ca1, ca1, a3
;         num_bytes -= copied_per_iter;
     1b4: 33 06 d6 40  	sub	a2, a2, a3
;         dst += copied_per_iter;
     1b8: 5b 05 d5 22  	cincoffset	ca0, ca0, a3
;     while (num_bytes > 0) {
     1bc: e3 14 06 fe  	bnez	a2, 0x1a4 <_Z13vector_memcpyPhPKhm+0x34>
; }
     1c0: 67 80 00 00  	cret

00000000000001c4 <_Z24vector_memcpy_invalidatePhPKhm>:
; void vector_memcpy_invalidate(uint8_t __attribute__((aligned(16)))* dst, const uint8_t __attribute__((aligned(16)))* src, size_t num_bytes) {
     1c4: 93 06 00 01  	addi	a3, zero, 16
;     while (num_bytes >= 16) {
     1c8: 63 68 d6 02  	bltu	a2, a3, 0x1f8 <_Z24vector_memcpy_invalidatePhPKhm+0x34>
     1cc: 93 06 f0 00  	addi	a3, zero, 15
;         size_t num_elements = num_bytes / 16;
     1d0: 13 57 46 00  	srli	a4, a2, 4
;         asm volatile ("vsetvli %0, %1, e128, m4, tu, mu" : "=r"(copied_128bit_elems_per_iter) : "r"(num_elements));
     1d4: 57 77 27 02  	<unknown>
;         asm volatile ("vle128.v v8, (%0)" :: ASM_PREG(src));
     1d8: 07 84 05 12  	<unknown>
;         asm volatile ("vadd.vi v8, v8, 0");
     1dc: 57 34 80 02  	<unknown>
;         asm volatile ("vse128.v v8, (%0)" :: ASM_PREG(dst));
     1e0: 27 04 05 12  	<unknown>
;         src += copied_128bit_elems_per_iter * 16;
     1e4: 13 17 47 00  	slli	a4, a4, 4
     1e8: db 85 e5 22  	cincoffset	ca1, ca1, a4
;         num_bytes -= copied_128bit_elems_per_iter * 16;
     1ec: 33 06 e6 40  	sub	a2, a2, a4
;         dst += copied_128bit_elems_per_iter * 16;
     1f0: 5b 05 e5 22  	cincoffset	ca0, ca0, a4
;     while (num_bytes >= 16) {
     1f4: e3 ee c6 fc  	bltu	a3, a2, 0x1d0 <_Z24vector_memcpy_invalidatePhPKhm+0xc>
;     while (num_bytes > 0) {
     1f8: 63 00 06 02  	beqz	a2, 0x218 <_Z24vector_memcpy_invalidatePhPKhm+0x54>
;         size_t copied_per_iter = vsetvl_e8m8(num_bytes);
     1fc: d7 76 36 04  	<unknown>
;         asm volatile ("vle8.v %0, (%1)" : "=vr"(data) : ASM_PREG(src));
     200: 07 84 05 02  	<unknown>
;         asm volatile ("vse8.v %0, (%1)" :: "vr"(data),  ASM_PREG(dst));
     204: 27 04 05 02  	<unknown>
;         src += copied_per_iter;
     208: db 85 d5 22  	cincoffset	ca1, ca1, a3
;         num_bytes -= copied_per_iter;
     20c: 33 06 d6 40  	sub	a2, a2, a3
;         dst += copied_per_iter;
     210: 5b 05 d5 22  	cincoffset	ca0, ca0, a3
;     while (num_bytes > 0) {
     214: e3 14 06 fe  	bnez	a2, 0x1fc <_Z24vector_memcpy_invalidatePhPKhm+0x38>
; }
     218: 67 80 00 00  	cret

000000000000021c <_Z13run_base_testv>:
; int run_base_test(void) {
     21c: 5b 11 01 81  	cincoffset	csp, csp, -2032
     220: 23 40 11 7e  	csc	cra, 2016(csp)
     224: 23 48 81 7c  	csc	cs0, 2000(csp)
     228: 23 40 91 7c  	csc	cs1, 1984(csp)
     22c: 37 e5 ff ff  	lui	a0, 1048574
     230: 1b 05 05 77  	addiw	a0, a0, 1904
     234: 5b 01 a1 22  	cincoffset	csp, csp, a0
     238: 13 05 00 00  	mv	a0, zero
     23c: b7 25 00 00  	lui	a1, 2
     240: 9b 85 05 01  	addiw	a1, a1, 16
     244: db 05 b1 22  	cincoffset	ca1, csp, a1
     248: db a5 05 04  	csetbounds	ca1, ca1, 64
;     Base bases[4] = {
     24c: 23 c8 05 02  	csc	cnull, 48(ca1)
     250: 23 c0 05 02  	csc	cnull, 32(ca1)
     254: 23 c8 05 00  	csc	cnull, 16(ca1)
     258: 23 c0 05 00  	csc	cnull, 0(ca1)
     25c: 37 76 74 00  	lui	a2, 1863
     260: 1b 06 16 ef  	addiw	a2, a2, -271
     264: 13 16 f6 00  	slli	a2, a2, 15
     268: 13 06 36 95  	addi	a2, a2, -1709
     26c: 13 16 d6 00  	slli	a2, a2, 13
     270: 13 06 96 b4  	addi	a2, a2, -1207
     274: 13 16 c6 00  	slli	a2, a2, 12
     278: 13 06 a6 75  	addi	a2, a2, 1882
     27c: b7 26 00 00  	lui	a3, 2
     280: 9b 86 06 01  	addiw	a3, a3, 16
     284: db 06 d1 22  	cincoffset	ca3, csp, a3
     288: 23 b0 c6 00  	csd	a2, 0(ca3)
     28c: 37 46 67 fc  	lui	a2, 1033844
     290: 1b 06 36 f0  	addiw	a2, a2, -253
     294: 13 16 c6 00  	slli	a2, a2, 12
     298: 13 06 d6 21  	addi	a2, a2, 541
     29c: 13 16 d6 00  	slli	a2, a2, 13
     2a0: 13 06 b6 62  	addi	a2, a2, 1579
     2a4: 13 16 c6 00  	slli	a2, a2, 12
     2a8: 13 06 46 4a  	addi	a2, a2, 1188
     2ac: b7 26 00 00  	lui	a3, 2
     2b0: 9b 86 06 02  	addiw	a3, a3, 32
     2b4: db 06 d1 22  	cincoffset	ca3, csp, a3
     2b8: 23 b0 c6 00  	csd	a2, 0(ca3)
     2bc: 37 56 ce 00  	lui	a2, 3301
     2c0: 1b 06 36 f3  	addiw	a2, a2, -205
     2c4: 13 16 d6 00  	slli	a2, a2, 13
     2c8: 13 06 76 5c  	addi	a2, a2, 1479
     2cc: 13 16 e6 00  	slli	a2, a2, 14
     2d0: 13 06 f6 33  	addi	a2, a2, 831
     2d4: 13 16 c6 00  	slli	a2, a2, 12
     2d8: 13 06 e6 cd  	addi	a2, a2, -802
     2dc: b7 26 00 00  	lui	a3, 2
     2e0: 9b 86 06 03  	addiw	a3, a3, 48
     2e4: db 06 d1 22  	cincoffset	ca3, csp, a3
     2e8: 23 b0 c6 00  	csd	a2, 0(ca3)
     2ec: 37 06 2a ff  	lui	a2, 1045152
     2f0: 1b 06 96 eb  	addiw	a2, a2, -327
     2f4: 13 16 e6 00  	slli	a2, a2, 14
     2f8: 13 06 b6 e3  	addi	a2, a2, -453
     2fc: 13 16 c6 00  	slli	a2, a2, 12
     300: 13 06 f6 d6  	addi	a2, a2, -657
     304: 13 16 d6 00  	slli	a2, a2, 13
     308: 13 06 76 69  	addi	a2, a2, 1687
     30c: b7 26 00 00  	lui	a3, 2
     310: 9b 86 06 04  	addiw	a3, a3, 64
     314: db 06 d1 22  	cincoffset	ca3, csp, a3
     318: 23 b0 c6 00  	csd	a2, 0(ca3)
     31c: 37 16 00 00  	lui	a2, 1
     320: b7 16 00 00  	lui	a3, 1
     324: 9b 86 06 01  	addiw	a3, a3, 16
     328: db 06 d1 22  	cincoffset	ca3, csp, a3
     32c: db 84 c6 10  	csetbounds	cs1, ca3, a2
     330: 13 06 00 08  	addi	a2, zero, 128

0000000000000334 <.LBB4_9>:
;         int index = indices[i];
     334: 97 06 00 00  	auipcc	ca3, 0
     338: 8f a6 c6 7a  	clc	ca3, 1964(ca3)
     33c: 13 17 25 00  	slli	a4, a0, 2
     340: db 86 e6 22  	cincoffset	ca3, ca3, a4
     344: 83 a6 06 00  	clw	a3, 0(ca3)
;             .expected_base_value = bases[index].value,
     348: 93 96 46 00  	slli	a3, a3, 4
     34c: db 86 d5 22  	cincoffset	ca3, ca1, a3
     350: 03 b7 06 00  	cld	a4, 0(ca3)
;         source_array[i] = Element {
     354: 93 17 55 00  	slli	a5, a0, 5
     358: 5b 84 f4 22  	cincoffset	cs0, cs1, a5
     35c: 23 30 e4 00  	csd	a4, 0(cs0)
     360: 13 e7 07 01  	ori	a4, a5, 16
     364: 5b 87 e4 22  	cincoffset	ca4, cs1, a4
;     for (size_t i = 0; i < 128; i++) {
     368: 13 05 15 00  	addi	a0, a0, 1
;         source_array[i] = Element {
     36c: 23 40 d7 00  	csc	ca3, 0(ca4)
;     for (size_t i = 0; i < 128; i++) {
     370: e3 12 c5 fc  	bne	a0, a2, 0x334 <.LBB4_9>
     374: 37 15 00 00  	lui	a0, 1
     378: db 15 01 01  	cincoffset	ca1, csp, 16
     37c: 5b 84 a5 10  	csetbounds	cs0, ca1, a0
;     Element dest_array[128] = {0};
     380: 37 16 00 00  	lui	a2, 1
     384: 5b 05 a4 fe  	cmove	ca0, cs0
     388: 93 05 00 00  	mv	a1, zero
     38c: 97 00 00 00  	auipcc	cra, 0
     390: e7 80 40 da  	cjalr	-604(cra)
;     vector_memcpy((uint8_t*)dst_ptr, (const uint8_t*)src_ptr, sizeof(Element) * 128);
     394: 37 16 00 00  	lui	a2, 1
     398: 5b 05 a4 fe  	cmove	ca0, cs0
     39c: db 85 a4 fe  	cmove	ca1, cs1
     3a0: 97 00 00 00  	auipcc	cra, 0
     3a4: e7 80 00 dd  	cjalr	-560(cra)
     3a8: 13 05 00 00  	mv	a0, zero
     3ac: b7 25 00 00  	lui	a1, 2
     3b0: 9b 85 05 01  	addiw	a1, a1, 16
     3b4: db 05 b1 22  	cincoffset	ca1, csp, a1
     3b8: db a5 05 04  	csetbounds	ca1, ca1, 64
     3bc: 13 06 00 08  	addi	a2, zero, 128
;         if (dest_array[i].base_ptr->value != dest_array[i].expected_base_value) {
     3c0: 13 17 55 00  	slli	a4, a0, 5
     3c4: 93 66 07 01  	ori	a3, a4, 16
     3c8: db 06 d4 22  	cincoffset	ca3, cs0, a3
     3cc: 8f a6 06 00  	clc	ca3, 0(ca3)
     3d0: 83 b7 06 00  	cld	a5, 0(ca3)
     3d4: 5b 07 e4 22  	cincoffset	ca4, cs0, a4
     3d8: 03 37 07 00  	cld	a4, 0(ca4)
     3dc: 63 9a e7 02  	bne	a5, a4, 0x410 <.LBB4_10+0x30>

00000000000003e0 <.LBB4_10>:
;         if (dest_array[i].base_ptr != (Base* CAPABILITY_IF_SUPPORTED) &bases[indices[i]]) {
     3e0: 17 07 00 00  	auipcc	ca4, 0
     3e4: 0f 27 07 70  	clc	ca4, 1792(ca4)
     3e8: 93 17 25 00  	slli	a5, a0, 2
     3ec: 5b 07 f7 22  	cincoffset	ca4, ca4, a5
     3f0: 03 27 07 00  	clw	a4, 0(ca4)
     3f4: 13 17 47 00  	slli	a4, a4, 4
     3f8: 5b 87 e5 22  	cincoffset	ca4, ca1, a4
     3fc: 63 9a e6 00  	bne	a3, a4, 0x410 <.LBB4_10+0x30>
     400: 13 05 15 00  	addi	a0, a0, 1
;     for (size_t i = 0; i < 128; i++) {
     404: e3 1e c5 fa  	bne	a0, a2, 0x3c0 <.LBB4_9+0x8c>
     408: 13 05 10 00  	addi	a0, zero, 1
     40c: 6f 00 80 00  	j	0x414 <.LBB4_10+0x34>
     410: 13 05 00 00  	mv	a0, zero
; }
     414: b7 25 00 00  	lui	a1, 2
     418: 9b 85 05 89  	addiw	a1, a1, -1904
     41c: 5b 01 b1 22  	cincoffset	csp, csp, a1
     420: 8f 24 01 7c  	clc	cs1, 1984(csp)
     424: 0f 24 01 7d  	clc	cs0, 2000(csp)
     428: 8f 20 01 7e  	clc	cra, 2016(csp)
     42c: 5b 11 01 7f  	cincoffset	csp, csp, 2032
     430: 67 80 00 00  	cret

0000000000000434 <_Z19run_invalidate_testv>:
; int run_invalidate_test(void) {
     434: 5b 11 01 81  	cincoffset	csp, csp, -2032
     438: 23 40 11 7e  	csc	cra, 2016(csp)
     43c: 23 48 81 7c  	csc	cs0, 2000(csp)
     440: 23 40 91 7c  	csc	cs1, 1984(csp)
     444: 23 48 21 7b  	csc	cs2, 1968(csp)
     448: 23 40 31 7b  	csc	cs3, 1952(csp)
     44c: 37 e5 ff ff  	lui	a0, 1048574
     450: 1b 05 05 75  	addiw	a0, a0, 1872
     454: 5b 01 a1 22  	cincoffset	csp, csp, a0
     458: 13 05 00 00  	mv	a0, zero
     45c: b7 25 00 00  	lui	a1, 2
     460: 9b 85 05 01  	addiw	a1, a1, 16
     464: db 05 b1 22  	cincoffset	ca1, csp, a1
     468: db a5 05 04  	csetbounds	ca1, ca1, 64
;     Base bases[4] = {
     46c: 23 c8 05 02  	csc	cnull, 48(ca1)
     470: 23 c0 05 02  	csc	cnull, 32(ca1)
     474: 23 c8 05 00  	csc	cnull, 16(ca1)
     478: 23 c0 05 00  	csc	cnull, 0(ca1)
     47c: 37 76 74 00  	lui	a2, 1863
     480: 1b 06 16 ef  	addiw	a2, a2, -271
     484: 13 16 f6 00  	slli	a2, a2, 15
     488: 13 06 36 95  	addi	a2, a2, -1709
     48c: 13 16 d6 00  	slli	a2, a2, 13
     490: 13 06 96 b4  	addi	a2, a2, -1207
     494: 13 16 c6 00  	slli	a2, a2, 12
     498: 13 06 a6 75  	addi	a2, a2, 1882
     49c: b7 26 00 00  	lui	a3, 2
     4a0: 9b 86 06 01  	addiw	a3, a3, 16
     4a4: db 06 d1 22  	cincoffset	ca3, csp, a3
     4a8: 23 b0 c6 00  	csd	a2, 0(ca3)
     4ac: 37 46 67 fc  	lui	a2, 1033844
     4b0: 1b 06 36 f0  	addiw	a2, a2, -253
     4b4: 13 16 c6 00  	slli	a2, a2, 12
     4b8: 13 06 d6 21  	addi	a2, a2, 541
     4bc: 13 16 d6 00  	slli	a2, a2, 13
     4c0: 13 06 b6 62  	addi	a2, a2, 1579
     4c4: 13 16 c6 00  	slli	a2, a2, 12
     4c8: 13 06 46 4a  	addi	a2, a2, 1188
     4cc: b7 26 00 00  	lui	a3, 2
     4d0: 9b 86 06 02  	addiw	a3, a3, 32
     4d4: db 06 d1 22  	cincoffset	ca3, csp, a3
     4d8: 23 b0 c6 00  	csd	a2, 0(ca3)
     4dc: 37 56 ce 00  	lui	a2, 3301
     4e0: 1b 06 36 f3  	addiw	a2, a2, -205
     4e4: 13 16 d6 00  	slli	a2, a2, 13
     4e8: 13 06 76 5c  	addi	a2, a2, 1479
     4ec: 13 16 e6 00  	slli	a2, a2, 14
     4f0: 13 06 f6 33  	addi	a2, a2, 831
     4f4: 13 16 c6 00  	slli	a2, a2, 12
     4f8: 13 06 e6 cd  	addi	a2, a2, -802
     4fc: b7 26 00 00  	lui	a3, 2
     500: 9b 86 06 03  	addiw	a3, a3, 48
     504: db 06 d1 22  	cincoffset	ca3, csp, a3
     508: 23 b0 c6 00  	csd	a2, 0(ca3)
     50c: 37 06 2a ff  	lui	a2, 1045152
     510: 1b 06 96 eb  	addiw	a2, a2, -327
     514: 13 16 e6 00  	slli	a2, a2, 14
     518: 13 06 b6 e3  	addi	a2, a2, -453
     51c: 13 16 c6 00  	slli	a2, a2, 12
     520: 13 06 f6 d6  	addi	a2, a2, -657
     524: 13 16 d6 00  	slli	a2, a2, 13
     528: 13 06 76 69  	addi	a2, a2, 1687
     52c: b7 26 00 00  	lui	a3, 2
     530: 9b 86 06 04  	addiw	a3, a3, 64
     534: db 06 d1 22  	cincoffset	ca3, csp, a3
     538: 23 b0 c6 00  	csd	a2, 0(ca3)
     53c: 37 16 00 00  	lui	a2, 1
     540: b7 16 00 00  	lui	a3, 1
     544: 9b 86 06 01  	addiw	a3, a3, 16
     548: db 06 d1 22  	cincoffset	ca3, csp, a3
     54c: db 84 c6 10  	csetbounds	cs1, ca3, a2
     550: 13 06 00 08  	addi	a2, zero, 128

0000000000000554 <.LBB5_8>:
;         int index = indices[i];
     554: 97 06 00 00  	auipcc	ca3, 0
     558: 8f a6 c6 59  	clc	ca3, 1436(ca3)
     55c: 13 17 25 00  	slli	a4, a0, 2
     560: db 86 e6 22  	cincoffset	ca3, ca3, a4
     564: 83 a6 06 00  	clw	a3, 0(ca3)
;             .expected_base_value = bases[index].value,
     568: 93 96 46 00  	slli	a3, a3, 4
     56c: db 86 d5 22  	cincoffset	ca3, ca1, a3
     570: 03 b7 06 00  	cld	a4, 0(ca3)
;         source_array[i] = Element {
     574: 93 17 55 00  	slli	a5, a0, 5
     578: 5b 84 f4 22  	cincoffset	cs0, cs1, a5
     57c: 23 30 e4 00  	csd	a4, 0(cs0)
     580: 13 e7 07 01  	ori	a4, a5, 16
     584: 5b 87 e4 22  	cincoffset	ca4, cs1, a4
;     for (size_t i = 0; i < 128; i++) {
     588: 13 05 15 00  	addi	a0, a0, 1
;         source_array[i] = Element {
     58c: 23 40 d7 00  	csc	ca3, 0(ca4)
;     for (size_t i = 0; i < 128; i++) {
     590: e3 12 c5 fc  	bne	a0, a2, 0x554 <.LBB5_8>
     594: 37 15 00 00  	lui	a0, 1
     598: db 15 01 01  	cincoffset	ca1, csp, 16
     59c: db 89 a5 10  	csetbounds	cs3, ca1, a0
;     Element dest_array[128] = {0};
     5a0: 37 16 00 00  	lui	a2, 1
     5a4: 5b 85 a9 fe  	cmove	ca0, cs3
     5a8: 93 05 00 00  	mv	a1, zero
     5ac: 97 00 00 00  	auipcc	cra, 0
     5b0: e7 80 40 b8  	cjalr	-1148(cra)
;     vector_memcpy_invalidate((uint8_t*)dst_ptr, (const uint8_t*)src_ptr, sizeof(Element) * 128);
     5b4: 37 16 00 00  	lui	a2, 1
     5b8: 5b 85 a9 fe  	cmove	ca0, cs3
     5bc: db 85 a4 fe  	cmove	ca1, cs1
     5c0: 97 00 00 00  	auipcc	cra, 0
     5c4: e7 80 40 c0  	cjalr	-1020(cra)
;         Base* CAPABILITY_IF_SUPPORTED ptr = dest_array[i].base_ptr;
     5c8: 0f 25 01 02  	clc	ca0, 32(csp)
;         if (cheri_tag_get(ptr)) {
     5cc: 97 00 00 00  	auipcc	cra, 0
     5d0: e7 80 40 07  	cjalr	116(cra)
     5d4: 93 05 05 00  	mv	a1, a0
     5d8: 13 05 00 00  	mv	a0, zero
     5dc: 63 9e 05 02  	bnez	a1, 0x618 <.LBB5_8+0xc4>
     5e0: 93 04 00 00  	mv	s1, zero
     5e4: 13 09 f0 07  	addi	s2, zero, 127
     5e8: 13 84 04 00  	mv	s0, s1
;     for (size_t i = 0; i < 128; i++) {
     5ec: 63 82 24 03  	beq	s1, s2, 0x610 <.LBB5_8+0xbc>
     5f0: 93 04 14 00  	addi	s1, s0, 1
;         Base* CAPABILITY_IF_SUPPORTED ptr = dest_array[i].base_ptr;
     5f4: 13 95 54 00  	slli	a0, s1, 5
     5f8: 13 65 05 01  	ori	a0, a0, 16
     5fc: 5b 85 a9 22  	cincoffset	ca0, cs3, a0
     600: 0f 25 05 00  	clc	ca0, 0(ca0)
;         if (cheri_tag_get(ptr)) {
     604: 97 00 00 00  	auipcc	cra, 0
     608: e7 80 c0 03  	cjalr	60(cra)
     60c: e3 0e 05 fc  	beqz	a0, 0x5e8 <.LBB5_8+0x94>
     610: 13 05 e0 07  	addi	a0, zero, 126
;     for (size_t i = 0; i < 128; i++) {
     614: 33 35 85 00  	sltu	a0, a0, s0
; }
     618: b7 25 00 00  	lui	a1, 2
     61c: 9b 85 05 8b  	addiw	a1, a1, -1872
     620: 5b 01 b1 22  	cincoffset	csp, csp, a1
     624: 8f 29 01 7a  	clc	cs3, 1952(csp)
     628: 0f 29 01 7b  	clc	cs2, 1968(csp)
     62c: 8f 24 01 7c  	clc	cs1, 1984(csp)
     630: 0f 24 01 7d  	clc	cs0, 2000(csp)
     634: 8f 20 01 7e  	clc	cra, 2016(csp)
     638: 5b 11 01 7f  	cincoffset	csp, csp, 2032
     63c: 67 80 00 00  	cret

0000000000000640 <_ZL13cheri_tag_getPv>:
; __CHERI_GET(tag, __cheri_bool, _get, 0)
     640: 5b 05 45 fe  	cgettag	a0, ca0
     644: 67 80 00 00  	cret

0000000000000648 <main>:
; {
     648: 5b 11 01 fe  	cincoffset	csp, csp, -32
     64c: 23 48 11 00  	csc	cra, 16(csp)
     650: 23 40 81 00  	csc	cs0, 0(csp)
;     result |= run_base_test() << 0;
     654: 97 00 00 00  	auipcc	cra, 0
     658: e7 80 80 bc  	cjalr	-1080(cra)
     65c: 13 04 05 00  	mv	s0, a0
;     result |= run_invalidate_test() << 1;
     660: 97 00 00 00  	auipcc	cra, 0
     664: e7 80 40 dd  	cjalr	-556(cra)

0000000000000668 <.LBB7_1>:
;     *(&outputAttempted) = attempted;
     668: 97 05 00 00  	auipcc	ca1, 0
     66c: 8f a5 85 49  	clc	ca1, 1176(ca1)
;     result |= run_invalidate_test() << 1;
     670: 13 15 15 00  	slli	a0, a0, 1
     674: 13 06 30 00  	addi	a2, zero, 3
;     *(&outputAttempted) = attempted;
     678: 23 b0 c5 00  	csd	a2, 0(ca1)

000000000000067c <.LBB7_2>:
;     *(&outputSucceeded) = result;
     67c: 97 05 00 00  	auipcc	ca1, 0
     680: 8f a5 45 49  	clc	ca1, 1172(ca1)
;     result |= run_invalidate_test() << 1;
     684: 33 65 85 00  	or	a0, a0, s0
     688: 13 16 05 02  	slli	a2, a0, 32
     68c: 13 56 06 02  	srli	a2, a2, 32
;     *(&outputSucceeded) = result;
     690: 23 b0 c5 00  	csd	a2, 0(ca1)

0000000000000694 <.LBB7_3>:
;     finished = 1;
     694: 97 05 00 00  	auipcc	ca1, 0
     698: 8f a5 c5 48  	clc	ca1, 1164(ca1)
     69c: 13 06 10 00  	addi	a2, zero, 1
;     return result;
     6a0: 1b 05 05 00  	sext.w	a0, a0
;     finished = 1;
     6a4: 23 80 c5 00  	csb	a2, 0(ca1)
;     return result;
     6a8: 0f 24 01 00  	clc	cs0, 0(csp)
     6ac: 8f 20 01 01  	clc	cra, 16(csp)
     6b0: 5b 11 01 02  	cincoffset	csp, csp, 32
     6b4: 67 80 00 00  	cret
