
/media/common/University/Edu/Year4_Masters/Project/riscv-v-lite/programs/build/llvm-13-rv32imv/vector_memcpy/vector_memcpy.elf:	file format elf32-littleriscv
Contents of section .text.init:
 0000 17010100 13010102 97100000 e7800040  ...............@
 0010 6f000000                             o...
Contents of section .text:
 0014 630c0600 93060500 2380b600 1306f6ff  c.......#.......
 0024 93861600 e31a06fe 67800000 130101ef  ........g.......
 0034 23261110 23248110 23229110 23202111  #&..#$..#"..# !.
 0044 13090500 13040108 13050108 13060008  ................
 0054 93040008 93050000 97000000 e78080fb  ................
 0064 13050100 13060008 93050000 97000000  ................
 0074 e78040fa 13050000 b305a400 2380a500  ..@.........#...
 0084 13051500 e31a95fe 93040108 1305e006  ................
 0094 93050108 13060100 13040100 e7000900  ................
 00a4 13050000 9305d006 03c60400 83460400  .............F..
 00b4 631ed604 1376f50f 13041400 93841400  c....v..........
 00c4 13051500 e362b6fe 8345e106 13050000  .....b...E......
 00d4 63900504 9305f006 1305f0ff 13060100  c...............
 00e4 93968501 93d68641 63cc0600 13f7f50f  .......Ac.......
 00f4 3307e600 03470700 93851500 e30207fe  3....G..........
 0104 3325d500 13451500 6f008000 13050000  3%...E..o.......
 0114 93050000 03290110 83244110 03248110  .....)...$A..$..
 0124 8320c110 13010111 67800000 130101df  . ......g.......
 0134 23261120 23248120 23229120 23202121  #&. #$. #". # !!
 0144 13090500 13050110 13060010 13040110  ................
 0154 93050000 97000000 e780c0eb 13050100  ................
 0164 13060010 93050000 97000000 e78080ea  ................
 0174 13050000 93050008 2310a400 13051500  ........#.......
 0184 13042400 e31ab5fe 93040110 1305e006  ..$.............
 0194 93050110 13060100 13040100 e7000900  ................
 01a4 13050000 b7050100 9385f5ff 1306d006  ................
 01b4 83d60400 03570400 6392e606 b376b500  .....W..c....v..
 01c4 13042400 93842400 13051500 e3e2c6fe  ..$...$.........
 01d4 8355c10d 13050000 63940504 1305e006  .U......c.......
 01e4 b7050100 9385f5ff 1306e007 93060100  ................
 01f4 3377b500 636ee600 13051500 b377b500  3w..cn.......w..
 0204 93971700 b387f600 83d70700 e38207fe  ................
 0214 1335f707 13451500 6f008000 13050000  .5...E..o.......
 0224 93050000 03290120 83244120 03248120  .....). .$A .$. 
 0234 8320c120 13010121 67800000 130101be  . . ...!g.......
 0244 232e1140 232c8140 232a9140 23282141  #..@#,.@#*.@#(!A
 0254 13090500 13050121 13060020 93040121  .......!... ...!
 0264 93050000 97000000 e780c0da 13050101  ................
 0274 13060020 93050000 97000000 e78080d9  ... ............
 0284 13050000 93050008 23a0a400 13051500  ........#.......
 0294 93844400 e31ab5fe 93040121 1305e006  ..D........!....
 02a4 93050121 13060101 13040101 e7000900  ...!............
 02b4 13050000 9305801b 3386a400 03260600  ........3....&..
 02c4 b306a400 83a60600 6314d604 13054500  ........c.....E.
 02d4 e314b5fe 8325811c 13050000 639c0502  .....%......c...
 02e4 1305c11c 9306e006 9305f007 13860600  ................
 02f4 638ab600 03270500 93061600 13054500  c....'........E.
 0304 e30607fe 1305e007 3335c500 6f008000  ........35..o...
 0314 13050000 93050000 03290141 83244141  .........).A.$AA
 0324 03248141 8320c141 13010142 67800000  .$.A. .A...Bg...
 0334 130101ee 232e1110 232c8110 232a9110  ....#...#,..#*..
 0344 23282111 23263111 13090500 9309c108  #(!.#&1.........
 0354 1305c108 13060008 93040008 93050000  ................
 0364 97000000 e78000cb 1305c100 13060008  ................
 0374 1304c100 93050000 97000000 e78080c9  ................
 0384 13050000 9305b00b 3386a900 2300a600  ........3...#...
 0394 3306a400 13051500 2300b600 e31695fe  3.......#.......
 03a4 9304e006 9309c108 1305e006 9305c108  ................
 03b4 1306c100 1304c100 e7000900 13050000  ................
 03c4 9305b00b 6f004001 03460600 6318b606  ....o.@..F..c...
 03d4 13051500 63029502 93761500 3306a400  ....c....v..3...
 03e4 e38406fe b386a900 83c60600 03460600  .............F..
 03f4 e380c6fe 6f008004 8345a107 1305b00b  ....o....E......
 0404 639ea502 1306f006 9305f0ff 9306c100  c...............
 0414 13178601 13578741 634c0700 9377f60f  .....W.AcL...w..
 0424 b387f600 83c70700 13061600 e382a7fe  ................
 0434 33a5e500 13451500 6f008000 13050000  3....E..o.......
 0444 93050000 8329c110 03290111 83244111  .....)...)...$A.
 0454 03248111 8320c111 13010112 67800000  .$... ......g...
 0464 130101de 232e1120 232c8120 232a9120  ....#.. #,. #*. 
 0474 23282121 23263121 13090500 1305c110  #(!!#&1!........
 0484 13060010 1304c110 93050000 97000000  ................
 0494 e78040b8 1305c100 13060010 9304c100  ..@.............
 04a4 93050000 97000000 e780c0b6 13050000  ................
 04b4 9305b00b 13060008 2310a400 2390b400  ........#...#...
 04c4 13051500 13042400 93842400 e316c5fe  ......$...$.....
 04d4 9309e006 1304c110 1305e006 9305c110  ................
 04e4 1306c100 9304c100 e7000900 13050000  ................
 04f4 9305b00b 6f00c001 03d60400 631cb606  ....o.......c...
 0504 13051500 13042400 93842400 630e3501  ......$...$.c.5.
 0514 13761500 e30206fe 03560400 83d60400  .v.......V......
 0524 e300d6fe 6f000005 8355810e 1305b00b  ....o....U......
 0534 6392a504 9305e006 37060100 1306f6ff  c.......7.......
 0544 9306e007 1307c100 b3f7c500 63eef600  ............c...
 0554 93851500 b3f4c500 93941400 b3049700  ................
 0564 83d40400 e382a4fe 13b5f707 13451500  .............E..
 0574 6f008000 13050000 93050000 8329c120  o............). 
 0584 03290121 83244121 03248121 8320c121  .).!.$A!.$.!. .!
 0594 13010122 67800000 130101be 232e1140  ..."g.......#..@
 05a4 232c8140 232a9140 23282141 23263141  #,.@#*.@#(!A#&1A
 05b4 13090500 1305c120 13060020 1304c120  ....... ... ... 
 05c4 93050000 97000000 e780c0a4 1305c100  ................
 05d4 13060020 9304c100 93050000 97000000  ... ............
 05e4 e78040a3 13050000 9305b00b 13060008  ..@.............
 05f4 2320a400 23a0b400 13051500 93844400  # ..#.........D.
 0604 13044400 e316c5fe 9309e006 1304c120  ..D............ 
 0614 1305e006 9305c120 1306c100 9304c100  ....... ........
 0624 e7000900 13050000 9305b00b 6f00c001  ............o...
 0634 03a60400 6314b606 13051500 93844400  ....c.........D.
 0644 13044400 630e3501 13761500 e30206fe  ..D.c.5..v......
 0654 03260400 83a60400 e300d6fe 6f000004  .&..........o...
 0664 8325411c 1305b00b 639aa502 9305811c  .%A.....c.......
 0674 1307e006 1306f007 93060700 630ac700  ............c...
 0684 83a70500 13871600 93854500 e386a7fe  ..........E.....
 0694 1305e007 3335d500 6f008000 13050000  ....35..o.......
 06a4 93050000 8329c140 03290141 83244141  .....).@.).A.$AA
 06b4 03248141 8320c141 13010142 67800000  .$.A. .A...Bg...
 06c4 130101ed 23261112 23248112 23229112  ....#&..#$..#"..
 06d4 23202113 232e3111 232c4111 13090500  # !.#.1.#,A.....
 06e4 93048109 13058109 13060008 13040008  ................
 06f4 93050000 97000000 e780c091 13050000  ................
 0704 232a0108 23280108 23260108 23240108  #*..#(..#&..#$..
 0714 23220108 23200108 232e0106 232c0106  #"..# ..#...#,..
 0724 232a0106 23280106 23260106 23240106  #*..#(..#&..#$..
 0734 23220106 23200106 232e0104 232c0104  #"..# ..#...#,..
 0744 232a0104 23280104 23260104 23240104  #*..#(..#&..#$..
 0754 23220104 23200104 232e0102 232c0102  #"..# ..#...#,..
 0764 232a0102 23280102 23260102 23240102  #*..#(..#&..#$..
 0774 23220102 23200102 232e0100 232c0100  #"..# ..#...#,..
 0784 b385a400 2380a500 13051500 e31a85fe  ....#...........
 0794 93098107 23243101 130a8105 23264101  ....#$1.....#&A.
 07a4 13048103 23288100 93048101 232a9100  ....#(......#*..
 07b4 1305a001 93058109 13068100 e7000900  ................
 07c4 13050000 9305b109 13069001 83c6d5ff  ................
 07d4 03c70900 6392e606 83c6e5ff 03470a00  ....c........G..
 07e4 639ce604 83c6f5ff 03470400 6396e604  c........G..c...
 07f4 83c60500 03c70400 6390e604 9376f50f  ........c....v..
 0804 93841400 13041400 130a1a00 93891900  ................
 0814 93854500 13051500 e3eac6fa 83452109  ..E..........E!.
 0824 13051000 638e0502 93050000 1345f5ff  ....c........E..
 0834 13751500 6f00c000 13050000 93050000  .u..o...........
 0844 032a8111 8329c111 03290112 83244112  .*...)...)...$A.
 0854 03248112 8320c112 13010113 67800000  .$... ......g...
 0864 93052107 13062105 93062103 13051000  ..!...!...!.....
 0874 1307a001 9307e001 93048107 03c40500  ................
 0884 e31404fa 03440600 e31004fa 03c40600  .....D..........
 0894 e31c04f8 1374f70f 1335f401 e3e687f8  .....t...5......
 08a4 13071700 1374f70f 33848400 03440400  .....t..3....D..
 08b4 93851500 13061600 93861600 e30004fc  ................
 08c4 6ff09ff6 130101dd 23261122 23248122  o.......#&."#$."
 08d4 23229122 23202123 232e3121 232c4121  #"."# !##.1!#,A!
 08e4 13090500 13058111 13060010 13048111  ................
 08f4 93050000 97f0ffff e780c071 1305810d  ...........q....
 0904 13060004 93050000 97f0ffff e7808070  ...............p
 0914 13058109 13060004 93050000 97f0ffff  ................
 0924 e780406f 13058105 13060004 93050000  ..@o............
 0934 97f0ffff e780006e 13058101 13060004  .......n........
 0944 93050000 97f0ffff e780c06c 13050000  ...........l....
 0954 93050008 2310a400 13051500 13042400  ....#.........$.
 0964 e31ab5fe 9309810d 23243101 130a8109  ........#$1.....
 0974 23264101 93048105 23289100 13048101  #&A.....#(......
 0984 232a8100 1305a001 93058111 13068100  #*..............
 0994 e7000900 13050000 9305c111 37060100  ............7...
 09a4 1306f6ff 93069001 03d7c5ff 83d70900  ................
 09b4 6312f706 03d7e5ff 83570a00 631cf704  c........W..c...
 09c4 03d70500 83d70400 6316f704 03d72500  ........c.....%.
 09d4 83570400 6310f704 3377c500 13042400  .W..c...3w....$.
 09e4 93842400 130a2a00 93892900 93858500  ..$...*...).....
 09f4 13051500 e36ad7fa 8355c110 13051000  .....j...U......
 0a04 638e0502 93050000 1345f5ff 13751500  c........E...u..
 0a14 6f00c000 13050000 93050000 032a8121  o............*.!
 0a24 8329c121 03290122 83244122 03248122  .).!.).".$A".$."
 0a34 8320c122 13010123 67800000 9305c10c  . ."...#g.......
 0a44 1306c108 9306c104 13051000 1307a001  ................
 0a54 b7070100 9387f7ff 9304e001 1308810d  ................
 0a64 03d40500 e31004fa 03540600 e31c04f8  .........T......
 0a74 03d40600 e31804f8 3374f700 1335f401  ........3t...5..
 0a84 e3e284f8 13071700 3374f700 13141400  ........3t......
 0a94 33048800 03540400 93852500 13062600  3....T....%...&.
 0aa4 93862600 e30e04fa 6ff0dff5 130101bd  ..&.....o.......
 0ab4 23261142 23248142 23229142 23202143  #&.B#$.B#".B# !C
 0ac4 232e3141 232c4141 13090500 13058121  #.1A#,AA.......!
 0ad4 13060020 13048121 93050000 97f0ffff  ... ...!........
 0ae4 e7804053 13058119 13060008 93040008  ..@S............
 0af4 93050000 97f0ffff e780c051 13058111  ...........Q....
 0b04 13060008 93050000 97f0ffff e7808050  ...............P
 0b14 13058109 13060008 93050000 97f0ffff  ................
 0b24 e780404f 13058101 13060008 93050000  ..@O............
 0b34 97f0ffff e780004e 13050000 2320a400  .......N....# ..
 0b44 13051500 13044400 e31a95fe 93098119  ......D.........
 0b54 23243101 130a8111 23264101 93048109  #$1.....#&A.....
 0b64 23289100 13048101 232a8100 1305a001  #(......#*......
 0b74 93058121 13068100 e7000900 13050000  ...!............
 0b84 93050122 13068006 83a685ff 3387a900  ..."........3...
 0b94 03270700 639ee604 83a6c5ff 3307aa00  .'..c.......3...
 0ba4 03270700 6396e604 83a60500 3387a400  .'..c.......3...
 0bb4 03270700 639ee602 83a64500 3307a400  .'..c.....E.3...
 0bc4 03270700 6396e602 13054500 93850501  .'..c.....E.....
 0bd4 e31cc5fa 83250120 13051000 638e0502  .....%. ....c...
 0be4 93050000 1345f5ff 13751500 6f00c000  .....E...u..o...
 0bf4 13050000 93050000 032a8141 8329c141  .........*.A.).A
 0c04 03290142 83244142 03248142 8320c142  .).B.$AB.$.B. .B
 0c14 13010143 67800000 93050118 13060110  ...Cg...........
 0c24 93060108 13074120 13051000 9307a001  ......A ........
 0c34 9304f001 03a40500 e31404fa 03240600  .............$..
 0c44 e31004fa 03a40600 e31c04f8 13b5f701  ................
 0c54 e38897f8 03240700 93854500 13064600  .....$....E...F.
 0c64 93864600 13074700 93871700 e30404fc  ..F...G.........
 0c74 6ff01ff7 6f00c000 93b61600 63920602  o...o.......c...
 0c84 d7763504 e38a06fe 07840502 27040602  .v5.........'...
 0c94 b385d500 3306d600 3305d540 6ff0dffd  ....3...3..@o...
 0ca4 67800000 6f00c000 93b61600 63940602  g...o.......c...
 0cb4 d776b504 e38a06fe 07d40502 27540602  .v..........'T..
 0cc4 13971600 b385e500 3306e600 3305d540  ........3...3..@
 0cd4 6ff09ffd 67800000 6f00c000 93b61600  o...g...o.......
 0ce4 63940602 d7763505 e38a06fe 07e40502  c....v5.........
 0cf4 27640602 13972600 b385e500 3306e600  'd....&.....3...
 0d04 3305d540 6ff09ffd 67800000 6f00c000  3..@o...g...o...
 0d14 93b61600 63940602 d7767505 e38a06fe  ....c....vu.....
 0d24 87ec0502 a76c0602 13972600 b385e500  .....l....&.....
 0d34 3306e600 3305d540 6ff09ffd 67800000  3...3..@o...g...
 0d44 93084000 6f004002 07840502 27040602  ..@.o.@.....'...
 0d54 13080700 33050541 b3850501 33060601  ....3..A....3...
 0d64 93361700 639c0602 57773504 e30a07fe  .6..c...Ww5.....
 0d74 13182700 e37aa8fc 93070000 b386f500  ..'..z..........
 0d84 57703704 0784160b b306f600 93871700  Wp7.............
 0d94 2784160b e39417ff 6ff0dffb 67800000  '.......o...g...
 0da4 93088000 6f008002 07d40502 27540602  ....o.......'T..
 0db4 13080700 33050541 93161800 b385d500  ....3..A........
 0dc4 3306d600 93361700 639c0602 5777b504  3....6..c...Ww..
 0dd4 e30a07fe 13182700 e378a8fc 93070000  ......'..x......
 0de4 b386f500 5770b704 07d4160b b306f600  ....Wp..........
 0df4 93872700 27d4160b e39417ff 6ff09ffb  ..'.'.......o...
 0e04 67800000 93080001 6f008002 07e40502  g.......o.......
 0e14 27640602 13080700 33050541 93162800  'd......3..A..(.
 0e24 b385d500 3306d600 93361700 639c0602  ....3....6..c...
 0e34 57773505 e30a07fe 13182700 e378a8fc  Ww5.......'..x..
 0e44 93070000 b386f500 57703705 07e4160b  ........Wp7.....
 0e54 b306f600 93874700 27e4160b e39417ff  ......G.'.......
 0e64 6ff09ffb 67800000 93080001 6f008002  o...g.......o...
 0e74 87ec0502 a76c0602 13080700 33050541  .....l......3..A
 0e84 93162800 b385d500 3306d600 93361700  ..(.....3....6..
 0e94 639c0602 57777505 e30a07fe 13182700  c...Wwu.......'.
 0ea4 e378a8fc 93070000 b386f500 57707705  .x..........Wpw.
 0eb4 87ec160b b306f600 93874700 a7ec160b  ..........G.....
 0ec4 e39417ff 6ff09ffb 67800000 130101f6  ....o...g.......
 0ed4 232e1108 232c8108 232a9108 23282109  #...#,..#*..#(!.
 0ee4 23263109 23244109 13090600 93840500  #&1.#$A.........
 0ef4 13040500 d7793004 13058100 13060008  .....y0.........
 0f04 130a8100 93050000 97f0ffff e7808010  ................
 0f14 638e0900 13050000 93451500 3306aa00  c........E..3...
 0f24 13051500 2300b600 e398a9fe 57f03904  ....#.......W.9.
 0f34 13058100 07040502 6f000002 07880402  ........o.......
 0f44 27080902 b384a400 3309a900 3304a440  '.......3...3..@
 0f54 13351500 631e0500 57753404 e30a05fe  .5..c...Wu4.....
 0f64 e31e35fd 07888406 27088906 6ff09ffd  ..5.....'...o...
 0f74 032a8108 8329c108 03290109 83244109  .*...)...)...$A.
 0f84 03248109 8320c109 1301010a 67800000  .$... ......g...
 0f94 130101ee 232e1110 232c8110 232a9110  ....#...#,..#*..
 0fa4 23282111 23263111 23244111 13090600  #(!.#&1.#$A.....
 0fb4 138a0500 13040500 d779b004 13058100  .........y......
 0fc4 13060010 93048100 93050000 97f0ffff  ................
 0fd4 e7804004 63800902 13050000 93151500  ..@.c...........
 0fe4 93c52500 2390b400 13051500 93842400  ..%.#.........$.
 0ff4 e396a9fe 57f0b904 13058100 07540502  ....W........T..
 1004 6f004002 07580a02 27580902 93151500  o.@..X..'X......
 1014 330aba00 3309b900 3304a440 13351500  3...3...3..@.5..
 1024 631e0500 5775b404 e30a05fe e31c35fd  c...Wu........5.
 1034 07588a06 27588906 6ff05ffd 032a8110  .X..'X..o._..*..
 1044 8329c110 03290111 83244111 03248111  .)...)...$A..$..
 1054 8320c111 13010112 67800000 130101de  . ......g.......
 1064 232e1120 232c8120 232a9120 23282121  #.. #,. #*. #(!!
 1074 23263121 23244121 13090600 93840500  #&1!#$A!........
 1084 13040500 d7793005 13058100 13060020  .....y0........ 
 1094 130a8100 93050000 97f0ffff e78080f7  ................
 10a4 63820902 13050000 93850900 13464500  c............FE.
 10b4 b306aa00 23a0c600 9385f5ff 13054500  ....#.........E.
 10c4 e39605fe 57f03905 13058100 07640502  ....W.9......d..
 10d4 6f004002 07e80402 27680902 93152500  o.@.....'h....%.
 10e4 b384b400 3309b900 3304a440 13351500  ....3...3..@.5..
 10f4 631e0500 57753405 e30a05fe e31c35fd  c...Wu4.......5.
 1104 07e88406 27688906 6ff05ffd 032a8120  ....'h..o._..*. 
 1114 8329c120 03290121 83244121 03248121  .). .).!.$A!.$.!
 1124 8320c121 13010122 67800000 130101de  . .!..."g.......
 1134 232e1120 232c8120 232a9120 23282121  #.. #,. #*. #(!!
 1144 23263121 23244121 13090600 93840500  #&1!#$A!........
 1154 13040500 d7797005 13058100 13060020  .....yp........ 
 1164 130a8100 93050000 97f0ffff e78080ea  ................
 1174 63820902 13050000 93850900 13464500  c............FE.
 1184 b306aa00 23a0c600 9385f5ff 13054500  ....#.........E.
 1194 e39605fe 57f07905 13058100 876c0502  ....W.y......l..
 11a4 6f004002 07ed0402 276d0902 93152500  o.@.....'m....%.
 11b4 b384b400 3309b900 3304a440 13351500  ....3...3..@.5..
 11c4 631e0500 57757405 e30a05fe e31c35fd  c...Wut.......5.
 11d4 07ed9407 276d9907 6ff05ffd 032a8120  ....'m..o._..*. 
 11e4 8329c120 03290121 83244121 03248121  .). .).!.$A!.$.!
 11f4 8320c121 13010122 67800000 d7763005  . .!..."g....v0.
 1204 07e40502 57b08062 6f00c000 93b61600  ....W..bo.......
 1214 63980602 d7763505 e38a06fe 57f03601  c....v5.....W.6.
 1224 07e40500 57703005 27640600 13972600  ....Wp0.'d....&.
 1234 b385e500 3306e600 3305d540 6ff01ffd  ....3...3..@o...
 1244 67800000 93080001 6f00c000 93b61200  g.......o.......
 1254 639e0604 d7721504 e38a02fe 07800562  c....r.........b
 1264 83270600 27800702 83274600 27810702  .'..'....'F.'...
 1274 83278600 27820702 0328c600 93070000  .'..'....(......
 1284 27030802 13982200 b306f600 03a70600  '.....".........
 1294 33075700 93874700 23a0e600 e39617ff  3.W...G.#.......
 12a4 b3850501 33055540 6ff05ffa 67800000  ....3.U@o._.g...
 12b4 93080001 6f00c000 93b61200 63920606  ....o.......c...
 12c4 d7729504 e38a02fe 07d00562 83270600  .r.........b.'..
 12d4 27d00702 83274600 27d10702 83278600  '....'F.'....'..
 12e4 27d20702 0328c600 93070000 27530802  '....(......'S..
 12f4 13982200 b306f600 03a30600 13971200  ..".............
 1304 3307e300 93874700 23a0e600 e39417ff  3.....G.#.......
 1314 93171800 b385f500 33055540 6ff0dff9  ........3.U@o...
 1324 67800000 93080001 6f00c000 93361800  g.......o....6..
 1334 63900606 57781505 e30a08fe 07e00562  c...Wx.........b
 1344 03270600 27600702 03274600 27610702  .'..'`...'F.'a..
 1354 03278600 27620702 8327c600 13070000  .'..'b...'......
 1364 27e30702 93122800 b306e600 83a70600  '.....(.........
 1374 b3875700 13074700 23a0f600 e31617ff  ..W...G.#.......
 1384 13972200 b385e500 33050541 6ff01ffa  ..".....3..Ao...
 1394 67800000 93080001 6f00c000 93361800  g.......o....6..
 13a4 63900606 57787505 e30a08fe 07e00562  c...Wxu........b
 13b4 03270600 27600702 03274600 a7600702  .'..'`...'F..`..
 13c4 03278600 27610702 8327c600 13070000  .'..'a...'......
 13d4 a7e10702 93122800 b306e600 83a70600  ......(.........
 13e4 b3875700 13074700 23a0f600 e31617ff  ..W...G.#.......
 13f4 13972200 b385e500 33050541 6ff01ffa  ..".....3..Ao...
 1404 67800000 130101ff 23261100 23248100  g.......#&..#$..
 1414 23229100 37150000 130585c7 97f0ffff  #"..7...........
 1424 e78000c1 13040500 93840500 37150000  ............7...
 1434 130585ca 97f0ffff e78080cf 1356f501  .............V..
 1444 93951500 b3e5c500 13151500 33648500  ............3d..
 1454 b3e49500 37150000 1305c5cd 97f0ffff  ....7...........
 1464 e78000de 1356e501 93952500 b3e5c500  .....V....%.....
 1474 13152500 b3e4b400 3364a400 37150000  ..%.....3d..7...
 1484 130505d1 97f0ffff e78080db 1356d501  .............V..
 1494 93953500 b3e5c500 13153500 b3e4b400  ..5.......5.....
 14a4 3364a400 37150000 130545d4 97f0ffff  3d..7.....E.....
 14b4 e78000b8 1356c501 93954500 b3e5c500  .....V....E.....
 14c4 13154500 b3e4b400 3364a400 37150000  ..E.....3d..7...
 14d4 130545da 97f0ffff e78080c5 1356b501  ..E..........V..
 14e4 93955500 b3e5c500 13155500 b3e4b400  ..U.......U.....
 14f4 3364a400 37150000 130585e0 97f0ffff  3d..7...........
 1504 e78000d4 1356a501 93956500 b3e5c500  .....V....e.....
 1514 13156500 b3e4b400 3364a400 37150000  ..e.....3d..7...
 1524 1305c5e6 97f0ffff e78080d1 13569501  .............V..
 1534 93957500 b3e5c500 13157500 b3e4b400  ..u.......u.....
 1544 3364a400 37150000 130505ed 97f0ffff  3d..7...........
 1554 e78000ae 13568501 93958500 b3e5c500  .....V..........
 1564 13158500 b3e4b400 3364a400 37150000  ........3d..7...
 1574 130545f9 97f0ffff e78080bb 13567501  ..E..........Vu.
 1584 93959500 b3e5c500 13159500 b3e4b400  ................
 1594 3364a400 37150000 13050506 97f0ffff  3d..7...........
 15a4 e78000ca 13566501 9395a500 b3e5c500  .....Ve.........
 15b4 1315a500 b3e4b400 3364a400 37150000  ........3d..7...
 15c4 13050513 97f0ffff e78080c7 13565501  .............VU.
 15d4 9395b500 b3e5c500 1315b500 b3e4b400  ................
 15e4 3364a400 37150000 13050520 97f0ffff  3d..7...... ....
 15f4 e780c0fa 13564501 9395c500 b3e5c500  .....VE.........
 1604 1315c500 b3e4b400 3364a400 37150000  ........3d..7...
 1614 13058524 97f0ffff e780c00a 13563501  ...$.........V5.
 1624 9395d500 b3e5c500 1315d500 b3e4b400  ................
 1634 3364a400 37150000 1305452b 97f0ffff  3d..7.....E+....
 1644 e7808028 13562501 9395e500 b3e5c500  ...(.V%.........
 1654 1315e500 b3e4b400 3364a400 37150000  ........3d..7...
 1664 13058532 97f0ffff e7808044 13561501  ...2.......D.V..
 1674 9395f500 b3e5c500 1315f500 b3e4b400  ................
 1684 3364a400 37150000 13058539 97f0ffff  3d..7......9....
 1694 e7800042 13560501 93950501 b3e5c500  ...B.V..........
 16a4 13150501 b3e5b400 3365a400 37060001  ........3e..7...
 16b4 23220600 b7060200 9386f6ff 2320d600  #"..........# ..
 16c4 37060001 2324a600 2326b600 13050000  7...#$..#&......
 16d4 83244100 03248100 8320c100 13010101  .$A..$... ......
 16e4 67800000                             g...
Contents of section .comment:
 0000 5562756e 74752063 6c616e67 20766572  Ubuntu clang ver
 0010 73696f6e 2031332e 302e312d 2b2b3230  sion 13.0.1-++20
 0020 32323031 32303131 30393234 2b373565  220120110924+75e
 0030 33336637 31633264 612d317e 65787031  33f71c2da-1~exp1
 0040 7e323032 32303132 30323331 3030312e  ~20220120231001.
 0050 3538004c 696e6b65 723a2055 62756e74  58.Linker: Ubunt
 0060 75204c4c 44203133 2e302e31 0000      u LLD 13.0.1..
Contents of section .riscv.attributes:
 0000 41320000 00726973 63760001 28000000  A2...riscv..(...
 0010 04100572 76333269 3270305f 6d327030  ...rv32i2p0_m2p0
 0020 5f763070 31305f7a 766c7373 65673070  _v0p10_zvlsseg0p
 0030 313000                               10.
Contents of section .symtab:
 0000 00000000 00000000 00000000 00000000  ................
 0010 01000000 00000000 00000000 00000100  ................
 0020 07000000 00000000 00000000 00000100  ................
 0030 13000000 10000000 00000000 00000100  ................
 0040 17000000 00000000 00000000 0400f1ff  ................
 0050 2c000000 2c000000 00000000 00000200  ,...,...........
 0060 34000000 1c000000 00000000 00000200  4...............
 0070 3c000000 7c000000 00000000 00000200  <...|...........
 0080 44000000 ac000000 00000000 00000200  D...............
 0090 4c000000 10010000 00000000 00000200  L...............
 00a0 55000000 14010000 00000000 00000200  U...............
 00b0 5e000000 e4000000 00000000 00000200  ^...............
 00c0 66000000 04010000 00000000 00000200  f...............
 00d0 6e000000 7c010000 00000000 00000200  n...|...........
 00e0 76000000 b4010000 00000000 00000200  v...............
 00f0 7e000000 20020000 00000000 00000200  ~... ...........
 0100 87000000 24020000 00000000 00000200  ....$...........
 0110 90000000 f4010000 00000000 00000200  ................
 0120 98000000 14020000 00000000 00000200  ................
 0130 a0000000 8c020000 00000000 00000200  ................
 0140 a8000000 bc020000 00000000 00000200  ................
 0150 b0000000 14030000 00000000 00000200  ................
 0160 b9000000 18030000 00000000 00000200  ................
 0170 c2000000 f0020000 00000000 00000200  ................
 0180 ca000000 08030000 00000000 00000200  ................
 0190 d2000000 8c030000 00000000 00000200  ................
 01a0 da000000 dc030000 00000000 00000200  ................
 01b0 e2000000 cc030000 00000000 00000200  ................
 01c0 ea000000 40040000 00000000 00000200  ....@...........
 01d0 f3000000 d4030000 00000000 00000200  ................
 01e0 fb000000 fc030000 00000000 00000200  ................
 01f0 03010000 14040000 00000000 00000200  ................
 0200 0b010000 34040000 00000000 00000200  ....4...........
 0210 14010000 44040000 00000000 00000200  ....D...........
 0220 1d010000 bc040000 00000000 00000200  ................
 0230 25010000 14050000 00000000 00000200  %...............
 0240 2d010000 fc040000 00000000 00000200  -...............
 0250 35010000 78050000 00000000 00000200  5...x...........
 0260 3e010000 04050000 00000000 00000200  >...............
 0270 46010000 2c050000 00000000 00000200  F...,...........
 0280 4e010000 4c050000 00000000 00000200  N...L...........
 0290 56010000 6c050000 00000000 00000200  V...l...........
 02a0 5f010000 7c050000 00000000 00000200  _...|...........
 02b0 68010000 f4050000 00000000 00000200  h...............
 02c0 70010000 4c060000 00000000 00000200  p...L...........
 02d0 78010000 34060000 00000000 00000200  x...4...........
 02e0 80010000 a0060000 00000000 00000200  ................
 02f0 89010000 3c060000 00000000 00000200  ....<...........
 0300 91010000 64060000 00000000 00000200  ....d...........
 0310 99010000 7c060000 00000000 00000200  ....|...........
 0320 a1010000 94060000 00000000 00000200  ................
 0330 aa010000 a4060000 00000000 00000200  ................
 0340 b3010000 84070000 00000000 00000200  ................
 0350 bb010000 d0070000 00000000 00000200  ................
 0360 c3010000 3c080000 00000000 00000200  ....<...........
 0370 cc010000 64080000 00000000 00000200  ....d...........
 0380 d5010000 2c080000 00000000 00000200  ....,...........
 0390 dd010000 44080000 00000000 00000200  ....D...........
 03a0 e6010000 80080000 00000000 00000200  ................
 03b0 ef010000 58090000 00000000 00000200  ....X...........
 03c0 f7010000 ac090000 00000000 00000200  ................
 03d0 ff010000 180a0000 00000000 00000200  ................
 03e0 08020000 400a0000 00000000 00000200  ....@...........
 03f0 11020000 080a0000 00000000 00000200  ................
 0400 19020000 200a0000 00000000 00000200  .... ...........
 0410 22020000 640a0000 00000000 00000200  "...d...........
 0420 2b020000 400b0000 00000000 00000200  +...@...........
 0430 33020000 8c0b0000 00000000 00000200  3...............
 0440 3b020000 f40b0000 00000000 00000200  ;...............
 0450 44020000 1c0c0000 00000000 00000200  D...............
 0460 4d020000 e40b0000 00000000 00000200  M...............
 0470 55020000 fc0b0000 00000000 00000200  U...............
 0480 5e020000 380c0000 00000000 00000200  ^...8...........
 0490 67020000 840c0000 00000000 00000200  g...............
 04a0 70020000 7c0c0000 00000000 00000200  p...|...........
 04b0 79020000 a40c0000 00000000 00000200  y...............
 04c0 82020000 b40c0000 00000000 00000200  ................
 04d0 8b020000 ac0c0000 00000000 00000200  ................
 04e0 94020000 d80c0000 00000000 00000200  ................
 04f0 9d020000 e80c0000 00000000 00000200  ................
 0500 a6020000 e00c0000 00000000 00000200  ................
 0510 af020000 0c0d0000 00000000 00000200  ................
 0520 b8020000 1c0d0000 00000000 00000200  ................
 0530 c1020000 140d0000 00000000 00000200  ................
 0540 ca020000 400d0000 00000000 00000200  ....@...........
 0550 d3020000 6c0d0000 00000000 00000200  ....l...........
 0560 dc020000 4c0d0000 00000000 00000200  ....L...........
 0570 e5020000 580d0000 00000000 00000200  ....X...........
 0580 ee020000 640d0000 00000000 00000200  ....d...........
 0590 f7020000 a00d0000 00000000 00000200  ................
 05a0 00030000 800d0000 00000000 00000200  ................
 05b0 09030000 d00d0000 00000000 00000200  ................
 05c0 12030000 ac0d0000 00000000 00000200  ................
 05d0 1b030000 b80d0000 00000000 00000200  ................
 05e0 24030000 c80d0000 00000000 00000200  $...............
 05f0 2d030000 040e0000 00000000 00000200  -...............
 0600 36030000 e40d0000 00000000 00000200  6...............
 0610 3f030000 340e0000 00000000 00000200  ?...4...........
 0620 48030000 100e0000 00000000 00000200  H...............
 0630 51030000 1c0e0000 00000000 00000200  Q...............
 0640 5a030000 2c0e0000 00000000 00000200  Z...,...........
 0650 63030000 680e0000 00000000 00000200  c...h...........
 0660 6c030000 480e0000 00000000 00000200  l...H...........
 0670 75030000 980e0000 00000000 00000200  u...............
 0680 7e030000 740e0000 00000000 00000200  ~...t...........
 0690 87030000 800e0000 00000000 00000200  ................
 06a0 90030000 900e0000 00000000 00000200  ................
 06b0 99030000 cc0e0000 00000000 00000200  ................
 06c0 a2030000 ac0e0000 00000000 00000200  ................
 06d0 ab030000 300f0000 00000000 00000200  ....0...........
 06e0 b4030000 1c0f0000 00000000 00000200  ................
 06f0 bd030000 5c0f0000 00000000 00000200  ....\...........
 0700 c6030000 400f0000 00000000 00000200  ....@...........
 0710 cf030000 480f0000 00000000 00000200  ....H...........
 0720 d8030000 540f0000 00000000 00000200  ....T...........
 0730 e1030000 740f0000 00000000 00000200  ....t...........
 0740 eb030000 f80f0000 00000000 00000200  ................
 0750 f4030000 e00f0000 00000000 00000200  ................
 0760 fd030000 28100000 00000000 00000200  ....(...........
 0770 06040000 08100000 00000000 00000200  ................
 0780 0f040000 10100000 00000000 00000200  ................
 0790 18040000 20100000 00000000 00000200  .... ...........
 07a0 21040000 40100000 00000000 00000200  !...@...........
 07b0 2b040000 c8100000 00000000 00000200  +...............
 07c0 34040000 b0100000 00000000 00000200  4...............
 07d0 3d040000 f8100000 00000000 00000200  =...............
 07e0 46040000 d8100000 00000000 00000200  F...............
 07f0 4f040000 e0100000 00000000 00000200  O...............
 0800 58040000 f0100000 00000000 00000200  X...............
 0810 61040000 10110000 00000000 00000200  a...............
 0820 6b040000 98110000 00000000 00000200  k...............
 0830 74040000 80110000 00000000 00000200  t...............
 0840 7d040000 c8110000 00000000 00000200  }...............
 0850 86040000 a8110000 00000000 00000200  ................
 0860 8f040000 b0110000 00000000 00000200  ................
 0870 98040000 c0110000 00000000 00000200  ................
 0880 a1040000 e0110000 00000000 00000200  ................
 0890 ab040000 18120000 00000000 00000200  ................
 08a0 b4040000 10120000 00000000 00000200  ................
 08b0 bd040000 44120000 00000000 00000200  ....D...........
 08c0 c6040000 58120000 00000000 00000200  ....X...........
 08d0 cf040000 50120000 00000000 00000200  ....P...........
 08e0 d8040000 b0120000 00000000 00000200  ................
 08f0 e1040000 8c120000 00000000 00000200  ................
 0900 ea040000 c4120000 00000000 00000200  ................
 0910 f3040000 bc120000 00000000 00000200  ................
 0920 fc040000 24130000 00000000 00000200  ....$...........
 0930 05050000 f8120000 00000000 00000200  ................
 0940 0e050000 38130000 00000000 00000200  ....8...........
 0950 17050000 30130000 00000000 00000200  ....0...........
 0960 20050000 94130000 00000000 00000200   ...............
 0970 29050000 6c130000 00000000 00000200  )...l...........
 0980 32050000 a8130000 00000000 00000200  2...............
 0990 3b050000 a0130000 00000000 00000200  ;...............
 09a0 44050000 04140000 00000000 00000200  D...............
 09b0 4d050000 dc130000 00000000 00000200  M...............
 09c0 56050000 00000100 00000000 1000f1ff  V...............
 09d0 5b050000 08140000 e0020000 12000200  [...............
 09e0 60050000 14000000 1c000000 12000200  `...............
 09f0 67050000 30000000 00010000 12000200  g...0...........
 0a00 85050000 30010000 10010000 12000200  ....0...........
 0a10 a4050000 40020000 f4000000 12000200  ....@...........
 0a20 c3050000 34030000 30010000 12000200  ....4...0.......
 0a30 e8050000 64040000 38010000 12000200  ....d...8.......
 0a40 0e060000 9c050000 28010000 12000200  ........(.......
 0a50 34060000 c4060000 04020000 12000200  4...............
 0a60 5c060000 c8080000 e8010000 12000200  \...............
 0a70 85060000 b00a0000 c8010000 12000200  ................
 0a80 ae060000 780c0000 30000000 12000200  ....x...0.......
 0a90 cd060000 a80c0000 34000000 12000200  ........4.......
 0aa0 ed060000 dc0c0000 34000000 12000200  ........4.......
 0ab0 0d070000 100d0000 34000000 12000200  ........4.......
 0ac0 2e070000 440d0000 60000000 12000200  ....D...`.......
 0ad0 49070000 a40d0000 64000000 12000200  I.......d.......
 0ae0 65070000 080e0000 64000000 12000200  e.......d.......
 0af0 81070000 6c0e0000 64000000 12000200  ....l...d.......
 0b00 9e070000 d00e0000 c4000000 12000200  ................
 0b10 b9070000 940f0000 cc000000 12000200  ................
 0b20 d5070000 60100000 d0000000 12000200  ....`...........
 0b30 f1070000 30110000 d0000000 12000200  ....0...........
 0b40 0e080000 00120000 48000000 12000200  ........H.......
 0b50 29080000 48120000 6c000000 12000200  )...H...l.......
 0b60 46080000 b4120000 74000000 12000200  F.......t.......
 0b70 64080000 28130000 70000000 12000200  d...(...p.......
 0b80 82080000 98130000 70000000 12000200  ........p.......
 0b90 a1080000 00000001 00000000 1000f1ff  ................
 0ba0 b1080000 08000001 00000000 1000f1ff  ................
Contents of section .shstrtab:
 0000 002e7465 78742e69 6e697400 2e746578  ..text.init..tex
 0010 74002e63 6f6d6d65 6e74002e 72697363  t..comment..risc
 0020 762e6174 74726962 75746573 002e7379  v.attributes..sy
 0030 6d746162 002e7368 73747274 6162002e  mtab..shstrtab..
 0040 73747274 616200                      strtab.
Contents of section .strtab:
 0000 00656e74 7279002e 4c706372 656c5f68  .entry..Lpcrel_h
 0010 69300065 6e640074 6573745f 76656374  i0.end.test_vect
 0020 6f725f6d 656d6370 792e6300 2e4c4242  or_memcpy.c..LBB
 0030 305f3300 2e4c4242 305f3200 2e4c4242  0_3..LBB0_2..LBB
 0040 315f3100 2e4c4242 315f3300 2e4c4242  1_1..LBB1_3..LBB
 0050 315f3130 002e4c42 42315f31 31002e4c  1_10..LBB1_11..L
 0060 4242315f 37002e4c 4242315f 39002e4c  BB1_7..LBB1_9..L
 0070 4242325f 31002e4c 4242325f 33002e4c  BB2_1..LBB2_3..L
 0080 4242325f 3130002e 4c424232 5f313100  BB2_10..LBB2_11.
 0090 2e4c4242 325f3700 2e4c4242 325f3900  .LBB2_7..LBB2_9.
 00a0 2e4c4242 335f3100 2e4c4242 335f3300  .LBB3_1..LBB3_3.
 00b0 2e4c4242 335f3130 002e4c42 42335f31  .LBB3_10..LBB3_1
 00c0 31002e4c 4242335f 37002e4c 4242335f  1..LBB3_7..LBB3_
 00d0 39002e4c 4242345f 31002e4c 4242345f  9..LBB4_1..LBB4_
 00e0 35002e4c 4242345f 33002e4c 4242345f  5..LBB4_3..LBB4_
 00f0 3132002e 4c424234 5f34002e 4c424234  12..LBB4_4..LBB4
 0100 5f37002e 4c424234 5f39002e 4c424234  _7..LBB4_9..LBB4
 0110 5f313100 2e4c4242 345f3133 002e4c42  _11..LBB4_13..LB
 0120 42355f31 002e4c42 42355f35 002e4c42  B5_1..LBB5_5..LB
 0130 42355f33 002e4c42 42355f31 32002e4c  B5_3..LBB5_12..L
 0140 4242355f 34002e4c 4242355f 37002e4c  BB5_4..LBB5_7..L
 0150 4242355f 39002e4c 4242355f 3131002e  BB5_9..LBB5_11..
 0160 4c424235 5f313300 2e4c4242 365f3100  LBB5_13..LBB6_1.
 0170 2e4c4242 365f3500 2e4c4242 365f3300  .LBB6_5..LBB6_3.
 0180 2e4c4242 365f3132 002e4c42 42365f34  .LBB6_12..LBB6_4
 0190 002e4c42 42365f37 002e4c42 42365f39  ..LBB6_7..LBB6_9
 01a0 002e4c42 42365f31 31002e4c 4242365f  ..LBB6_11..LBB6_
 01b0 3133002e 4c424237 5f31002e 4c424237  13..LBB7_1..LBB7
 01c0 5f33002e 4c424237 5f313000 2e4c4242  _3..LBB7_10..LBB
 01d0 375f3132 002e4c42 42375f39 002e4c42  7_12..LBB7_9..LB
 01e0 42375f31 31002e4c 4242375f 3133002e  B7_11..LBB7_13..
 01f0 4c424238 5f31002e 4c424238 5f33002e  LBB8_1..LBB8_3..
 0200 4c424238 5f313000 2e4c4242 385f3132  LBB8_10..LBB8_12
 0210 002e4c42 42385f39 002e4c42 42385f31  ..LBB8_9..LBB8_1
 0220 31002e4c 4242385f 3133002e 4c424239  1..LBB8_13..LBB9
 0230 5f31002e 4c424239 5f33002e 4c424239  _1..LBB9_3..LBB9
 0240 5f313000 2e4c4242 395f3132 002e4c42  _10..LBB9_12..LB
 0250 42395f39 002e4c42 42395f31 31002e4c  B9_9..LBB9_11..L
 0260 4242395f 3133002e 4c424231 305f3200  BB9_13..LBB10_2.
 0270 2e4c4242 31305f31 002e4c42 4231305f  .LBB10_1..LBB10_
 0280 34002e4c 42423131 5f32002e 4c424231  4..LBB11_2..LBB1
 0290 315f3100 2e4c4242 31315f34 002e4c42  1_1..LBB11_4..LB
 02a0 4231325f 32002e4c 42423132 5f31002e  B12_2..LBB12_1..
 02b0 4c424231 325f3400 2e4c4242 31335f32  LBB12_4..LBB13_2
 02c0 002e4c42 4231335f 31002e4c 42423133  ..LBB13_1..LBB13
 02d0 5f34002e 4c424231 345f3400 2e4c4242  _4..LBB14_4..LBB
 02e0 31345f31 002e4c42 4231345f 32002e4c  14_1..LBB14_2..L
 02f0 42423134 5f33002e 4c424231 345f3800  BB14_3..LBB14_8.
 0300 2e4c4242 31345f37 002e4c42 4231355f  .LBB14_7..LBB15_
 0310 34002e4c 42423135 5f31002e 4c424231  4..LBB15_1..LBB1
 0320 355f3200 2e4c4242 31355f33 002e4c42  5_2..LBB15_3..LB
 0330 4231355f 38002e4c 42423135 5f37002e  B15_8..LBB15_7..
 0340 4c424231 365f3400 2e4c4242 31365f31  LBB16_4..LBB16_1
 0350 002e4c42 4231365f 32002e4c 42423136  ..LBB16_2..LBB16
 0360 5f33002e 4c424231 365f3800 2e4c4242  _3..LBB16_8..LBB
 0370 31365f37 002e4c42 4231375f 34002e4c  16_7..LBB17_4..L
 0380 42423137 5f31002e 4c424231 375f3200  BB17_1..LBB17_2.
 0390 2e4c4242 31375f33 002e4c42 4231375f  .LBB17_3..LBB17_
 03a0 38002e4c 42423137 5f37002e 4c424231  8..LBB17_7..LBB1
 03b0 385f3300 2e4c4242 31385f32 002e4c42  8_3..LBB18_2..LB
 03c0 4231385f 37002e4c 42423138 5f34002e  B18_7..LBB18_4..
 03d0 4c424231 385f3500 2e4c4242 31385f36  LBB18_5..LBB18_6
 03e0 002e4c42 4231385f 3130002e 4c424231  ..LBB18_10..LBB1
 03f0 395f3300 2e4c4242 31395f32 002e4c42  9_3..LBB19_2..LB
 0400 4231395f 37002e4c 42423139 5f34002e  B19_7..LBB19_4..
 0410 4c424231 395f3500 2e4c4242 31395f36  LBB19_5..LBB19_6
 0420 002e4c42 4231395f 3130002e 4c424232  ..LBB19_10..LBB2
 0430 305f3300 2e4c4242 32305f32 002e4c42  0_3..LBB20_2..LB
 0440 4232305f 37002e4c 42423230 5f34002e  B20_7..LBB20_4..
 0450 4c424232 305f3500 2e4c4242 32305f36  LBB20_5..LBB20_6
 0460 002e4c42 4232305f 3130002e 4c424232  ..LBB20_10..LBB2
 0470 315f3300 2e4c4242 32315f32 002e4c42  1_3..LBB21_2..LB
 0480 4232315f 37002e4c 42423231 5f34002e  B21_7..LBB21_4..
 0490 4c424232 315f3500 2e4c4242 32315f36  LBB21_5..LBB21_6
 04a0 002e4c42 4232315f 3130002e 4c424232  ..LBB21_10..LBB2
 04b0 325f3200 2e4c4242 32325f31 002e4c42  2_2..LBB22_1..LB
 04c0 4232325f 34002e4c 42423233 5f32002e  B22_4..LBB23_2..
 04d0 4c424232 335f3100 2e4c4242 32335f36  LBB23_1..LBB23_6
 04e0 002e4c42 4232335f 34002e4c 42423234  ..LBB23_4..LBB24
 04f0 5f32002e 4c424232 345f3100 2e4c4242  _2..LBB24_1..LBB
 0500 32345f36 002e4c42 4232345f 34002e4c  24_6..LBB24_4..L
 0510 42423235 5f32002e 4c424232 355f3100  BB25_2..LBB25_1.
 0520 2e4c4242 32355f36 002e4c42 4232355f  .LBB25_6..LBB25_
 0530 34002e4c 42423236 5f32002e 4c424232  4..LBB26_2..LBB2
 0540 365f3100 2e4c4242 32365f36 002e4c42  6_1..LBB26_6..LB
 0550 4232365f 34005f5f 7370006d 61696e00  B26_4.__sp.main.
 0560 6d656d73 65740076 6563746f 725f6d65  memset.vector_me
 0570 6d637079 5f686172 6e657373 5f75696e  mcpy_harness_uin
 0580 74385f74 00766563 746f725f 6d656d63  t8_t.vector_memc
 0590 70795f68 61726e65 73735f75 696e7431  py_harness_uint1
 05a0 365f7400 76656374 6f725f6d 656d6370  6_t.vector_memcp
 05b0 795f6861 726e6573 735f7569 6e743332  y_harness_uint32
 05c0 5f740076 6563746f 725f6d65 6d637079  _t.vector_memcpy
 05d0 5f6d6173 6b65645f 6861726e 6573735f  _masked_harness_
 05e0 75696e74 385f7400 76656374 6f725f6d  uint8_t.vector_m
 05f0 656d6370 795f6d61 736b6564 5f686172  emcpy_masked_har
 0600 6e657373 5f75696e 7431365f 74007665  ness_uint16_t.ve
 0610 63746f72 5f6d656d 6370795f 6d61736b  ctor_memcpy_mask
 0620 65645f68 61726e65 73735f75 696e7433  ed_harness_uint3
 0630 325f7400 76656374 6f725f6d 656d6370  2_t.vector_memcp
 0640 795f7365 676d656e 7465645f 6861726e  y_segmented_harn
 0650 6573735f 75696e74 385f7400 76656374  ess_uint8_t.vect
 0660 6f725f6d 656d6370 795f7365 676d656e  or_memcpy_segmen
 0670 7465645f 6861726e 6573735f 75696e74  ted_harness_uint
 0680 31365f74 00766563 746f725f 6d656d63  16_t.vector_memc
 0690 70795f73 65676d65 6e746564 5f686172  py_segmented_har
 06a0 6e657373 5f75696e 7433325f 74007665  ness_uint32_t.ve
 06b0 63746f72 5f6d656d 6370795f 756e6974  ctor_memcpy_unit
 06c0 5f737472 6964655f 65386d38 00766563  _stride_e8m8.vec
 06d0 746f725f 6d656d63 70795f75 6e69745f  tor_memcpy_unit_
 06e0 73747269 64655f65 31366d38 00766563  stride_e16m8.vec
 06f0 746f725f 6d656d63 70795f75 6e69745f  tor_memcpy_unit_
 0700 73747269 64655f65 33326d38 00766563  stride_e32m8.vec
 0710 746f725f 6d656d63 70795f75 6e69745f  tor_memcpy_unit_
 0720 73747269 64655f65 33326d66 32007665  stride_e32mf2.ve
 0730 63746f72 5f6d656d 6370795f 73747269  ctor_memcpy_stri
 0740 6465645f 65386d38 00766563 746f725f  ded_e8m8.vector_
 0750 6d656d63 70795f73 74726964 65645f65  memcpy_strided_e
 0760 31366d38 00766563 746f725f 6d656d63  16m8.vector_memc
 0770 70795f73 74726964 65645f65 33326d38  py_strided_e32m8
 0780 00766563 746f725f 6d656d63 70795f73  .vector_memcpy_s
 0790 74726964 65645f65 33326d66 32007665  trided_e32mf2.ve
 07a0 63746f72 5f6d656d 6370795f 696e6465  ctor_memcpy_inde
 07b0 7865645f 65386d38 00766563 746f725f  xed_e8m8.vector_
 07c0 6d656d63 70795f69 6e646578 65645f65  memcpy_indexed_e
 07d0 31366d38 00766563 746f725f 6d656d63  16m8.vector_memc
 07e0 70795f69 6e646578 65645f65 33326d38  py_indexed_e32m8
 07f0 00766563 746f725f 6d656d63 70795f69  .vector_memcpy_i
 0800 6e646578 65645f65 33326d66 32007665  ndexed_e32mf2.ve
 0810 63746f72 5f6d656d 6370795f 6d61736b  ctor_memcpy_mask
 0820 65645f65 33326d38 00766563 746f725f  ed_e32m8.vector_
 0830 6d656d63 70795f73 65676d65 6e746564  memcpy_segmented
 0840 5f65386d 32007665 63746f72 5f6d656d  _e8m2.vector_mem
 0850 6370795f 7365676d 656e7465 645f6531  cpy_segmented_e1
 0860 366d3200 76656374 6f725f6d 656d6370  6m2.vector_memcp
 0870 795f7365 676d656e 7465645f 6533326d  y_segmented_e32m
 0880 32007665 63746f72 5f6d656d 6370795f  2.vector_memcpy_
 0890 7365676d 656e7465 645f6533 326d6632  segmented_e32mf2
 08a0 006f7574 70757441 7474656d 70746564  .outputAttempted
 08b0 006f7574 70757453 75636365 65646564  .outputSucceeded
 08c0 00                                   .

Disassembly of section .text.init:

00000000 <entry>:
       0: 17 01 01 00  	auipc	sp, 16
       4: 13 01 01 02  	addi	sp, sp, 32
       8: 97 10 00 00  	auipc	ra, 1
       c: e7 80 00 40  	jalr	1024(ra)

00000010 <end>:
      10: 6f 00 00 00  	j	0x10 <end>

Disassembly of section .text:

00000014 <memset>:
      14: 63 0c 06 00  	beqz	a2, 0x2c <.LBB0_3>
      18: 93 06 05 00  	mv	a3, a0

0000001c <.LBB0_2>:
      1c: 23 80 b6 00  	sb	a1, 0(a3)
      20: 13 06 f6 ff  	addi	a2, a2, -1
      24: 93 86 16 00  	addi	a3, a3, 1
      28: e3 1a 06 fe  	bnez	a2, 0x1c <.LBB0_2>

0000002c <.LBB0_3>:
      2c: 67 80 00 00  	ret

00000030 <vector_memcpy_harness_uint8_t>:
      30: 13 01 01 ef  	addi	sp, sp, -272
      34: 23 26 11 10  	sw	ra, 268(sp)
      38: 23 24 81 10  	sw	s0, 264(sp)
      3c: 23 22 91 10  	sw	s1, 260(sp)
      40: 23 20 21 11  	sw	s2, 256(sp)
      44: 13 09 05 00  	mv	s2, a0
      48: 13 04 01 08  	addi	s0, sp, 128
      4c: 13 05 01 08  	addi	a0, sp, 128
      50: 13 06 00 08  	addi	a2, zero, 128
      54: 93 04 00 08  	addi	s1, zero, 128
      58: 93 05 00 00  	mv	a1, zero
      5c: 97 00 00 00  	auipc	ra, 0
      60: e7 80 80 fb  	jalr	-72(ra)
      64: 13 05 01 00  	mv	a0, sp
      68: 13 06 00 08  	addi	a2, zero, 128
      6c: 93 05 00 00  	mv	a1, zero
      70: 97 00 00 00  	auipc	ra, 0
      74: e7 80 40 fa  	jalr	-92(ra)
      78: 13 05 00 00  	mv	a0, zero

0000007c <.LBB1_1>:
      7c: b3 05 a4 00  	add	a1, s0, a0
      80: 23 80 a5 00  	sb	a0, 0(a1)
      84: 13 05 15 00  	addi	a0, a0, 1
      88: e3 1a 95 fe  	bne	a0, s1, 0x7c <.LBB1_1>
      8c: 93 04 01 08  	addi	s1, sp, 128
      90: 13 05 e0 06  	addi	a0, zero, 110
      94: 93 05 01 08  	addi	a1, sp, 128
      98: 13 06 01 00  	mv	a2, sp
      9c: 13 04 01 00  	mv	s0, sp
      a0: e7 00 09 00  	jalr	s2
      a4: 13 05 00 00  	mv	a0, zero
      a8: 93 05 d0 06  	addi	a1, zero, 109

000000ac <.LBB1_3>:
      ac: 03 c6 04 00  	lbu	a2, 0(s1)
      b0: 83 46 04 00  	lbu	a3, 0(s0)
      b4: 63 1e d6 04  	bne	a2, a3, 0x110 <.LBB1_10>
      b8: 13 76 f5 0f  	andi	a2, a0, 255
      bc: 13 04 14 00  	addi	s0, s0, 1
      c0: 93 84 14 00  	addi	s1, s1, 1
      c4: 13 05 15 00  	addi	a0, a0, 1
      c8: e3 62 b6 fe  	bltu	a2, a1, 0xac <.LBB1_3>
      cc: 83 45 e1 06  	lbu	a1, 110(sp)
      d0: 13 05 00 00  	mv	a0, zero
      d4: 63 90 05 04  	bnez	a1, 0x114 <.LBB1_11>
      d8: 93 05 f0 06  	addi	a1, zero, 111
      dc: 13 05 f0 ff  	addi	a0, zero, -1
      e0: 13 06 01 00  	mv	a2, sp

000000e4 <.LBB1_7>:
      e4: 93 96 85 01  	slli	a3, a1, 24
      e8: 93 d6 86 41  	srai	a3, a3, 24
      ec: 63 cc 06 00  	bltz	a3, 0x104 <.LBB1_9>
      f0: 13 f7 f5 0f  	andi	a4, a1, 255
      f4: 33 07 e6 00  	add	a4, a2, a4
      f8: 03 47 07 00  	lbu	a4, 0(a4)
      fc: 93 85 15 00  	addi	a1, a1, 1
     100: e3 02 07 fe  	beqz	a4, 0xe4 <.LBB1_7>

00000104 <.LBB1_9>:
     104: 33 25 d5 00  	slt	a0, a0, a3
     108: 13 45 15 00  	xori	a0, a0, 1
     10c: 6f 00 80 00  	j	0x114 <.LBB1_11>

00000110 <.LBB1_10>:
     110: 13 05 00 00  	mv	a0, zero

00000114 <.LBB1_11>:
     114: 93 05 00 00  	mv	a1, zero
     118: 03 29 01 10  	lw	s2, 256(sp)
     11c: 83 24 41 10  	lw	s1, 260(sp)
     120: 03 24 81 10  	lw	s0, 264(sp)
     124: 83 20 c1 10  	lw	ra, 268(sp)
     128: 13 01 01 11  	addi	sp, sp, 272
     12c: 67 80 00 00  	ret

00000130 <vector_memcpy_harness_uint16_t>:
     130: 13 01 01 df  	addi	sp, sp, -528
     134: 23 26 11 20  	sw	ra, 524(sp)
     138: 23 24 81 20  	sw	s0, 520(sp)
     13c: 23 22 91 20  	sw	s1, 516(sp)
     140: 23 20 21 21  	sw	s2, 512(sp)
     144: 13 09 05 00  	mv	s2, a0
     148: 13 05 01 10  	addi	a0, sp, 256
     14c: 13 06 00 10  	addi	a2, zero, 256
     150: 13 04 01 10  	addi	s0, sp, 256
     154: 93 05 00 00  	mv	a1, zero
     158: 97 00 00 00  	auipc	ra, 0
     15c: e7 80 c0 eb  	jalr	-324(ra)
     160: 13 05 01 00  	mv	a0, sp
     164: 13 06 00 10  	addi	a2, zero, 256
     168: 93 05 00 00  	mv	a1, zero
     16c: 97 00 00 00  	auipc	ra, 0
     170: e7 80 80 ea  	jalr	-344(ra)
     174: 13 05 00 00  	mv	a0, zero
     178: 93 05 00 08  	addi	a1, zero, 128

0000017c <.LBB2_1>:
     17c: 23 10 a4 00  	sh	a0, 0(s0)
     180: 13 05 15 00  	addi	a0, a0, 1
     184: 13 04 24 00  	addi	s0, s0, 2
     188: e3 1a b5 fe  	bne	a0, a1, 0x17c <.LBB2_1>
     18c: 93 04 01 10  	addi	s1, sp, 256
     190: 13 05 e0 06  	addi	a0, zero, 110
     194: 93 05 01 10  	addi	a1, sp, 256
     198: 13 06 01 00  	mv	a2, sp
     19c: 13 04 01 00  	mv	s0, sp
     1a0: e7 00 09 00  	jalr	s2
     1a4: 13 05 00 00  	mv	a0, zero
     1a8: b7 05 01 00  	lui	a1, 16
     1ac: 93 85 f5 ff  	addi	a1, a1, -1
     1b0: 13 06 d0 06  	addi	a2, zero, 109

000001b4 <.LBB2_3>:
     1b4: 83 d6 04 00  	lhu	a3, 0(s1)
     1b8: 03 57 04 00  	lhu	a4, 0(s0)
     1bc: 63 92 e6 06  	bne	a3, a4, 0x220 <.LBB2_10>
     1c0: b3 76 b5 00  	and	a3, a0, a1
     1c4: 13 04 24 00  	addi	s0, s0, 2
     1c8: 93 84 24 00  	addi	s1, s1, 2
     1cc: 13 05 15 00  	addi	a0, a0, 1
     1d0: e3 e2 c6 fe  	bltu	a3, a2, 0x1b4 <.LBB2_3>
     1d4: 83 55 c1 0d  	lhu	a1, 220(sp)
     1d8: 13 05 00 00  	mv	a0, zero
     1dc: 63 94 05 04  	bnez	a1, 0x224 <.LBB2_11>
     1e0: 13 05 e0 06  	addi	a0, zero, 110
     1e4: b7 05 01 00  	lui	a1, 16
     1e8: 93 85 f5 ff  	addi	a1, a1, -1
     1ec: 13 06 e0 07  	addi	a2, zero, 126
     1f0: 93 06 01 00  	mv	a3, sp

000001f4 <.LBB2_7>:
     1f4: 33 77 b5 00  	and	a4, a0, a1
     1f8: 63 6e e6 00  	bltu	a2, a4, 0x214 <.LBB2_9>
     1fc: 13 05 15 00  	addi	a0, a0, 1
     200: b3 77 b5 00  	and	a5, a0, a1
     204: 93 97 17 00  	slli	a5, a5, 1
     208: b3 87 f6 00  	add	a5, a3, a5
     20c: 83 d7 07 00  	lhu	a5, 0(a5)
     210: e3 82 07 fe  	beqz	a5, 0x1f4 <.LBB2_7>

00000214 <.LBB2_9>:
     214: 13 35 f7 07  	sltiu	a0, a4, 127
     218: 13 45 15 00  	xori	a0, a0, 1
     21c: 6f 00 80 00  	j	0x224 <.LBB2_11>

00000220 <.LBB2_10>:
     220: 13 05 00 00  	mv	a0, zero

00000224 <.LBB2_11>:
     224: 93 05 00 00  	mv	a1, zero
     228: 03 29 01 20  	lw	s2, 512(sp)
     22c: 83 24 41 20  	lw	s1, 516(sp)
     230: 03 24 81 20  	lw	s0, 520(sp)
     234: 83 20 c1 20  	lw	ra, 524(sp)
     238: 13 01 01 21  	addi	sp, sp, 528
     23c: 67 80 00 00  	ret

00000240 <vector_memcpy_harness_uint32_t>:
     240: 13 01 01 be  	addi	sp, sp, -1056
     244: 23 2e 11 40  	sw	ra, 1052(sp)
     248: 23 2c 81 40  	sw	s0, 1048(sp)
     24c: 23 2a 91 40  	sw	s1, 1044(sp)
     250: 23 28 21 41  	sw	s2, 1040(sp)
     254: 13 09 05 00  	mv	s2, a0
     258: 13 05 01 21  	addi	a0, sp, 528
     25c: 13 06 00 20  	addi	a2, zero, 512
     260: 93 04 01 21  	addi	s1, sp, 528
     264: 93 05 00 00  	mv	a1, zero
     268: 97 00 00 00  	auipc	ra, 0
     26c: e7 80 c0 da  	jalr	-596(ra)
     270: 13 05 01 01  	addi	a0, sp, 16
     274: 13 06 00 20  	addi	a2, zero, 512
     278: 93 05 00 00  	mv	a1, zero
     27c: 97 00 00 00  	auipc	ra, 0
     280: e7 80 80 d9  	jalr	-616(ra)
     284: 13 05 00 00  	mv	a0, zero
     288: 93 05 00 08  	addi	a1, zero, 128

0000028c <.LBB3_1>:
     28c: 23 a0 a4 00  	sw	a0, 0(s1)
     290: 13 05 15 00  	addi	a0, a0, 1
     294: 93 84 44 00  	addi	s1, s1, 4
     298: e3 1a b5 fe  	bne	a0, a1, 0x28c <.LBB3_1>
     29c: 93 04 01 21  	addi	s1, sp, 528
     2a0: 13 05 e0 06  	addi	a0, zero, 110
     2a4: 93 05 01 21  	addi	a1, sp, 528
     2a8: 13 06 01 01  	addi	a2, sp, 16
     2ac: 13 04 01 01  	addi	s0, sp, 16
     2b0: e7 00 09 00  	jalr	s2
     2b4: 13 05 00 00  	mv	a0, zero
     2b8: 93 05 80 1b  	addi	a1, zero, 440

000002bc <.LBB3_3>:
     2bc: 33 86 a4 00  	add	a2, s1, a0
     2c0: 03 26 06 00  	lw	a2, 0(a2)
     2c4: b3 06 a4 00  	add	a3, s0, a0
     2c8: 83 a6 06 00  	lw	a3, 0(a3)
     2cc: 63 14 d6 04  	bne	a2, a3, 0x314 <.LBB3_10>
     2d0: 13 05 45 00  	addi	a0, a0, 4
     2d4: e3 14 b5 fe  	bne	a0, a1, 0x2bc <.LBB3_3>
     2d8: 83 25 81 1c  	lw	a1, 456(sp)
     2dc: 13 05 00 00  	mv	a0, zero
     2e0: 63 9c 05 02  	bnez	a1, 0x318 <.LBB3_11>
     2e4: 13 05 c1 1c  	addi	a0, sp, 460
     2e8: 93 06 e0 06  	addi	a3, zero, 110
     2ec: 93 05 f0 07  	addi	a1, zero, 127

000002f0 <.LBB3_7>:
     2f0: 13 86 06 00  	mv	a2, a3
     2f4: 63 8a b6 00  	beq	a3, a1, 0x308 <.LBB3_9>
     2f8: 03 27 05 00  	lw	a4, 0(a0)
     2fc: 93 06 16 00  	addi	a3, a2, 1
     300: 13 05 45 00  	addi	a0, a0, 4
     304: e3 06 07 fe  	beqz	a4, 0x2f0 <.LBB3_7>

00000308 <.LBB3_9>:
     308: 13 05 e0 07  	addi	a0, zero, 126
     30c: 33 35 c5 00  	sltu	a0, a0, a2
     310: 6f 00 80 00  	j	0x318 <.LBB3_11>

00000314 <.LBB3_10>:
     314: 13 05 00 00  	mv	a0, zero

00000318 <.LBB3_11>:
     318: 93 05 00 00  	mv	a1, zero
     31c: 03 29 01 41  	lw	s2, 1040(sp)
     320: 83 24 41 41  	lw	s1, 1044(sp)
     324: 03 24 81 41  	lw	s0, 1048(sp)
     328: 83 20 c1 41  	lw	ra, 1052(sp)
     32c: 13 01 01 42  	addi	sp, sp, 1056
     330: 67 80 00 00  	ret

00000334 <vector_memcpy_masked_harness_uint8_t>:
     334: 13 01 01 ee  	addi	sp, sp, -288
     338: 23 2e 11 10  	sw	ra, 284(sp)
     33c: 23 2c 81 10  	sw	s0, 280(sp)
     340: 23 2a 91 10  	sw	s1, 276(sp)
     344: 23 28 21 11  	sw	s2, 272(sp)
     348: 23 26 31 11  	sw	s3, 268(sp)
     34c: 13 09 05 00  	mv	s2, a0
     350: 93 09 c1 08  	addi	s3, sp, 140
     354: 13 05 c1 08  	addi	a0, sp, 140
     358: 13 06 00 08  	addi	a2, zero, 128
     35c: 93 04 00 08  	addi	s1, zero, 128
     360: 93 05 00 00  	mv	a1, zero
     364: 97 00 00 00  	auipc	ra, 0
     368: e7 80 00 cb  	jalr	-848(ra)
     36c: 13 05 c1 00  	addi	a0, sp, 12
     370: 13 06 00 08  	addi	a2, zero, 128
     374: 13 04 c1 00  	addi	s0, sp, 12
     378: 93 05 00 00  	mv	a1, zero
     37c: 97 00 00 00  	auipc	ra, 0
     380: e7 80 80 c9  	jalr	-872(ra)
     384: 13 05 00 00  	mv	a0, zero
     388: 93 05 b0 0b  	addi	a1, zero, 187

0000038c <.LBB4_1>:
     38c: 33 86 a9 00  	add	a2, s3, a0
     390: 23 00 a6 00  	sb	a0, 0(a2)
     394: 33 06 a4 00  	add	a2, s0, a0
     398: 13 05 15 00  	addi	a0, a0, 1
     39c: 23 00 b6 00  	sb	a1, 0(a2)
     3a0: e3 16 95 fe  	bne	a0, s1, 0x38c <.LBB4_1>
     3a4: 93 04 e0 06  	addi	s1, zero, 110
     3a8: 93 09 c1 08  	addi	s3, sp, 140
     3ac: 13 05 e0 06  	addi	a0, zero, 110
     3b0: 93 05 c1 08  	addi	a1, sp, 140
     3b4: 13 06 c1 00  	addi	a2, sp, 12
     3b8: 13 04 c1 00  	addi	s0, sp, 12
     3bc: e7 00 09 00  	jalr	s2
     3c0: 13 05 00 00  	mv	a0, zero
     3c4: 93 05 b0 0b  	addi	a1, zero, 187
     3c8: 6f 00 40 01  	j	0x3dc <.LBB4_5>

000003cc <.LBB4_3>:
     3cc: 03 46 06 00  	lbu	a2, 0(a2)
     3d0: 63 18 b6 06  	bne	a2, a1, 0x440 <.LBB4_12>

000003d4 <.LBB4_4>:
     3d4: 13 05 15 00  	addi	a0, a0, 1
     3d8: 63 02 95 02  	beq	a0, s1, 0x3fc <.LBB4_7>

000003dc <.LBB4_5>:
     3dc: 93 76 15 00  	andi	a3, a0, 1
     3e0: 33 06 a4 00  	add	a2, s0, a0
     3e4: e3 84 06 fe  	beqz	a3, 0x3cc <.LBB4_3>
     3e8: b3 86 a9 00  	add	a3, s3, a0
     3ec: 83 c6 06 00  	lbu	a3, 0(a3)
     3f0: 03 46 06 00  	lbu	a2, 0(a2)
     3f4: e3 80 c6 fe  	beq	a3, a2, 0x3d4 <.LBB4_4>
     3f8: 6f 00 80 04  	j	0x440 <.LBB4_12>

000003fc <.LBB4_7>:
     3fc: 83 45 a1 07  	lbu	a1, 122(sp)
     400: 13 05 b0 0b  	addi	a0, zero, 187
     404: 63 9e a5 02  	bne	a1, a0, 0x440 <.LBB4_12>
     408: 13 06 f0 06  	addi	a2, zero, 111
     40c: 93 05 f0 ff  	addi	a1, zero, -1
     410: 93 06 c1 00  	addi	a3, sp, 12

00000414 <.LBB4_9>:
     414: 13 17 86 01  	slli	a4, a2, 24
     418: 13 57 87 41  	srai	a4, a4, 24
     41c: 63 4c 07 00  	bltz	a4, 0x434 <.LBB4_11>
     420: 93 77 f6 0f  	andi	a5, a2, 255
     424: b3 87 f6 00  	add	a5, a3, a5
     428: 83 c7 07 00  	lbu	a5, 0(a5)
     42c: 13 06 16 00  	addi	a2, a2, 1
     430: e3 82 a7 fe  	beq	a5, a0, 0x414 <.LBB4_9>

00000434 <.LBB4_11>:
     434: 33 a5 e5 00  	slt	a0, a1, a4
     438: 13 45 15 00  	xori	a0, a0, 1
     43c: 6f 00 80 00  	j	0x444 <.LBB4_13>

00000440 <.LBB4_12>:
     440: 13 05 00 00  	mv	a0, zero

00000444 <.LBB4_13>:
     444: 93 05 00 00  	mv	a1, zero
     448: 83 29 c1 10  	lw	s3, 268(sp)
     44c: 03 29 01 11  	lw	s2, 272(sp)
     450: 83 24 41 11  	lw	s1, 276(sp)
     454: 03 24 81 11  	lw	s0, 280(sp)
     458: 83 20 c1 11  	lw	ra, 284(sp)
     45c: 13 01 01 12  	addi	sp, sp, 288
     460: 67 80 00 00  	ret

00000464 <vector_memcpy_masked_harness_uint16_t>:
     464: 13 01 01 de  	addi	sp, sp, -544
     468: 23 2e 11 20  	sw	ra, 540(sp)
     46c: 23 2c 81 20  	sw	s0, 536(sp)
     470: 23 2a 91 20  	sw	s1, 532(sp)
     474: 23 28 21 21  	sw	s2, 528(sp)
     478: 23 26 31 21  	sw	s3, 524(sp)
     47c: 13 09 05 00  	mv	s2, a0
     480: 13 05 c1 10  	addi	a0, sp, 268
     484: 13 06 00 10  	addi	a2, zero, 256
     488: 13 04 c1 10  	addi	s0, sp, 268
     48c: 93 05 00 00  	mv	a1, zero
     490: 97 00 00 00  	auipc	ra, 0
     494: e7 80 40 b8  	jalr	-1148(ra)
     498: 13 05 c1 00  	addi	a0, sp, 12
     49c: 13 06 00 10  	addi	a2, zero, 256
     4a0: 93 04 c1 00  	addi	s1, sp, 12
     4a4: 93 05 00 00  	mv	a1, zero
     4a8: 97 00 00 00  	auipc	ra, 0
     4ac: e7 80 c0 b6  	jalr	-1172(ra)
     4b0: 13 05 00 00  	mv	a0, zero
     4b4: 93 05 b0 0b  	addi	a1, zero, 187
     4b8: 13 06 00 08  	addi	a2, zero, 128

000004bc <.LBB5_1>:
     4bc: 23 10 a4 00  	sh	a0, 0(s0)
     4c0: 23 90 b4 00  	sh	a1, 0(s1)
     4c4: 13 05 15 00  	addi	a0, a0, 1
     4c8: 13 04 24 00  	addi	s0, s0, 2
     4cc: 93 84 24 00  	addi	s1, s1, 2
     4d0: e3 16 c5 fe  	bne	a0, a2, 0x4bc <.LBB5_1>
     4d4: 93 09 e0 06  	addi	s3, zero, 110
     4d8: 13 04 c1 10  	addi	s0, sp, 268
     4dc: 13 05 e0 06  	addi	a0, zero, 110
     4e0: 93 05 c1 10  	addi	a1, sp, 268
     4e4: 13 06 c1 00  	addi	a2, sp, 12
     4e8: 93 04 c1 00  	addi	s1, sp, 12
     4ec: e7 00 09 00  	jalr	s2
     4f0: 13 05 00 00  	mv	a0, zero
     4f4: 93 05 b0 0b  	addi	a1, zero, 187
     4f8: 6f 00 c0 01  	j	0x514 <.LBB5_5>

000004fc <.LBB5_3>:
     4fc: 03 d6 04 00  	lhu	a2, 0(s1)
     500: 63 1c b6 06  	bne	a2, a1, 0x578 <.LBB5_12>

00000504 <.LBB5_4>:
     504: 13 05 15 00  	addi	a0, a0, 1
     508: 13 04 24 00  	addi	s0, s0, 2
     50c: 93 84 24 00  	addi	s1, s1, 2
     510: 63 0e 35 01  	beq	a0, s3, 0x52c <.LBB5_7>

00000514 <.LBB5_5>:
     514: 13 76 15 00  	andi	a2, a0, 1
     518: e3 02 06 fe  	beqz	a2, 0x4fc <.LBB5_3>
     51c: 03 56 04 00  	lhu	a2, 0(s0)
     520: 83 d6 04 00  	lhu	a3, 0(s1)
     524: e3 00 d6 fe  	beq	a2, a3, 0x504 <.LBB5_4>
     528: 6f 00 00 05  	j	0x578 <.LBB5_12>

0000052c <.LBB5_7>:
     52c: 83 55 81 0e  	lhu	a1, 232(sp)
     530: 13 05 b0 0b  	addi	a0, zero, 187
     534: 63 92 a5 04  	bne	a1, a0, 0x578 <.LBB5_12>
     538: 93 05 e0 06  	addi	a1, zero, 110
     53c: 37 06 01 00  	lui	a2, 16
     540: 13 06 f6 ff  	addi	a2, a2, -1
     544: 93 06 e0 07  	addi	a3, zero, 126
     548: 13 07 c1 00  	addi	a4, sp, 12

0000054c <.LBB5_9>:
     54c: b3 f7 c5 00  	and	a5, a1, a2
     550: 63 ee f6 00  	bltu	a3, a5, 0x56c <.LBB5_11>
     554: 93 85 15 00  	addi	a1, a1, 1
     558: b3 f4 c5 00  	and	s1, a1, a2
     55c: 93 94 14 00  	slli	s1, s1, 1
     560: b3 04 97 00  	add	s1, a4, s1
     564: 83 d4 04 00  	lhu	s1, 0(s1)
     568: e3 82 a4 fe  	beq	s1, a0, 0x54c <.LBB5_9>

0000056c <.LBB5_11>:
     56c: 13 b5 f7 07  	sltiu	a0, a5, 127
     570: 13 45 15 00  	xori	a0, a0, 1
     574: 6f 00 80 00  	j	0x57c <.LBB5_13>

00000578 <.LBB5_12>:
     578: 13 05 00 00  	mv	a0, zero

0000057c <.LBB5_13>:
     57c: 93 05 00 00  	mv	a1, zero
     580: 83 29 c1 20  	lw	s3, 524(sp)
     584: 03 29 01 21  	lw	s2, 528(sp)
     588: 83 24 41 21  	lw	s1, 532(sp)
     58c: 03 24 81 21  	lw	s0, 536(sp)
     590: 83 20 c1 21  	lw	ra, 540(sp)
     594: 13 01 01 22  	addi	sp, sp, 544
     598: 67 80 00 00  	ret

0000059c <vector_memcpy_masked_harness_uint32_t>:
     59c: 13 01 01 be  	addi	sp, sp, -1056
     5a0: 23 2e 11 40  	sw	ra, 1052(sp)
     5a4: 23 2c 81 40  	sw	s0, 1048(sp)
     5a8: 23 2a 91 40  	sw	s1, 1044(sp)
     5ac: 23 28 21 41  	sw	s2, 1040(sp)
     5b0: 23 26 31 41  	sw	s3, 1036(sp)
     5b4: 13 09 05 00  	mv	s2, a0
     5b8: 13 05 c1 20  	addi	a0, sp, 524
     5bc: 13 06 00 20  	addi	a2, zero, 512
     5c0: 13 04 c1 20  	addi	s0, sp, 524
     5c4: 93 05 00 00  	mv	a1, zero
     5c8: 97 00 00 00  	auipc	ra, 0
     5cc: e7 80 c0 a4  	jalr	-1460(ra)
     5d0: 13 05 c1 00  	addi	a0, sp, 12
     5d4: 13 06 00 20  	addi	a2, zero, 512
     5d8: 93 04 c1 00  	addi	s1, sp, 12
     5dc: 93 05 00 00  	mv	a1, zero
     5e0: 97 00 00 00  	auipc	ra, 0
     5e4: e7 80 40 a3  	jalr	-1484(ra)
     5e8: 13 05 00 00  	mv	a0, zero
     5ec: 93 05 b0 0b  	addi	a1, zero, 187
     5f0: 13 06 00 08  	addi	a2, zero, 128

000005f4 <.LBB6_1>:
     5f4: 23 20 a4 00  	sw	a0, 0(s0)
     5f8: 23 a0 b4 00  	sw	a1, 0(s1)
     5fc: 13 05 15 00  	addi	a0, a0, 1
     600: 93 84 44 00  	addi	s1, s1, 4
     604: 13 04 44 00  	addi	s0, s0, 4
     608: e3 16 c5 fe  	bne	a0, a2, 0x5f4 <.LBB6_1>
     60c: 93 09 e0 06  	addi	s3, zero, 110
     610: 13 04 c1 20  	addi	s0, sp, 524
     614: 13 05 e0 06  	addi	a0, zero, 110
     618: 93 05 c1 20  	addi	a1, sp, 524
     61c: 13 06 c1 00  	addi	a2, sp, 12
     620: 93 04 c1 00  	addi	s1, sp, 12
     624: e7 00 09 00  	jalr	s2
     628: 13 05 00 00  	mv	a0, zero
     62c: 93 05 b0 0b  	addi	a1, zero, 187
     630: 6f 00 c0 01  	j	0x64c <.LBB6_5>

00000634 <.LBB6_3>:
     634: 03 a6 04 00  	lw	a2, 0(s1)
     638: 63 14 b6 06  	bne	a2, a1, 0x6a0 <.LBB6_12>

0000063c <.LBB6_4>:
     63c: 13 05 15 00  	addi	a0, a0, 1
     640: 93 84 44 00  	addi	s1, s1, 4
     644: 13 04 44 00  	addi	s0, s0, 4
     648: 63 0e 35 01  	beq	a0, s3, 0x664 <.LBB6_7>

0000064c <.LBB6_5>:
     64c: 13 76 15 00  	andi	a2, a0, 1
     650: e3 02 06 fe  	beqz	a2, 0x634 <.LBB6_3>
     654: 03 26 04 00  	lw	a2, 0(s0)
     658: 83 a6 04 00  	lw	a3, 0(s1)
     65c: e3 00 d6 fe  	beq	a2, a3, 0x63c <.LBB6_4>
     660: 6f 00 00 04  	j	0x6a0 <.LBB6_12>

00000664 <.LBB6_7>:
     664: 83 25 41 1c  	lw	a1, 452(sp)
     668: 13 05 b0 0b  	addi	a0, zero, 187
     66c: 63 9a a5 02  	bne	a1, a0, 0x6a0 <.LBB6_12>
     670: 93 05 81 1c  	addi	a1, sp, 456
     674: 13 07 e0 06  	addi	a4, zero, 110
     678: 13 06 f0 07  	addi	a2, zero, 127

0000067c <.LBB6_9>:
     67c: 93 06 07 00  	mv	a3, a4
     680: 63 0a c7 00  	beq	a4, a2, 0x694 <.LBB6_11>
     684: 83 a7 05 00  	lw	a5, 0(a1)
     688: 13 87 16 00  	addi	a4, a3, 1
     68c: 93 85 45 00  	addi	a1, a1, 4
     690: e3 86 a7 fe  	beq	a5, a0, 0x67c <.LBB6_9>

00000694 <.LBB6_11>:
     694: 13 05 e0 07  	addi	a0, zero, 126
     698: 33 35 d5 00  	sltu	a0, a0, a3
     69c: 6f 00 80 00  	j	0x6a4 <.LBB6_13>

000006a0 <.LBB6_12>:
     6a0: 13 05 00 00  	mv	a0, zero

000006a4 <.LBB6_13>:
     6a4: 93 05 00 00  	mv	a1, zero
     6a8: 83 29 c1 40  	lw	s3, 1036(sp)
     6ac: 03 29 01 41  	lw	s2, 1040(sp)
     6b0: 83 24 41 41  	lw	s1, 1044(sp)
     6b4: 03 24 81 41  	lw	s0, 1048(sp)
     6b8: 83 20 c1 41  	lw	ra, 1052(sp)
     6bc: 13 01 01 42  	addi	sp, sp, 1056
     6c0: 67 80 00 00  	ret

000006c4 <vector_memcpy_segmented_harness_uint8_t>:
     6c4: 13 01 01 ed  	addi	sp, sp, -304
     6c8: 23 26 11 12  	sw	ra, 300(sp)
     6cc: 23 24 81 12  	sw	s0, 296(sp)
     6d0: 23 22 91 12  	sw	s1, 292(sp)
     6d4: 23 20 21 13  	sw	s2, 288(sp)
     6d8: 23 2e 31 11  	sw	s3, 284(sp)
     6dc: 23 2c 41 11  	sw	s4, 280(sp)
     6e0: 13 09 05 00  	mv	s2, a0
     6e4: 93 04 81 09  	addi	s1, sp, 152
     6e8: 13 05 81 09  	addi	a0, sp, 152
     6ec: 13 06 00 08  	addi	a2, zero, 128
     6f0: 13 04 00 08  	addi	s0, zero, 128
     6f4: 93 05 00 00  	mv	a1, zero
     6f8: 97 00 00 00  	auipc	ra, 0
     6fc: e7 80 c0 91  	jalr	-1764(ra)
     700: 13 05 00 00  	mv	a0, zero
     704: 23 2a 01 08  	sw	zero, 148(sp)
     708: 23 28 01 08  	sw	zero, 144(sp)
     70c: 23 26 01 08  	sw	zero, 140(sp)
     710: 23 24 01 08  	sw	zero, 136(sp)
     714: 23 22 01 08  	sw	zero, 132(sp)
     718: 23 20 01 08  	sw	zero, 128(sp)
     71c: 23 2e 01 06  	sw	zero, 124(sp)
     720: 23 2c 01 06  	sw	zero, 120(sp)
     724: 23 2a 01 06  	sw	zero, 116(sp)
     728: 23 28 01 06  	sw	zero, 112(sp)
     72c: 23 26 01 06  	sw	zero, 108(sp)
     730: 23 24 01 06  	sw	zero, 104(sp)
     734: 23 22 01 06  	sw	zero, 100(sp)
     738: 23 20 01 06  	sw	zero, 96(sp)
     73c: 23 2e 01 04  	sw	zero, 92(sp)
     740: 23 2c 01 04  	sw	zero, 88(sp)
     744: 23 2a 01 04  	sw	zero, 84(sp)
     748: 23 28 01 04  	sw	zero, 80(sp)
     74c: 23 26 01 04  	sw	zero, 76(sp)
     750: 23 24 01 04  	sw	zero, 72(sp)
     754: 23 22 01 04  	sw	zero, 68(sp)
     758: 23 20 01 04  	sw	zero, 64(sp)
     75c: 23 2e 01 02  	sw	zero, 60(sp)
     760: 23 2c 01 02  	sw	zero, 56(sp)
     764: 23 2a 01 02  	sw	zero, 52(sp)
     768: 23 28 01 02  	sw	zero, 48(sp)
     76c: 23 26 01 02  	sw	zero, 44(sp)
     770: 23 24 01 02  	sw	zero, 40(sp)
     774: 23 22 01 02  	sw	zero, 36(sp)
     778: 23 20 01 02  	sw	zero, 32(sp)
     77c: 23 2e 01 00  	sw	zero, 28(sp)
     780: 23 2c 01 00  	sw	zero, 24(sp)

00000784 <.LBB7_1>:
     784: b3 85 a4 00  	add	a1, s1, a0
     788: 23 80 a5 00  	sb	a0, 0(a1)
     78c: 13 05 15 00  	addi	a0, a0, 1
     790: e3 1a 85 fe  	bne	a0, s0, 0x784 <.LBB7_1>
     794: 93 09 81 07  	addi	s3, sp, 120
     798: 23 24 31 01  	sw	s3, 8(sp)
     79c: 13 0a 81 05  	addi	s4, sp, 88
     7a0: 23 26 41 01  	sw	s4, 12(sp)
     7a4: 13 04 81 03  	addi	s0, sp, 56
     7a8: 23 28 81 00  	sw	s0, 16(sp)
     7ac: 93 04 81 01  	addi	s1, sp, 24
     7b0: 23 2a 91 00  	sw	s1, 20(sp)
     7b4: 13 05 a0 01  	addi	a0, zero, 26
     7b8: 93 05 81 09  	addi	a1, sp, 152
     7bc: 13 06 81 00  	addi	a2, sp, 8
     7c0: e7 00 09 00  	jalr	s2
     7c4: 13 05 00 00  	mv	a0, zero
     7c8: 93 05 b1 09  	addi	a1, sp, 155
     7cc: 13 06 90 01  	addi	a2, zero, 25

000007d0 <.LBB7_3>:
     7d0: 83 c6 d5 ff  	lbu	a3, -3(a1)
     7d4: 03 c7 09 00  	lbu	a4, 0(s3)
     7d8: 63 92 e6 06  	bne	a3, a4, 0x83c <.LBB7_10>
     7dc: 83 c6 e5 ff  	lbu	a3, -2(a1)
     7e0: 03 47 0a 00  	lbu	a4, 0(s4)
     7e4: 63 9c e6 04  	bne	a3, a4, 0x83c <.LBB7_10>
     7e8: 83 c6 f5 ff  	lbu	a3, -1(a1)
     7ec: 03 47 04 00  	lbu	a4, 0(s0)
     7f0: 63 96 e6 04  	bne	a3, a4, 0x83c <.LBB7_10>
     7f4: 83 c6 05 00  	lbu	a3, 0(a1)
     7f8: 03 c7 04 00  	lbu	a4, 0(s1)
     7fc: 63 90 e6 04  	bne	a3, a4, 0x83c <.LBB7_10>
     800: 93 76 f5 0f  	andi	a3, a0, 255
     804: 93 84 14 00  	addi	s1, s1, 1
     808: 13 04 14 00  	addi	s0, s0, 1
     80c: 13 0a 1a 00  	addi	s4, s4, 1
     810: 93 89 19 00  	addi	s3, s3, 1
     814: 93 85 45 00  	addi	a1, a1, 4
     818: 13 05 15 00  	addi	a0, a0, 1
     81c: e3 ea c6 fa  	bltu	a3, a2, 0x7d0 <.LBB7_3>
     820: 83 45 21 09  	lbu	a1, 146(sp)
     824: 13 05 10 00  	addi	a0, zero, 1
     828: 63 8e 05 02  	beqz	a1, 0x864 <.LBB7_12>

0000082c <.LBB7_9>:
     82c: 93 05 00 00  	mv	a1, zero
     830: 13 45 f5 ff  	not	a0, a0
     834: 13 75 15 00  	andi	a0, a0, 1
     838: 6f 00 c0 00  	j	0x844 <.LBB7_11>

0000083c <.LBB7_10>:
     83c: 13 05 00 00  	mv	a0, zero
     840: 93 05 00 00  	mv	a1, zero

00000844 <.LBB7_11>:
     844: 03 2a 81 11  	lw	s4, 280(sp)
     848: 83 29 c1 11  	lw	s3, 284(sp)
     84c: 03 29 01 12  	lw	s2, 288(sp)
     850: 83 24 41 12  	lw	s1, 292(sp)
     854: 03 24 81 12  	lw	s0, 296(sp)
     858: 83 20 c1 12  	lw	ra, 300(sp)
     85c: 13 01 01 13  	addi	sp, sp, 304
     860: 67 80 00 00  	ret

00000864 <.LBB7_12>:
     864: 93 05 21 07  	addi	a1, sp, 114
     868: 13 06 21 05  	addi	a2, sp, 82
     86c: 93 06 21 03  	addi	a3, sp, 50
     870: 13 05 10 00  	addi	a0, zero, 1
     874: 13 07 a0 01  	addi	a4, zero, 26
     878: 93 07 e0 01  	addi	a5, zero, 30
     87c: 93 04 81 07  	addi	s1, sp, 120

00000880 <.LBB7_13>:
     880: 03 c4 05 00  	lbu	s0, 0(a1)
     884: e3 14 04 fa  	bnez	s0, 0x82c <.LBB7_9>
     888: 03 44 06 00  	lbu	s0, 0(a2)
     88c: e3 10 04 fa  	bnez	s0, 0x82c <.LBB7_9>
     890: 03 c4 06 00  	lbu	s0, 0(a3)
     894: e3 1c 04 f8  	bnez	s0, 0x82c <.LBB7_9>
     898: 13 74 f7 0f  	andi	s0, a4, 255
     89c: 13 35 f4 01  	sltiu	a0, s0, 31
     8a0: e3 e6 87 f8  	bltu	a5, s0, 0x82c <.LBB7_9>
     8a4: 13 07 17 00  	addi	a4, a4, 1
     8a8: 13 74 f7 0f  	andi	s0, a4, 255
     8ac: 33 84 84 00  	add	s0, s1, s0
     8b0: 03 44 04 00  	lbu	s0, 0(s0)
     8b4: 93 85 15 00  	addi	a1, a1, 1
     8b8: 13 06 16 00  	addi	a2, a2, 1
     8bc: 93 86 16 00  	addi	a3, a3, 1
     8c0: e3 00 04 fc  	beqz	s0, 0x880 <.LBB7_13>
     8c4: 6f f0 9f f6  	j	0x82c <.LBB7_9>

000008c8 <vector_memcpy_segmented_harness_uint16_t>:
     8c8: 13 01 01 dd  	addi	sp, sp, -560
     8cc: 23 26 11 22  	sw	ra, 556(sp)
     8d0: 23 24 81 22  	sw	s0, 552(sp)
     8d4: 23 22 91 22  	sw	s1, 548(sp)
     8d8: 23 20 21 23  	sw	s2, 544(sp)
     8dc: 23 2e 31 21  	sw	s3, 540(sp)
     8e0: 23 2c 41 21  	sw	s4, 536(sp)
     8e4: 13 09 05 00  	mv	s2, a0
     8e8: 13 05 81 11  	addi	a0, sp, 280
     8ec: 13 06 00 10  	addi	a2, zero, 256
     8f0: 13 04 81 11  	addi	s0, sp, 280
     8f4: 93 05 00 00  	mv	a1, zero
     8f8: 97 f0 ff ff  	auipc	ra, 1048575
     8fc: e7 80 c0 71  	jalr	1820(ra)
     900: 13 05 81 0d  	addi	a0, sp, 216
     904: 13 06 00 04  	addi	a2, zero, 64
     908: 93 05 00 00  	mv	a1, zero
     90c: 97 f0 ff ff  	auipc	ra, 1048575
     910: e7 80 80 70  	jalr	1800(ra)
     914: 13 05 81 09  	addi	a0, sp, 152
     918: 13 06 00 04  	addi	a2, zero, 64
     91c: 93 05 00 00  	mv	a1, zero
     920: 97 f0 ff ff  	auipc	ra, 1048575
     924: e7 80 40 6f  	jalr	1780(ra)
     928: 13 05 81 05  	addi	a0, sp, 88
     92c: 13 06 00 04  	addi	a2, zero, 64
     930: 93 05 00 00  	mv	a1, zero
     934: 97 f0 ff ff  	auipc	ra, 1048575
     938: e7 80 00 6e  	jalr	1760(ra)
     93c: 13 05 81 01  	addi	a0, sp, 24
     940: 13 06 00 04  	addi	a2, zero, 64
     944: 93 05 00 00  	mv	a1, zero
     948: 97 f0 ff ff  	auipc	ra, 1048575
     94c: e7 80 c0 6c  	jalr	1740(ra)
     950: 13 05 00 00  	mv	a0, zero
     954: 93 05 00 08  	addi	a1, zero, 128

00000958 <.LBB8_1>:
     958: 23 10 a4 00  	sh	a0, 0(s0)
     95c: 13 05 15 00  	addi	a0, a0, 1
     960: 13 04 24 00  	addi	s0, s0, 2
     964: e3 1a b5 fe  	bne	a0, a1, 0x958 <.LBB8_1>
     968: 93 09 81 0d  	addi	s3, sp, 216
     96c: 23 24 31 01  	sw	s3, 8(sp)
     970: 13 0a 81 09  	addi	s4, sp, 152
     974: 23 26 41 01  	sw	s4, 12(sp)
     978: 93 04 81 05  	addi	s1, sp, 88
     97c: 23 28 91 00  	sw	s1, 16(sp)
     980: 13 04 81 01  	addi	s0, sp, 24
     984: 23 2a 81 00  	sw	s0, 20(sp)
     988: 13 05 a0 01  	addi	a0, zero, 26
     98c: 93 05 81 11  	addi	a1, sp, 280
     990: 13 06 81 00  	addi	a2, sp, 8
     994: e7 00 09 00  	jalr	s2
     998: 13 05 00 00  	mv	a0, zero
     99c: 93 05 c1 11  	addi	a1, sp, 284
     9a0: 37 06 01 00  	lui	a2, 16
     9a4: 13 06 f6 ff  	addi	a2, a2, -1
     9a8: 93 06 90 01  	addi	a3, zero, 25

000009ac <.LBB8_3>:
     9ac: 03 d7 c5 ff  	lhu	a4, -4(a1)
     9b0: 83 d7 09 00  	lhu	a5, 0(s3)
     9b4: 63 12 f7 06  	bne	a4, a5, 0xa18 <.LBB8_10>
     9b8: 03 d7 e5 ff  	lhu	a4, -2(a1)
     9bc: 83 57 0a 00  	lhu	a5, 0(s4)
     9c0: 63 1c f7 04  	bne	a4, a5, 0xa18 <.LBB8_10>
     9c4: 03 d7 05 00  	lhu	a4, 0(a1)
     9c8: 83 d7 04 00  	lhu	a5, 0(s1)
     9cc: 63 16 f7 04  	bne	a4, a5, 0xa18 <.LBB8_10>
     9d0: 03 d7 25 00  	lhu	a4, 2(a1)
     9d4: 83 57 04 00  	lhu	a5, 0(s0)
     9d8: 63 10 f7 04  	bne	a4, a5, 0xa18 <.LBB8_10>
     9dc: 33 77 c5 00  	and	a4, a0, a2
     9e0: 13 04 24 00  	addi	s0, s0, 2
     9e4: 93 84 24 00  	addi	s1, s1, 2
     9e8: 13 0a 2a 00  	addi	s4, s4, 2
     9ec: 93 89 29 00  	addi	s3, s3, 2
     9f0: 93 85 85 00  	addi	a1, a1, 8
     9f4: 13 05 15 00  	addi	a0, a0, 1
     9f8: e3 6a d7 fa  	bltu	a4, a3, 0x9ac <.LBB8_3>
     9fc: 83 55 c1 10  	lhu	a1, 268(sp)
     a00: 13 05 10 00  	addi	a0, zero, 1
     a04: 63 8e 05 02  	beqz	a1, 0xa40 <.LBB8_12>

00000a08 <.LBB8_9>:
     a08: 93 05 00 00  	mv	a1, zero
     a0c: 13 45 f5 ff  	not	a0, a0
     a10: 13 75 15 00  	andi	a0, a0, 1
     a14: 6f 00 c0 00  	j	0xa20 <.LBB8_11>

00000a18 <.LBB8_10>:
     a18: 13 05 00 00  	mv	a0, zero
     a1c: 93 05 00 00  	mv	a1, zero

00000a20 <.LBB8_11>:
     a20: 03 2a 81 21  	lw	s4, 536(sp)
     a24: 83 29 c1 21  	lw	s3, 540(sp)
     a28: 03 29 01 22  	lw	s2, 544(sp)
     a2c: 83 24 41 22  	lw	s1, 548(sp)
     a30: 03 24 81 22  	lw	s0, 552(sp)
     a34: 83 20 c1 22  	lw	ra, 556(sp)
     a38: 13 01 01 23  	addi	sp, sp, 560
     a3c: 67 80 00 00  	ret

00000a40 <.LBB8_12>:
     a40: 93 05 c1 0c  	addi	a1, sp, 204
     a44: 13 06 c1 08  	addi	a2, sp, 140
     a48: 93 06 c1 04  	addi	a3, sp, 76
     a4c: 13 05 10 00  	addi	a0, zero, 1
     a50: 13 07 a0 01  	addi	a4, zero, 26
     a54: b7 07 01 00  	lui	a5, 16
     a58: 93 87 f7 ff  	addi	a5, a5, -1
     a5c: 93 04 e0 01  	addi	s1, zero, 30
     a60: 13 08 81 0d  	addi	a6, sp, 216

00000a64 <.LBB8_13>:
     a64: 03 d4 05 00  	lhu	s0, 0(a1)
     a68: e3 10 04 fa  	bnez	s0, 0xa08 <.LBB8_9>
     a6c: 03 54 06 00  	lhu	s0, 0(a2)
     a70: e3 1c 04 f8  	bnez	s0, 0xa08 <.LBB8_9>
     a74: 03 d4 06 00  	lhu	s0, 0(a3)
     a78: e3 18 04 f8  	bnez	s0, 0xa08 <.LBB8_9>
     a7c: 33 74 f7 00  	and	s0, a4, a5
     a80: 13 35 f4 01  	sltiu	a0, s0, 31
     a84: e3 e2 84 f8  	bltu	s1, s0, 0xa08 <.LBB8_9>
     a88: 13 07 17 00  	addi	a4, a4, 1
     a8c: 33 74 f7 00  	and	s0, a4, a5
     a90: 13 14 14 00  	slli	s0, s0, 1
     a94: 33 04 88 00  	add	s0, a6, s0
     a98: 03 54 04 00  	lhu	s0, 0(s0)
     a9c: 93 85 25 00  	addi	a1, a1, 2
     aa0: 13 06 26 00  	addi	a2, a2, 2
     aa4: 93 86 26 00  	addi	a3, a3, 2
     aa8: e3 0e 04 fa  	beqz	s0, 0xa64 <.LBB8_13>
     aac: 6f f0 df f5  	j	0xa08 <.LBB8_9>

00000ab0 <vector_memcpy_segmented_harness_uint32_t>:
     ab0: 13 01 01 bd  	addi	sp, sp, -1072
     ab4: 23 26 11 42  	sw	ra, 1068(sp)
     ab8: 23 24 81 42  	sw	s0, 1064(sp)
     abc: 23 22 91 42  	sw	s1, 1060(sp)
     ac0: 23 20 21 43  	sw	s2, 1056(sp)
     ac4: 23 2e 31 41  	sw	s3, 1052(sp)
     ac8: 23 2c 41 41  	sw	s4, 1048(sp)
     acc: 13 09 05 00  	mv	s2, a0
     ad0: 13 05 81 21  	addi	a0, sp, 536
     ad4: 13 06 00 20  	addi	a2, zero, 512
     ad8: 13 04 81 21  	addi	s0, sp, 536
     adc: 93 05 00 00  	mv	a1, zero
     ae0: 97 f0 ff ff  	auipc	ra, 1048575
     ae4: e7 80 40 53  	jalr	1332(ra)
     ae8: 13 05 81 19  	addi	a0, sp, 408
     aec: 13 06 00 08  	addi	a2, zero, 128
     af0: 93 04 00 08  	addi	s1, zero, 128
     af4: 93 05 00 00  	mv	a1, zero
     af8: 97 f0 ff ff  	auipc	ra, 1048575
     afc: e7 80 c0 51  	jalr	1308(ra)
     b00: 13 05 81 11  	addi	a0, sp, 280
     b04: 13 06 00 08  	addi	a2, zero, 128
     b08: 93 05 00 00  	mv	a1, zero
     b0c: 97 f0 ff ff  	auipc	ra, 1048575
     b10: e7 80 80 50  	jalr	1288(ra)
     b14: 13 05 81 09  	addi	a0, sp, 152
     b18: 13 06 00 08  	addi	a2, zero, 128
     b1c: 93 05 00 00  	mv	a1, zero
     b20: 97 f0 ff ff  	auipc	ra, 1048575
     b24: e7 80 40 4f  	jalr	1268(ra)
     b28: 13 05 81 01  	addi	a0, sp, 24
     b2c: 13 06 00 08  	addi	a2, zero, 128
     b30: 93 05 00 00  	mv	a1, zero
     b34: 97 f0 ff ff  	auipc	ra, 1048575
     b38: e7 80 00 4e  	jalr	1248(ra)
     b3c: 13 05 00 00  	mv	a0, zero

00000b40 <.LBB9_1>:
     b40: 23 20 a4 00  	sw	a0, 0(s0)
     b44: 13 05 15 00  	addi	a0, a0, 1
     b48: 13 04 44 00  	addi	s0, s0, 4
     b4c: e3 1a 95 fe  	bne	a0, s1, 0xb40 <.LBB9_1>
     b50: 93 09 81 19  	addi	s3, sp, 408
     b54: 23 24 31 01  	sw	s3, 8(sp)
     b58: 13 0a 81 11  	addi	s4, sp, 280
     b5c: 23 26 41 01  	sw	s4, 12(sp)
     b60: 93 04 81 09  	addi	s1, sp, 152
     b64: 23 28 91 00  	sw	s1, 16(sp)
     b68: 13 04 81 01  	addi	s0, sp, 24
     b6c: 23 2a 81 00  	sw	s0, 20(sp)
     b70: 13 05 a0 01  	addi	a0, zero, 26
     b74: 93 05 81 21  	addi	a1, sp, 536
     b78: 13 06 81 00  	addi	a2, sp, 8
     b7c: e7 00 09 00  	jalr	s2
     b80: 13 05 00 00  	mv	a0, zero
     b84: 93 05 01 22  	addi	a1, sp, 544
     b88: 13 06 80 06  	addi	a2, zero, 104

00000b8c <.LBB9_3>:
     b8c: 83 a6 85 ff  	lw	a3, -8(a1)
     b90: 33 87 a9 00  	add	a4, s3, a0
     b94: 03 27 07 00  	lw	a4, 0(a4)
     b98: 63 9e e6 04  	bne	a3, a4, 0xbf4 <.LBB9_10>
     b9c: 83 a6 c5 ff  	lw	a3, -4(a1)
     ba0: 33 07 aa 00  	add	a4, s4, a0
     ba4: 03 27 07 00  	lw	a4, 0(a4)
     ba8: 63 96 e6 04  	bne	a3, a4, 0xbf4 <.LBB9_10>
     bac: 83 a6 05 00  	lw	a3, 0(a1)
     bb0: 33 87 a4 00  	add	a4, s1, a0
     bb4: 03 27 07 00  	lw	a4, 0(a4)
     bb8: 63 9e e6 02  	bne	a3, a4, 0xbf4 <.LBB9_10>
     bbc: 83 a6 45 00  	lw	a3, 4(a1)
     bc0: 33 07 a4 00  	add	a4, s0, a0
     bc4: 03 27 07 00  	lw	a4, 0(a4)
     bc8: 63 96 e6 02  	bne	a3, a4, 0xbf4 <.LBB9_10>
     bcc: 13 05 45 00  	addi	a0, a0, 4
     bd0: 93 85 05 01  	addi	a1, a1, 16
     bd4: e3 1c c5 fa  	bne	a0, a2, 0xb8c <.LBB9_3>
     bd8: 83 25 01 20  	lw	a1, 512(sp)
     bdc: 13 05 10 00  	addi	a0, zero, 1
     be0: 63 8e 05 02  	beqz	a1, 0xc1c <.LBB9_12>

00000be4 <.LBB9_9>:
     be4: 93 05 00 00  	mv	a1, zero
     be8: 13 45 f5 ff  	not	a0, a0
     bec: 13 75 15 00  	andi	a0, a0, 1
     bf0: 6f 00 c0 00  	j	0xbfc <.LBB9_11>

00000bf4 <.LBB9_10>:
     bf4: 13 05 00 00  	mv	a0, zero
     bf8: 93 05 00 00  	mv	a1, zero

00000bfc <.LBB9_11>:
     bfc: 03 2a 81 41  	lw	s4, 1048(sp)
     c00: 83 29 c1 41  	lw	s3, 1052(sp)
     c04: 03 29 01 42  	lw	s2, 1056(sp)
     c08: 83 24 41 42  	lw	s1, 1060(sp)
     c0c: 03 24 81 42  	lw	s0, 1064(sp)
     c10: 83 20 c1 42  	lw	ra, 1068(sp)
     c14: 13 01 01 43  	addi	sp, sp, 1072
     c18: 67 80 00 00  	ret

00000c1c <.LBB9_12>:
     c1c: 93 05 01 18  	addi	a1, sp, 384
     c20: 13 06 01 10  	addi	a2, sp, 256
     c24: 93 06 01 08  	addi	a3, sp, 128
     c28: 13 07 41 20  	addi	a4, sp, 516
     c2c: 13 05 10 00  	addi	a0, zero, 1
     c30: 93 07 a0 01  	addi	a5, zero, 26
     c34: 93 04 f0 01  	addi	s1, zero, 31

00000c38 <.LBB9_13>:
     c38: 03 a4 05 00  	lw	s0, 0(a1)
     c3c: e3 14 04 fa  	bnez	s0, 0xbe4 <.LBB9_9>
     c40: 03 24 06 00  	lw	s0, 0(a2)
     c44: e3 10 04 fa  	bnez	s0, 0xbe4 <.LBB9_9>
     c48: 03 a4 06 00  	lw	s0, 0(a3)
     c4c: e3 1c 04 f8  	bnez	s0, 0xbe4 <.LBB9_9>
     c50: 13 b5 f7 01  	sltiu	a0, a5, 31
     c54: e3 88 97 f8  	beq	a5, s1, 0xbe4 <.LBB9_9>
     c58: 03 24 07 00  	lw	s0, 0(a4)
     c5c: 93 85 45 00  	addi	a1, a1, 4
     c60: 13 06 46 00  	addi	a2, a2, 4
     c64: 93 86 46 00  	addi	a3, a3, 4
     c68: 13 07 47 00  	addi	a4, a4, 4
     c6c: 93 87 17 00  	addi	a5, a5, 1
     c70: e3 04 04 fc  	beqz	s0, 0xc38 <.LBB9_13>
     c74: 6f f0 1f f7  	j	0xbe4 <.LBB9_9>

00000c78 <vector_memcpy_unit_stride_e8m8>:
     c78: 6f 00 c0 00  	j	0xc84 <.LBB10_2>

00000c7c <.LBB10_1>:
     c7c: 93 b6 16 00  	seqz	a3, a3
     c80: 63 92 06 02  	bnez	a3, 0xca4 <.LBB10_4>

00000c84 <.LBB10_2>:
     c84: d7 76 35 04  	<unknown>
     c88: e3 8a 06 fe  	beqz	a3, 0xc7c <.LBB10_1>
     c8c: 07 84 05 02  	<unknown>
     c90: 27 04 06 02  	<unknown>
     c94: b3 85 d5 00  	add	a1, a1, a3
     c98: 33 06 d6 00  	add	a2, a2, a3
     c9c: 33 05 d5 40  	sub	a0, a0, a3
     ca0: 6f f0 df fd  	j	0xc7c <.LBB10_1>

00000ca4 <.LBB10_4>:
     ca4: 67 80 00 00  	ret

00000ca8 <vector_memcpy_unit_stride_e16m8>:
     ca8: 6f 00 c0 00  	j	0xcb4 <.LBB11_2>

00000cac <.LBB11_1>:
     cac: 93 b6 16 00  	seqz	a3, a3
     cb0: 63 94 06 02  	bnez	a3, 0xcd8 <.LBB11_4>

00000cb4 <.LBB11_2>:
     cb4: d7 76 b5 04  	<unknown>
     cb8: e3 8a 06 fe  	beqz	a3, 0xcac <.LBB11_1>
     cbc: 07 d4 05 02  	<unknown>
     cc0: 27 54 06 02  	<unknown>
     cc4: 13 97 16 00  	slli	a4, a3, 1
     cc8: b3 85 e5 00  	add	a1, a1, a4
     ccc: 33 06 e6 00  	add	a2, a2, a4
     cd0: 33 05 d5 40  	sub	a0, a0, a3
     cd4: 6f f0 9f fd  	j	0xcac <.LBB11_1>

00000cd8 <.LBB11_4>:
     cd8: 67 80 00 00  	ret

00000cdc <vector_memcpy_unit_stride_e32m8>:
     cdc: 6f 00 c0 00  	j	0xce8 <.LBB12_2>

00000ce0 <.LBB12_1>:
     ce0: 93 b6 16 00  	seqz	a3, a3
     ce4: 63 94 06 02  	bnez	a3, 0xd0c <.LBB12_4>

00000ce8 <.LBB12_2>:
     ce8: d7 76 35 05  	<unknown>
     cec: e3 8a 06 fe  	beqz	a3, 0xce0 <.LBB12_1>
     cf0: 07 e4 05 02  	<unknown>
     cf4: 27 64 06 02  	<unknown>
     cf8: 13 97 26 00  	slli	a4, a3, 2
     cfc: b3 85 e5 00  	add	a1, a1, a4
     d00: 33 06 e6 00  	add	a2, a2, a4
     d04: 33 05 d5 40  	sub	a0, a0, a3
     d08: 6f f0 9f fd  	j	0xce0 <.LBB12_1>

00000d0c <.LBB12_4>:
     d0c: 67 80 00 00  	ret

00000d10 <vector_memcpy_unit_stride_e32mf2>:
     d10: 6f 00 c0 00  	j	0xd1c <.LBB13_2>

00000d14 <.LBB13_1>:
     d14: 93 b6 16 00  	seqz	a3, a3
     d18: 63 94 06 02  	bnez	a3, 0xd40 <.LBB13_4>

00000d1c <.LBB13_2>:
     d1c: d7 76 75 05  	<unknown>
     d20: e3 8a 06 fe  	beqz	a3, 0xd14 <.LBB13_1>
     d24: 87 ec 05 02  	<unknown>
     d28: a7 6c 06 02  	<unknown>
     d2c: 13 97 26 00  	slli	a4, a3, 2
     d30: b3 85 e5 00  	add	a1, a1, a4
     d34: 33 06 e6 00  	add	a2, a2, a4
     d38: 33 05 d5 40  	sub	a0, a0, a3
     d3c: 6f f0 9f fd  	j	0xd14 <.LBB13_1>

00000d40 <.LBB13_4>:
     d40: 67 80 00 00  	ret

00000d44 <vector_memcpy_strided_e8m8>:
     d44: 93 08 40 00  	addi	a7, zero, 4
     d48: 6f 00 40 02  	j	0xd6c <.LBB14_4>

00000d4c <.LBB14_1>:
     d4c: 07 84 05 02  	<unknown>
     d50: 27 04 06 02  	<unknown>
     d54: 13 08 07 00  	mv	a6, a4

00000d58 <.LBB14_2>:
     d58: 33 05 05 41  	sub	a0, a0, a6
     d5c: b3 85 05 01  	add	a1, a1, a6
     d60: 33 06 06 01  	add	a2, a2, a6

00000d64 <.LBB14_3>:
     d64: 93 36 17 00  	seqz	a3, a4
     d68: 63 9c 06 02  	bnez	a3, 0xda0 <.LBB14_8>

00000d6c <.LBB14_4>:
     d6c: 57 77 35 04  	<unknown>
     d70: e3 0a 07 fe  	beqz	a4, 0xd64 <.LBB14_3>
     d74: 13 18 27 00  	slli	a6, a4, 2
     d78: e3 7a a8 fc  	bgeu	a6, a0, 0xd4c <.LBB14_1>
     d7c: 93 07 00 00  	mv	a5, zero

00000d80 <.LBB14_7>:
     d80: b3 86 f5 00  	add	a3, a1, a5
     d84: 57 70 37 04  	<unknown>
     d88: 07 84 16 0b  	<unknown>
     d8c: b3 06 f6 00  	add	a3, a2, a5
     d90: 93 87 17 00  	addi	a5, a5, 1
     d94: 27 84 16 0b  	<unknown>
     d98: e3 94 17 ff  	bne	a5, a7, 0xd80 <.LBB14_7>
     d9c: 6f f0 df fb  	j	0xd58 <.LBB14_2>

00000da0 <.LBB14_8>:
     da0: 67 80 00 00  	ret

00000da4 <vector_memcpy_strided_e16m8>:
     da4: 93 08 80 00  	addi	a7, zero, 8
     da8: 6f 00 80 02  	j	0xdd0 <.LBB15_4>

00000dac <.LBB15_1>:
     dac: 07 d4 05 02  	<unknown>
     db0: 27 54 06 02  	<unknown>
     db4: 13 08 07 00  	mv	a6, a4

00000db8 <.LBB15_2>:
     db8: 33 05 05 41  	sub	a0, a0, a6
     dbc: 93 16 18 00  	slli	a3, a6, 1
     dc0: b3 85 d5 00  	add	a1, a1, a3
     dc4: 33 06 d6 00  	add	a2, a2, a3

00000dc8 <.LBB15_3>:
     dc8: 93 36 17 00  	seqz	a3, a4
     dcc: 63 9c 06 02  	bnez	a3, 0xe04 <.LBB15_8>

00000dd0 <.LBB15_4>:
     dd0: 57 77 b5 04  	<unknown>
     dd4: e3 0a 07 fe  	beqz	a4, 0xdc8 <.LBB15_3>
     dd8: 13 18 27 00  	slli	a6, a4, 2
     ddc: e3 78 a8 fc  	bgeu	a6, a0, 0xdac <.LBB15_1>
     de0: 93 07 00 00  	mv	a5, zero

00000de4 <.LBB15_7>:
     de4: b3 86 f5 00  	add	a3, a1, a5
     de8: 57 70 b7 04  	<unknown>
     dec: 07 d4 16 0b  	<unknown>
     df0: b3 06 f6 00  	add	a3, a2, a5
     df4: 93 87 27 00  	addi	a5, a5, 2
     df8: 27 d4 16 0b  	<unknown>
     dfc: e3 94 17 ff  	bne	a5, a7, 0xde4 <.LBB15_7>
     e00: 6f f0 9f fb  	j	0xdb8 <.LBB15_2>

00000e04 <.LBB15_8>:
     e04: 67 80 00 00  	ret

00000e08 <vector_memcpy_strided_e32m8>:
     e08: 93 08 00 01  	addi	a7, zero, 16
     e0c: 6f 00 80 02  	j	0xe34 <.LBB16_4>

00000e10 <.LBB16_1>:
     e10: 07 e4 05 02  	<unknown>
     e14: 27 64 06 02  	<unknown>
     e18: 13 08 07 00  	mv	a6, a4

00000e1c <.LBB16_2>:
     e1c: 33 05 05 41  	sub	a0, a0, a6
     e20: 93 16 28 00  	slli	a3, a6, 2
     e24: b3 85 d5 00  	add	a1, a1, a3
     e28: 33 06 d6 00  	add	a2, a2, a3

00000e2c <.LBB16_3>:
     e2c: 93 36 17 00  	seqz	a3, a4
     e30: 63 9c 06 02  	bnez	a3, 0xe68 <.LBB16_8>

00000e34 <.LBB16_4>:
     e34: 57 77 35 05  	<unknown>
     e38: e3 0a 07 fe  	beqz	a4, 0xe2c <.LBB16_3>
     e3c: 13 18 27 00  	slli	a6, a4, 2
     e40: e3 78 a8 fc  	bgeu	a6, a0, 0xe10 <.LBB16_1>
     e44: 93 07 00 00  	mv	a5, zero

00000e48 <.LBB16_7>:
     e48: b3 86 f5 00  	add	a3, a1, a5
     e4c: 57 70 37 05  	<unknown>
     e50: 07 e4 16 0b  	<unknown>
     e54: b3 06 f6 00  	add	a3, a2, a5
     e58: 93 87 47 00  	addi	a5, a5, 4
     e5c: 27 e4 16 0b  	<unknown>
     e60: e3 94 17 ff  	bne	a5, a7, 0xe48 <.LBB16_7>
     e64: 6f f0 9f fb  	j	0xe1c <.LBB16_2>

00000e68 <.LBB16_8>:
     e68: 67 80 00 00  	ret

00000e6c <vector_memcpy_strided_e32mf2>:
     e6c: 93 08 00 01  	addi	a7, zero, 16
     e70: 6f 00 80 02  	j	0xe98 <.LBB17_4>

00000e74 <.LBB17_1>:
     e74: 87 ec 05 02  	<unknown>
     e78: a7 6c 06 02  	<unknown>
     e7c: 13 08 07 00  	mv	a6, a4

00000e80 <.LBB17_2>:
     e80: 33 05 05 41  	sub	a0, a0, a6
     e84: 93 16 28 00  	slli	a3, a6, 2
     e88: b3 85 d5 00  	add	a1, a1, a3
     e8c: 33 06 d6 00  	add	a2, a2, a3

00000e90 <.LBB17_3>:
     e90: 93 36 17 00  	seqz	a3, a4
     e94: 63 9c 06 02  	bnez	a3, 0xecc <.LBB17_8>

00000e98 <.LBB17_4>:
     e98: 57 77 75 05  	<unknown>
     e9c: e3 0a 07 fe  	beqz	a4, 0xe90 <.LBB17_3>
     ea0: 13 18 27 00  	slli	a6, a4, 2
     ea4: e3 78 a8 fc  	bgeu	a6, a0, 0xe74 <.LBB17_1>
     ea8: 93 07 00 00  	mv	a5, zero

00000eac <.LBB17_7>:
     eac: b3 86 f5 00  	add	a3, a1, a5
     eb0: 57 70 77 05  	<unknown>
     eb4: 87 ec 16 0b  	<unknown>
     eb8: b3 06 f6 00  	add	a3, a2, a5
     ebc: 93 87 47 00  	addi	a5, a5, 4
     ec0: a7 ec 16 0b  	<unknown>
     ec4: e3 94 17 ff  	bne	a5, a7, 0xeac <.LBB17_7>
     ec8: 6f f0 9f fb  	j	0xe80 <.LBB17_2>

00000ecc <.LBB17_8>:
     ecc: 67 80 00 00  	ret

00000ed0 <vector_memcpy_indexed_e8m8>:
     ed0: 13 01 01 f6  	addi	sp, sp, -160
     ed4: 23 2e 11 08  	sw	ra, 156(sp)
     ed8: 23 2c 81 08  	sw	s0, 152(sp)
     edc: 23 2a 91 08  	sw	s1, 148(sp)
     ee0: 23 28 21 09  	sw	s2, 144(sp)
     ee4: 23 26 31 09  	sw	s3, 140(sp)
     ee8: 23 24 41 09  	sw	s4, 136(sp)
     eec: 13 09 06 00  	mv	s2, a2
     ef0: 93 84 05 00  	mv	s1, a1
     ef4: 13 04 05 00  	mv	s0, a0
     ef8: d7 79 30 04  	<unknown>
     efc: 13 05 81 00  	addi	a0, sp, 8
     f00: 13 06 00 08  	addi	a2, zero, 128
     f04: 13 0a 81 00  	addi	s4, sp, 8
     f08: 93 05 00 00  	mv	a1, zero
     f0c: 97 f0 ff ff  	auipc	ra, 1048575
     f10: e7 80 80 10  	jalr	264(ra)
     f14: 63 8e 09 00  	beqz	s3, 0xf30 <.LBB18_3>
     f18: 13 05 00 00  	mv	a0, zero

00000f1c <.LBB18_2>:
     f1c: 93 45 15 00  	xori	a1, a0, 1
     f20: 33 06 aa 00  	add	a2, s4, a0
     f24: 13 05 15 00  	addi	a0, a0, 1
     f28: 23 00 b6 00  	sb	a1, 0(a2)
     f2c: e3 98 a9 fe  	bne	s3, a0, 0xf1c <.LBB18_2>

00000f30 <.LBB18_3>:
     f30: 57 f0 39 04  	<unknown>
     f34: 13 05 81 00  	addi	a0, sp, 8
     f38: 07 04 05 02  	<unknown>
     f3c: 6f 00 00 02  	j	0xf5c <.LBB18_7>

00000f40 <.LBB18_4>:
     f40: 07 88 04 02  	<unknown>
     f44: 27 08 09 02  	<unknown>

00000f48 <.LBB18_5>:
     f48: b3 84 a4 00  	add	s1, s1, a0
     f4c: 33 09 a9 00  	add	s2, s2, a0
     f50: 33 04 a4 40  	sub	s0, s0, a0

00000f54 <.LBB18_6>:
     f54: 13 35 15 00  	seqz	a0, a0
     f58: 63 1e 05 00  	bnez	a0, 0xf74 <.LBB18_10>

00000f5c <.LBB18_7>:
     f5c: 57 75 34 04  	<unknown>
     f60: e3 0a 05 fe  	beqz	a0, 0xf54 <.LBB18_6>
     f64: e3 1e 35 fd  	bne	a0, s3, 0xf40 <.LBB18_4>
     f68: 07 88 84 06  	<unknown>
     f6c: 27 08 89 06  	<unknown>
     f70: 6f f0 9f fd  	j	0xf48 <.LBB18_5>

00000f74 <.LBB18_10>:
     f74: 03 2a 81 08  	lw	s4, 136(sp)
     f78: 83 29 c1 08  	lw	s3, 140(sp)
     f7c: 03 29 01 09  	lw	s2, 144(sp)
     f80: 83 24 41 09  	lw	s1, 148(sp)
     f84: 03 24 81 09  	lw	s0, 152(sp)
     f88: 83 20 c1 09  	lw	ra, 156(sp)
     f8c: 13 01 01 0a  	addi	sp, sp, 160
     f90: 67 80 00 00  	ret

00000f94 <vector_memcpy_indexed_e16m8>:
     f94: 13 01 01 ee  	addi	sp, sp, -288
     f98: 23 2e 11 10  	sw	ra, 284(sp)
     f9c: 23 2c 81 10  	sw	s0, 280(sp)
     fa0: 23 2a 91 10  	sw	s1, 276(sp)
     fa4: 23 28 21 11  	sw	s2, 272(sp)
     fa8: 23 26 31 11  	sw	s3, 268(sp)
     fac: 23 24 41 11  	sw	s4, 264(sp)
     fb0: 13 09 06 00  	mv	s2, a2
     fb4: 13 8a 05 00  	mv	s4, a1
     fb8: 13 04 05 00  	mv	s0, a0
     fbc: d7 79 b0 04  	<unknown>
     fc0: 13 05 81 00  	addi	a0, sp, 8
     fc4: 13 06 00 10  	addi	a2, zero, 256
     fc8: 93 04 81 00  	addi	s1, sp, 8
     fcc: 93 05 00 00  	mv	a1, zero
     fd0: 97 f0 ff ff  	auipc	ra, 1048575
     fd4: e7 80 40 04  	jalr	68(ra)
     fd8: 63 80 09 02  	beqz	s3, 0xff8 <.LBB19_3>
     fdc: 13 05 00 00  	mv	a0, zero

00000fe0 <.LBB19_2>:
     fe0: 93 15 15 00  	slli	a1, a0, 1
     fe4: 93 c5 25 00  	xori	a1, a1, 2
     fe8: 23 90 b4 00  	sh	a1, 0(s1)
     fec: 13 05 15 00  	addi	a0, a0, 1
     ff0: 93 84 24 00  	addi	s1, s1, 2
     ff4: e3 96 a9 fe  	bne	s3, a0, 0xfe0 <.LBB19_2>

00000ff8 <.LBB19_3>:
     ff8: 57 f0 b9 04  	<unknown>
     ffc: 13 05 81 00  	addi	a0, sp, 8
    1000: 07 54 05 02  	<unknown>
    1004: 6f 00 40 02  	j	0x1028 <.LBB19_7>

00001008 <.LBB19_4>:
    1008: 07 58 0a 02  	<unknown>
    100c: 27 58 09 02  	<unknown>

00001010 <.LBB19_5>:
    1010: 93 15 15 00  	slli	a1, a0, 1
    1014: 33 0a ba 00  	add	s4, s4, a1
    1018: 33 09 b9 00  	add	s2, s2, a1
    101c: 33 04 a4 40  	sub	s0, s0, a0

00001020 <.LBB19_6>:
    1020: 13 35 15 00  	seqz	a0, a0
    1024: 63 1e 05 00  	bnez	a0, 0x1040 <.LBB19_10>

00001028 <.LBB19_7>:
    1028: 57 75 b4 04  	<unknown>
    102c: e3 0a 05 fe  	beqz	a0, 0x1020 <.LBB19_6>
    1030: e3 1c 35 fd  	bne	a0, s3, 0x1008 <.LBB19_4>
    1034: 07 58 8a 06  	<unknown>
    1038: 27 58 89 06  	<unknown>
    103c: 6f f0 5f fd  	j	0x1010 <.LBB19_5>

00001040 <.LBB19_10>:
    1040: 03 2a 81 10  	lw	s4, 264(sp)
    1044: 83 29 c1 10  	lw	s3, 268(sp)
    1048: 03 29 01 11  	lw	s2, 272(sp)
    104c: 83 24 41 11  	lw	s1, 276(sp)
    1050: 03 24 81 11  	lw	s0, 280(sp)
    1054: 83 20 c1 11  	lw	ra, 284(sp)
    1058: 13 01 01 12  	addi	sp, sp, 288
    105c: 67 80 00 00  	ret

00001060 <vector_memcpy_indexed_e32m8>:
    1060: 13 01 01 de  	addi	sp, sp, -544
    1064: 23 2e 11 20  	sw	ra, 540(sp)
    1068: 23 2c 81 20  	sw	s0, 536(sp)
    106c: 23 2a 91 20  	sw	s1, 532(sp)
    1070: 23 28 21 21  	sw	s2, 528(sp)
    1074: 23 26 31 21  	sw	s3, 524(sp)
    1078: 23 24 41 21  	sw	s4, 520(sp)
    107c: 13 09 06 00  	mv	s2, a2
    1080: 93 84 05 00  	mv	s1, a1
    1084: 13 04 05 00  	mv	s0, a0
    1088: d7 79 30 05  	<unknown>
    108c: 13 05 81 00  	addi	a0, sp, 8
    1090: 13 06 00 20  	addi	a2, zero, 512
    1094: 13 0a 81 00  	addi	s4, sp, 8
    1098: 93 05 00 00  	mv	a1, zero
    109c: 97 f0 ff ff  	auipc	ra, 1048575
    10a0: e7 80 80 f7  	jalr	-136(ra)
    10a4: 63 82 09 02  	beqz	s3, 0x10c8 <.LBB20_3>
    10a8: 13 05 00 00  	mv	a0, zero
    10ac: 93 85 09 00  	mv	a1, s3

000010b0 <.LBB20_2>:
    10b0: 13 46 45 00  	xori	a2, a0, 4
    10b4: b3 06 aa 00  	add	a3, s4, a0
    10b8: 23 a0 c6 00  	sw	a2, 0(a3)
    10bc: 93 85 f5 ff  	addi	a1, a1, -1
    10c0: 13 05 45 00  	addi	a0, a0, 4
    10c4: e3 96 05 fe  	bnez	a1, 0x10b0 <.LBB20_2>

000010c8 <.LBB20_3>:
    10c8: 57 f0 39 05  	<unknown>
    10cc: 13 05 81 00  	addi	a0, sp, 8
    10d0: 07 64 05 02  	<unknown>
    10d4: 6f 00 40 02  	j	0x10f8 <.LBB20_7>

000010d8 <.LBB20_4>:
    10d8: 07 e8 04 02  	<unknown>
    10dc: 27 68 09 02  	<unknown>

000010e0 <.LBB20_5>:
    10e0: 93 15 25 00  	slli	a1, a0, 2
    10e4: b3 84 b4 00  	add	s1, s1, a1
    10e8: 33 09 b9 00  	add	s2, s2, a1
    10ec: 33 04 a4 40  	sub	s0, s0, a0

000010f0 <.LBB20_6>:
    10f0: 13 35 15 00  	seqz	a0, a0
    10f4: 63 1e 05 00  	bnez	a0, 0x1110 <.LBB20_10>

000010f8 <.LBB20_7>:
    10f8: 57 75 34 05  	<unknown>
    10fc: e3 0a 05 fe  	beqz	a0, 0x10f0 <.LBB20_6>
    1100: e3 1c 35 fd  	bne	a0, s3, 0x10d8 <.LBB20_4>
    1104: 07 e8 84 06  	<unknown>
    1108: 27 68 89 06  	<unknown>
    110c: 6f f0 5f fd  	j	0x10e0 <.LBB20_5>

00001110 <.LBB20_10>:
    1110: 03 2a 81 20  	lw	s4, 520(sp)
    1114: 83 29 c1 20  	lw	s3, 524(sp)
    1118: 03 29 01 21  	lw	s2, 528(sp)
    111c: 83 24 41 21  	lw	s1, 532(sp)
    1120: 03 24 81 21  	lw	s0, 536(sp)
    1124: 83 20 c1 21  	lw	ra, 540(sp)
    1128: 13 01 01 22  	addi	sp, sp, 544
    112c: 67 80 00 00  	ret

00001130 <vector_memcpy_indexed_e32mf2>:
    1130: 13 01 01 de  	addi	sp, sp, -544
    1134: 23 2e 11 20  	sw	ra, 540(sp)
    1138: 23 2c 81 20  	sw	s0, 536(sp)
    113c: 23 2a 91 20  	sw	s1, 532(sp)
    1140: 23 28 21 21  	sw	s2, 528(sp)
    1144: 23 26 31 21  	sw	s3, 524(sp)
    1148: 23 24 41 21  	sw	s4, 520(sp)
    114c: 13 09 06 00  	mv	s2, a2
    1150: 93 84 05 00  	mv	s1, a1
    1154: 13 04 05 00  	mv	s0, a0
    1158: d7 79 70 05  	<unknown>
    115c: 13 05 81 00  	addi	a0, sp, 8
    1160: 13 06 00 20  	addi	a2, zero, 512
    1164: 13 0a 81 00  	addi	s4, sp, 8
    1168: 93 05 00 00  	mv	a1, zero
    116c: 97 f0 ff ff  	auipc	ra, 1048575
    1170: e7 80 80 ea  	jalr	-344(ra)
    1174: 63 82 09 02  	beqz	s3, 0x1198 <.LBB21_3>
    1178: 13 05 00 00  	mv	a0, zero
    117c: 93 85 09 00  	mv	a1, s3

00001180 <.LBB21_2>:
    1180: 13 46 45 00  	xori	a2, a0, 4
    1184: b3 06 aa 00  	add	a3, s4, a0
    1188: 23 a0 c6 00  	sw	a2, 0(a3)
    118c: 93 85 f5 ff  	addi	a1, a1, -1
    1190: 13 05 45 00  	addi	a0, a0, 4
    1194: e3 96 05 fe  	bnez	a1, 0x1180 <.LBB21_2>

00001198 <.LBB21_3>:
    1198: 57 f0 79 05  	<unknown>
    119c: 13 05 81 00  	addi	a0, sp, 8
    11a0: 87 6c 05 02  	<unknown>
    11a4: 6f 00 40 02  	j	0x11c8 <.LBB21_7>

000011a8 <.LBB21_4>:
    11a8: 07 ed 04 02  	<unknown>
    11ac: 27 6d 09 02  	<unknown>

000011b0 <.LBB21_5>:
    11b0: 93 15 25 00  	slli	a1, a0, 2
    11b4: b3 84 b4 00  	add	s1, s1, a1
    11b8: 33 09 b9 00  	add	s2, s2, a1
    11bc: 33 04 a4 40  	sub	s0, s0, a0

000011c0 <.LBB21_6>:
    11c0: 13 35 15 00  	seqz	a0, a0
    11c4: 63 1e 05 00  	bnez	a0, 0x11e0 <.LBB21_10>

000011c8 <.LBB21_7>:
    11c8: 57 75 74 05  	<unknown>
    11cc: e3 0a 05 fe  	beqz	a0, 0x11c0 <.LBB21_6>
    11d0: e3 1c 35 fd  	bne	a0, s3, 0x11a8 <.LBB21_4>
    11d4: 07 ed 94 07  	<unknown>
    11d8: 27 6d 99 07  	<unknown>
    11dc: 6f f0 5f fd  	j	0x11b0 <.LBB21_5>

000011e0 <.LBB21_10>:
    11e0: 03 2a 81 20  	lw	s4, 520(sp)
    11e4: 83 29 c1 20  	lw	s3, 524(sp)
    11e8: 03 29 01 21  	lw	s2, 528(sp)
    11ec: 83 24 41 21  	lw	s1, 532(sp)
    11f0: 03 24 81 21  	lw	s0, 536(sp)
    11f4: 83 20 c1 21  	lw	ra, 540(sp)
    11f8: 13 01 01 22  	addi	sp, sp, 544
    11fc: 67 80 00 00  	ret

00001200 <vector_memcpy_masked_e32m8>:
    1200: d7 76 30 05  	<unknown>
    1204: 07 e4 05 02  	<unknown>
    1208: 57 b0 80 62  	<unknown>
    120c: 6f 00 c0 00  	j	0x1218 <.LBB22_2>

00001210 <.LBB22_1>:
    1210: 93 b6 16 00  	seqz	a3, a3
    1214: 63 98 06 02  	bnez	a3, 0x1244 <.LBB22_4>

00001218 <.LBB22_2>:
    1218: d7 76 35 05  	<unknown>
    121c: e3 8a 06 fe  	beqz	a3, 0x1210 <.LBB22_1>
    1220: 57 f0 36 01  	<unknown>
    1224: 07 e4 05 00  	<unknown>
    1228: 57 70 30 05  	<unknown>
    122c: 27 64 06 00  	<unknown>
    1230: 13 97 26 00  	slli	a4, a3, 2
    1234: b3 85 e5 00  	add	a1, a1, a4
    1238: 33 06 e6 00  	add	a2, a2, a4
    123c: 33 05 d5 40  	sub	a0, a0, a3
    1240: 6f f0 1f fd  	j	0x1210 <.LBB22_1>

00001244 <.LBB22_4>:
    1244: 67 80 00 00  	ret

00001248 <vector_memcpy_segmented_e8m2>:
    1248: 93 08 00 01  	addi	a7, zero, 16
    124c: 6f 00 c0 00  	j	0x1258 <.LBB23_2>

00001250 <.LBB23_1>:
    1250: 93 b6 12 00  	seqz	a3, t0
    1254: 63 9e 06 04  	bnez	a3, 0x12b0 <.LBB23_6>

00001258 <.LBB23_2>:
    1258: d7 72 15 04  	<unknown>
    125c: e3 8a 02 fe  	beqz	t0, 0x1250 <.LBB23_1>
    1260: 07 80 05 62  	<unknown>
    1264: 83 27 06 00  	lw	a5, 0(a2)
    1268: 27 80 07 02  	<unknown>
    126c: 83 27 46 00  	lw	a5, 4(a2)
    1270: 27 81 07 02  	<unknown>
    1274: 83 27 86 00  	lw	a5, 8(a2)
    1278: 27 82 07 02  	<unknown>
    127c: 03 28 c6 00  	lw	a6, 12(a2)
    1280: 93 07 00 00  	mv	a5, zero
    1284: 27 03 08 02  	<unknown>
    1288: 13 98 22 00  	slli	a6, t0, 2

0000128c <.LBB23_4>:
    128c: b3 06 f6 00  	add	a3, a2, a5
    1290: 03 a7 06 00  	lw	a4, 0(a3)
    1294: 33 07 57 00  	add	a4, a4, t0
    1298: 93 87 47 00  	addi	a5, a5, 4
    129c: 23 a0 e6 00  	sw	a4, 0(a3)
    12a0: e3 96 17 ff  	bne	a5, a7, 0x128c <.LBB23_4>
    12a4: b3 85 05 01  	add	a1, a1, a6
    12a8: 33 05 55 40  	sub	a0, a0, t0
    12ac: 6f f0 5f fa  	j	0x1250 <.LBB23_1>

000012b0 <.LBB23_6>:
    12b0: 67 80 00 00  	ret

000012b4 <vector_memcpy_segmented_e16m2>:
    12b4: 93 08 00 01  	addi	a7, zero, 16
    12b8: 6f 00 c0 00  	j	0x12c4 <.LBB24_2>

000012bc <.LBB24_1>:
    12bc: 93 b6 12 00  	seqz	a3, t0
    12c0: 63 92 06 06  	bnez	a3, 0x1324 <.LBB24_6>

000012c4 <.LBB24_2>:
    12c4: d7 72 95 04  	<unknown>
    12c8: e3 8a 02 fe  	beqz	t0, 0x12bc <.LBB24_1>
    12cc: 07 d0 05 62  	<unknown>
    12d0: 83 27 06 00  	lw	a5, 0(a2)
    12d4: 27 d0 07 02  	<unknown>
    12d8: 83 27 46 00  	lw	a5, 4(a2)
    12dc: 27 d1 07 02  	<unknown>
    12e0: 83 27 86 00  	lw	a5, 8(a2)
    12e4: 27 d2 07 02  	<unknown>
    12e8: 03 28 c6 00  	lw	a6, 12(a2)
    12ec: 93 07 00 00  	mv	a5, zero
    12f0: 27 53 08 02  	<unknown>
    12f4: 13 98 22 00  	slli	a6, t0, 2

000012f8 <.LBB24_4>:
    12f8: b3 06 f6 00  	add	a3, a2, a5
    12fc: 03 a3 06 00  	lw	t1, 0(a3)
    1300: 13 97 12 00  	slli	a4, t0, 1
    1304: 33 07 e3 00  	add	a4, t1, a4
    1308: 93 87 47 00  	addi	a5, a5, 4
    130c: 23 a0 e6 00  	sw	a4, 0(a3)
    1310: e3 94 17 ff  	bne	a5, a7, 0x12f8 <.LBB24_4>
    1314: 93 17 18 00  	slli	a5, a6, 1
    1318: b3 85 f5 00  	add	a1, a1, a5
    131c: 33 05 55 40  	sub	a0, a0, t0
    1320: 6f f0 df f9  	j	0x12bc <.LBB24_1>

00001324 <.LBB24_6>:
    1324: 67 80 00 00  	ret

00001328 <vector_memcpy_segmented_e32m2>:
    1328: 93 08 00 01  	addi	a7, zero, 16
    132c: 6f 00 c0 00  	j	0x1338 <.LBB25_2>

00001330 <.LBB25_1>:
    1330: 93 36 18 00  	seqz	a3, a6
    1334: 63 90 06 06  	bnez	a3, 0x1394 <.LBB25_6>

00001338 <.LBB25_2>:
    1338: 57 78 15 05  	<unknown>
    133c: e3 0a 08 fe  	beqz	a6, 0x1330 <.LBB25_1>
    1340: 07 e0 05 62  	<unknown>
    1344: 03 27 06 00  	lw	a4, 0(a2)
    1348: 27 60 07 02  	<unknown>
    134c: 03 27 46 00  	lw	a4, 4(a2)
    1350: 27 61 07 02  	<unknown>
    1354: 03 27 86 00  	lw	a4, 8(a2)
    1358: 27 62 07 02  	<unknown>
    135c: 83 27 c6 00  	lw	a5, 12(a2)
    1360: 13 07 00 00  	mv	a4, zero
    1364: 27 e3 07 02  	<unknown>
    1368: 93 12 28 00  	slli	t0, a6, 2

0000136c <.LBB25_4>:
    136c: b3 06 e6 00  	add	a3, a2, a4
    1370: 83 a7 06 00  	lw	a5, 0(a3)
    1374: b3 87 57 00  	add	a5, a5, t0
    1378: 13 07 47 00  	addi	a4, a4, 4
    137c: 23 a0 f6 00  	sw	a5, 0(a3)
    1380: e3 16 17 ff  	bne	a4, a7, 0x136c <.LBB25_4>
    1384: 13 97 22 00  	slli	a4, t0, 2
    1388: b3 85 e5 00  	add	a1, a1, a4
    138c: 33 05 05 41  	sub	a0, a0, a6
    1390: 6f f0 1f fa  	j	0x1330 <.LBB25_1>

00001394 <.LBB25_6>:
    1394: 67 80 00 00  	ret

00001398 <vector_memcpy_segmented_e32mf2>:
    1398: 93 08 00 01  	addi	a7, zero, 16
    139c: 6f 00 c0 00  	j	0x13a8 <.LBB26_2>

000013a0 <.LBB26_1>:
    13a0: 93 36 18 00  	seqz	a3, a6
    13a4: 63 90 06 06  	bnez	a3, 0x1404 <.LBB26_6>

000013a8 <.LBB26_2>:
    13a8: 57 78 75 05  	<unknown>
    13ac: e3 0a 08 fe  	beqz	a6, 0x13a0 <.LBB26_1>
    13b0: 07 e0 05 62  	<unknown>
    13b4: 03 27 06 00  	lw	a4, 0(a2)
    13b8: 27 60 07 02  	<unknown>
    13bc: 03 27 46 00  	lw	a4, 4(a2)
    13c0: a7 60 07 02  	<unknown>
    13c4: 03 27 86 00  	lw	a4, 8(a2)
    13c8: 27 61 07 02  	<unknown>
    13cc: 83 27 c6 00  	lw	a5, 12(a2)
    13d0: 13 07 00 00  	mv	a4, zero
    13d4: a7 e1 07 02  	<unknown>
    13d8: 93 12 28 00  	slli	t0, a6, 2

000013dc <.LBB26_4>:
    13dc: b3 06 e6 00  	add	a3, a2, a4
    13e0: 83 a7 06 00  	lw	a5, 0(a3)
    13e4: b3 87 57 00  	add	a5, a5, t0
    13e8: 13 07 47 00  	addi	a4, a4, 4
    13ec: 23 a0 f6 00  	sw	a5, 0(a3)
    13f0: e3 16 17 ff  	bne	a4, a7, 0x13dc <.LBB26_4>
    13f4: 13 97 22 00  	slli	a4, t0, 2
    13f8: b3 85 e5 00  	add	a1, a1, a4
    13fc: 33 05 05 41  	sub	a0, a0, a6
    1400: 6f f0 1f fa  	j	0x13a0 <.LBB26_1>

00001404 <.LBB26_6>:
    1404: 67 80 00 00  	ret

00001408 <main>:
    1408: 13 01 01 ff  	addi	sp, sp, -16
    140c: 23 26 11 00  	sw	ra, 12(sp)
    1410: 23 24 81 00  	sw	s0, 8(sp)
    1414: 23 22 91 00  	sw	s1, 4(sp)
    1418: 37 15 00 00  	lui	a0, 1
    141c: 13 05 85 c7  	addi	a0, a0, -904
    1420: 97 f0 ff ff  	auipc	ra, 1048575
    1424: e7 80 00 c1  	jalr	-1008(ra)
    1428: 13 04 05 00  	mv	s0, a0
    142c: 93 84 05 00  	mv	s1, a1
    1430: 37 15 00 00  	lui	a0, 1
    1434: 13 05 85 ca  	addi	a0, a0, -856
    1438: 97 f0 ff ff  	auipc	ra, 1048575
    143c: e7 80 80 cf  	jalr	-776(ra)
    1440: 13 56 f5 01  	srli	a2, a0, 31
    1444: 93 95 15 00  	slli	a1, a1, 1
    1448: b3 e5 c5 00  	or	a1, a1, a2
    144c: 13 15 15 00  	slli	a0, a0, 1
    1450: 33 64 85 00  	or	s0, a0, s0
    1454: b3 e4 95 00  	or	s1, a1, s1
    1458: 37 15 00 00  	lui	a0, 1
    145c: 13 05 c5 cd  	addi	a0, a0, -804
    1460: 97 f0 ff ff  	auipc	ra, 1048575
    1464: e7 80 00 de  	jalr	-544(ra)
    1468: 13 56 e5 01  	srli	a2, a0, 30
    146c: 93 95 25 00  	slli	a1, a1, 2
    1470: b3 e5 c5 00  	or	a1, a1, a2
    1474: 13 15 25 00  	slli	a0, a0, 2
    1478: b3 e4 b4 00  	or	s1, s1, a1
    147c: 33 64 a4 00  	or	s0, s0, a0
    1480: 37 15 00 00  	lui	a0, 1
    1484: 13 05 05 d1  	addi	a0, a0, -752
    1488: 97 f0 ff ff  	auipc	ra, 1048575
    148c: e7 80 80 db  	jalr	-584(ra)
    1490: 13 56 d5 01  	srli	a2, a0, 29
    1494: 93 95 35 00  	slli	a1, a1, 3
    1498: b3 e5 c5 00  	or	a1, a1, a2
    149c: 13 15 35 00  	slli	a0, a0, 3
    14a0: b3 e4 b4 00  	or	s1, s1, a1
    14a4: 33 64 a4 00  	or	s0, s0, a0
    14a8: 37 15 00 00  	lui	a0, 1
    14ac: 13 05 45 d4  	addi	a0, a0, -700
    14b0: 97 f0 ff ff  	auipc	ra, 1048575
    14b4: e7 80 00 b8  	jalr	-1152(ra)
    14b8: 13 56 c5 01  	srli	a2, a0, 28
    14bc: 93 95 45 00  	slli	a1, a1, 4
    14c0: b3 e5 c5 00  	or	a1, a1, a2
    14c4: 13 15 45 00  	slli	a0, a0, 4
    14c8: b3 e4 b4 00  	or	s1, s1, a1
    14cc: 33 64 a4 00  	or	s0, s0, a0
    14d0: 37 15 00 00  	lui	a0, 1
    14d4: 13 05 45 da  	addi	a0, a0, -604
    14d8: 97 f0 ff ff  	auipc	ra, 1048575
    14dc: e7 80 80 c5  	jalr	-936(ra)
    14e0: 13 56 b5 01  	srli	a2, a0, 27
    14e4: 93 95 55 00  	slli	a1, a1, 5
    14e8: b3 e5 c5 00  	or	a1, a1, a2
    14ec: 13 15 55 00  	slli	a0, a0, 5
    14f0: b3 e4 b4 00  	or	s1, s1, a1
    14f4: 33 64 a4 00  	or	s0, s0, a0
    14f8: 37 15 00 00  	lui	a0, 1
    14fc: 13 05 85 e0  	addi	a0, a0, -504
    1500: 97 f0 ff ff  	auipc	ra, 1048575
    1504: e7 80 00 d4  	jalr	-704(ra)
    1508: 13 56 a5 01  	srli	a2, a0, 26
    150c: 93 95 65 00  	slli	a1, a1, 6
    1510: b3 e5 c5 00  	or	a1, a1, a2
    1514: 13 15 65 00  	slli	a0, a0, 6
    1518: b3 e4 b4 00  	or	s1, s1, a1
    151c: 33 64 a4 00  	or	s0, s0, a0
    1520: 37 15 00 00  	lui	a0, 1
    1524: 13 05 c5 e6  	addi	a0, a0, -404
    1528: 97 f0 ff ff  	auipc	ra, 1048575
    152c: e7 80 80 d1  	jalr	-744(ra)
    1530: 13 56 95 01  	srli	a2, a0, 25
    1534: 93 95 75 00  	slli	a1, a1, 7
    1538: b3 e5 c5 00  	or	a1, a1, a2
    153c: 13 15 75 00  	slli	a0, a0, 7
    1540: b3 e4 b4 00  	or	s1, s1, a1
    1544: 33 64 a4 00  	or	s0, s0, a0
    1548: 37 15 00 00  	lui	a0, 1
    154c: 13 05 05 ed  	addi	a0, a0, -304
    1550: 97 f0 ff ff  	auipc	ra, 1048575
    1554: e7 80 00 ae  	jalr	-1312(ra)
    1558: 13 56 85 01  	srli	a2, a0, 24
    155c: 93 95 85 00  	slli	a1, a1, 8
    1560: b3 e5 c5 00  	or	a1, a1, a2
    1564: 13 15 85 00  	slli	a0, a0, 8
    1568: b3 e4 b4 00  	or	s1, s1, a1
    156c: 33 64 a4 00  	or	s0, s0, a0
    1570: 37 15 00 00  	lui	a0, 1
    1574: 13 05 45 f9  	addi	a0, a0, -108
    1578: 97 f0 ff ff  	auipc	ra, 1048575
    157c: e7 80 80 bb  	jalr	-1096(ra)
    1580: 13 56 75 01  	srli	a2, a0, 23
    1584: 93 95 95 00  	slli	a1, a1, 9
    1588: b3 e5 c5 00  	or	a1, a1, a2
    158c: 13 15 95 00  	slli	a0, a0, 9
    1590: b3 e4 b4 00  	or	s1, s1, a1
    1594: 33 64 a4 00  	or	s0, s0, a0
    1598: 37 15 00 00  	lui	a0, 1
    159c: 13 05 05 06  	addi	a0, a0, 96
    15a0: 97 f0 ff ff  	auipc	ra, 1048575
    15a4: e7 80 00 ca  	jalr	-864(ra)
    15a8: 13 56 65 01  	srli	a2, a0, 22
    15ac: 93 95 a5 00  	slli	a1, a1, 10
    15b0: b3 e5 c5 00  	or	a1, a1, a2
    15b4: 13 15 a5 00  	slli	a0, a0, 10
    15b8: b3 e4 b4 00  	or	s1, s1, a1
    15bc: 33 64 a4 00  	or	s0, s0, a0
    15c0: 37 15 00 00  	lui	a0, 1
    15c4: 13 05 05 13  	addi	a0, a0, 304
    15c8: 97 f0 ff ff  	auipc	ra, 1048575
    15cc: e7 80 80 c7  	jalr	-904(ra)
    15d0: 13 56 55 01  	srli	a2, a0, 21
    15d4: 93 95 b5 00  	slli	a1, a1, 11
    15d8: b3 e5 c5 00  	or	a1, a1, a2
    15dc: 13 15 b5 00  	slli	a0, a0, 11
    15e0: b3 e4 b4 00  	or	s1, s1, a1
    15e4: 33 64 a4 00  	or	s0, s0, a0
    15e8: 37 15 00 00  	lui	a0, 1
    15ec: 13 05 05 20  	addi	a0, a0, 512
    15f0: 97 f0 ff ff  	auipc	ra, 1048575
    15f4: e7 80 c0 fa  	jalr	-84(ra)
    15f8: 13 56 45 01  	srli	a2, a0, 20
    15fc: 93 95 c5 00  	slli	a1, a1, 12
    1600: b3 e5 c5 00  	or	a1, a1, a2
    1604: 13 15 c5 00  	slli	a0, a0, 12
    1608: b3 e4 b4 00  	or	s1, s1, a1
    160c: 33 64 a4 00  	or	s0, s0, a0
    1610: 37 15 00 00  	lui	a0, 1
    1614: 13 05 85 24  	addi	a0, a0, 584
    1618: 97 f0 ff ff  	auipc	ra, 1048575
    161c: e7 80 c0 0a  	jalr	172(ra)
    1620: 13 56 35 01  	srli	a2, a0, 19
    1624: 93 95 d5 00  	slli	a1, a1, 13
    1628: b3 e5 c5 00  	or	a1, a1, a2
    162c: 13 15 d5 00  	slli	a0, a0, 13
    1630: b3 e4 b4 00  	or	s1, s1, a1
    1634: 33 64 a4 00  	or	s0, s0, a0
    1638: 37 15 00 00  	lui	a0, 1
    163c: 13 05 45 2b  	addi	a0, a0, 692
    1640: 97 f0 ff ff  	auipc	ra, 1048575
    1644: e7 80 80 28  	jalr	648(ra)
    1648: 13 56 25 01  	srli	a2, a0, 18
    164c: 93 95 e5 00  	slli	a1, a1, 14
    1650: b3 e5 c5 00  	or	a1, a1, a2
    1654: 13 15 e5 00  	slli	a0, a0, 14
    1658: b3 e4 b4 00  	or	s1, s1, a1
    165c: 33 64 a4 00  	or	s0, s0, a0
    1660: 37 15 00 00  	lui	a0, 1
    1664: 13 05 85 32  	addi	a0, a0, 808
    1668: 97 f0 ff ff  	auipc	ra, 1048575
    166c: e7 80 80 44  	jalr	1096(ra)
    1670: 13 56 15 01  	srli	a2, a0, 17
    1674: 93 95 f5 00  	slli	a1, a1, 15
    1678: b3 e5 c5 00  	or	a1, a1, a2
    167c: 13 15 f5 00  	slli	a0, a0, 15
    1680: b3 e4 b4 00  	or	s1, s1, a1
    1684: 33 64 a4 00  	or	s0, s0, a0
    1688: 37 15 00 00  	lui	a0, 1
    168c: 13 05 85 39  	addi	a0, a0, 920
    1690: 97 f0 ff ff  	auipc	ra, 1048575
    1694: e7 80 00 42  	jalr	1056(ra)
    1698: 13 56 05 01  	srli	a2, a0, 16
    169c: 93 95 05 01  	slli	a1, a1, 16
    16a0: b3 e5 c5 00  	or	a1, a1, a2
    16a4: 13 15 05 01  	slli	a0, a0, 16
    16a8: b3 e5 b4 00  	or	a1, s1, a1
    16ac: 33 65 a4 00  	or	a0, s0, a0
    16b0: 37 06 00 01  	lui	a2, 4096
    16b4: 23 22 06 00  	sw	zero, 4(a2)
    16b8: b7 06 02 00  	lui	a3, 32
    16bc: 93 86 f6 ff  	addi	a3, a3, -1
    16c0: 23 20 d6 00  	sw	a3, 0(a2)
    16c4: 37 06 00 01  	lui	a2, 4096
    16c8: 23 24 a6 00  	sw	a0, 8(a2)
    16cc: 23 26 b6 00  	sw	a1, 12(a2)
    16d0: 13 05 00 00  	mv	a0, zero
    16d4: 83 24 41 00  	lw	s1, 4(sp)
    16d8: 03 24 81 00  	lw	s0, 8(sp)
    16dc: 83 20 c1 00  	lw	ra, 12(sp)
    16e0: 13 01 01 01  	addi	sp, sp, 16
    16e4: 67 80 00 00  	ret
