
/media/common/University/Edu/Year4_Masters/Project/riscv-v-lite/programs/build/llvm-13-rv32imv/vector_memcpy/vector_memcpy.elf:	file format elf32-littleriscv
Contents of section .text.init:
 0000 17010100 13010102 97200000 e78000c9  ......... ......
 0010 6f000000                             o...
Contents of section .text:
 0014 630c0600 93060500 2380b600 1306f6ff  c.......#.......
 0024 93861600 e31a06fe 67800000 130101ef  ........g.......
 0034 23261110 23248110 23229110 23202111  #&..#$..#"..# !.
 0044 13090500 13040108 13050108 13060008  ................
 0054 93040008 93050000 97000000 e78080fb  ................
 0064 13050100 13060008 93050000 97000000  ................
 0074 e78040fa 13050000 b305a400 2380a500  ..@.........#...
 0084 13051500 e31a95fe 93040108 1305e006  ................
 0094 93050108 13060100 13040100 e7000900  ................
 00a4 13050000 9305d006 03c60400 83460400  .............F..
 00b4 631ed604 1376f50f 13041400 93841400  c....v..........
 00c4 13051500 e362b6fe 8345e106 13050000  .....b...E......
 00d4 63900504 9305f006 1305f0ff 13060100  c...............
 00e4 93968501 93d68641 63cc0600 13f7f50f  .......Ac.......
 00f4 3307e600 03470700 93851500 e30207fe  3....G..........
 0104 3325d500 13451500 6f008000 13050000  3%...E..o.......
 0114 93050000 03290110 83244110 03248110  .....)...$A..$..
 0124 8320c110 13010111 67800000 130101df  . ......g.......
 0134 23261120 23248120 23229120 23202121  #&. #$. #". # !!
 0144 13090500 13050110 13060010 13040110  ................
 0154 93050000 97000000 e780c0eb 13050100  ................
 0164 13060010 93050000 97000000 e78080ea  ................
 0174 13050000 93050008 2310a400 13051500  ........#.......
 0184 13042400 e31ab5fe 93040110 1305e006  ..$.............
 0194 93050110 13060100 13040100 e7000900  ................
 01a4 13050000 b7050100 9385f5ff 1306d006  ................
 01b4 83d60400 03570400 6392e606 b376b500  .....W..c....v..
 01c4 13042400 93842400 13051500 e3e2c6fe  ..$...$.........
 01d4 8355c10d 13050000 63940504 1305e006  .U......c.......
 01e4 b7050100 9385f5ff 1306e007 93060100  ................
 01f4 3377b500 636ee600 13051500 b377b500  3w..cn.......w..
 0204 93971700 b387f600 83d70700 e38207fe  ................
 0214 1335f707 13451500 6f008000 13050000  .5...E..o.......
 0224 93050000 03290120 83244120 03248120  .....). .$A .$. 
 0234 8320c120 13010121 67800000 130101be  . . ...!g.......
 0244 232e1140 232c8140 232a9140 23282141  #..@#,.@#*.@#(!A
 0254 13090500 13050121 13060020 93040121  .......!... ...!
 0264 93050000 97000000 e780c0da 13050101  ................
 0274 13060020 93050000 97000000 e78080d9  ... ............
 0284 13050000 93050008 23a0a400 13051500  ........#.......
 0294 93844400 e31ab5fe 93040121 1305e006  ..D........!....
 02a4 93050121 13060101 13040101 e7000900  ...!............
 02b4 13050000 9305801b 3386a400 03260600  ........3....&..
 02c4 b306a400 83a60600 6314d604 13054500  ........c.....E.
 02d4 e314b5fe 8325811c 13050000 639c0502  .....%......c...
 02e4 1305c11c 9306e006 9305f007 13860600  ................
 02f4 638ab600 03270500 93061600 13054500  c....'........E.
 0304 e30607fe 1305e007 3335c500 6f008000  ........35..o...
 0314 13050000 93050000 03290141 83244141  .........).A.$AA
 0324 03248141 8320c141 13010142 67800000  .$.A. .A...Bg...
 0334 13010181 2326117e 2324817e 2322917e  ....#&.~#$.~#".~
 0344 2320217f 130101fd 13090500 13050141  # !............A
 0354 13060040 13040141 93050000 97000000  ...@...A........
 0364 e78040cb 13050101 13060040 93050000  ..@........@....
 0374 97000000 e78000ca 93050000 13050000  ................
 0384 6f00c001 13060000 93861500 b3b5b600  o...............
 0394 3305b500 93850600 63020602 13963500  3.......c.....5.
 03a4 3306c400 2320b600 13664600 2320a600  3...# ...fF.# ..
 03b4 e31a05fc 13b6f507 6ff01ffd 93040141  ........o......A
 03c4 1305e006 93050141 13060101 13040101  .......A........
 03d4 e7000900 93050000 13050000 6f00c001  ............o...
 03e4 13060000 93861500 b3b5b600 3305b500  ............3...
 03f4 93850600 63060604 13963500 b386c400  ....c.....5.....
 0404 13e74600 03270700 83a60600 3306c400  ..F..'......3...
 0414 93674600 03260600 83a70700 33c6c600  .gF..&......3...
 0424 b346f700 3366d600 63180600 e31a05fa  .F..3f..c.......
 0434 13b6d506 6ff01ffb 13050000 6f008007  ....o.......o...
 0444 03254138 83250138 b3e5a500 13050000  .%A8.%.8........
 0454 63920506 13050000 9306e006 9305e007  c...............
 0464 13060101 630a0500 13070000 b337a000  ....c........7..
 0474 638a0700 6f00c003 13b7f607 b3b7d500  c...o...........
 0484 63980702 93871600 93943700 b3049600  c.........7.....
 0494 03a40400 93e44400 83a40400 b3b6d700  ......D.........
 04a4 b3649400 3305d500 93860700 e38c04fa  .d..3...........
 04b4 13451700 93050000 13010103 0329017e  .E...........).~
 04c4 8324417e 0324817e 8320c17e 1301017f  .$A~.$.~. .~....
 04d4 67800000 130101ee 232e1110 232c8110  g.......#...#,..
 04e4 232a9110 23282111 23263111 13090500  #*..#(!.#&1.....
 04f4 9309c108 1305c108 13060008 93040008  ................
 0504 93050000 97000000 e780c0b0 1305c100  ................
 0514 13060008 1304c100 93050000 97000000  ................
 0524 e78040af 13050000 9305b00b 3386a900  ..@.........3...
 0534 2300a600 3306a400 13051500 2300b600  #...3.......#...
 0544 e31695fe 9304e006 9309c108 1305e006  ................
 0554 9305c108 1306c100 1304c100 e7000900  ................
 0564 13050000 9305b00b 6f004001 03460600  ........o.@..F..
 0574 6318b606 13051500 63029502 93761500  c.......c....v..
 0584 3306a400 e38406fe b386a900 83c60600  3...............
 0594 03460600 e380c6fe 6f008004 8345a107  .F......o....E..
 05a4 1305b00b 639ea502 1306f006 9305f0ff  ....c...........
 05b4 9306c100 13178601 13578741 634c0700  .........W.AcL..
 05c4 9377f60f b387f600 83c70700 13061600  .w..............
 05d4 e382a7fe 33a5e500 13451500 6f008000  ....3....E..o...
 05e4 13050000 93050000 8329c110 03290111  .........)...)..
 05f4 83244111 03248111 8320c111 13010112  .$A..$... ......
 0604 67800000 130101de 232e1120 232c8120  g.......#.. #,. 
 0614 232a9120 23282121 23263121 13090500  #*. #(!!#&1!....
 0624 1305c110 13060010 1304c110 93050000  ................
 0634 97000000 e780009e 1305c100 13060010  ................
 0644 9304c100 93050000 97000000 e780809c  ................
 0654 13050000 9305b00b 13060008 2310a400  ............#...
 0664 2390b400 13051500 13042400 93842400  #.........$...$.
 0674 e316c5fe 9309e006 1304c110 1305e006  ................
 0684 9305c110 1306c100 9304c100 e7000900  ................
 0694 13050000 9305b00b 6f00c001 03d60400  ........o.......
 06a4 631cb606 13051500 13042400 93842400  c.........$...$.
 06b4 630e3501 13761500 e30206fe 03560400  c.5..v.......V..
 06c4 83d60400 e300d6fe 6f000005 8355810e  ........o....U..
 06d4 1305b00b 6392a504 9305e006 37060100  ....c.......7...
 06e4 1306f6ff 9306e007 1307c100 b3f7c500  ................
 06f4 63eef600 93851500 b3f4c500 93941400  c...............
 0704 b3049700 83d40400 e382a4fe 13b5f707  ................
 0714 13451500 6f008000 13050000 93050000  .E..o...........
 0724 8329c120 03290121 83244121 03248121  .). .).!.$A!.$.!
 0734 8320c121 13010122 67800000 130101be  . .!..."g.......
 0744 232e1140 232c8140 232a9140 23282141  #..@#,.@#*.@#(!A
 0754 23263141 13090500 1305c120 13060020  #&1A....... ... 
 0764 1304c120 93050000 97000000 e780808a  ... ............
 0774 1305c100 13060020 9304c100 93050000  ....... ........
 0784 97000000 e7800089 13050000 9305b00b  ................
 0794 13060008 2320a400 23a0b400 13051500  ....# ..#.......
 07a4 93844400 13044400 e316c5fe 9309e006  ..D...D.........
 07b4 1304c120 1305e006 9305c120 1306c100  ... ....... ....
 07c4 9304c100 e7000900 13050000 9305b00b  ................
 07d4 6f00c001 03a60400 6314b606 13051500  o.......c.......
 07e4 93844400 13044400 630e3501 13761500  ..D...D.c.5..v..
 07f4 e30206fe 03260400 83a60400 e300d6fe  .....&..........
 0804 6f000004 8325411c 1305b00b 639aa502  o....%A.....c...
 0814 9305811c 1307e006 1306f007 93060700  ................
 0824 630ac700 83a70500 13871600 93854500  c.............E.
 0834 e386a7fe 1305e007 3335d500 6f008000  ........35..o...
 0844 13050000 93050000 8329c140 03290141  .........).@.).A
 0854 83244141 03248141 8320c141 13010142  .$AA.$.A. .A...B
 0864 67800000 13010181 2326117e 2324817e  g.......#&.~#$.~
 0874 2322917e 2320217f 130101fd 13090500  #".~# !.........
 0884 13050141 13060040 13040141 93050000  ...A...@...A....
 0894 97f0ffff e7800078 13050101 13060040  .......x.......@
 08a4 93040101 93050000 97f0ffff e7808076  ...............v
 08b4 13060000 13050000 9305b00b 6f00c001  ............o...
 08c4 93060000 13071600 3336c700 3305c500  ........36..3...
 08d4 13060700 638a0602 93163600 3307d400  ....c.....6.3...
 08e4 2320c700 13674700 2320a700 b386d400  # ...gG.# ......
 08f4 23a0b600 93e64600 23a00600 e31205fc  #.....F.#.......
 0904 9336f607 6ff01ffc 93040141 1305e006  .6..o......A....
 0914 93050141 13060101 13040101 e7000900  ...A............
 0924 93050000 13050000 6f00c001 13060000  ........o.......
 0934 93861500 b3b5b600 3305b500 93850600  ........3.......
 0944 630a0606 93f61500 13963500 63920602  c.........5.c...
 0954 3306c400 93664600 03260600 83a60600  3....fF..&......
 0964 1346b60b 3366d600 630c0602 6f000004  .F..3f..c...o...
 0974 b386c400 13e74600 03270700 83a60600  ......F..'......
 0984 3306c400 93674600 03260600 83a70700  3....gF..&......
 0994 33c6c600 b346f700 3366d600 63180600  3....F..3f..c...
 09a4 e31605f8 13b6d506 6ff09ff8 13050000  ........o.......
 09b4 6f000008 03250138 83254138 1345b50b  o....%.8.%A8.E..
 09c4 b365b500 13050000 63940506 13050000  .e......c.......
 09d4 9306e006 9305e007 13060101 630a0500  ............c...
 09e4 13070000 b337a000 638a0700 6f000004  .....7..c...o...
 09f4 13b7f607 b3b7d500 639a0702 93871600  ........c.......
 0a04 93943700 b3049600 13e44400 83a40400  ..7.......D.....
 0a14 03240400 b3b6d700 93c4b40b b3e48400  .$..............
 0a24 3305d500 93860700 e38a04fa 13451700  3............E..
 0a34 93050000 13010103 0329017e 8324417e  .........).~.$A~
 0a44 0324817e 8320c17e 1301017f 67800000  .$.~. .~....g...
 0a54 130101ed 23261112 23248112 23229112  ....#&..#$..#"..
 0a64 23202113 232e3111 232c4111 13090500  # !.#.1.#,A.....
 0a74 93048109 13058109 13060008 13040008  ................
 0a84 93050000 97f0ffff e780c058 13050000  ...........X....
 0a94 232a0108 23280108 23260108 23240108  #*..#(..#&..#$..
 0aa4 23220108 23200108 232e0106 232c0106  #"..# ..#...#,..
 0ab4 232a0106 23280106 23260106 23240106  #*..#(..#&..#$..
 0ac4 23220106 23200106 232e0104 232c0104  #"..# ..#...#,..
 0ad4 232a0104 23280104 23260104 23240104  #*..#(..#&..#$..
 0ae4 23220104 23200104 232e0102 232c0102  #"..# ..#...#,..
 0af4 232a0102 23280102 23260102 23240102  #*..#(..#&..#$..
 0b04 23220102 23200102 232e0100 232c0100  #"..# ..#...#,..
 0b14 b385a400 2380a500 13051500 e31a85fe  ....#...........
 0b24 93098107 23243101 130a8105 23264101  ....#$1.....#&A.
 0b34 13048103 23288100 93048101 232a9100  ....#(......#*..
 0b44 1305a001 93058109 13068100 e7000900  ................
 0b54 13050000 9305b109 13069001 83c6d5ff  ................
 0b64 03c70900 6392e606 83c6e5ff 03470a00  ....c........G..
 0b74 639ce604 83c6f5ff 03470400 6396e604  c........G..c...
 0b84 83c60500 03c70400 6390e604 9376f50f  ........c....v..
 0b94 93841400 13041400 130a1a00 93891900  ................
 0ba4 93854500 13051500 e3eac6fa 83452109  ..E..........E!.
 0bb4 13051000 638e0502 93050000 1345f5ff  ....c........E..
 0bc4 13751500 6f00c000 13050000 93050000  .u..o...........
 0bd4 032a8111 8329c111 03290112 83244112  .*...)...)...$A.
 0be4 03248112 8320c112 13010113 67800000  .$... ......g...
 0bf4 93052107 13062105 93062103 13051000  ..!...!...!.....
 0c04 1307a001 9307e001 93048107 03c40500  ................
 0c14 e31404fa 03440600 e31004fa 03c40600  .....D..........
 0c24 e31c04f8 1374f70f 1335f401 e3e687f8  .....t...5......
 0c34 13071700 1374f70f 33848400 03440400  .....t..3....D..
 0c44 93851500 13061600 93861600 e30004fc  ................
 0c54 6ff09ff6 130101dd 23261122 23248122  o.......#&."#$."
 0c64 23229122 23202123 232e3121 232c4121  #"."# !##.1!#,A!
 0c74 13090500 13058111 13060010 13048111  ................
 0c84 93050000 97f0ffff e780c038 1305810d  ...........8....
 0c94 13060004 93050000 97f0ffff e7808037  ...............7
 0ca4 13058109 13060004 93050000 97f0ffff  ................
 0cb4 e7804036 13058105 13060004 93050000  ..@6............
 0cc4 97f0ffff e7800035 13058101 13060004  .......5........
 0cd4 93050000 97f0ffff e780c033 13050000  ...........3....
 0ce4 93050008 2310a400 13051500 13042400  ....#.........$.
 0cf4 e31ab5fe 9309810d 23243101 130a8109  ........#$1.....
 0d04 23264101 93048105 23289100 13048101  #&A.....#(......
 0d14 232a8100 1305a001 93058111 13068100  #*..............
 0d24 e7000900 13050000 9305c111 37060100  ............7...
 0d34 1306f6ff 93069001 03d7c5ff 83d70900  ................
 0d44 6312f706 03d7e5ff 83570a00 631cf704  c........W..c...
 0d54 03d70500 83d70400 6316f704 03d72500  ........c.....%.
 0d64 83570400 6310f704 3377c500 13042400  .W..c...3w....$.
 0d74 93842400 130a2a00 93892900 93858500  ..$...*...).....
 0d84 13051500 e36ad7fa 8355c110 13051000  .....j...U......
 0d94 638e0502 93050000 1345f5ff 13751500  c........E...u..
 0da4 6f00c000 13050000 93050000 032a8121  o............*.!
 0db4 8329c121 03290122 83244122 03248122  .).!.).".$A".$."
 0dc4 8320c122 13010123 67800000 9305c10c  . ."...#g.......
 0dd4 1306c108 9306c104 13051000 1307a001  ................
 0de4 b7070100 9387f7ff 9304e001 1308810d  ................
 0df4 03d40500 e31004fa 03540600 e31c04f8  .........T......
 0e04 03d40600 e31804f8 3374f700 1335f401  ........3t...5..
 0e14 e3e284f8 13071700 3374f700 13141400  ........3t......
 0e24 33048800 03540400 93852500 13062600  3....T....%...&.
 0e34 93862600 e30e04fa 6ff0dff5 130101bd  ..&.....o.......
 0e44 23261142 23248142 23229142 23202143  #&.B#$.B#".B# !C
 0e54 232e3141 232c4141 13090500 13058121  #.1A#,AA.......!
 0e64 13060020 13048121 93050000 97f0ffff  ... ...!........
 0e74 e780401a 13058119 13060008 93040008  ..@.............
 0e84 93050000 97f0ffff e780c018 13058111  ................
 0e94 13060008 93050000 97f0ffff e7808017  ................
 0ea4 13058109 13060008 93050000 97f0ffff  ................
 0eb4 e7804016 13058101 13060008 93050000  ..@.............
 0ec4 97f0ffff e7800015 13050000 2320a400  ............# ..
 0ed4 13051500 13044400 e31a95fe 93098119  ......D.........
 0ee4 23243101 130a8111 23264101 93048109  #$1.....#&A.....
 0ef4 23289100 13048101 232a8100 1305a001  #(......#*......
 0f04 93058121 13068100 e7000900 13050000  ...!............
 0f14 93050122 13068006 83a685ff 3387a900  ..."........3...
 0f24 03270700 639ee604 83a6c5ff 3307aa00  .'..c.......3...
 0f34 03270700 6396e604 83a60500 3387a400  .'..c.......3...
 0f44 03270700 639ee602 83a64500 3307a400  .'..c.....E.3...
 0f54 03270700 6396e602 13054500 93850501  .'..c.....E.....
 0f64 e31cc5fa 83250120 13051000 638e0502  .....%. ....c...
 0f74 93050000 1345f5ff 13751500 6f00c000  .....E...u..o...
 0f84 13050000 93050000 032a8141 8329c141  .........*.A.).A
 0f94 03290142 83244142 03248142 8320c142  .).B.$AB.$.B. .B
 0fa4 13010143 67800000 93050118 13060110  ...Cg...........
 0fb4 93060108 13074120 13051000 9307a001  ......A ........
 0fc4 9304f001 03a40500 e31404fa 03240600  .............$..
 0fd4 e31004fa 03a40600 e31c04f8 13b5f701  ................
 0fe4 e38897f8 03240700 93854500 13064600  .....$....E...F.
 0ff4 93864600 13074700 93871700 e30404fc  ..F...G.........
 1004 6ff01ff7 13010181 2326117e 2324817e  o.......#&.~#$.~
 1014 2322917e 2320217f 232e317d 232c417d  #".~# !.#.1}#,A}
 1024 232a517d 2328617d 2326717d 130101fb  #*Q}#(a}#&q}....
 1034 13090500 13058141 13060040 13048141  .......A...@...A
 1044 93050000 97f0ffff e780c0fc 13058131  ...............1
 1054 13060010 93050000 97f0ffff e78080fb  ................
 1064 13058121 13060010 93050000 97f0ffff  ...!............
 1074 e78040fa 13058111 13060010 93050000  ..@.............
 1084 97f0ffff e78000f9 13058101 13060010  ................
 1094 93050000 97f0ffff e780c0f7 93050000  ................
 10a4 13050000 6f00c001 13060000 93861500  ....o...........
 10b4 b3b5b600 3305b500 93850600 63020602  ....3.......c...
 10c4 13963500 3306c400 2320b600 13664600  ..5.3...# ...fF.
 10d4 2320a600 e31a05fc 13b6f507 6ff01ffd  # ..........o...
 10e4 130b8131 23246101 930a8121 23265101  ...1#$a....!#&Q.
 10f4 93098111 23283101 130a8101 232a4101  ....#(1.....#*A.
 1104 1305a001 93058141 13068100 930b8141  .......A.......A
 1114 e7000900 93050000 13050000 6f00c001  ............o...
 1124 13060000 93861500 b3b5b600 3305b500  ............3...
 1134 93850600 63020612 13965500 3386cb00  ....c.....U.3...
 1144 93664600 83a60600 03270600 13963500  .fF......'....5.
 1154 b307cb00 93e44700 83a70700 83a40400  ......G.........
 1164 3347f700 b3c69600 b366d700 639a060a  3G.......f..c...
 1174 93962500 93963600 13e78600 3387eb00  ..%...6.....3...
 1184 93674700 83a70700 03270700 b384ca00  .gG......'......
 1194 13e44400 83a40400 03240400 33479700  ..D......$..3G..
 11a4 b3c78700 3367f700 631c0706 13e70601  ....3g..c.......
 11b4 3387eb00 93674700 83a70700 03270700  3....gG......'..
 11c4 b384c900 13e44400 83a40400 03240400  ......D......$..
 11d4 33479700 b3c78700 3367f700 63120704  3G......3g..c...
 11e4 93e68601 b386db00 13e74600 03270700  ..........F..'..
 11f4 83a60600 3306ca00 93674600 03260600  ....3....gF..&..
 1204 83a70700 33c6c600 b346f700 3366d600  ....3....F..3f..
 1214 63180600 e31605f0 13b69501 6ff09ff0  c...........o...
 1224 13050000 93050000 13010105 832bc17c  .............+.|
 1234 032b017d 832a417d 032a817d 8329c17d  .+.}.*A}.*.}.).}
 1244 0329017e 8324417e 0324817e 8320c17e  .).~.$A~.$.~. .~
 1254 1301017f 67800000 0325c13e 8325813e  ....g....%.>.%.>
 1264 b3e5a500 93021000 638a0500 93050000  ........c.......
 1274 13c5f2ff 13751500 6ff01ffb 93050000  .....u..o.......
 1284 1306812e 9306811e 1307810e 1304a001  ................
 1294 93021000 1308e001 93088131 03254600  ...........1.%F.
 12a4 83270600 33e5a700 e31205fc 03a54600  .'..3.........F.
 12b4 83a70600 33e5a700 e31a05fa 03254700  ....3........%G.
 12c4 83270700 33e5a700 e31205fa 63880500  .'..3.......c...
 12d4 93020000 b337b000 6f00c000 9332f401  .....7..o....2..
 12e4 b3378800 e39407f8 93071400 93943700  .7............7.
 12f4 b3849800 03a50400 93e44400 83a40400  ..........D.....
 1304 33b48700 b3858500 33659500 13068600  3.......3e......
 1314 93868600 13078700 13840700 e30005f8  ................
 1324 6ff0dff4 6f00c000 93b61600 63920602  o...o.......c...
 1334 d7763504 e38a06fe 07840502 27040602  .v5.........'...
 1344 b385d500 3306d600 3305d540 6ff0dffd  ....3...3..@o...
 1354 67800000 6f00c000 93b61600 63940602  g...o.......c...
 1364 d776b504 e38a06fe 07d40502 27540602  .v..........'T..
 1374 13971600 b385e500 3306e600 3305d540  ........3...3..@
 1384 6ff09ffd 67800000 6f00c000 93b61600  o...g...o.......
 1394 63940602 d7763505 e38a06fe 07e40502  c....v5.........
 13a4 27640602 13972600 b385e500 3306e600  'd....&.....3...
 13b4 3305d540 6ff09ffd 67800000 6f00c000  3..@o...g...o...
 13c4 93b61600 63940602 d7767505 e38a06fe  ....c....vu.....
 13d4 87ec0502 a76c0602 13972600 b385e500  .....l....&.....
 13e4 3306e600 3305d540 6ff09ffd 67800000  3...3..@o...g...
 13f4 6f00c000 93b61600 63940602 d7769505  o.......c....v..
 1404 e38a06fe 07fd0502 277d0602 13973600  ........'}....6.
 1414 b385e500 3306e600 3305d540 6ff09ffd  ....3...3..@o...
 1424 67800000 93084000 6f004002 07840502  g.....@.o.@.....
 1434 27040602 13080700 33050541 b3850501  '.......3..A....
 1444 33060601 93361700 639c0602 57773504  3....6..c...Ww5.
 1454 e30a07fe 13182700 e37aa8fc 93070000  ......'..z......
 1464 b386f500 57703704 0784160b b306f600  ....Wp7.........
 1474 93871700 2784160b e39417ff 6ff0dffb  ....'.......o...
 1484 67800000 93088000 6f008002 07d40502  g.......o.......
 1494 27540602 13080700 33050541 93161800  'T......3..A....
 14a4 b385d500 3306d600 93361700 639c0602  ....3....6..c...
 14b4 5777b504 e30a07fe 13182700 e378a8fc  Ww........'..x..
 14c4 93070000 b386f500 5770b704 07d4160b  ........Wp......
 14d4 b306f600 93872700 27d4160b e39417ff  ......'.'.......
 14e4 6ff09ffb 67800000 93080001 6f008002  o...g.......o...
 14f4 07e40502 27640602 13080700 33050541  ....'d......3..A
 1504 93162800 b385d500 3306d600 93361700  ..(.....3....6..
 1514 639c0602 57773505 e30a07fe 13182700  c...Ww5.......'.
 1524 e378a8fc 93070000 b386f500 57703705  .x..........Wp7.
 1534 07e4160b b306f600 93874700 27e4160b  ..........G.'...
 1544 e39417ff 6ff09ffb 67800000 93080001  ....o...g.......
 1554 6f008002 87ec0502 a76c0602 13080700  o........l......
 1564 33050541 93162800 b385d500 3306d600  3..A..(.....3...
 1574 93361700 639c0602 57777505 e30a07fe  .6..c...Wwu.....
 1584 13182700 e378a8fc 93070000 b386f500  ..'..x..........
 1594 57707705 87ec160b b306f600 93874700  Wpw...........G.
 15a4 a7ec160b e39417ff 6ff09ffb 67800000  ........o...g...
 15b4 93080002 6f008002 07fd0502 277d0602  ....o.......'}..
 15c4 13080700 33050541 93163800 b385d500  ....3..A..8.....
 15d4 3306d600 93361700 639c0602 57779505  3....6..c...Ww..
 15e4 e30a07fe 13182700 e378a8fc 93070000  ......'..x......
 15f4 b386f500 57709705 07fd160b b306f600  ....Wp..........
 1604 93878700 27fd160b e39417ff 6ff09ffb  ....'.......o...
 1614 67800000 130101f6 232e1108 232c8108  g.......#...#,..
 1624 232a9108 23282109 23263109 23244109  #*..#(!.#&1.#$A.
 1634 13090600 93840500 13040500 d7793004  .............y0.
 1644 13058100 13060008 130a8100 93050000  ................
 1654 97f0ffff e780009c 638e0900 13050000  ........c.......
 1664 93451500 3306aa00 13051500 2300b600  .E..3.......#...
 1674 e398a9fe 57f03904 13058100 07040502  ....W.9.........
 1684 6f000002 07880402 27080902 b384a400  o.......'.......
 1694 3309a900 3304a440 13351500 631e0500  3...3..@.5..c...
 16a4 57753404 e30a05fe e31e35fd 07888406  Wu4.......5.....
 16b4 27088906 6ff09ffd 032a8108 8329c108  '...o....*...)..
 16c4 03290109 83244109 03248109 8320c109  .)...$A..$... ..
 16d4 1301010a 67800000 130101ee 232e1110  ....g.......#...
 16e4 232c8110 232a9110 23282111 23263111  #,..#*..#(!.#&1.
 16f4 23244111 13090600 138a0500 13040500  #$A.............
 1704 d779b004 13058100 13060010 93048100  .y..............
 1714 93050000 97f0ffff e780c08f 63800902  ............c...
 1724 13050000 93151500 93c52500 2390b400  ..........%.#...
 1734 13051500 93842400 e396a9fe 57f0b904  ......$.....W...
 1744 13058100 07540502 6f004002 07580a02  .....T..o.@..X..
 1754 27580902 93151500 330aba00 3309b900  'X......3...3...
 1764 3304a440 13351500 631e0500 5775b404  3..@.5..c...Wu..
 1774 e30a05fe e31c35fd 07588a06 27588906  ......5..X..'X..
 1784 6ff05ffd 032a8110 8329c110 03290111  o._..*...)...)..
 1794 83244111 03248111 8320c111 13010112  .$A..$... ......
 17a4 67800000 130101de 232e1120 232c8120  g.......#.. #,. 
 17b4 232a9120 23282121 23263121 23244121  #*. #(!!#&1!#$A!
 17c4 13090600 93840500 13040500 d7793005  .............y0.
 17d4 13058100 13060020 130a8100 93050000  ....... ........
 17e4 97f0ffff e7800083 63820902 13050000  ........c.......
 17f4 93850900 13464500 b306aa00 23a0c600  .....FE.....#...
 1804 9385f5ff 13054500 e39605fe 57f03905  ......E.....W.9.
 1814 13058100 07640502 6f004002 07e80402  .....d..o.@.....
 1824 27680902 93152500 b384b400 3309b900  'h....%.....3...
 1834 3304a440 13351500 631e0500 57753405  3..@.5..c...Wu4.
 1844 e30a05fe e31c35fd 07e88406 27688906  ......5.....'h..
 1854 6ff05ffd 032a8120 8329c120 03290121  o._..*. .). .).!
 1864 83244121 03248121 8320c121 13010122  .$A!.$.!. .!..."
 1874 67800000 130101de 232e1120 232c8120  g.......#.. #,. 
 1884 232a9120 23282121 23263121 23244121  #*. #(!!#&1!#$A!
 1894 13090600 93840500 13040500 d7797005  .............yp.
 18a4 13058100 13060020 130a8100 93050000  ....... ........
 18b4 97e0ffff e7800076 63820902 13050000  .......vc.......
 18c4 93850900 13464500 b306aa00 23a0c600  .....FE.....#...
 18d4 9385f5ff 13054500 e39605fe 57f07905  ......E.....W.y.
 18e4 13058100 876c0502 6f004002 07ed0402  .....l..o.@.....
 18f4 276d0902 93152500 b384b400 3309b900  'm....%.....3...
 1904 3304a440 13351500 631e0500 57757405  3..@.5..c...Wut.
 1914 e30a05fe e31c35fd 07ed9407 276d9907  ......5.....'m..
 1924 6ff05ffd 032a8120 8329c120 03290121  o._..*. .). .).!
 1934 83244121 03248121 8320c121 13010122  .$A!.$.!. .!..."
 1944 67800000 130101be 232e1140 232c8140  g.......#..@#,.@
 1954 232a9140 23282141 23263141 23244141  #*.@#(!A#&1A#$AA
 1964 13090600 138a0500 13040500 d7799005  .............y..
 1974 13058100 13060040 93048100 93050000  .......@........
 1984 97e0ffff e7800069 63840902 13050000  .......ic.......
 1994 93451500 13963500 93d5d501 23a2b400  .E....5.....#...
 19a4 23a0c400 13051500 93848400 e392a9fe  #...............
 19b4 57f09905 13058100 077d0502 6f004002  W........}..o.@.
 19c4 077e0a02 277e0902 93153500 330aba00  .~..'~....5.3...
 19d4 3309b900 3304a440 13351500 631e0500  3...3..@.5..c...
 19e4 57759405 e30a05fe e31c35fd 077eaa07  Wu........5..~..
 19f4 277ea907 6ff05ffd 032a8140 8329c140  '~..o._..*.@.).@
 1a04 03290141 83244141 03248141 8320c141  .).A.$AA.$.A. .A
 1a14 13010142 67800000 d7763005 07e40502  ...Bg....v0.....
 1a24 57b08062 6f00c000 93b61600 63980602  W..bo.......c...
 1a34 d7763505 e38a06fe 57f03601 07e40500  .v5.....W.6.....
 1a44 57703005 27640600 13972600 b385e500  Wp0.'d....&.....
 1a54 3306e600 3305d540 6ff01ffd 67800000  3...3..@o...g...
 1a64 93080001 6f00c000 93b61200 639e0604  ....o.......c...
 1a74 d7721504 e38a02fe 07800562 83270600  .r.........b.'..
 1a84 27800702 83274600 27810702 83278600  '....'F.'....'..
 1a94 27820702 0328c600 93070000 27030802  '....(......'...
 1aa4 13982200 b306f600 03a70600 33075700  ..".........3.W.
 1ab4 93874700 23a0e600 e39617ff b3850501  ..G.#...........
 1ac4 33055540 6ff05ffa 67800000 93080001  3.U@o._.g.......
 1ad4 6f00c000 93b61200 63920606 d7729504  o.......c....r..
 1ae4 e38a02fe 07d00562 83270600 27d00702  .......b.'..'...
 1af4 83274600 27d10702 83278600 27d20702  .'F.'....'..'...
 1b04 0328c600 93070000 27530802 13982200  .(......'S....".
 1b14 b306f600 03a30600 13971200 3307e300  ............3...
 1b24 93874700 23a0e600 e39417ff 93171800  ..G.#...........
 1b34 b385f500 33055540 6ff0dff9 67800000  ....3.U@o...g...
 1b44 93080001 6f00c000 93361800 63900606  ....o....6..c...
 1b54 57781505 e30a08fe 07e00562 03270600  Wx.........b.'..
 1b64 27600702 03274600 27610702 03278600  '`...'F.'a...'..
 1b74 27620702 8327c600 13070000 27e30702  'b...'......'...
 1b84 93122800 b306e600 83a70600 b3875700  ..(...........W.
 1b94 13074700 23a0f600 e31617ff 13972200  ..G.#.........".
 1ba4 b385e500 33050541 6ff01ffa 67800000  ....3..Ao...g...
 1bb4 93080001 6f00c000 93361800 63900606  ....o....6..c...
 1bc4 57787505 e30a08fe 07e00562 03270600  Wxu........b.'..
 1bd4 27600702 03274600 a7600702 03278600  '`...'F..`...'..
 1be4 27610702 8327c600 13070000 a7e10702  'a...'..........
 1bf4 93122800 b306e600 83a70600 b3875700  ..(...........W.
 1c04 13074700 23a0f600 e31617ff 13972200  ..G.#.........".
 1c14 b385e500 33050541 6ff01ffa 67800000  ....3..Ao...g...
 1c24 93080001 6f00c000 93b61200 63920606  ....o.......c...
 1c34 d7729505 e38a02fe 07f00562 83270600  .r.........b.'..
 1c44 27f00702 83274600 27f10702 83278600  '....'F.'....'..
 1c54 27f20702 0328c600 93070000 27730802  '....(......'s..
 1c64 13982200 b306f600 03a30600 13973200  .."...........2.
 1c74 3307e300 93874700 23a0e600 e39417ff  3.....G.#.......
 1c84 93173800 b385f500 33055540 6ff0dff9  ..8.....3.U@o...
 1c94 67800000 130101ff 23261100 23248100  g.......#&..#$..
 1ca4 23229100 37150000 13058532 97e0ffff  #"..7......2....
 1cb4 e7800038 13040500 93840500 37150000  ...8........7...
 1cc4 13058535 97e0ffff e7808046 1356f501  ...5.......F.V..
 1cd4 93951500 b3e5c500 13151500 33648500  ............3d..
 1ce4 b3e49500 37150000 1305c538 97e0ffff  ....7......8....
 1cf4 e7800055 1356e501 93952500 b3e5c500  ...U.V....%.....
 1d04 13152500 b3e4b400 3364a400 37150000  ..%.....3d..7...
 1d14 1305053c 97e0ffff e7808052 1356d501  ...<.......R.V..
 1d24 93953500 b3e5c500 13153500 b3e4b400  ..5.......5.....
 1d34 3364a400 37150000 1305453f 97e0ffff  3d..7.....E?....
 1d44 e780405f 1356c501 93954500 b3e5c500  ..@_.V....E.....
 1d54 13154500 b3e4b400 3364a400 37150000  ..E.....3d..7...
 1d64 13058542 97e0ffff e780802c 1356b501  ...B.......,.V..
 1d74 93955500 b3e5c500 13155500 b3e4b400  ..U.......U.....
 1d84 3364a400 37150000 13058548 97e0ffff  3d..7......H....
 1d94 e780003a 1356a501 93956500 b3e5c500  ...:.V....e.....
 1da4 13156500 b3e4b400 3364a400 37150000  ..e.....3d..7...
 1db4 1305c54e 97e0ffff e7808048 13569501  ...N.......H.V..
 1dc4 93957500 b3e5c500 13157500 b3e4b400  ..u.......u.....
 1dd4 3364a400 37150000 13050555 97e0ffff  3d..7......U....
 1de4 e7800046 13568501 93958500 b3e5c500  ...F.V..........
 1df4 13158500 b3e4b400 3364a400 37150000  ........3d..7...
 1e04 1305455b 97e0ffff e780c052 13567501  ..E[.......R.Vu.
 1e14 93959500 b3e5c500 13159500 b3e4b400  ................
 1e24 3364a400 37150000 13058561 97e0ffff  3d..7......a....
 1e34 e7800020 13566501 9395a500 b3e5c500  ... .Ve.........
 1e44 1315a500 b3e4b400 3364a400 37150000  ........3d..7...
 1e54 1305c56d 97e0ffff e780802d 13565501  ...m.......-.VU.
 1e64 9395b500 b3e5c500 1315b500 b3e4b400  ................
 1e74 3364a400 37150000 1305857a 97e0ffff  3d..7......z....
 1e84 e780003c 13564501 9395c500 b3e5c500  ...<.VE.........
 1e94 1315c500 b3e4b400 3364a400 37250000  ........3d..7%..
 1ea4 13058587 97e0ffff e7808039 13563501  ...........9.V5.
 1eb4 9395d500 b3e5c500 1315d500 b3e4b400  ................
 1ec4 3364a400 37250000 13058594 97e0ffff  3d..7%..........
 1ed4 e7804046 13562501 9395e500 b3e5c500  ..@F.V%.........
 1ee4 1315e500 b3e4b400 3364a400 37250000  ........3d..7%..
 1ef4 1305c5a1 97f0ffff e7808084 13561501  .............V..
 1f04 9395f500 b3e5c500 1315f500 b3e4b400  ................
 1f14 3364a400 37250000 130545a6 97f0ffff  3d..7%....E.....
 1f24 e78040b3 13560501 93950501 b3e5c500  ..@..V..........
 1f34 13150501 b3e4b400 3364a400 37250000  ........3d..7%..
 1f44 130505ad 97f0ffff e78000d1 1356f500  .............V..
 1f54 93951501 b3e5c500 13151501 b3e4b400  ................
 1f64 3364a400 37250000 130545b4 97f0ffff  3d..7%....E.....
 1f74 e78000ed 1356e500 93952501 b3e5c500  .....V....%.....
 1f84 13152501 b3e4b400 3364a400 37250000  ..%.....3d..7%..
 1f94 130545bb 97f0ffff e78080ea 1356d500  ..E..........V..
 1fa4 93953501 b3e5c500 13153501 b3e4b400  ..5.......5.....
 1fb4 3364a400 37250000 130545c2 97f0ffff  3d..7%....E.....
 1fc4 e7808004 1356c500 93954501 b3e5c500  .....V....E.....
 1fd4 13154501 b3e5b400 3365a400 37060001  ..E.....3e..7...
 1fe4 23220600 b7062000 9386f6ff 2320d600  #".... .....# ..
 1ff4 37060001 2324a600 2326b600 13050000  7...#$..#&......
 2004 83244100 03248100 8320c100 13010101  .$A..$... ......
 2014 67800000                             g...
Contents of section .comment:
 0000 5562756e 74752063 6c616e67 20766572  Ubuntu clang ver
 0010 73696f6e 2031332e 302e312d 2b2b3230  sion 13.0.1-++20
 0020 32323031 32303131 30393234 2b373565  220120110924+75e
 0030 33336637 31633264 612d317e 65787031  33f71c2da-1~exp1
 0040 7e323032 32303132 30323331 3030312e  ~20220120231001.
 0050 3538004c 696e6b65 723a2055 62756e74  58.Linker: Ubunt
 0060 75204c4c 44203133 2e302e31 0000      u LLD 13.0.1..
Contents of section .riscv.attributes:
 0000 41320000 00726973 63760001 28000000  A2...riscv..(...
 0010 04100572 76333269 3270305f 6d327030  ...rv32i2p0_m2p0
 0020 5f763070 31305f7a 766c7373 65673070  _v0p10_zvlsseg0p
 0030 313000                               10.
Contents of section .symtab:
 0000 00000000 00000000 00000000 00000000  ................
 0010 01000000 00000000 00000000 00000100  ................
 0020 07000000 00000000 00000000 00000100  ................
 0030 13000000 10000000 00000000 00000100  ................
 0040 17000000 00000000 00000000 0400f1ff  ................
 0050 2c000000 2c000000 00000000 00000200  ,...,...........
 0060 34000000 1c000000 00000000 00000200  4...............
 0070 3c000000 7c000000 00000000 00000200  <...|...........
 0080 44000000 ac000000 00000000 00000200  D...............
 0090 4c000000 10010000 00000000 00000200  L...............
 00a0 55000000 14010000 00000000 00000200  U...............
 00b0 5e000000 e4000000 00000000 00000200  ^...............
 00c0 66000000 04010000 00000000 00000200  f...............
 00d0 6e000000 7c010000 00000000 00000200  n...|...........
 00e0 76000000 b4010000 00000000 00000200  v...............
 00f0 7e000000 20020000 00000000 00000200  ~... ...........
 0100 87000000 24020000 00000000 00000200  ....$...........
 0110 90000000 f4010000 00000000 00000200  ................
 0120 98000000 14020000 00000000 00000200  ................
 0130 a0000000 8c020000 00000000 00000200  ................
 0140 a8000000 bc020000 00000000 00000200  ................
 0150 b0000000 14030000 00000000 00000200  ................
 0160 b9000000 18030000 00000000 00000200  ................
 0170 c2000000 f0020000 00000000 00000200  ................
 0180 ca000000 08030000 00000000 00000200  ................
 0190 d2000000 a0030000 00000000 00000200  ................
 01a0 da000000 88030000 00000000 00000200  ................
 01b0 e2000000 8c030000 00000000 00000200  ................
 01c0 ea000000 c0030000 00000000 00000200  ................
 01d0 f2000000 fc030000 00000000 00000200  ................
 01e0 fa000000 e4030000 00000000 00000200  ................
 01f0 02010000 e8030000 00000000 00000200  ................
 0200 0a010000 44040000 00000000 00000200  ....D...........
 0210 13010000 3c040000 00000000 00000200  ....<...........
 0220 1c010000 b8040000 00000000 00000200  ................
 0230 25010000 68040000 00000000 00000200  %...h...........
 0240 2e010000 7c040000 00000000 00000200  ....|...........
 0250 37010000 88040000 00000000 00000200  7...............
 0260 40010000 b4040000 00000000 00000200  @...............
 0270 49010000 30050000 00000000 00000200  I...0...........
 0280 51010000 80050000 00000000 00000200  Q...............
 0290 59010000 70050000 00000000 00000200  Y...p...........
 02a0 61010000 e4050000 00000000 00000200  a...............
 02b0 6a010000 78050000 00000000 00000200  j...x...........
 02c0 72010000 a0050000 00000000 00000200  r...............
 02d0 7a010000 b8050000 00000000 00000200  z...............
 02e0 82010000 d8050000 00000000 00000200  ................
 02f0 8b010000 e8050000 00000000 00000200  ................
 0300 94010000 60060000 00000000 00000200  ....`...........
 0310 9c010000 b8060000 00000000 00000200  ................
 0320 a4010000 a0060000 00000000 00000200  ................
 0330 ac010000 1c070000 00000000 00000200  ................
 0340 b5010000 a8060000 00000000 00000200  ................
 0350 bd010000 d0060000 00000000 00000200  ................
 0360 c5010000 f0060000 00000000 00000200  ................
 0370 cd010000 10070000 00000000 00000200  ................
 0380 d6010000 20070000 00000000 00000200  .... ...........
 0390 df010000 98070000 00000000 00000200  ................
 03a0 e7010000 f0070000 00000000 00000200  ................
 03b0 ef010000 d8070000 00000000 00000200  ................
 03c0 f7010000 44080000 00000000 00000200  ....D...........
 03d0 00020000 e0070000 00000000 00000200  ................
 03e0 08020000 08080000 00000000 00000200  ................
 03f0 10020000 20080000 00000000 00000200  .... ...........
 0400 18020000 38080000 00000000 00000200  ....8...........
 0410 21020000 48080000 00000000 00000200  !...H...........
 0420 2a020000 dc080000 00000000 00000200  *...............
 0430 32020000 c4080000 00000000 00000200  2...............
 0440 3a020000 c8080000 00000000 00000200  :...............
 0450 42020000 0c090000 00000000 00000200  B...............
 0460 4a020000 48090000 00000000 00000200  J...H...........
 0470 52020000 30090000 00000000 00000200  R...0...........
 0480 5a020000 34090000 00000000 00000200  Z...4...........
 0490 62020000 b8090000 00000000 00000200  b...............
 04a0 6b020000 74090000 00000000 00000200  k...t...........
 04b0 74020000 a4090000 00000000 00000200  t...............
 04c0 7d020000 b0090000 00000000 00000200  }...............
 04d0 86020000 340a0000 00000000 00000200  ....4...........
 04e0 8f020000 e0090000 00000000 00000200  ................
 04f0 98020000 f4090000 00000000 00000200  ................
 0500 a1020000 000a0000 00000000 00000200  ................
 0510 aa020000 300a0000 00000000 00000200  ....0...........
 0520 b3020000 140b0000 00000000 00000200  ................
 0530 bb020000 600b0000 00000000 00000200  ....`...........
 0540 c3020000 cc0b0000 00000000 00000200  ................
 0550 cc020000 f40b0000 00000000 00000200  ................
 0560 d5020000 bc0b0000 00000000 00000200  ................
 0570 dd020000 d40b0000 00000000 00000200  ................
 0580 e6020000 100c0000 00000000 00000200  ................
 0590 ef020000 e80c0000 00000000 00000200  ................
 05a0 f8020000 3c0d0000 00000000 00000200  ....<...........
 05b0 01030000 a80d0000 00000000 00000200  ................
 05c0 0b030000 d00d0000 00000000 00000200  ................
 05d0 15030000 980d0000 00000000 00000200  ................
 05e0 1e030000 b00d0000 00000000 00000200  ................
 05f0 28030000 f40d0000 00000000 00000200  (...............
 0600 32030000 d00e0000 00000000 00000200  2...............
 0610 3b030000 1c0f0000 00000000 00000200  ;...............
 0620 44030000 840f0000 00000000 00000200  D...............
 0630 4e030000 ac0f0000 00000000 00000200  N...............
 0640 58030000 740f0000 00000000 00000200  X...t...........
 0650 61030000 8c0f0000 00000000 00000200  a...............
 0660 6b030000 c80f0000 00000000 00000200  k...............
 0670 75030000 c4100000 00000000 00000200  u...............
 0680 7e030000 ac100000 00000000 00000200  ~...............
 0690 87030000 b0100000 00000000 00000200  ................
 06a0 90030000 e4100000 00000000 00000200  ................
 06b0 99030000 3c110000 00000000 00000200  ....<...........
 06c0 a2030000 24110000 00000000 00000200  ....$...........
 06d0 ab030000 28110000 00000000 00000200  ....(...........
 06e0 b4030000 5c120000 00000000 00000200  ....\...........
 06f0 be030000 24120000 00000000 00000200  ....$...........
 0700 c8030000 2c120000 00000000 00000200  ....,...........
 0710 d2030000 80120000 00000000 00000200  ................
 0720 dc030000 70120000 00000000 00000200  ....p...........
 0730 e6030000 a0120000 00000000 00000200  ................
 0740 f0030000 e0120000 00000000 00000200  ................
 0750 fa030000 e8120000 00000000 00000200  ................
 0760 04040000 34130000 00000000 00000200  ....4...........
 0770 0d040000 2c130000 00000000 00000200  ....,...........
 0780 16040000 54130000 00000000 00000200  ....T...........
 0790 1f040000 64130000 00000000 00000200  ....d...........
 07a0 28040000 5c130000 00000000 00000200  (...\...........
 07b0 31040000 88130000 00000000 00000200  1...............
 07c0 3a040000 98130000 00000000 00000200  :...............
 07d0 43040000 90130000 00000000 00000200  C...............
 07e0 4c040000 bc130000 00000000 00000200  L...............
 07f0 55040000 cc130000 00000000 00000200  U...............
 0800 5e040000 c4130000 00000000 00000200  ^...............
 0810 67040000 f0130000 00000000 00000200  g...............
 0820 70040000 00140000 00000000 00000200  p...............
 0830 79040000 f8130000 00000000 00000200  y...............
 0840 82040000 24140000 00000000 00000200  ....$...........
 0850 8b040000 50140000 00000000 00000200  ....P...........
 0860 94040000 30140000 00000000 00000200  ....0...........
 0870 9d040000 3c140000 00000000 00000200  ....<...........
 0880 a6040000 48140000 00000000 00000200  ....H...........
 0890 af040000 84140000 00000000 00000200  ................
 08a0 b8040000 64140000 00000000 00000200  ....d...........
 08b0 c1040000 b4140000 00000000 00000200  ................
 08c0 ca040000 90140000 00000000 00000200  ................
 08d0 d3040000 9c140000 00000000 00000200  ................
 08e0 dc040000 ac140000 00000000 00000200  ................
 08f0 e5040000 e8140000 00000000 00000200  ................
 0900 ee040000 c8140000 00000000 00000200  ................
 0910 f7040000 18150000 00000000 00000200  ................
 0920 00050000 f4140000 00000000 00000200  ................
 0930 09050000 00150000 00000000 00000200  ................
 0940 12050000 10150000 00000000 00000200  ................
 0950 1b050000 4c150000 00000000 00000200  ....L...........
 0960 24050000 2c150000 00000000 00000200  $...,...........
 0970 2d050000 7c150000 00000000 00000200  -...|...........
 0980 36050000 58150000 00000000 00000200  6...X...........
 0990 3f050000 64150000 00000000 00000200  ?...d...........
 09a0 48050000 74150000 00000000 00000200  H...t...........
 09b0 51050000 b0150000 00000000 00000200  Q...............
 09c0 5a050000 90150000 00000000 00000200  Z...............
 09d0 63050000 e0150000 00000000 00000200  c...............
 09e0 6c050000 bc150000 00000000 00000200  l...............
 09f0 75050000 c8150000 00000000 00000200  u...............
 0a00 7e050000 d8150000 00000000 00000200  ~...............
 0a10 87050000 14160000 00000000 00000200  ................
 0a20 90050000 f4150000 00000000 00000200  ................
 0a30 99050000 78160000 00000000 00000200  ....x...........
 0a40 a2050000 64160000 00000000 00000200  ....d...........
 0a50 ab050000 a4160000 00000000 00000200  ................
 0a60 b4050000 88160000 00000000 00000200  ................
 0a70 bd050000 90160000 00000000 00000200  ................
 0a80 c6050000 9c160000 00000000 00000200  ................
 0a90 cf050000 bc160000 00000000 00000200  ................
 0aa0 d9050000 40170000 00000000 00000200  ....@...........
 0ab0 e2050000 28170000 00000000 00000200  ....(...........
 0ac0 eb050000 70170000 00000000 00000200  ....p...........
 0ad0 f4050000 50170000 00000000 00000200  ....P...........
 0ae0 fd050000 58170000 00000000 00000200  ....X...........
 0af0 06060000 68170000 00000000 00000200  ....h...........
 0b00 0f060000 88170000 00000000 00000200  ................
 0b10 19060000 10180000 00000000 00000200  ................
 0b20 22060000 f8170000 00000000 00000200  "...............
 0b30 2b060000 40180000 00000000 00000200  +...@...........
 0b40 34060000 20180000 00000000 00000200  4... ...........
 0b50 3d060000 28180000 00000000 00000200  =...(...........
 0b60 46060000 38180000 00000000 00000200  F...8...........
 0b70 4f060000 58180000 00000000 00000200  O...X...........
 0b80 59060000 e0180000 00000000 00000200  Y...............
 0b90 62060000 c8180000 00000000 00000200  b...............
 0ba0 6b060000 10190000 00000000 00000200  k...............
 0bb0 74060000 f0180000 00000000 00000200  t...............
 0bc0 7d060000 f8180000 00000000 00000200  }...............
 0bd0 86060000 08190000 00000000 00000200  ................
 0be0 8f060000 28190000 00000000 00000200  ....(...........
 0bf0 99060000 b4190000 00000000 00000200  ................
 0c00 a2060000 94190000 00000000 00000200  ................
 0c10 ab060000 e4190000 00000000 00000200  ................
 0c20 b4060000 c4190000 00000000 00000200  ................
 0c30 bd060000 cc190000 00000000 00000200  ................
 0c40 c6060000 dc190000 00000000 00000200  ................
 0c50 cf060000 fc190000 00000000 00000200  ................
 0c60 d9060000 341a0000 00000000 00000200  ....4...........
 0c70 e2060000 2c1a0000 00000000 00000200  ....,...........
 0c80 eb060000 601a0000 00000000 00000200  ....`...........
 0c90 f4060000 741a0000 00000000 00000200  ....t...........
 0ca0 fd060000 6c1a0000 00000000 00000200  ....l...........
 0cb0 06070000 cc1a0000 00000000 00000200  ................
 0cc0 0f070000 a81a0000 00000000 00000200  ................
 0cd0 18070000 e01a0000 00000000 00000200  ................
 0ce0 21070000 d81a0000 00000000 00000200  !...............
 0cf0 2a070000 401b0000 00000000 00000200  *...@...........
 0d00 33070000 141b0000 00000000 00000200  3...............
 0d10 3c070000 541b0000 00000000 00000200  <...T...........
 0d20 45070000 4c1b0000 00000000 00000200  E...L...........
 0d30 4e070000 b01b0000 00000000 00000200  N...............
 0d40 57070000 881b0000 00000000 00000200  W...............
 0d50 60070000 c41b0000 00000000 00000200  `...............
 0d60 69070000 bc1b0000 00000000 00000200  i...............
 0d70 72070000 201c0000 00000000 00000200  r... ...........
 0d80 7b070000 f81b0000 00000000 00000200  {...............
 0d90 84070000 341c0000 00000000 00000200  ....4...........
 0da0 8d070000 2c1c0000 00000000 00000200  ....,...........
 0db0 96070000 941c0000 00000000 00000200  ................
 0dc0 9f070000 681c0000 00000000 00000200  ....h...........
 0dd0 a8070000 00000100 00000000 1000f1ff  ................
 0de0 ad070000 981c0000 80030000 12000200  ................
 0df0 b2070000 14000000 1c000000 12000200  ................
 0e00 b9070000 30000000 00010000 12000200  ....0...........
 0e10 d7070000 30010000 10010000 12000200  ....0...........
 0e20 f6070000 40020000 f4000000 12000200  ....@...........
 0e30 15080000 34030000 a4010000 12000200  ....4...........
 0e40 34080000 d8040000 30010000 12000200  4.......0.......
 0e50 59080000 08060000 38010000 12000200  Y.......8.......
 0e60 7f080000 40070000 28010000 12000200  ....@...(.......
 0e70 a5080000 68080000 ec010000 12000200  ....h...........
 0e80 cb080000 540a0000 04020000 12000200  ....T...........
 0e90 f3080000 580c0000 e8010000 12000200  ....X...........
 0ea0 1c090000 400e0000 c8010000 12000200  ....@...........
 0eb0 45090000 08100000 20030000 12000200  E....... .......
 0ec0 6e090000 28130000 30000000 12000200  n...(...0.......
 0ed0 8d090000 58130000 34000000 12000200  ....X...4.......
 0ee0 ad090000 8c130000 34000000 12000200  ........4.......
 0ef0 cd090000 c0130000 34000000 12000200  ........4.......
 0f00 ee090000 f4130000 34000000 12000200  ........4.......
 0f10 0e0a0000 28140000 60000000 12000200  ....(...`.......
 0f20 290a0000 88140000 64000000 12000200  ).......d.......
 0f30 450a0000 ec140000 64000000 12000200  E.......d.......
 0f40 610a0000 50150000 64000000 12000200  a...P...d.......
 0f50 7e0a0000 b4150000 64000000 12000200  ~.......d.......
 0f60 9a0a0000 18160000 c4000000 12000200  ................
 0f70 b50a0000 dc160000 cc000000 12000200  ................
 0f80 d10a0000 a8170000 d0000000 12000200  ................
 0f90 ed0a0000 78180000 d0000000 12000200  ....x...........
 0fa0 0a0b0000 48190000 d4000000 12000200  ....H...........
 0fb0 260b0000 1c1a0000 48000000 12000200  &.......H.......
 0fc0 410b0000 641a0000 6c000000 12000200  A...d...l.......
 0fd0 5e0b0000 d01a0000 74000000 12000200  ^.......t.......
 0fe0 7c0b0000 441b0000 70000000 12000200  |...D...p.......
 0ff0 9a0b0000 b41b0000 70000000 12000200  ........p.......
 1000 b90b0000 241c0000 74000000 12000200  ....$...t.......
 1010 d70b0000 00000001 00000000 1000f1ff  ................
 1020 e70b0000 08000001 00000000 1000f1ff  ................
Contents of section .shstrtab:
 0000 002e7465 78742e69 6e697400 2e746578  ..text.init..tex
 0010 74002e63 6f6d6d65 6e74002e 72697363  t..comment..risc
 0020 762e6174 74726962 75746573 002e7379  v.attributes..sy
 0030 6d746162 002e7368 73747274 6162002e  mtab..shstrtab..
 0040 73747274 616200                      strtab.
Contents of section .strtab:
 0000 00656e74 7279002e 4c706372 656c5f68  .entry..Lpcrel_h
 0010 69300065 6e640074 6573745f 76656374  i0.end.test_vect
 0020 6f725f6d 656d6370 792e6300 2e4c4242  or_memcpy.c..LBB
 0030 305f3300 2e4c4242 305f3200 2e4c4242  0_3..LBB0_2..LBB
 0040 315f3100 2e4c4242 315f3300 2e4c4242  1_1..LBB1_3..LBB
 0050 315f3130 002e4c42 42315f31 31002e4c  1_10..LBB1_11..L
 0060 4242315f 37002e4c 4242315f 39002e4c  BB1_7..LBB1_9..L
 0070 4242325f 31002e4c 4242325f 33002e4c  BB2_1..LBB2_3..L
 0080 4242325f 3130002e 4c424232 5f313100  BB2_10..LBB2_11.
 0090 2e4c4242 325f3700 2e4c4242 325f3900  .LBB2_7..LBB2_9.
 00a0 2e4c4242 335f3100 2e4c4242 335f3300  .LBB3_1..LBB3_3.
 00b0 2e4c4242 335f3130 002e4c42 42335f31  .LBB3_10..LBB3_1
 00c0 31002e4c 4242335f 37002e4c 4242335f  1..LBB3_7..LBB3_
 00d0 39002e4c 4242345f 33002e4c 4242345f  9..LBB4_3..LBB4_
 00e0 31002e4c 4242345f 32002e4c 4242345f  1..LBB4_2..LBB4_
 00f0 35002e4c 4242345f 38002e4c 4242345f  5..LBB4_8..LBB4_
 0100 36002e4c 4242345f 37002e4c 4242345f  6..LBB4_7..LBB4_
 0110 3132002e 4c424234 5f313100 2e4c4242  12..LBB4_11..LBB
 0120 345f3139 002e4c42 42345f31 34002e4c  4_19..LBB4_14..L
 0130 4242345f 3136002e 4c424234 5f313700  BB4_16..LBB4_17.
 0140 2e4c4242 345f3138 002e4c42 42355f31  .LBB4_18..LBB5_1
 0150 002e4c42 42355f35 002e4c42 42355f33  ..LBB5_5..LBB5_3
 0160 002e4c42 42355f31 32002e4c 4242355f  ..LBB5_12..LBB5_
 0170 34002e4c 4242355f 37002e4c 4242355f  4..LBB5_7..LBB5_
 0180 39002e4c 4242355f 3131002e 4c424235  9..LBB5_11..LBB5
 0190 5f313300 2e4c4242 365f3100 2e4c4242  _13..LBB6_1..LBB
 01a0 365f3500 2e4c4242 365f3300 2e4c4242  6_5..LBB6_3..LBB
 01b0 365f3132 002e4c42 42365f34 002e4c42  6_12..LBB6_4..LB
 01c0 42365f37 002e4c42 42365f39 002e4c42  B6_7..LBB6_9..LB
 01d0 42365f31 31002e4c 4242365f 3133002e  B6_11..LBB6_13..
 01e0 4c424237 5f31002e 4c424237 5f35002e  LBB7_1..LBB7_5..
 01f0 4c424237 5f33002e 4c424237 5f313200  LBB7_3..LBB7_12.
 0200 2e4c4242 375f3400 2e4c4242 375f3700  .LBB7_4..LBB7_7.
 0210 2e4c4242 375f3900 2e4c4242 375f3131  .LBB7_9..LBB7_11
 0220 002e4c42 42375f31 33002e4c 4242385f  ..LBB7_13..LBB8_
 0230 33002e4c 4242385f 31002e4c 4242385f  3..LBB8_1..LBB8_
 0240 32002e4c 4242385f 35002e4c 4242385f  2..LBB8_5..LBB8_
 0250 38002e4c 4242385f 36002e4c 4242385f  8..LBB8_6..LBB8_
 0260 37002e4c 4242385f 3134002e 4c424238  7..LBB8_14..LBB8
 0270 5f313000 2e4c4242 385f3131 002e4c42  _10..LBB8_11..LB
 0280 42385f31 33002e4c 4242385f 3231002e  B8_13..LBB8_21..
 0290 4c424238 5f313600 2e4c4242 385f3138  LBB8_16..LBB8_18
 02a0 002e4c42 42385f31 39002e4c 4242385f  ..LBB8_19..LBB8_
 02b0 3230002e 4c424239 5f31002e 4c424239  20..LBB9_1..LBB9
 02c0 5f33002e 4c424239 5f313000 2e4c4242  _3..LBB9_10..LBB
 02d0 395f3132 002e4c42 42395f39 002e4c42  9_12..LBB9_9..LB
 02e0 42395f31 31002e4c 4242395f 3133002e  B9_11..LBB9_13..
 02f0 4c424231 305f3100 2e4c4242 31305f33  LBB10_1..LBB10_3
 0300 002e4c42 4231305f 3130002e 4c424231  ..LBB10_10..LBB1
 0310 305f3132 002e4c42 4231305f 39002e4c  0_12..LBB10_9..L
 0320 42423130 5f313100 2e4c4242 31305f31  BB10_11..LBB10_1
 0330 33002e4c 42423131 5f31002e 4c424231  3..LBB11_1..LBB1
 0340 315f3300 2e4c4242 31315f31 30002e4c  1_3..LBB11_10..L
 0350 42423131 5f313200 2e4c4242 31315f39  BB11_12..LBB11_9
 0360 002e4c42 4231315f 3131002e 4c424231  ..LBB11_11..LBB1
 0370 315f3133 002e4c42 4231325f 33002e4c  1_13..LBB12_3..L
 0380 42423132 5f31002e 4c424231 325f3200  BB12_1..LBB12_2.
 0390 2e4c4242 31325f35 002e4c42 4231325f  .LBB12_5..LBB12_
 03a0 38002e4c 42423132 5f36002e 4c424231  8..LBB12_6..LBB1
 03b0 325f3700 2e4c4242 31325f31 36002e4c  2_7..LBB12_16..L
 03c0 42423132 5f313400 2e4c4242 31325f31  BB12_14..LBB12_1
 03d0 35002e4c 42423132 5f313800 2e4c4242  5..LBB12_18..LBB
 03e0 31325f31 37002e4c 42423132 5f313900  12_17..LBB12_19.
 03f0 2e4c4242 31325f32 34002e4c 42423132  .LBB12_24..LBB12
 0400 5f323500 2e4c4242 31335f32 002e4c42  _25..LBB13_2..LB
 0410 4231335f 31002e4c 42423133 5f34002e  B13_1..LBB13_4..
 0420 4c424231 345f3200 2e4c4242 31345f31  LBB14_2..LBB14_1
 0430 002e4c42 4231345f 34002e4c 42423135  ..LBB14_4..LBB15
 0440 5f32002e 4c424231 355f3100 2e4c4242  _2..LBB15_1..LBB
 0450 31355f34 002e4c42 4231365f 32002e4c  15_4..LBB16_2..L
 0460 42423136 5f31002e 4c424231 365f3400  BB16_1..LBB16_4.
 0470 2e4c4242 31375f32 002e4c42 4231375f  .LBB17_2..LBB17_
 0480 31002e4c 42423137 5f34002e 4c424231  1..LBB17_4..LBB1
 0490 385f3400 2e4c4242 31385f31 002e4c42  8_4..LBB18_1..LB
 04a0 4231385f 32002e4c 42423138 5f33002e  B18_2..LBB18_3..
 04b0 4c424231 385f3800 2e4c4242 31385f37  LBB18_8..LBB18_7
 04c0 002e4c42 4231395f 34002e4c 42423139  ..LBB19_4..LBB19
 04d0 5f31002e 4c424231 395f3200 2e4c4242  _1..LBB19_2..LBB
 04e0 31395f33 002e4c42 4231395f 38002e4c  19_3..LBB19_8..L
 04f0 42423139 5f37002e 4c424232 305f3400  BB19_7..LBB20_4.
 0500 2e4c4242 32305f31 002e4c42 4232305f  .LBB20_1..LBB20_
 0510 32002e4c 42423230 5f33002e 4c424232  2..LBB20_3..LBB2
 0520 305f3800 2e4c4242 32305f37 002e4c42  0_8..LBB20_7..LB
 0530 4232315f 34002e4c 42423231 5f31002e  B21_4..LBB21_1..
 0540 4c424232 315f3200 2e4c4242 32315f33  LBB21_2..LBB21_3
 0550 002e4c42 4232315f 38002e4c 42423231  ..LBB21_8..LBB21
 0560 5f37002e 4c424232 325f3400 2e4c4242  _7..LBB22_4..LBB
 0570 32325f31 002e4c42 4232325f 32002e4c  22_1..LBB22_2..L
 0580 42423232 5f33002e 4c424232 325f3800  BB22_3..LBB22_8.
 0590 2e4c4242 32325f37 002e4c42 4232335f  .LBB22_7..LBB23_
 05a0 33002e4c 42423233 5f32002e 4c424232  3..LBB23_2..LBB2
 05b0 335f3700 2e4c4242 32335f34 002e4c42  3_7..LBB23_4..LB
 05c0 4232335f 35002e4c 42423233 5f36002e  B23_5..LBB23_6..
 05d0 4c424232 335f3130 002e4c42 4232345f  LBB23_10..LBB24_
 05e0 33002e4c 42423234 5f32002e 4c424232  3..LBB24_2..LBB2
 05f0 345f3700 2e4c4242 32345f34 002e4c42  4_7..LBB24_4..LB
 0600 4232345f 35002e4c 42423234 5f36002e  B24_5..LBB24_6..
 0610 4c424232 345f3130 002e4c42 4232355f  LBB24_10..LBB25_
 0620 33002e4c 42423235 5f32002e 4c424232  3..LBB25_2..LBB2
 0630 355f3700 2e4c4242 32355f34 002e4c42  5_7..LBB25_4..LB
 0640 4232355f 35002e4c 42423235 5f36002e  B25_5..LBB25_6..
 0650 4c424232 355f3130 002e4c42 4232365f  LBB25_10..LBB26_
 0660 33002e4c 42423236 5f32002e 4c424232  3..LBB26_2..LBB2
 0670 365f3700 2e4c4242 32365f34 002e4c42  6_7..LBB26_4..LB
 0680 4232365f 35002e4c 42423236 5f36002e  B26_5..LBB26_6..
 0690 4c424232 365f3130 002e4c42 4232375f  LBB26_10..LBB27_
 06a0 33002e4c 42423237 5f32002e 4c424232  3..LBB27_2..LBB2
 06b0 375f3700 2e4c4242 32375f34 002e4c42  7_7..LBB27_4..LB
 06c0 4232375f 35002e4c 42423237 5f36002e  B27_5..LBB27_6..
 06d0 4c424232 375f3130 002e4c42 4232385f  LBB27_10..LBB28_
 06e0 32002e4c 42423238 5f31002e 4c424232  2..LBB28_1..LBB2
 06f0 385f3400 2e4c4242 32395f32 002e4c42  8_4..LBB29_2..LB
 0700 4232395f 31002e4c 42423239 5f36002e  B29_1..LBB29_6..
 0710 4c424232 395f3400 2e4c4242 33305f32  LBB29_4..LBB30_2
 0720 002e4c42 4233305f 31002e4c 42423330  ..LBB30_1..LBB30
 0730 5f36002e 4c424233 305f3400 2e4c4242  _6..LBB30_4..LBB
 0740 33315f32 002e4c42 4233315f 31002e4c  31_2..LBB31_1..L
 0750 42423331 5f36002e 4c424233 315f3400  BB31_6..LBB31_4.
 0760 2e4c4242 33325f32 002e4c42 4233325f  .LBB32_2..LBB32_
 0770 31002e4c 42423332 5f36002e 4c424233  1..LBB32_6..LBB3
 0780 325f3400 2e4c4242 33335f32 002e4c42  2_4..LBB33_2..LB
 0790 4233335f 31002e4c 42423333 5f36002e  B33_1..LBB33_6..
 07a0 4c424233 335f3400 5f5f7370 006d6169  LBB33_4.__sp.mai
 07b0 6e006d65 6d736574 00766563 746f725f  n.memset.vector_
 07c0 6d656d63 70795f68 61726e65 73735f75  memcpy_harness_u
 07d0 696e7438 5f740076 6563746f 725f6d65  int8_t.vector_me
 07e0 6d637079 5f686172 6e657373 5f75696e  mcpy_harness_uin
 07f0 7431365f 74007665 63746f72 5f6d656d  t16_t.vector_mem
 0800 6370795f 6861726e 6573735f 75696e74  cpy_harness_uint
 0810 33325f74 00766563 746f725f 6d656d63  32_t.vector_memc
 0820 70795f68 61726e65 73735f75 696e7436  py_harness_uint6
 0830 345f7400 76656374 6f725f6d 656d6370  4_t.vector_memcp
 0840 795f6d61 736b6564 5f686172 6e657373  y_masked_harness
 0850 5f75696e 74385f74 00766563 746f725f  _uint8_t.vector_
 0860 6d656d63 70795f6d 61736b65 645f6861  memcpy_masked_ha
 0870 726e6573 735f7569 6e743136 5f740076  rness_uint16_t.v
 0880 6563746f 725f6d65 6d637079 5f6d6173  ector_memcpy_mas
 0890 6b65645f 6861726e 6573735f 75696e74  ked_harness_uint
 08a0 33325f74 00766563 746f725f 6d656d63  32_t.vector_memc
 08b0 70795f6d 61736b65 645f6861 726e6573  py_masked_harnes
 08c0 735f7569 6e743634 5f740076 6563746f  s_uint64_t.vecto
 08d0 725f6d65 6d637079 5f736567 6d656e74  r_memcpy_segment
 08e0 65645f68 61726e65 73735f75 696e7438  ed_harness_uint8
 08f0 5f740076 6563746f 725f6d65 6d637079  _t.vector_memcpy
 0900 5f736567 6d656e74 65645f68 61726e65  _segmented_harne
 0910 73735f75 696e7431 365f7400 76656374  ss_uint16_t.vect
 0920 6f725f6d 656d6370 795f7365 676d656e  or_memcpy_segmen
 0930 7465645f 6861726e 6573735f 75696e74  ted_harness_uint
 0940 33325f74 00766563 746f725f 6d656d63  32_t.vector_memc
 0950 70795f73 65676d65 6e746564 5f686172  py_segmented_har
 0960 6e657373 5f75696e 7436345f 74007665  ness_uint64_t.ve
 0970 63746f72 5f6d656d 6370795f 756e6974  ctor_memcpy_unit
 0980 5f737472 6964655f 65386d38 00766563  _stride_e8m8.vec
 0990 746f725f 6d656d63 70795f75 6e69745f  tor_memcpy_unit_
 09a0 73747269 64655f65 31366d38 00766563  stride_e16m8.vec
 09b0 746f725f 6d656d63 70795f75 6e69745f  tor_memcpy_unit_
 09c0 73747269 64655f65 33326d38 00766563  stride_e32m8.vec
 09d0 746f725f 6d656d63 70795f75 6e69745f  tor_memcpy_unit_
 09e0 73747269 64655f65 33326d66 32007665  stride_e32mf2.ve
 09f0 63746f72 5f6d656d 6370795f 756e6974  ctor_memcpy_unit
 0a00 5f737472 6964655f 6536346d 32007665  _stride_e64m2.ve
 0a10 63746f72 5f6d656d 6370795f 73747269  ctor_memcpy_stri
 0a20 6465645f 65386d38 00766563 746f725f  ded_e8m8.vector_
 0a30 6d656d63 70795f73 74726964 65645f65  memcpy_strided_e
 0a40 31366d38 00766563 746f725f 6d656d63  16m8.vector_memc
 0a50 70795f73 74726964 65645f65 33326d38  py_strided_e32m8
 0a60 00766563 746f725f 6d656d63 70795f73  .vector_memcpy_s
 0a70 74726964 65645f65 33326d66 32007665  trided_e32mf2.ve
 0a80 63746f72 5f6d656d 6370795f 73747269  ctor_memcpy_stri
 0a90 6465645f 6536346d 32007665 63746f72  ded_e64m2.vector
 0aa0 5f6d656d 6370795f 696e6465 7865645f  _memcpy_indexed_
 0ab0 65386d38 00766563 746f725f 6d656d63  e8m8.vector_memc
 0ac0 70795f69 6e646578 65645f65 31366d38  py_indexed_e16m8
 0ad0 00766563 746f725f 6d656d63 70795f69  .vector_memcpy_i
 0ae0 6e646578 65645f65 33326d38 00766563  ndexed_e32m8.vec
 0af0 746f725f 6d656d63 70795f69 6e646578  tor_memcpy_index
 0b00 65645f65 33326d66 32007665 63746f72  ed_e32mf2.vector
 0b10 5f6d656d 6370795f 696e6465 7865645f  _memcpy_indexed_
 0b20 6536346d 32007665 63746f72 5f6d656d  e64m2.vector_mem
 0b30 6370795f 6d61736b 65645f65 33326d38  cpy_masked_e32m8
 0b40 00766563 746f725f 6d656d63 70795f73  .vector_memcpy_s
 0b50 65676d65 6e746564 5f65386d 32007665  egmented_e8m2.ve
 0b60 63746f72 5f6d656d 6370795f 7365676d  ctor_memcpy_segm
 0b70 656e7465 645f6531 366d3200 76656374  ented_e16m2.vect
 0b80 6f725f6d 656d6370 795f7365 676d656e  or_memcpy_segmen
 0b90 7465645f 6533326d 32007665 63746f72  ted_e32m2.vector
 0ba0 5f6d656d 6370795f 7365676d 656e7465  _memcpy_segmente
 0bb0 645f6533 326d6632 00766563 746f725f  d_e32mf2.vector_
 0bc0 6d656d63 70795f73 65676d65 6e746564  memcpy_segmented
 0bd0 5f653634 6d32006f 75747075 74417474  _e64m2.outputAtt
 0be0 656d7074 6564006f 75747075 74537563  empted.outputSuc
 0bf0 63656564 656400                      ceeded.

Disassembly of section .text.init:

00000000 <entry>:
       0: 17 01 01 00  	auipc	sp, 16
       4: 13 01 01 02  	addi	sp, sp, 32
       8: 97 20 00 00  	auipc	ra, 2
       c: e7 80 00 c9  	jalr	-880(ra)

00000010 <end>:
      10: 6f 00 00 00  	j	0x10 <end>

Disassembly of section .text:

00000014 <memset>:
      14: 63 0c 06 00  	beqz	a2, 0x2c <.LBB0_3>
      18: 93 06 05 00  	mv	a3, a0

0000001c <.LBB0_2>:
      1c: 23 80 b6 00  	sb	a1, 0(a3)
      20: 13 06 f6 ff  	addi	a2, a2, -1
      24: 93 86 16 00  	addi	a3, a3, 1
      28: e3 1a 06 fe  	bnez	a2, 0x1c <.LBB0_2>

0000002c <.LBB0_3>:
      2c: 67 80 00 00  	ret

00000030 <vector_memcpy_harness_uint8_t>:
      30: 13 01 01 ef  	addi	sp, sp, -272
      34: 23 26 11 10  	sw	ra, 268(sp)
      38: 23 24 81 10  	sw	s0, 264(sp)
      3c: 23 22 91 10  	sw	s1, 260(sp)
      40: 23 20 21 11  	sw	s2, 256(sp)
      44: 13 09 05 00  	mv	s2, a0
      48: 13 04 01 08  	addi	s0, sp, 128
      4c: 13 05 01 08  	addi	a0, sp, 128
      50: 13 06 00 08  	addi	a2, zero, 128
      54: 93 04 00 08  	addi	s1, zero, 128
      58: 93 05 00 00  	mv	a1, zero
      5c: 97 00 00 00  	auipc	ra, 0
      60: e7 80 80 fb  	jalr	-72(ra)
      64: 13 05 01 00  	mv	a0, sp
      68: 13 06 00 08  	addi	a2, zero, 128
      6c: 93 05 00 00  	mv	a1, zero
      70: 97 00 00 00  	auipc	ra, 0
      74: e7 80 40 fa  	jalr	-92(ra)
      78: 13 05 00 00  	mv	a0, zero

0000007c <.LBB1_1>:
      7c: b3 05 a4 00  	add	a1, s0, a0
      80: 23 80 a5 00  	sb	a0, 0(a1)
      84: 13 05 15 00  	addi	a0, a0, 1
      88: e3 1a 95 fe  	bne	a0, s1, 0x7c <.LBB1_1>
      8c: 93 04 01 08  	addi	s1, sp, 128
      90: 13 05 e0 06  	addi	a0, zero, 110
      94: 93 05 01 08  	addi	a1, sp, 128
      98: 13 06 01 00  	mv	a2, sp
      9c: 13 04 01 00  	mv	s0, sp
      a0: e7 00 09 00  	jalr	s2
      a4: 13 05 00 00  	mv	a0, zero
      a8: 93 05 d0 06  	addi	a1, zero, 109

000000ac <.LBB1_3>:
      ac: 03 c6 04 00  	lbu	a2, 0(s1)
      b0: 83 46 04 00  	lbu	a3, 0(s0)
      b4: 63 1e d6 04  	bne	a2, a3, 0x110 <.LBB1_10>
      b8: 13 76 f5 0f  	andi	a2, a0, 255
      bc: 13 04 14 00  	addi	s0, s0, 1
      c0: 93 84 14 00  	addi	s1, s1, 1
      c4: 13 05 15 00  	addi	a0, a0, 1
      c8: e3 62 b6 fe  	bltu	a2, a1, 0xac <.LBB1_3>
      cc: 83 45 e1 06  	lbu	a1, 110(sp)
      d0: 13 05 00 00  	mv	a0, zero
      d4: 63 90 05 04  	bnez	a1, 0x114 <.LBB1_11>
      d8: 93 05 f0 06  	addi	a1, zero, 111
      dc: 13 05 f0 ff  	addi	a0, zero, -1
      e0: 13 06 01 00  	mv	a2, sp

000000e4 <.LBB1_7>:
      e4: 93 96 85 01  	slli	a3, a1, 24
      e8: 93 d6 86 41  	srai	a3, a3, 24
      ec: 63 cc 06 00  	bltz	a3, 0x104 <.LBB1_9>
      f0: 13 f7 f5 0f  	andi	a4, a1, 255
      f4: 33 07 e6 00  	add	a4, a2, a4
      f8: 03 47 07 00  	lbu	a4, 0(a4)
      fc: 93 85 15 00  	addi	a1, a1, 1
     100: e3 02 07 fe  	beqz	a4, 0xe4 <.LBB1_7>

00000104 <.LBB1_9>:
     104: 33 25 d5 00  	slt	a0, a0, a3
     108: 13 45 15 00  	xori	a0, a0, 1
     10c: 6f 00 80 00  	j	0x114 <.LBB1_11>

00000110 <.LBB1_10>:
     110: 13 05 00 00  	mv	a0, zero

00000114 <.LBB1_11>:
     114: 93 05 00 00  	mv	a1, zero
     118: 03 29 01 10  	lw	s2, 256(sp)
     11c: 83 24 41 10  	lw	s1, 260(sp)
     120: 03 24 81 10  	lw	s0, 264(sp)
     124: 83 20 c1 10  	lw	ra, 268(sp)
     128: 13 01 01 11  	addi	sp, sp, 272
     12c: 67 80 00 00  	ret

00000130 <vector_memcpy_harness_uint16_t>:
     130: 13 01 01 df  	addi	sp, sp, -528
     134: 23 26 11 20  	sw	ra, 524(sp)
     138: 23 24 81 20  	sw	s0, 520(sp)
     13c: 23 22 91 20  	sw	s1, 516(sp)
     140: 23 20 21 21  	sw	s2, 512(sp)
     144: 13 09 05 00  	mv	s2, a0
     148: 13 05 01 10  	addi	a0, sp, 256
     14c: 13 06 00 10  	addi	a2, zero, 256
     150: 13 04 01 10  	addi	s0, sp, 256
     154: 93 05 00 00  	mv	a1, zero
     158: 97 00 00 00  	auipc	ra, 0
     15c: e7 80 c0 eb  	jalr	-324(ra)
     160: 13 05 01 00  	mv	a0, sp
     164: 13 06 00 10  	addi	a2, zero, 256
     168: 93 05 00 00  	mv	a1, zero
     16c: 97 00 00 00  	auipc	ra, 0
     170: e7 80 80 ea  	jalr	-344(ra)
     174: 13 05 00 00  	mv	a0, zero
     178: 93 05 00 08  	addi	a1, zero, 128

0000017c <.LBB2_1>:
     17c: 23 10 a4 00  	sh	a0, 0(s0)
     180: 13 05 15 00  	addi	a0, a0, 1
     184: 13 04 24 00  	addi	s0, s0, 2
     188: e3 1a b5 fe  	bne	a0, a1, 0x17c <.LBB2_1>
     18c: 93 04 01 10  	addi	s1, sp, 256
     190: 13 05 e0 06  	addi	a0, zero, 110
     194: 93 05 01 10  	addi	a1, sp, 256
     198: 13 06 01 00  	mv	a2, sp
     19c: 13 04 01 00  	mv	s0, sp
     1a0: e7 00 09 00  	jalr	s2
     1a4: 13 05 00 00  	mv	a0, zero
     1a8: b7 05 01 00  	lui	a1, 16
     1ac: 93 85 f5 ff  	addi	a1, a1, -1
     1b0: 13 06 d0 06  	addi	a2, zero, 109

000001b4 <.LBB2_3>:
     1b4: 83 d6 04 00  	lhu	a3, 0(s1)
     1b8: 03 57 04 00  	lhu	a4, 0(s0)
     1bc: 63 92 e6 06  	bne	a3, a4, 0x220 <.LBB2_10>
     1c0: b3 76 b5 00  	and	a3, a0, a1
     1c4: 13 04 24 00  	addi	s0, s0, 2
     1c8: 93 84 24 00  	addi	s1, s1, 2
     1cc: 13 05 15 00  	addi	a0, a0, 1
     1d0: e3 e2 c6 fe  	bltu	a3, a2, 0x1b4 <.LBB2_3>
     1d4: 83 55 c1 0d  	lhu	a1, 220(sp)
     1d8: 13 05 00 00  	mv	a0, zero
     1dc: 63 94 05 04  	bnez	a1, 0x224 <.LBB2_11>
     1e0: 13 05 e0 06  	addi	a0, zero, 110
     1e4: b7 05 01 00  	lui	a1, 16
     1e8: 93 85 f5 ff  	addi	a1, a1, -1
     1ec: 13 06 e0 07  	addi	a2, zero, 126
     1f0: 93 06 01 00  	mv	a3, sp

000001f4 <.LBB2_7>:
     1f4: 33 77 b5 00  	and	a4, a0, a1
     1f8: 63 6e e6 00  	bltu	a2, a4, 0x214 <.LBB2_9>
     1fc: 13 05 15 00  	addi	a0, a0, 1
     200: b3 77 b5 00  	and	a5, a0, a1
     204: 93 97 17 00  	slli	a5, a5, 1
     208: b3 87 f6 00  	add	a5, a3, a5
     20c: 83 d7 07 00  	lhu	a5, 0(a5)
     210: e3 82 07 fe  	beqz	a5, 0x1f4 <.LBB2_7>

00000214 <.LBB2_9>:
     214: 13 35 f7 07  	sltiu	a0, a4, 127
     218: 13 45 15 00  	xori	a0, a0, 1
     21c: 6f 00 80 00  	j	0x224 <.LBB2_11>

00000220 <.LBB2_10>:
     220: 13 05 00 00  	mv	a0, zero

00000224 <.LBB2_11>:
     224: 93 05 00 00  	mv	a1, zero
     228: 03 29 01 20  	lw	s2, 512(sp)
     22c: 83 24 41 20  	lw	s1, 516(sp)
     230: 03 24 81 20  	lw	s0, 520(sp)
     234: 83 20 c1 20  	lw	ra, 524(sp)
     238: 13 01 01 21  	addi	sp, sp, 528
     23c: 67 80 00 00  	ret

00000240 <vector_memcpy_harness_uint32_t>:
     240: 13 01 01 be  	addi	sp, sp, -1056
     244: 23 2e 11 40  	sw	ra, 1052(sp)
     248: 23 2c 81 40  	sw	s0, 1048(sp)
     24c: 23 2a 91 40  	sw	s1, 1044(sp)
     250: 23 28 21 41  	sw	s2, 1040(sp)
     254: 13 09 05 00  	mv	s2, a0
     258: 13 05 01 21  	addi	a0, sp, 528
     25c: 13 06 00 20  	addi	a2, zero, 512
     260: 93 04 01 21  	addi	s1, sp, 528
     264: 93 05 00 00  	mv	a1, zero
     268: 97 00 00 00  	auipc	ra, 0
     26c: e7 80 c0 da  	jalr	-596(ra)
     270: 13 05 01 01  	addi	a0, sp, 16
     274: 13 06 00 20  	addi	a2, zero, 512
     278: 93 05 00 00  	mv	a1, zero
     27c: 97 00 00 00  	auipc	ra, 0
     280: e7 80 80 d9  	jalr	-616(ra)
     284: 13 05 00 00  	mv	a0, zero
     288: 93 05 00 08  	addi	a1, zero, 128

0000028c <.LBB3_1>:
     28c: 23 a0 a4 00  	sw	a0, 0(s1)
     290: 13 05 15 00  	addi	a0, a0, 1
     294: 93 84 44 00  	addi	s1, s1, 4
     298: e3 1a b5 fe  	bne	a0, a1, 0x28c <.LBB3_1>
     29c: 93 04 01 21  	addi	s1, sp, 528
     2a0: 13 05 e0 06  	addi	a0, zero, 110
     2a4: 93 05 01 21  	addi	a1, sp, 528
     2a8: 13 06 01 01  	addi	a2, sp, 16
     2ac: 13 04 01 01  	addi	s0, sp, 16
     2b0: e7 00 09 00  	jalr	s2
     2b4: 13 05 00 00  	mv	a0, zero
     2b8: 93 05 80 1b  	addi	a1, zero, 440

000002bc <.LBB3_3>:
     2bc: 33 86 a4 00  	add	a2, s1, a0
     2c0: 03 26 06 00  	lw	a2, 0(a2)
     2c4: b3 06 a4 00  	add	a3, s0, a0
     2c8: 83 a6 06 00  	lw	a3, 0(a3)
     2cc: 63 14 d6 04  	bne	a2, a3, 0x314 <.LBB3_10>
     2d0: 13 05 45 00  	addi	a0, a0, 4
     2d4: e3 14 b5 fe  	bne	a0, a1, 0x2bc <.LBB3_3>
     2d8: 83 25 81 1c  	lw	a1, 456(sp)
     2dc: 13 05 00 00  	mv	a0, zero
     2e0: 63 9c 05 02  	bnez	a1, 0x318 <.LBB3_11>
     2e4: 13 05 c1 1c  	addi	a0, sp, 460
     2e8: 93 06 e0 06  	addi	a3, zero, 110
     2ec: 93 05 f0 07  	addi	a1, zero, 127

000002f0 <.LBB3_7>:
     2f0: 13 86 06 00  	mv	a2, a3
     2f4: 63 8a b6 00  	beq	a3, a1, 0x308 <.LBB3_9>
     2f8: 03 27 05 00  	lw	a4, 0(a0)
     2fc: 93 06 16 00  	addi	a3, a2, 1
     300: 13 05 45 00  	addi	a0, a0, 4
     304: e3 06 07 fe  	beqz	a4, 0x2f0 <.LBB3_7>

00000308 <.LBB3_9>:
     308: 13 05 e0 07  	addi	a0, zero, 126
     30c: 33 35 c5 00  	sltu	a0, a0, a2
     310: 6f 00 80 00  	j	0x318 <.LBB3_11>

00000314 <.LBB3_10>:
     314: 13 05 00 00  	mv	a0, zero

00000318 <.LBB3_11>:
     318: 93 05 00 00  	mv	a1, zero
     31c: 03 29 01 41  	lw	s2, 1040(sp)
     320: 83 24 41 41  	lw	s1, 1044(sp)
     324: 03 24 81 41  	lw	s0, 1048(sp)
     328: 83 20 c1 41  	lw	ra, 1052(sp)
     32c: 13 01 01 42  	addi	sp, sp, 1056
     330: 67 80 00 00  	ret

00000334 <vector_memcpy_harness_uint64_t>:
     334: 13 01 01 81  	addi	sp, sp, -2032
     338: 23 26 11 7e  	sw	ra, 2028(sp)
     33c: 23 24 81 7e  	sw	s0, 2024(sp)
     340: 23 22 91 7e  	sw	s1, 2020(sp)
     344: 23 20 21 7f  	sw	s2, 2016(sp)
     348: 13 01 01 fd  	addi	sp, sp, -48
     34c: 13 09 05 00  	mv	s2, a0
     350: 13 05 01 41  	addi	a0, sp, 1040
     354: 13 06 00 40  	addi	a2, zero, 1024
     358: 13 04 01 41  	addi	s0, sp, 1040
     35c: 93 05 00 00  	mv	a1, zero
     360: 97 00 00 00  	auipc	ra, 0
     364: e7 80 40 cb  	jalr	-844(ra)
     368: 13 05 01 01  	addi	a0, sp, 16
     36c: 13 06 00 40  	addi	a2, zero, 1024
     370: 93 05 00 00  	mv	a1, zero
     374: 97 00 00 00  	auipc	ra, 0
     378: e7 80 00 ca  	jalr	-864(ra)
     37c: 93 05 00 00  	mv	a1, zero
     380: 13 05 00 00  	mv	a0, zero
     384: 6f 00 c0 01  	j	0x3a0 <.LBB4_3>

00000388 <.LBB4_1>:
     388: 13 06 00 00  	mv	a2, zero

0000038c <.LBB4_2>:
     38c: 93 86 15 00  	addi	a3, a1, 1
     390: b3 b5 b6 00  	sltu	a1, a3, a1
     394: 33 05 b5 00  	add	a0, a0, a1
     398: 93 85 06 00  	mv	a1, a3
     39c: 63 02 06 02  	beqz	a2, 0x3c0 <.LBB4_5>

000003a0 <.LBB4_3>:
     3a0: 13 96 35 00  	slli	a2, a1, 3
     3a4: 33 06 c4 00  	add	a2, s0, a2
     3a8: 23 20 b6 00  	sw	a1, 0(a2)
     3ac: 13 66 46 00  	ori	a2, a2, 4
     3b0: 23 20 a6 00  	sw	a0, 0(a2)
     3b4: e3 1a 05 fc  	bnez	a0, 0x388 <.LBB4_1>
     3b8: 13 b6 f5 07  	sltiu	a2, a1, 127
     3bc: 6f f0 1f fd  	j	0x38c <.LBB4_2>

000003c0 <.LBB4_5>:
     3c0: 93 04 01 41  	addi	s1, sp, 1040
     3c4: 13 05 e0 06  	addi	a0, zero, 110
     3c8: 93 05 01 41  	addi	a1, sp, 1040
     3cc: 13 06 01 01  	addi	a2, sp, 16
     3d0: 13 04 01 01  	addi	s0, sp, 16
     3d4: e7 00 09 00  	jalr	s2
     3d8: 93 05 00 00  	mv	a1, zero
     3dc: 13 05 00 00  	mv	a0, zero
     3e0: 6f 00 c0 01  	j	0x3fc <.LBB4_8>

000003e4 <.LBB4_6>:
     3e4: 13 06 00 00  	mv	a2, zero

000003e8 <.LBB4_7>:
     3e8: 93 86 15 00  	addi	a3, a1, 1
     3ec: b3 b5 b6 00  	sltu	a1, a3, a1
     3f0: 33 05 b5 00  	add	a0, a0, a1
     3f4: 93 85 06 00  	mv	a1, a3
     3f8: 63 06 06 04  	beqz	a2, 0x444 <.LBB4_12>

000003fc <.LBB4_8>:
     3fc: 13 96 35 00  	slli	a2, a1, 3
     400: b3 86 c4 00  	add	a3, s1, a2
     404: 13 e7 46 00  	ori	a4, a3, 4
     408: 03 27 07 00  	lw	a4, 0(a4)
     40c: 83 a6 06 00  	lw	a3, 0(a3)
     410: 33 06 c4 00  	add	a2, s0, a2
     414: 93 67 46 00  	ori	a5, a2, 4
     418: 03 26 06 00  	lw	a2, 0(a2)
     41c: 83 a7 07 00  	lw	a5, 0(a5)
     420: 33 c6 c6 00  	xor	a2, a3, a2
     424: b3 46 f7 00  	xor	a3, a4, a5
     428: 33 66 d6 00  	or	a2, a2, a3
     42c: 63 18 06 00  	bnez	a2, 0x43c <.LBB4_11>
     430: e3 1a 05 fa  	bnez	a0, 0x3e4 <.LBB4_6>
     434: 13 b6 d5 06  	sltiu	a2, a1, 109
     438: 6f f0 1f fb  	j	0x3e8 <.LBB4_7>

0000043c <.LBB4_11>:
     43c: 13 05 00 00  	mv	a0, zero
     440: 6f 00 80 07  	j	0x4b8 <.LBB4_19>

00000444 <.LBB4_12>:
     444: 03 25 41 38  	lw	a0, 900(sp)
     448: 83 25 01 38  	lw	a1, 896(sp)
     44c: b3 e5 a5 00  	or	a1, a1, a0
     450: 13 05 00 00  	mv	a0, zero
     454: 63 92 05 06  	bnez	a1, 0x4b8 <.LBB4_19>
     458: 13 05 00 00  	mv	a0, zero
     45c: 93 06 e0 06  	addi	a3, zero, 110
     460: 93 05 e0 07  	addi	a1, zero, 126
     464: 13 06 01 01  	addi	a2, sp, 16

00000468 <.LBB4_14>:
     468: 63 0a 05 00  	beqz	a0, 0x47c <.LBB4_16>
     46c: 13 07 00 00  	mv	a4, zero
     470: b3 37 a0 00  	snez	a5, a0
     474: 63 8a 07 00  	beqz	a5, 0x488 <.LBB4_17>
     478: 6f 00 c0 03  	j	0x4b4 <.LBB4_18>

0000047c <.LBB4_16>:
     47c: 13 b7 f6 07  	sltiu	a4, a3, 127
     480: b3 b7 d5 00  	sltu	a5, a1, a3
     484: 63 98 07 02  	bnez	a5, 0x4b4 <.LBB4_18>

00000488 <.LBB4_17>:
     488: 93 87 16 00  	addi	a5, a3, 1
     48c: 93 94 37 00  	slli	s1, a5, 3
     490: b3 04 96 00  	add	s1, a2, s1
     494: 03 a4 04 00  	lw	s0, 0(s1)
     498: 93 e4 44 00  	ori	s1, s1, 4
     49c: 83 a4 04 00  	lw	s1, 0(s1)
     4a0: b3 b6 d7 00  	sltu	a3, a5, a3
     4a4: b3 64 94 00  	or	s1, s0, s1
     4a8: 33 05 d5 00  	add	a0, a0, a3
     4ac: 93 86 07 00  	mv	a3, a5
     4b0: e3 8c 04 fa  	beqz	s1, 0x468 <.LBB4_14>

000004b4 <.LBB4_18>:
     4b4: 13 45 17 00  	xori	a0, a4, 1

000004b8 <.LBB4_19>:
     4b8: 93 05 00 00  	mv	a1, zero
     4bc: 13 01 01 03  	addi	sp, sp, 48
     4c0: 03 29 01 7e  	lw	s2, 2016(sp)
     4c4: 83 24 41 7e  	lw	s1, 2020(sp)
     4c8: 03 24 81 7e  	lw	s0, 2024(sp)
     4cc: 83 20 c1 7e  	lw	ra, 2028(sp)
     4d0: 13 01 01 7f  	addi	sp, sp, 2032
     4d4: 67 80 00 00  	ret

000004d8 <vector_memcpy_masked_harness_uint8_t>:
     4d8: 13 01 01 ee  	addi	sp, sp, -288
     4dc: 23 2e 11 10  	sw	ra, 284(sp)
     4e0: 23 2c 81 10  	sw	s0, 280(sp)
     4e4: 23 2a 91 10  	sw	s1, 276(sp)
     4e8: 23 28 21 11  	sw	s2, 272(sp)
     4ec: 23 26 31 11  	sw	s3, 268(sp)
     4f0: 13 09 05 00  	mv	s2, a0
     4f4: 93 09 c1 08  	addi	s3, sp, 140
     4f8: 13 05 c1 08  	addi	a0, sp, 140
     4fc: 13 06 00 08  	addi	a2, zero, 128
     500: 93 04 00 08  	addi	s1, zero, 128
     504: 93 05 00 00  	mv	a1, zero
     508: 97 00 00 00  	auipc	ra, 0
     50c: e7 80 c0 b0  	jalr	-1268(ra)
     510: 13 05 c1 00  	addi	a0, sp, 12
     514: 13 06 00 08  	addi	a2, zero, 128
     518: 13 04 c1 00  	addi	s0, sp, 12
     51c: 93 05 00 00  	mv	a1, zero
     520: 97 00 00 00  	auipc	ra, 0
     524: e7 80 40 af  	jalr	-1292(ra)
     528: 13 05 00 00  	mv	a0, zero
     52c: 93 05 b0 0b  	addi	a1, zero, 187

00000530 <.LBB5_1>:
     530: 33 86 a9 00  	add	a2, s3, a0
     534: 23 00 a6 00  	sb	a0, 0(a2)
     538: 33 06 a4 00  	add	a2, s0, a0
     53c: 13 05 15 00  	addi	a0, a0, 1
     540: 23 00 b6 00  	sb	a1, 0(a2)
     544: e3 16 95 fe  	bne	a0, s1, 0x530 <.LBB5_1>
     548: 93 04 e0 06  	addi	s1, zero, 110
     54c: 93 09 c1 08  	addi	s3, sp, 140
     550: 13 05 e0 06  	addi	a0, zero, 110
     554: 93 05 c1 08  	addi	a1, sp, 140
     558: 13 06 c1 00  	addi	a2, sp, 12
     55c: 13 04 c1 00  	addi	s0, sp, 12
     560: e7 00 09 00  	jalr	s2
     564: 13 05 00 00  	mv	a0, zero
     568: 93 05 b0 0b  	addi	a1, zero, 187
     56c: 6f 00 40 01  	j	0x580 <.LBB5_5>

00000570 <.LBB5_3>:
     570: 03 46 06 00  	lbu	a2, 0(a2)
     574: 63 18 b6 06  	bne	a2, a1, 0x5e4 <.LBB5_12>

00000578 <.LBB5_4>:
     578: 13 05 15 00  	addi	a0, a0, 1
     57c: 63 02 95 02  	beq	a0, s1, 0x5a0 <.LBB5_7>

00000580 <.LBB5_5>:
     580: 93 76 15 00  	andi	a3, a0, 1
     584: 33 06 a4 00  	add	a2, s0, a0
     588: e3 84 06 fe  	beqz	a3, 0x570 <.LBB5_3>
     58c: b3 86 a9 00  	add	a3, s3, a0
     590: 83 c6 06 00  	lbu	a3, 0(a3)
     594: 03 46 06 00  	lbu	a2, 0(a2)
     598: e3 80 c6 fe  	beq	a3, a2, 0x578 <.LBB5_4>
     59c: 6f 00 80 04  	j	0x5e4 <.LBB5_12>

000005a0 <.LBB5_7>:
     5a0: 83 45 a1 07  	lbu	a1, 122(sp)
     5a4: 13 05 b0 0b  	addi	a0, zero, 187
     5a8: 63 9e a5 02  	bne	a1, a0, 0x5e4 <.LBB5_12>
     5ac: 13 06 f0 06  	addi	a2, zero, 111
     5b0: 93 05 f0 ff  	addi	a1, zero, -1
     5b4: 93 06 c1 00  	addi	a3, sp, 12

000005b8 <.LBB5_9>:
     5b8: 13 17 86 01  	slli	a4, a2, 24
     5bc: 13 57 87 41  	srai	a4, a4, 24
     5c0: 63 4c 07 00  	bltz	a4, 0x5d8 <.LBB5_11>
     5c4: 93 77 f6 0f  	andi	a5, a2, 255
     5c8: b3 87 f6 00  	add	a5, a3, a5
     5cc: 83 c7 07 00  	lbu	a5, 0(a5)
     5d0: 13 06 16 00  	addi	a2, a2, 1
     5d4: e3 82 a7 fe  	beq	a5, a0, 0x5b8 <.LBB5_9>

000005d8 <.LBB5_11>:
     5d8: 33 a5 e5 00  	slt	a0, a1, a4
     5dc: 13 45 15 00  	xori	a0, a0, 1
     5e0: 6f 00 80 00  	j	0x5e8 <.LBB5_13>

000005e4 <.LBB5_12>:
     5e4: 13 05 00 00  	mv	a0, zero

000005e8 <.LBB5_13>:
     5e8: 93 05 00 00  	mv	a1, zero
     5ec: 83 29 c1 10  	lw	s3, 268(sp)
     5f0: 03 29 01 11  	lw	s2, 272(sp)
     5f4: 83 24 41 11  	lw	s1, 276(sp)
     5f8: 03 24 81 11  	lw	s0, 280(sp)
     5fc: 83 20 c1 11  	lw	ra, 284(sp)
     600: 13 01 01 12  	addi	sp, sp, 288
     604: 67 80 00 00  	ret

00000608 <vector_memcpy_masked_harness_uint16_t>:
     608: 13 01 01 de  	addi	sp, sp, -544
     60c: 23 2e 11 20  	sw	ra, 540(sp)
     610: 23 2c 81 20  	sw	s0, 536(sp)
     614: 23 2a 91 20  	sw	s1, 532(sp)
     618: 23 28 21 21  	sw	s2, 528(sp)
     61c: 23 26 31 21  	sw	s3, 524(sp)
     620: 13 09 05 00  	mv	s2, a0
     624: 13 05 c1 10  	addi	a0, sp, 268
     628: 13 06 00 10  	addi	a2, zero, 256
     62c: 13 04 c1 10  	addi	s0, sp, 268
     630: 93 05 00 00  	mv	a1, zero
     634: 97 00 00 00  	auipc	ra, 0
     638: e7 80 00 9e  	jalr	-1568(ra)
     63c: 13 05 c1 00  	addi	a0, sp, 12
     640: 13 06 00 10  	addi	a2, zero, 256
     644: 93 04 c1 00  	addi	s1, sp, 12
     648: 93 05 00 00  	mv	a1, zero
     64c: 97 00 00 00  	auipc	ra, 0
     650: e7 80 80 9c  	jalr	-1592(ra)
     654: 13 05 00 00  	mv	a0, zero
     658: 93 05 b0 0b  	addi	a1, zero, 187
     65c: 13 06 00 08  	addi	a2, zero, 128

00000660 <.LBB6_1>:
     660: 23 10 a4 00  	sh	a0, 0(s0)
     664: 23 90 b4 00  	sh	a1, 0(s1)
     668: 13 05 15 00  	addi	a0, a0, 1
     66c: 13 04 24 00  	addi	s0, s0, 2
     670: 93 84 24 00  	addi	s1, s1, 2
     674: e3 16 c5 fe  	bne	a0, a2, 0x660 <.LBB6_1>
     678: 93 09 e0 06  	addi	s3, zero, 110
     67c: 13 04 c1 10  	addi	s0, sp, 268
     680: 13 05 e0 06  	addi	a0, zero, 110
     684: 93 05 c1 10  	addi	a1, sp, 268
     688: 13 06 c1 00  	addi	a2, sp, 12
     68c: 93 04 c1 00  	addi	s1, sp, 12
     690: e7 00 09 00  	jalr	s2
     694: 13 05 00 00  	mv	a0, zero
     698: 93 05 b0 0b  	addi	a1, zero, 187
     69c: 6f 00 c0 01  	j	0x6b8 <.LBB6_5>

000006a0 <.LBB6_3>:
     6a0: 03 d6 04 00  	lhu	a2, 0(s1)
     6a4: 63 1c b6 06  	bne	a2, a1, 0x71c <.LBB6_12>

000006a8 <.LBB6_4>:
     6a8: 13 05 15 00  	addi	a0, a0, 1
     6ac: 13 04 24 00  	addi	s0, s0, 2
     6b0: 93 84 24 00  	addi	s1, s1, 2
     6b4: 63 0e 35 01  	beq	a0, s3, 0x6d0 <.LBB6_7>

000006b8 <.LBB6_5>:
     6b8: 13 76 15 00  	andi	a2, a0, 1
     6bc: e3 02 06 fe  	beqz	a2, 0x6a0 <.LBB6_3>
     6c0: 03 56 04 00  	lhu	a2, 0(s0)
     6c4: 83 d6 04 00  	lhu	a3, 0(s1)
     6c8: e3 00 d6 fe  	beq	a2, a3, 0x6a8 <.LBB6_4>
     6cc: 6f 00 00 05  	j	0x71c <.LBB6_12>

000006d0 <.LBB6_7>:
     6d0: 83 55 81 0e  	lhu	a1, 232(sp)
     6d4: 13 05 b0 0b  	addi	a0, zero, 187
     6d8: 63 92 a5 04  	bne	a1, a0, 0x71c <.LBB6_12>
     6dc: 93 05 e0 06  	addi	a1, zero, 110
     6e0: 37 06 01 00  	lui	a2, 16
     6e4: 13 06 f6 ff  	addi	a2, a2, -1
     6e8: 93 06 e0 07  	addi	a3, zero, 126
     6ec: 13 07 c1 00  	addi	a4, sp, 12

000006f0 <.LBB6_9>:
     6f0: b3 f7 c5 00  	and	a5, a1, a2
     6f4: 63 ee f6 00  	bltu	a3, a5, 0x710 <.LBB6_11>
     6f8: 93 85 15 00  	addi	a1, a1, 1
     6fc: b3 f4 c5 00  	and	s1, a1, a2
     700: 93 94 14 00  	slli	s1, s1, 1
     704: b3 04 97 00  	add	s1, a4, s1
     708: 83 d4 04 00  	lhu	s1, 0(s1)
     70c: e3 82 a4 fe  	beq	s1, a0, 0x6f0 <.LBB6_9>

00000710 <.LBB6_11>:
     710: 13 b5 f7 07  	sltiu	a0, a5, 127
     714: 13 45 15 00  	xori	a0, a0, 1
     718: 6f 00 80 00  	j	0x720 <.LBB6_13>

0000071c <.LBB6_12>:
     71c: 13 05 00 00  	mv	a0, zero

00000720 <.LBB6_13>:
     720: 93 05 00 00  	mv	a1, zero
     724: 83 29 c1 20  	lw	s3, 524(sp)
     728: 03 29 01 21  	lw	s2, 528(sp)
     72c: 83 24 41 21  	lw	s1, 532(sp)
     730: 03 24 81 21  	lw	s0, 536(sp)
     734: 83 20 c1 21  	lw	ra, 540(sp)
     738: 13 01 01 22  	addi	sp, sp, 544
     73c: 67 80 00 00  	ret

00000740 <vector_memcpy_masked_harness_uint32_t>:
     740: 13 01 01 be  	addi	sp, sp, -1056
     744: 23 2e 11 40  	sw	ra, 1052(sp)
     748: 23 2c 81 40  	sw	s0, 1048(sp)
     74c: 23 2a 91 40  	sw	s1, 1044(sp)
     750: 23 28 21 41  	sw	s2, 1040(sp)
     754: 23 26 31 41  	sw	s3, 1036(sp)
     758: 13 09 05 00  	mv	s2, a0
     75c: 13 05 c1 20  	addi	a0, sp, 524
     760: 13 06 00 20  	addi	a2, zero, 512
     764: 13 04 c1 20  	addi	s0, sp, 524
     768: 93 05 00 00  	mv	a1, zero
     76c: 97 00 00 00  	auipc	ra, 0
     770: e7 80 80 8a  	jalr	-1880(ra)
     774: 13 05 c1 00  	addi	a0, sp, 12
     778: 13 06 00 20  	addi	a2, zero, 512
     77c: 93 04 c1 00  	addi	s1, sp, 12
     780: 93 05 00 00  	mv	a1, zero
     784: 97 00 00 00  	auipc	ra, 0
     788: e7 80 00 89  	jalr	-1904(ra)
     78c: 13 05 00 00  	mv	a0, zero
     790: 93 05 b0 0b  	addi	a1, zero, 187
     794: 13 06 00 08  	addi	a2, zero, 128

00000798 <.LBB7_1>:
     798: 23 20 a4 00  	sw	a0, 0(s0)
     79c: 23 a0 b4 00  	sw	a1, 0(s1)
     7a0: 13 05 15 00  	addi	a0, a0, 1
     7a4: 93 84 44 00  	addi	s1, s1, 4
     7a8: 13 04 44 00  	addi	s0, s0, 4
     7ac: e3 16 c5 fe  	bne	a0, a2, 0x798 <.LBB7_1>
     7b0: 93 09 e0 06  	addi	s3, zero, 110
     7b4: 13 04 c1 20  	addi	s0, sp, 524
     7b8: 13 05 e0 06  	addi	a0, zero, 110
     7bc: 93 05 c1 20  	addi	a1, sp, 524
     7c0: 13 06 c1 00  	addi	a2, sp, 12
     7c4: 93 04 c1 00  	addi	s1, sp, 12
     7c8: e7 00 09 00  	jalr	s2
     7cc: 13 05 00 00  	mv	a0, zero
     7d0: 93 05 b0 0b  	addi	a1, zero, 187
     7d4: 6f 00 c0 01  	j	0x7f0 <.LBB7_5>

000007d8 <.LBB7_3>:
     7d8: 03 a6 04 00  	lw	a2, 0(s1)
     7dc: 63 14 b6 06  	bne	a2, a1, 0x844 <.LBB7_12>

000007e0 <.LBB7_4>:
     7e0: 13 05 15 00  	addi	a0, a0, 1
     7e4: 93 84 44 00  	addi	s1, s1, 4
     7e8: 13 04 44 00  	addi	s0, s0, 4
     7ec: 63 0e 35 01  	beq	a0, s3, 0x808 <.LBB7_7>

000007f0 <.LBB7_5>:
     7f0: 13 76 15 00  	andi	a2, a0, 1
     7f4: e3 02 06 fe  	beqz	a2, 0x7d8 <.LBB7_3>
     7f8: 03 26 04 00  	lw	a2, 0(s0)
     7fc: 83 a6 04 00  	lw	a3, 0(s1)
     800: e3 00 d6 fe  	beq	a2, a3, 0x7e0 <.LBB7_4>
     804: 6f 00 00 04  	j	0x844 <.LBB7_12>

00000808 <.LBB7_7>:
     808: 83 25 41 1c  	lw	a1, 452(sp)
     80c: 13 05 b0 0b  	addi	a0, zero, 187
     810: 63 9a a5 02  	bne	a1, a0, 0x844 <.LBB7_12>
     814: 93 05 81 1c  	addi	a1, sp, 456
     818: 13 07 e0 06  	addi	a4, zero, 110
     81c: 13 06 f0 07  	addi	a2, zero, 127

00000820 <.LBB7_9>:
     820: 93 06 07 00  	mv	a3, a4
     824: 63 0a c7 00  	beq	a4, a2, 0x838 <.LBB7_11>
     828: 83 a7 05 00  	lw	a5, 0(a1)
     82c: 13 87 16 00  	addi	a4, a3, 1
     830: 93 85 45 00  	addi	a1, a1, 4
     834: e3 86 a7 fe  	beq	a5, a0, 0x820 <.LBB7_9>

00000838 <.LBB7_11>:
     838: 13 05 e0 07  	addi	a0, zero, 126
     83c: 33 35 d5 00  	sltu	a0, a0, a3
     840: 6f 00 80 00  	j	0x848 <.LBB7_13>

00000844 <.LBB7_12>:
     844: 13 05 00 00  	mv	a0, zero

00000848 <.LBB7_13>:
     848: 93 05 00 00  	mv	a1, zero
     84c: 83 29 c1 40  	lw	s3, 1036(sp)
     850: 03 29 01 41  	lw	s2, 1040(sp)
     854: 83 24 41 41  	lw	s1, 1044(sp)
     858: 03 24 81 41  	lw	s0, 1048(sp)
     85c: 83 20 c1 41  	lw	ra, 1052(sp)
     860: 13 01 01 42  	addi	sp, sp, 1056
     864: 67 80 00 00  	ret

00000868 <vector_memcpy_masked_harness_uint64_t>:
     868: 13 01 01 81  	addi	sp, sp, -2032
     86c: 23 26 11 7e  	sw	ra, 2028(sp)
     870: 23 24 81 7e  	sw	s0, 2024(sp)
     874: 23 22 91 7e  	sw	s1, 2020(sp)
     878: 23 20 21 7f  	sw	s2, 2016(sp)
     87c: 13 01 01 fd  	addi	sp, sp, -48
     880: 13 09 05 00  	mv	s2, a0
     884: 13 05 01 41  	addi	a0, sp, 1040
     888: 13 06 00 40  	addi	a2, zero, 1024
     88c: 13 04 01 41  	addi	s0, sp, 1040
     890: 93 05 00 00  	mv	a1, zero
     894: 97 f0 ff ff  	auipc	ra, 1048575
     898: e7 80 00 78  	jalr	1920(ra)
     89c: 13 05 01 01  	addi	a0, sp, 16
     8a0: 13 06 00 40  	addi	a2, zero, 1024
     8a4: 93 04 01 01  	addi	s1, sp, 16
     8a8: 93 05 00 00  	mv	a1, zero
     8ac: 97 f0 ff ff  	auipc	ra, 1048575
     8b0: e7 80 80 76  	jalr	1896(ra)
     8b4: 13 06 00 00  	mv	a2, zero
     8b8: 13 05 00 00  	mv	a0, zero
     8bc: 93 05 b0 0b  	addi	a1, zero, 187
     8c0: 6f 00 c0 01  	j	0x8dc <.LBB8_3>

000008c4 <.LBB8_1>:
     8c4: 93 06 00 00  	mv	a3, zero

000008c8 <.LBB8_2>:
     8c8: 13 07 16 00  	addi	a4, a2, 1
     8cc: 33 36 c7 00  	sltu	a2, a4, a2
     8d0: 33 05 c5 00  	add	a0, a0, a2
     8d4: 13 06 07 00  	mv	a2, a4
     8d8: 63 8a 06 02  	beqz	a3, 0x90c <.LBB8_5>

000008dc <.LBB8_3>:
     8dc: 93 16 36 00  	slli	a3, a2, 3
     8e0: 33 07 d4 00  	add	a4, s0, a3
     8e4: 23 20 c7 00  	sw	a2, 0(a4)
     8e8: 13 67 47 00  	ori	a4, a4, 4
     8ec: 23 20 a7 00  	sw	a0, 0(a4)
     8f0: b3 86 d4 00  	add	a3, s1, a3
     8f4: 23 a0 b6 00  	sw	a1, 0(a3)
     8f8: 93 e6 46 00  	ori	a3, a3, 4
     8fc: 23 a0 06 00  	sw	zero, 0(a3)
     900: e3 12 05 fc  	bnez	a0, 0x8c4 <.LBB8_1>
     904: 93 36 f6 07  	sltiu	a3, a2, 127
     908: 6f f0 1f fc  	j	0x8c8 <.LBB8_2>

0000090c <.LBB8_5>:
     90c: 93 04 01 41  	addi	s1, sp, 1040
     910: 13 05 e0 06  	addi	a0, zero, 110
     914: 93 05 01 41  	addi	a1, sp, 1040
     918: 13 06 01 01  	addi	a2, sp, 16
     91c: 13 04 01 01  	addi	s0, sp, 16
     920: e7 00 09 00  	jalr	s2
     924: 93 05 00 00  	mv	a1, zero
     928: 13 05 00 00  	mv	a0, zero
     92c: 6f 00 c0 01  	j	0x948 <.LBB8_8>

00000930 <.LBB8_6>:
     930: 13 06 00 00  	mv	a2, zero

00000934 <.LBB8_7>:
     934: 93 86 15 00  	addi	a3, a1, 1
     938: b3 b5 b6 00  	sltu	a1, a3, a1
     93c: 33 05 b5 00  	add	a0, a0, a1
     940: 93 85 06 00  	mv	a1, a3
     944: 63 0a 06 06  	beqz	a2, 0x9b8 <.LBB8_14>

00000948 <.LBB8_8>:
     948: 93 f6 15 00  	andi	a3, a1, 1
     94c: 13 96 35 00  	slli	a2, a1, 3
     950: 63 92 06 02  	bnez	a3, 0x974 <.LBB8_10>
     954: 33 06 c4 00  	add	a2, s0, a2
     958: 93 66 46 00  	ori	a3, a2, 4
     95c: 03 26 06 00  	lw	a2, 0(a2)
     960: 83 a6 06 00  	lw	a3, 0(a3)
     964: 13 46 b6 0b  	xori	a2, a2, 187
     968: 33 66 d6 00  	or	a2, a2, a3
     96c: 63 0c 06 02  	beqz	a2, 0x9a4 <.LBB8_11>
     970: 6f 00 00 04  	j	0x9b0 <.LBB8_13>

00000974 <.LBB8_10>:
     974: b3 86 c4 00  	add	a3, s1, a2
     978: 13 e7 46 00  	ori	a4, a3, 4
     97c: 03 27 07 00  	lw	a4, 0(a4)
     980: 83 a6 06 00  	lw	a3, 0(a3)
     984: 33 06 c4 00  	add	a2, s0, a2
     988: 93 67 46 00  	ori	a5, a2, 4
     98c: 03 26 06 00  	lw	a2, 0(a2)
     990: 83 a7 07 00  	lw	a5, 0(a5)
     994: 33 c6 c6 00  	xor	a2, a3, a2
     998: b3 46 f7 00  	xor	a3, a4, a5
     99c: 33 66 d6 00  	or	a2, a2, a3
     9a0: 63 18 06 00  	bnez	a2, 0x9b0 <.LBB8_13>

000009a4 <.LBB8_11>:
     9a4: e3 16 05 f8  	bnez	a0, 0x930 <.LBB8_6>
     9a8: 13 b6 d5 06  	sltiu	a2, a1, 109
     9ac: 6f f0 9f f8  	j	0x934 <.LBB8_7>

000009b0 <.LBB8_13>:
     9b0: 13 05 00 00  	mv	a0, zero
     9b4: 6f 00 00 08  	j	0xa34 <.LBB8_21>

000009b8 <.LBB8_14>:
     9b8: 03 25 01 38  	lw	a0, 896(sp)
     9bc: 83 25 41 38  	lw	a1, 900(sp)
     9c0: 13 45 b5 0b  	xori	a0, a0, 187
     9c4: b3 65 b5 00  	or	a1, a0, a1
     9c8: 13 05 00 00  	mv	a0, zero
     9cc: 63 94 05 06  	bnez	a1, 0xa34 <.LBB8_21>
     9d0: 13 05 00 00  	mv	a0, zero
     9d4: 93 06 e0 06  	addi	a3, zero, 110
     9d8: 93 05 e0 07  	addi	a1, zero, 126
     9dc: 13 06 01 01  	addi	a2, sp, 16

000009e0 <.LBB8_16>:
     9e0: 63 0a 05 00  	beqz	a0, 0x9f4 <.LBB8_18>
     9e4: 13 07 00 00  	mv	a4, zero
     9e8: b3 37 a0 00  	snez	a5, a0
     9ec: 63 8a 07 00  	beqz	a5, 0xa00 <.LBB8_19>
     9f0: 6f 00 00 04  	j	0xa30 <.LBB8_20>

000009f4 <.LBB8_18>:
     9f4: 13 b7 f6 07  	sltiu	a4, a3, 127
     9f8: b3 b7 d5 00  	sltu	a5, a1, a3
     9fc: 63 9a 07 02  	bnez	a5, 0xa30 <.LBB8_20>

00000a00 <.LBB8_19>:
     a00: 93 87 16 00  	addi	a5, a3, 1
     a04: 93 94 37 00  	slli	s1, a5, 3
     a08: b3 04 96 00  	add	s1, a2, s1
     a0c: 13 e4 44 00  	ori	s0, s1, 4
     a10: 83 a4 04 00  	lw	s1, 0(s1)
     a14: 03 24 04 00  	lw	s0, 0(s0)
     a18: b3 b6 d7 00  	sltu	a3, a5, a3
     a1c: 93 c4 b4 0b  	xori	s1, s1, 187
     a20: b3 e4 84 00  	or	s1, s1, s0
     a24: 33 05 d5 00  	add	a0, a0, a3
     a28: 93 86 07 00  	mv	a3, a5
     a2c: e3 8a 04 fa  	beqz	s1, 0x9e0 <.LBB8_16>

00000a30 <.LBB8_20>:
     a30: 13 45 17 00  	xori	a0, a4, 1

00000a34 <.LBB8_21>:
     a34: 93 05 00 00  	mv	a1, zero
     a38: 13 01 01 03  	addi	sp, sp, 48
     a3c: 03 29 01 7e  	lw	s2, 2016(sp)
     a40: 83 24 41 7e  	lw	s1, 2020(sp)
     a44: 03 24 81 7e  	lw	s0, 2024(sp)
     a48: 83 20 c1 7e  	lw	ra, 2028(sp)
     a4c: 13 01 01 7f  	addi	sp, sp, 2032
     a50: 67 80 00 00  	ret

00000a54 <vector_memcpy_segmented_harness_uint8_t>:
     a54: 13 01 01 ed  	addi	sp, sp, -304
     a58: 23 26 11 12  	sw	ra, 300(sp)
     a5c: 23 24 81 12  	sw	s0, 296(sp)
     a60: 23 22 91 12  	sw	s1, 292(sp)
     a64: 23 20 21 13  	sw	s2, 288(sp)
     a68: 23 2e 31 11  	sw	s3, 284(sp)
     a6c: 23 2c 41 11  	sw	s4, 280(sp)
     a70: 13 09 05 00  	mv	s2, a0
     a74: 93 04 81 09  	addi	s1, sp, 152
     a78: 13 05 81 09  	addi	a0, sp, 152
     a7c: 13 06 00 08  	addi	a2, zero, 128
     a80: 13 04 00 08  	addi	s0, zero, 128
     a84: 93 05 00 00  	mv	a1, zero
     a88: 97 f0 ff ff  	auipc	ra, 1048575
     a8c: e7 80 c0 58  	jalr	1420(ra)
     a90: 13 05 00 00  	mv	a0, zero
     a94: 23 2a 01 08  	sw	zero, 148(sp)
     a98: 23 28 01 08  	sw	zero, 144(sp)
     a9c: 23 26 01 08  	sw	zero, 140(sp)
     aa0: 23 24 01 08  	sw	zero, 136(sp)
     aa4: 23 22 01 08  	sw	zero, 132(sp)
     aa8: 23 20 01 08  	sw	zero, 128(sp)
     aac: 23 2e 01 06  	sw	zero, 124(sp)
     ab0: 23 2c 01 06  	sw	zero, 120(sp)
     ab4: 23 2a 01 06  	sw	zero, 116(sp)
     ab8: 23 28 01 06  	sw	zero, 112(sp)
     abc: 23 26 01 06  	sw	zero, 108(sp)
     ac0: 23 24 01 06  	sw	zero, 104(sp)
     ac4: 23 22 01 06  	sw	zero, 100(sp)
     ac8: 23 20 01 06  	sw	zero, 96(sp)
     acc: 23 2e 01 04  	sw	zero, 92(sp)
     ad0: 23 2c 01 04  	sw	zero, 88(sp)
     ad4: 23 2a 01 04  	sw	zero, 84(sp)
     ad8: 23 28 01 04  	sw	zero, 80(sp)
     adc: 23 26 01 04  	sw	zero, 76(sp)
     ae0: 23 24 01 04  	sw	zero, 72(sp)
     ae4: 23 22 01 04  	sw	zero, 68(sp)
     ae8: 23 20 01 04  	sw	zero, 64(sp)
     aec: 23 2e 01 02  	sw	zero, 60(sp)
     af0: 23 2c 01 02  	sw	zero, 56(sp)
     af4: 23 2a 01 02  	sw	zero, 52(sp)
     af8: 23 28 01 02  	sw	zero, 48(sp)
     afc: 23 26 01 02  	sw	zero, 44(sp)
     b00: 23 24 01 02  	sw	zero, 40(sp)
     b04: 23 22 01 02  	sw	zero, 36(sp)
     b08: 23 20 01 02  	sw	zero, 32(sp)
     b0c: 23 2e 01 00  	sw	zero, 28(sp)
     b10: 23 2c 01 00  	sw	zero, 24(sp)

00000b14 <.LBB9_1>:
     b14: b3 85 a4 00  	add	a1, s1, a0
     b18: 23 80 a5 00  	sb	a0, 0(a1)
     b1c: 13 05 15 00  	addi	a0, a0, 1
     b20: e3 1a 85 fe  	bne	a0, s0, 0xb14 <.LBB9_1>
     b24: 93 09 81 07  	addi	s3, sp, 120
     b28: 23 24 31 01  	sw	s3, 8(sp)
     b2c: 13 0a 81 05  	addi	s4, sp, 88
     b30: 23 26 41 01  	sw	s4, 12(sp)
     b34: 13 04 81 03  	addi	s0, sp, 56
     b38: 23 28 81 00  	sw	s0, 16(sp)
     b3c: 93 04 81 01  	addi	s1, sp, 24
     b40: 23 2a 91 00  	sw	s1, 20(sp)
     b44: 13 05 a0 01  	addi	a0, zero, 26
     b48: 93 05 81 09  	addi	a1, sp, 152
     b4c: 13 06 81 00  	addi	a2, sp, 8
     b50: e7 00 09 00  	jalr	s2
     b54: 13 05 00 00  	mv	a0, zero
     b58: 93 05 b1 09  	addi	a1, sp, 155
     b5c: 13 06 90 01  	addi	a2, zero, 25

00000b60 <.LBB9_3>:
     b60: 83 c6 d5 ff  	lbu	a3, -3(a1)
     b64: 03 c7 09 00  	lbu	a4, 0(s3)
     b68: 63 92 e6 06  	bne	a3, a4, 0xbcc <.LBB9_10>
     b6c: 83 c6 e5 ff  	lbu	a3, -2(a1)
     b70: 03 47 0a 00  	lbu	a4, 0(s4)
     b74: 63 9c e6 04  	bne	a3, a4, 0xbcc <.LBB9_10>
     b78: 83 c6 f5 ff  	lbu	a3, -1(a1)
     b7c: 03 47 04 00  	lbu	a4, 0(s0)
     b80: 63 96 e6 04  	bne	a3, a4, 0xbcc <.LBB9_10>
     b84: 83 c6 05 00  	lbu	a3, 0(a1)
     b88: 03 c7 04 00  	lbu	a4, 0(s1)
     b8c: 63 90 e6 04  	bne	a3, a4, 0xbcc <.LBB9_10>
     b90: 93 76 f5 0f  	andi	a3, a0, 255
     b94: 93 84 14 00  	addi	s1, s1, 1
     b98: 13 04 14 00  	addi	s0, s0, 1
     b9c: 13 0a 1a 00  	addi	s4, s4, 1
     ba0: 93 89 19 00  	addi	s3, s3, 1
     ba4: 93 85 45 00  	addi	a1, a1, 4
     ba8: 13 05 15 00  	addi	a0, a0, 1
     bac: e3 ea c6 fa  	bltu	a3, a2, 0xb60 <.LBB9_3>
     bb0: 83 45 21 09  	lbu	a1, 146(sp)
     bb4: 13 05 10 00  	addi	a0, zero, 1
     bb8: 63 8e 05 02  	beqz	a1, 0xbf4 <.LBB9_12>

00000bbc <.LBB9_9>:
     bbc: 93 05 00 00  	mv	a1, zero
     bc0: 13 45 f5 ff  	not	a0, a0
     bc4: 13 75 15 00  	andi	a0, a0, 1
     bc8: 6f 00 c0 00  	j	0xbd4 <.LBB9_11>

00000bcc <.LBB9_10>:
     bcc: 13 05 00 00  	mv	a0, zero
     bd0: 93 05 00 00  	mv	a1, zero

00000bd4 <.LBB9_11>:
     bd4: 03 2a 81 11  	lw	s4, 280(sp)
     bd8: 83 29 c1 11  	lw	s3, 284(sp)
     bdc: 03 29 01 12  	lw	s2, 288(sp)
     be0: 83 24 41 12  	lw	s1, 292(sp)
     be4: 03 24 81 12  	lw	s0, 296(sp)
     be8: 83 20 c1 12  	lw	ra, 300(sp)
     bec: 13 01 01 13  	addi	sp, sp, 304
     bf0: 67 80 00 00  	ret

00000bf4 <.LBB9_12>:
     bf4: 93 05 21 07  	addi	a1, sp, 114
     bf8: 13 06 21 05  	addi	a2, sp, 82
     bfc: 93 06 21 03  	addi	a3, sp, 50
     c00: 13 05 10 00  	addi	a0, zero, 1
     c04: 13 07 a0 01  	addi	a4, zero, 26
     c08: 93 07 e0 01  	addi	a5, zero, 30
     c0c: 93 04 81 07  	addi	s1, sp, 120

00000c10 <.LBB9_13>:
     c10: 03 c4 05 00  	lbu	s0, 0(a1)
     c14: e3 14 04 fa  	bnez	s0, 0xbbc <.LBB9_9>
     c18: 03 44 06 00  	lbu	s0, 0(a2)
     c1c: e3 10 04 fa  	bnez	s0, 0xbbc <.LBB9_9>
     c20: 03 c4 06 00  	lbu	s0, 0(a3)
     c24: e3 1c 04 f8  	bnez	s0, 0xbbc <.LBB9_9>
     c28: 13 74 f7 0f  	andi	s0, a4, 255
     c2c: 13 35 f4 01  	sltiu	a0, s0, 31
     c30: e3 e6 87 f8  	bltu	a5, s0, 0xbbc <.LBB9_9>
     c34: 13 07 17 00  	addi	a4, a4, 1
     c38: 13 74 f7 0f  	andi	s0, a4, 255
     c3c: 33 84 84 00  	add	s0, s1, s0
     c40: 03 44 04 00  	lbu	s0, 0(s0)
     c44: 93 85 15 00  	addi	a1, a1, 1
     c48: 13 06 16 00  	addi	a2, a2, 1
     c4c: 93 86 16 00  	addi	a3, a3, 1
     c50: e3 00 04 fc  	beqz	s0, 0xc10 <.LBB9_13>
     c54: 6f f0 9f f6  	j	0xbbc <.LBB9_9>

00000c58 <vector_memcpy_segmented_harness_uint16_t>:
     c58: 13 01 01 dd  	addi	sp, sp, -560
     c5c: 23 26 11 22  	sw	ra, 556(sp)
     c60: 23 24 81 22  	sw	s0, 552(sp)
     c64: 23 22 91 22  	sw	s1, 548(sp)
     c68: 23 20 21 23  	sw	s2, 544(sp)
     c6c: 23 2e 31 21  	sw	s3, 540(sp)
     c70: 23 2c 41 21  	sw	s4, 536(sp)
     c74: 13 09 05 00  	mv	s2, a0
     c78: 13 05 81 11  	addi	a0, sp, 280
     c7c: 13 06 00 10  	addi	a2, zero, 256
     c80: 13 04 81 11  	addi	s0, sp, 280
     c84: 93 05 00 00  	mv	a1, zero
     c88: 97 f0 ff ff  	auipc	ra, 1048575
     c8c: e7 80 c0 38  	jalr	908(ra)
     c90: 13 05 81 0d  	addi	a0, sp, 216
     c94: 13 06 00 04  	addi	a2, zero, 64
     c98: 93 05 00 00  	mv	a1, zero
     c9c: 97 f0 ff ff  	auipc	ra, 1048575
     ca0: e7 80 80 37  	jalr	888(ra)
     ca4: 13 05 81 09  	addi	a0, sp, 152
     ca8: 13 06 00 04  	addi	a2, zero, 64
     cac: 93 05 00 00  	mv	a1, zero
     cb0: 97 f0 ff ff  	auipc	ra, 1048575
     cb4: e7 80 40 36  	jalr	868(ra)
     cb8: 13 05 81 05  	addi	a0, sp, 88
     cbc: 13 06 00 04  	addi	a2, zero, 64
     cc0: 93 05 00 00  	mv	a1, zero
     cc4: 97 f0 ff ff  	auipc	ra, 1048575
     cc8: e7 80 00 35  	jalr	848(ra)
     ccc: 13 05 81 01  	addi	a0, sp, 24
     cd0: 13 06 00 04  	addi	a2, zero, 64
     cd4: 93 05 00 00  	mv	a1, zero
     cd8: 97 f0 ff ff  	auipc	ra, 1048575
     cdc: e7 80 c0 33  	jalr	828(ra)
     ce0: 13 05 00 00  	mv	a0, zero
     ce4: 93 05 00 08  	addi	a1, zero, 128

00000ce8 <.LBB10_1>:
     ce8: 23 10 a4 00  	sh	a0, 0(s0)
     cec: 13 05 15 00  	addi	a0, a0, 1
     cf0: 13 04 24 00  	addi	s0, s0, 2
     cf4: e3 1a b5 fe  	bne	a0, a1, 0xce8 <.LBB10_1>
     cf8: 93 09 81 0d  	addi	s3, sp, 216
     cfc: 23 24 31 01  	sw	s3, 8(sp)
     d00: 13 0a 81 09  	addi	s4, sp, 152
     d04: 23 26 41 01  	sw	s4, 12(sp)
     d08: 93 04 81 05  	addi	s1, sp, 88
     d0c: 23 28 91 00  	sw	s1, 16(sp)
     d10: 13 04 81 01  	addi	s0, sp, 24
     d14: 23 2a 81 00  	sw	s0, 20(sp)
     d18: 13 05 a0 01  	addi	a0, zero, 26
     d1c: 93 05 81 11  	addi	a1, sp, 280
     d20: 13 06 81 00  	addi	a2, sp, 8
     d24: e7 00 09 00  	jalr	s2
     d28: 13 05 00 00  	mv	a0, zero
     d2c: 93 05 c1 11  	addi	a1, sp, 284
     d30: 37 06 01 00  	lui	a2, 16
     d34: 13 06 f6 ff  	addi	a2, a2, -1
     d38: 93 06 90 01  	addi	a3, zero, 25

00000d3c <.LBB10_3>:
     d3c: 03 d7 c5 ff  	lhu	a4, -4(a1)
     d40: 83 d7 09 00  	lhu	a5, 0(s3)
     d44: 63 12 f7 06  	bne	a4, a5, 0xda8 <.LBB10_10>
     d48: 03 d7 e5 ff  	lhu	a4, -2(a1)
     d4c: 83 57 0a 00  	lhu	a5, 0(s4)
     d50: 63 1c f7 04  	bne	a4, a5, 0xda8 <.LBB10_10>
     d54: 03 d7 05 00  	lhu	a4, 0(a1)
     d58: 83 d7 04 00  	lhu	a5, 0(s1)
     d5c: 63 16 f7 04  	bne	a4, a5, 0xda8 <.LBB10_10>
     d60: 03 d7 25 00  	lhu	a4, 2(a1)
     d64: 83 57 04 00  	lhu	a5, 0(s0)
     d68: 63 10 f7 04  	bne	a4, a5, 0xda8 <.LBB10_10>
     d6c: 33 77 c5 00  	and	a4, a0, a2
     d70: 13 04 24 00  	addi	s0, s0, 2
     d74: 93 84 24 00  	addi	s1, s1, 2
     d78: 13 0a 2a 00  	addi	s4, s4, 2
     d7c: 93 89 29 00  	addi	s3, s3, 2
     d80: 93 85 85 00  	addi	a1, a1, 8
     d84: 13 05 15 00  	addi	a0, a0, 1
     d88: e3 6a d7 fa  	bltu	a4, a3, 0xd3c <.LBB10_3>
     d8c: 83 55 c1 10  	lhu	a1, 268(sp)
     d90: 13 05 10 00  	addi	a0, zero, 1
     d94: 63 8e 05 02  	beqz	a1, 0xdd0 <.LBB10_12>

00000d98 <.LBB10_9>:
     d98: 93 05 00 00  	mv	a1, zero
     d9c: 13 45 f5 ff  	not	a0, a0
     da0: 13 75 15 00  	andi	a0, a0, 1
     da4: 6f 00 c0 00  	j	0xdb0 <.LBB10_11>

00000da8 <.LBB10_10>:
     da8: 13 05 00 00  	mv	a0, zero
     dac: 93 05 00 00  	mv	a1, zero

00000db0 <.LBB10_11>:
     db0: 03 2a 81 21  	lw	s4, 536(sp)
     db4: 83 29 c1 21  	lw	s3, 540(sp)
     db8: 03 29 01 22  	lw	s2, 544(sp)
     dbc: 83 24 41 22  	lw	s1, 548(sp)
     dc0: 03 24 81 22  	lw	s0, 552(sp)
     dc4: 83 20 c1 22  	lw	ra, 556(sp)
     dc8: 13 01 01 23  	addi	sp, sp, 560
     dcc: 67 80 00 00  	ret

00000dd0 <.LBB10_12>:
     dd0: 93 05 c1 0c  	addi	a1, sp, 204
     dd4: 13 06 c1 08  	addi	a2, sp, 140
     dd8: 93 06 c1 04  	addi	a3, sp, 76
     ddc: 13 05 10 00  	addi	a0, zero, 1
     de0: 13 07 a0 01  	addi	a4, zero, 26
     de4: b7 07 01 00  	lui	a5, 16
     de8: 93 87 f7 ff  	addi	a5, a5, -1
     dec: 93 04 e0 01  	addi	s1, zero, 30
     df0: 13 08 81 0d  	addi	a6, sp, 216

00000df4 <.LBB10_13>:
     df4: 03 d4 05 00  	lhu	s0, 0(a1)
     df8: e3 10 04 fa  	bnez	s0, 0xd98 <.LBB10_9>
     dfc: 03 54 06 00  	lhu	s0, 0(a2)
     e00: e3 1c 04 f8  	bnez	s0, 0xd98 <.LBB10_9>
     e04: 03 d4 06 00  	lhu	s0, 0(a3)
     e08: e3 18 04 f8  	bnez	s0, 0xd98 <.LBB10_9>
     e0c: 33 74 f7 00  	and	s0, a4, a5
     e10: 13 35 f4 01  	sltiu	a0, s0, 31
     e14: e3 e2 84 f8  	bltu	s1, s0, 0xd98 <.LBB10_9>
     e18: 13 07 17 00  	addi	a4, a4, 1
     e1c: 33 74 f7 00  	and	s0, a4, a5
     e20: 13 14 14 00  	slli	s0, s0, 1
     e24: 33 04 88 00  	add	s0, a6, s0
     e28: 03 54 04 00  	lhu	s0, 0(s0)
     e2c: 93 85 25 00  	addi	a1, a1, 2
     e30: 13 06 26 00  	addi	a2, a2, 2
     e34: 93 86 26 00  	addi	a3, a3, 2
     e38: e3 0e 04 fa  	beqz	s0, 0xdf4 <.LBB10_13>
     e3c: 6f f0 df f5  	j	0xd98 <.LBB10_9>

00000e40 <vector_memcpy_segmented_harness_uint32_t>:
     e40: 13 01 01 bd  	addi	sp, sp, -1072
     e44: 23 26 11 42  	sw	ra, 1068(sp)
     e48: 23 24 81 42  	sw	s0, 1064(sp)
     e4c: 23 22 91 42  	sw	s1, 1060(sp)
     e50: 23 20 21 43  	sw	s2, 1056(sp)
     e54: 23 2e 31 41  	sw	s3, 1052(sp)
     e58: 23 2c 41 41  	sw	s4, 1048(sp)
     e5c: 13 09 05 00  	mv	s2, a0
     e60: 13 05 81 21  	addi	a0, sp, 536
     e64: 13 06 00 20  	addi	a2, zero, 512
     e68: 13 04 81 21  	addi	s0, sp, 536
     e6c: 93 05 00 00  	mv	a1, zero
     e70: 97 f0 ff ff  	auipc	ra, 1048575
     e74: e7 80 40 1a  	jalr	420(ra)
     e78: 13 05 81 19  	addi	a0, sp, 408
     e7c: 13 06 00 08  	addi	a2, zero, 128
     e80: 93 04 00 08  	addi	s1, zero, 128
     e84: 93 05 00 00  	mv	a1, zero
     e88: 97 f0 ff ff  	auipc	ra, 1048575
     e8c: e7 80 c0 18  	jalr	396(ra)
     e90: 13 05 81 11  	addi	a0, sp, 280
     e94: 13 06 00 08  	addi	a2, zero, 128
     e98: 93 05 00 00  	mv	a1, zero
     e9c: 97 f0 ff ff  	auipc	ra, 1048575
     ea0: e7 80 80 17  	jalr	376(ra)
     ea4: 13 05 81 09  	addi	a0, sp, 152
     ea8: 13 06 00 08  	addi	a2, zero, 128
     eac: 93 05 00 00  	mv	a1, zero
     eb0: 97 f0 ff ff  	auipc	ra, 1048575
     eb4: e7 80 40 16  	jalr	356(ra)
     eb8: 13 05 81 01  	addi	a0, sp, 24
     ebc: 13 06 00 08  	addi	a2, zero, 128
     ec0: 93 05 00 00  	mv	a1, zero
     ec4: 97 f0 ff ff  	auipc	ra, 1048575
     ec8: e7 80 00 15  	jalr	336(ra)
     ecc: 13 05 00 00  	mv	a0, zero

00000ed0 <.LBB11_1>:
     ed0: 23 20 a4 00  	sw	a0, 0(s0)
     ed4: 13 05 15 00  	addi	a0, a0, 1
     ed8: 13 04 44 00  	addi	s0, s0, 4
     edc: e3 1a 95 fe  	bne	a0, s1, 0xed0 <.LBB11_1>
     ee0: 93 09 81 19  	addi	s3, sp, 408
     ee4: 23 24 31 01  	sw	s3, 8(sp)
     ee8: 13 0a 81 11  	addi	s4, sp, 280
     eec: 23 26 41 01  	sw	s4, 12(sp)
     ef0: 93 04 81 09  	addi	s1, sp, 152
     ef4: 23 28 91 00  	sw	s1, 16(sp)
     ef8: 13 04 81 01  	addi	s0, sp, 24
     efc: 23 2a 81 00  	sw	s0, 20(sp)
     f00: 13 05 a0 01  	addi	a0, zero, 26
     f04: 93 05 81 21  	addi	a1, sp, 536
     f08: 13 06 81 00  	addi	a2, sp, 8
     f0c: e7 00 09 00  	jalr	s2
     f10: 13 05 00 00  	mv	a0, zero
     f14: 93 05 01 22  	addi	a1, sp, 544
     f18: 13 06 80 06  	addi	a2, zero, 104

00000f1c <.LBB11_3>:
     f1c: 83 a6 85 ff  	lw	a3, -8(a1)
     f20: 33 87 a9 00  	add	a4, s3, a0
     f24: 03 27 07 00  	lw	a4, 0(a4)
     f28: 63 9e e6 04  	bne	a3, a4, 0xf84 <.LBB11_10>
     f2c: 83 a6 c5 ff  	lw	a3, -4(a1)
     f30: 33 07 aa 00  	add	a4, s4, a0
     f34: 03 27 07 00  	lw	a4, 0(a4)
     f38: 63 96 e6 04  	bne	a3, a4, 0xf84 <.LBB11_10>
     f3c: 83 a6 05 00  	lw	a3, 0(a1)
     f40: 33 87 a4 00  	add	a4, s1, a0
     f44: 03 27 07 00  	lw	a4, 0(a4)
     f48: 63 9e e6 02  	bne	a3, a4, 0xf84 <.LBB11_10>
     f4c: 83 a6 45 00  	lw	a3, 4(a1)
     f50: 33 07 a4 00  	add	a4, s0, a0
     f54: 03 27 07 00  	lw	a4, 0(a4)
     f58: 63 96 e6 02  	bne	a3, a4, 0xf84 <.LBB11_10>
     f5c: 13 05 45 00  	addi	a0, a0, 4
     f60: 93 85 05 01  	addi	a1, a1, 16
     f64: e3 1c c5 fa  	bne	a0, a2, 0xf1c <.LBB11_3>
     f68: 83 25 01 20  	lw	a1, 512(sp)
     f6c: 13 05 10 00  	addi	a0, zero, 1
     f70: 63 8e 05 02  	beqz	a1, 0xfac <.LBB11_12>

00000f74 <.LBB11_9>:
     f74: 93 05 00 00  	mv	a1, zero
     f78: 13 45 f5 ff  	not	a0, a0
     f7c: 13 75 15 00  	andi	a0, a0, 1
     f80: 6f 00 c0 00  	j	0xf8c <.LBB11_11>

00000f84 <.LBB11_10>:
     f84: 13 05 00 00  	mv	a0, zero
     f88: 93 05 00 00  	mv	a1, zero

00000f8c <.LBB11_11>:
     f8c: 03 2a 81 41  	lw	s4, 1048(sp)
     f90: 83 29 c1 41  	lw	s3, 1052(sp)
     f94: 03 29 01 42  	lw	s2, 1056(sp)
     f98: 83 24 41 42  	lw	s1, 1060(sp)
     f9c: 03 24 81 42  	lw	s0, 1064(sp)
     fa0: 83 20 c1 42  	lw	ra, 1068(sp)
     fa4: 13 01 01 43  	addi	sp, sp, 1072
     fa8: 67 80 00 00  	ret

00000fac <.LBB11_12>:
     fac: 93 05 01 18  	addi	a1, sp, 384
     fb0: 13 06 01 10  	addi	a2, sp, 256
     fb4: 93 06 01 08  	addi	a3, sp, 128
     fb8: 13 07 41 20  	addi	a4, sp, 516
     fbc: 13 05 10 00  	addi	a0, zero, 1
     fc0: 93 07 a0 01  	addi	a5, zero, 26
     fc4: 93 04 f0 01  	addi	s1, zero, 31

00000fc8 <.LBB11_13>:
     fc8: 03 a4 05 00  	lw	s0, 0(a1)
     fcc: e3 14 04 fa  	bnez	s0, 0xf74 <.LBB11_9>
     fd0: 03 24 06 00  	lw	s0, 0(a2)
     fd4: e3 10 04 fa  	bnez	s0, 0xf74 <.LBB11_9>
     fd8: 03 a4 06 00  	lw	s0, 0(a3)
     fdc: e3 1c 04 f8  	bnez	s0, 0xf74 <.LBB11_9>
     fe0: 13 b5 f7 01  	sltiu	a0, a5, 31
     fe4: e3 88 97 f8  	beq	a5, s1, 0xf74 <.LBB11_9>
     fe8: 03 24 07 00  	lw	s0, 0(a4)
     fec: 93 85 45 00  	addi	a1, a1, 4
     ff0: 13 06 46 00  	addi	a2, a2, 4
     ff4: 93 86 46 00  	addi	a3, a3, 4
     ff8: 13 07 47 00  	addi	a4, a4, 4
     ffc: 93 87 17 00  	addi	a5, a5, 1
    1000: e3 04 04 fc  	beqz	s0, 0xfc8 <.LBB11_13>
    1004: 6f f0 1f f7  	j	0xf74 <.LBB11_9>

00001008 <vector_memcpy_segmented_harness_uint64_t>:
    1008: 13 01 01 81  	addi	sp, sp, -2032
    100c: 23 26 11 7e  	sw	ra, 2028(sp)
    1010: 23 24 81 7e  	sw	s0, 2024(sp)
    1014: 23 22 91 7e  	sw	s1, 2020(sp)
    1018: 23 20 21 7f  	sw	s2, 2016(sp)
    101c: 23 2e 31 7d  	sw	s3, 2012(sp)
    1020: 23 2c 41 7d  	sw	s4, 2008(sp)
    1024: 23 2a 51 7d  	sw	s5, 2004(sp)
    1028: 23 28 61 7d  	sw	s6, 2000(sp)
    102c: 23 26 71 7d  	sw	s7, 1996(sp)
    1030: 13 01 01 fb  	addi	sp, sp, -80
    1034: 13 09 05 00  	mv	s2, a0
    1038: 13 05 81 41  	addi	a0, sp, 1048
    103c: 13 06 00 40  	addi	a2, zero, 1024
    1040: 13 04 81 41  	addi	s0, sp, 1048
    1044: 93 05 00 00  	mv	a1, zero
    1048: 97 f0 ff ff  	auipc	ra, 1048575
    104c: e7 80 c0 fc  	jalr	-52(ra)
    1050: 13 05 81 31  	addi	a0, sp, 792
    1054: 13 06 00 10  	addi	a2, zero, 256
    1058: 93 05 00 00  	mv	a1, zero
    105c: 97 f0 ff ff  	auipc	ra, 1048575
    1060: e7 80 80 fb  	jalr	-72(ra)
    1064: 13 05 81 21  	addi	a0, sp, 536
    1068: 13 06 00 10  	addi	a2, zero, 256
    106c: 93 05 00 00  	mv	a1, zero
    1070: 97 f0 ff ff  	auipc	ra, 1048575
    1074: e7 80 40 fa  	jalr	-92(ra)
    1078: 13 05 81 11  	addi	a0, sp, 280
    107c: 13 06 00 10  	addi	a2, zero, 256
    1080: 93 05 00 00  	mv	a1, zero
    1084: 97 f0 ff ff  	auipc	ra, 1048575
    1088: e7 80 00 f9  	jalr	-112(ra)
    108c: 13 05 81 01  	addi	a0, sp, 24
    1090: 13 06 00 10  	addi	a2, zero, 256
    1094: 93 05 00 00  	mv	a1, zero
    1098: 97 f0 ff ff  	auipc	ra, 1048575
    109c: e7 80 c0 f7  	jalr	-132(ra)
    10a0: 93 05 00 00  	mv	a1, zero
    10a4: 13 05 00 00  	mv	a0, zero
    10a8: 6f 00 c0 01  	j	0x10c4 <.LBB12_3>

000010ac <.LBB12_1>:
    10ac: 13 06 00 00  	mv	a2, zero

000010b0 <.LBB12_2>:
    10b0: 93 86 15 00  	addi	a3, a1, 1
    10b4: b3 b5 b6 00  	sltu	a1, a3, a1
    10b8: 33 05 b5 00  	add	a0, a0, a1
    10bc: 93 85 06 00  	mv	a1, a3
    10c0: 63 02 06 02  	beqz	a2, 0x10e4 <.LBB12_5>

000010c4 <.LBB12_3>:
    10c4: 13 96 35 00  	slli	a2, a1, 3
    10c8: 33 06 c4 00  	add	a2, s0, a2
    10cc: 23 20 b6 00  	sw	a1, 0(a2)
    10d0: 13 66 46 00  	ori	a2, a2, 4
    10d4: 23 20 a6 00  	sw	a0, 0(a2)
    10d8: e3 1a 05 fc  	bnez	a0, 0x10ac <.LBB12_1>
    10dc: 13 b6 f5 07  	sltiu	a2, a1, 127
    10e0: 6f f0 1f fd  	j	0x10b0 <.LBB12_2>

000010e4 <.LBB12_5>:
    10e4: 13 0b 81 31  	addi	s6, sp, 792
    10e8: 23 24 61 01  	sw	s6, 8(sp)
    10ec: 93 0a 81 21  	addi	s5, sp, 536
    10f0: 23 26 51 01  	sw	s5, 12(sp)
    10f4: 93 09 81 11  	addi	s3, sp, 280
    10f8: 23 28 31 01  	sw	s3, 16(sp)
    10fc: 13 0a 81 01  	addi	s4, sp, 24
    1100: 23 2a 41 01  	sw	s4, 20(sp)
    1104: 13 05 a0 01  	addi	a0, zero, 26
    1108: 93 05 81 41  	addi	a1, sp, 1048
    110c: 13 06 81 00  	addi	a2, sp, 8
    1110: 93 0b 81 41  	addi	s7, sp, 1048
    1114: e7 00 09 00  	jalr	s2
    1118: 93 05 00 00  	mv	a1, zero
    111c: 13 05 00 00  	mv	a0, zero
    1120: 6f 00 c0 01  	j	0x113c <.LBB12_8>

00001124 <.LBB12_6>:
    1124: 13 06 00 00  	mv	a2, zero

00001128 <.LBB12_7>:
    1128: 93 86 15 00  	addi	a3, a1, 1
    112c: b3 b5 b6 00  	sltu	a1, a3, a1
    1130: 33 05 b5 00  	add	a0, a0, a1
    1134: 93 85 06 00  	mv	a1, a3
    1138: 63 02 06 12  	beqz	a2, 0x125c <.LBB12_16>

0000113c <.LBB12_8>:
    113c: 13 96 55 00  	slli	a2, a1, 5
    1140: 33 86 cb 00  	add	a2, s7, a2
    1144: 93 66 46 00  	ori	a3, a2, 4
    1148: 83 a6 06 00  	lw	a3, 0(a3)
    114c: 03 27 06 00  	lw	a4, 0(a2)
    1150: 13 96 35 00  	slli	a2, a1, 3
    1154: b3 07 cb 00  	add	a5, s6, a2
    1158: 93 e4 47 00  	ori	s1, a5, 4
    115c: 83 a7 07 00  	lw	a5, 0(a5)
    1160: 83 a4 04 00  	lw	s1, 0(s1)
    1164: 33 47 f7 00  	xor	a4, a4, a5
    1168: b3 c6 96 00  	xor	a3, a3, s1
    116c: b3 66 d7 00  	or	a3, a4, a3
    1170: 63 9a 06 0a  	bnez	a3, 0x1224 <.LBB12_14>
    1174: 93 96 25 00  	slli	a3, a1, 2
    1178: 93 96 36 00  	slli	a3, a3, 3
    117c: 13 e7 86 00  	ori	a4, a3, 8
    1180: 33 87 eb 00  	add	a4, s7, a4
    1184: 93 67 47 00  	ori	a5, a4, 4
    1188: 83 a7 07 00  	lw	a5, 0(a5)
    118c: 03 27 07 00  	lw	a4, 0(a4)
    1190: b3 84 ca 00  	add	s1, s5, a2
    1194: 13 e4 44 00  	ori	s0, s1, 4
    1198: 83 a4 04 00  	lw	s1, 0(s1)
    119c: 03 24 04 00  	lw	s0, 0(s0)
    11a0: 33 47 97 00  	xor	a4, a4, s1
    11a4: b3 c7 87 00  	xor	a5, a5, s0
    11a8: 33 67 f7 00  	or	a4, a4, a5
    11ac: 63 1c 07 06  	bnez	a4, 0x1224 <.LBB12_14>
    11b0: 13 e7 06 01  	ori	a4, a3, 16
    11b4: 33 87 eb 00  	add	a4, s7, a4
    11b8: 93 67 47 00  	ori	a5, a4, 4
    11bc: 83 a7 07 00  	lw	a5, 0(a5)
    11c0: 03 27 07 00  	lw	a4, 0(a4)
    11c4: b3 84 c9 00  	add	s1, s3, a2
    11c8: 13 e4 44 00  	ori	s0, s1, 4
    11cc: 83 a4 04 00  	lw	s1, 0(s1)
    11d0: 03 24 04 00  	lw	s0, 0(s0)
    11d4: 33 47 97 00  	xor	a4, a4, s1
    11d8: b3 c7 87 00  	xor	a5, a5, s0
    11dc: 33 67 f7 00  	or	a4, a4, a5
    11e0: 63 12 07 04  	bnez	a4, 0x1224 <.LBB12_14>
    11e4: 93 e6 86 01  	ori	a3, a3, 24
    11e8: b3 86 db 00  	add	a3, s7, a3
    11ec: 13 e7 46 00  	ori	a4, a3, 4
    11f0: 03 27 07 00  	lw	a4, 0(a4)
    11f4: 83 a6 06 00  	lw	a3, 0(a3)
    11f8: 33 06 ca 00  	add	a2, s4, a2
    11fc: 93 67 46 00  	ori	a5, a2, 4
    1200: 03 26 06 00  	lw	a2, 0(a2)
    1204: 83 a7 07 00  	lw	a5, 0(a5)
    1208: 33 c6 c6 00  	xor	a2, a3, a2
    120c: b3 46 f7 00  	xor	a3, a4, a5
    1210: 33 66 d6 00  	or	a2, a2, a3
    1214: 63 18 06 00  	bnez	a2, 0x1224 <.LBB12_14>
    1218: e3 16 05 f0  	bnez	a0, 0x1124 <.LBB12_6>
    121c: 13 b6 95 01  	sltiu	a2, a1, 25
    1220: 6f f0 9f f0  	j	0x1128 <.LBB12_7>

00001224 <.LBB12_14>:
    1224: 13 05 00 00  	mv	a0, zero
    1228: 93 05 00 00  	mv	a1, zero

0000122c <.LBB12_15>:
    122c: 13 01 01 05  	addi	sp, sp, 80
    1230: 83 2b c1 7c  	lw	s7, 1996(sp)
    1234: 03 2b 01 7d  	lw	s6, 2000(sp)
    1238: 83 2a 41 7d  	lw	s5, 2004(sp)
    123c: 03 2a 81 7d  	lw	s4, 2008(sp)
    1240: 83 29 c1 7d  	lw	s3, 2012(sp)
    1244: 03 29 01 7e  	lw	s2, 2016(sp)
    1248: 83 24 41 7e  	lw	s1, 2020(sp)
    124c: 03 24 81 7e  	lw	s0, 2024(sp)
    1250: 83 20 c1 7e  	lw	ra, 2028(sp)
    1254: 13 01 01 7f  	addi	sp, sp, 2032
    1258: 67 80 00 00  	ret

0000125c <.LBB12_16>:
    125c: 03 25 c1 3e  	lw	a0, 1004(sp)
    1260: 83 25 81 3e  	lw	a1, 1000(sp)
    1264: b3 e5 a5 00  	or	a1, a1, a0
    1268: 93 02 10 00  	addi	t0, zero, 1
    126c: 63 8a 05 00  	beqz	a1, 0x1280 <.LBB12_18>

00001270 <.LBB12_17>:
    1270: 93 05 00 00  	mv	a1, zero
    1274: 13 c5 f2 ff  	not	a0, t0
    1278: 13 75 15 00  	andi	a0, a0, 1
    127c: 6f f0 1f fb  	j	0x122c <.LBB12_15>

00001280 <.LBB12_18>:
    1280: 93 05 00 00  	mv	a1, zero
    1284: 13 06 81 2e  	addi	a2, sp, 744
    1288: 93 06 81 1e  	addi	a3, sp, 488
    128c: 13 07 81 0e  	addi	a4, sp, 232
    1290: 13 04 a0 01  	addi	s0, zero, 26
    1294: 93 02 10 00  	addi	t0, zero, 1
    1298: 13 08 e0 01  	addi	a6, zero, 30
    129c: 93 08 81 31  	addi	a7, sp, 792

000012a0 <.LBB12_19>:
    12a0: 03 25 46 00  	lw	a0, 4(a2)
    12a4: 83 27 06 00  	lw	a5, 0(a2)
    12a8: 33 e5 a7 00  	or	a0, a5, a0
    12ac: e3 12 05 fc  	bnez	a0, 0x1270 <.LBB12_17>
    12b0: 03 a5 46 00  	lw	a0, 4(a3)
    12b4: 83 a7 06 00  	lw	a5, 0(a3)
    12b8: 33 e5 a7 00  	or	a0, a5, a0
    12bc: e3 1a 05 fa  	bnez	a0, 0x1270 <.LBB12_17>
    12c0: 03 25 47 00  	lw	a0, 4(a4)
    12c4: 83 27 07 00  	lw	a5, 0(a4)
    12c8: 33 e5 a7 00  	or	a0, a5, a0
    12cc: e3 12 05 fa  	bnez	a0, 0x1270 <.LBB12_17>
    12d0: 63 88 05 00  	beqz	a1, 0x12e0 <.LBB12_24>
    12d4: 93 02 00 00  	mv	t0, zero
    12d8: b3 37 b0 00  	snez	a5, a1
    12dc: 6f 00 c0 00  	j	0x12e8 <.LBB12_25>

000012e0 <.LBB12_24>:
    12e0: 93 32 f4 01  	sltiu	t0, s0, 31
    12e4: b3 37 88 00  	sltu	a5, a6, s0

000012e8 <.LBB12_25>:
    12e8: e3 94 07 f8  	bnez	a5, 0x1270 <.LBB12_17>
    12ec: 93 07 14 00  	addi	a5, s0, 1
    12f0: 93 94 37 00  	slli	s1, a5, 3
    12f4: b3 84 98 00  	add	s1, a7, s1
    12f8: 03 a5 04 00  	lw	a0, 0(s1)
    12fc: 93 e4 44 00  	ori	s1, s1, 4
    1300: 83 a4 04 00  	lw	s1, 0(s1)
    1304: 33 b4 87 00  	sltu	s0, a5, s0
    1308: b3 85 85 00  	add	a1, a1, s0
    130c: 33 65 95 00  	or	a0, a0, s1
    1310: 13 06 86 00  	addi	a2, a2, 8
    1314: 93 86 86 00  	addi	a3, a3, 8
    1318: 13 07 87 00  	addi	a4, a4, 8
    131c: 13 84 07 00  	mv	s0, a5
    1320: e3 00 05 f8  	beqz	a0, 0x12a0 <.LBB12_19>
    1324: 6f f0 df f4  	j	0x1270 <.LBB12_17>

00001328 <vector_memcpy_unit_stride_e8m8>:
    1328: 6f 00 c0 00  	j	0x1334 <.LBB13_2>

0000132c <.LBB13_1>:
    132c: 93 b6 16 00  	seqz	a3, a3
    1330: 63 92 06 02  	bnez	a3, 0x1354 <.LBB13_4>

00001334 <.LBB13_2>:
    1334: d7 76 35 04  	<unknown>
    1338: e3 8a 06 fe  	beqz	a3, 0x132c <.LBB13_1>
    133c: 07 84 05 02  	<unknown>
    1340: 27 04 06 02  	<unknown>
    1344: b3 85 d5 00  	add	a1, a1, a3
    1348: 33 06 d6 00  	add	a2, a2, a3
    134c: 33 05 d5 40  	sub	a0, a0, a3
    1350: 6f f0 df fd  	j	0x132c <.LBB13_1>

00001354 <.LBB13_4>:
    1354: 67 80 00 00  	ret

00001358 <vector_memcpy_unit_stride_e16m8>:
    1358: 6f 00 c0 00  	j	0x1364 <.LBB14_2>

0000135c <.LBB14_1>:
    135c: 93 b6 16 00  	seqz	a3, a3
    1360: 63 94 06 02  	bnez	a3, 0x1388 <.LBB14_4>

00001364 <.LBB14_2>:
    1364: d7 76 b5 04  	<unknown>
    1368: e3 8a 06 fe  	beqz	a3, 0x135c <.LBB14_1>
    136c: 07 d4 05 02  	<unknown>
    1370: 27 54 06 02  	<unknown>
    1374: 13 97 16 00  	slli	a4, a3, 1
    1378: b3 85 e5 00  	add	a1, a1, a4
    137c: 33 06 e6 00  	add	a2, a2, a4
    1380: 33 05 d5 40  	sub	a0, a0, a3
    1384: 6f f0 9f fd  	j	0x135c <.LBB14_1>

00001388 <.LBB14_4>:
    1388: 67 80 00 00  	ret

0000138c <vector_memcpy_unit_stride_e32m8>:
    138c: 6f 00 c0 00  	j	0x1398 <.LBB15_2>

00001390 <.LBB15_1>:
    1390: 93 b6 16 00  	seqz	a3, a3
    1394: 63 94 06 02  	bnez	a3, 0x13bc <.LBB15_4>

00001398 <.LBB15_2>:
    1398: d7 76 35 05  	<unknown>
    139c: e3 8a 06 fe  	beqz	a3, 0x1390 <.LBB15_1>
    13a0: 07 e4 05 02  	<unknown>
    13a4: 27 64 06 02  	<unknown>
    13a8: 13 97 26 00  	slli	a4, a3, 2
    13ac: b3 85 e5 00  	add	a1, a1, a4
    13b0: 33 06 e6 00  	add	a2, a2, a4
    13b4: 33 05 d5 40  	sub	a0, a0, a3
    13b8: 6f f0 9f fd  	j	0x1390 <.LBB15_1>

000013bc <.LBB15_4>:
    13bc: 67 80 00 00  	ret

000013c0 <vector_memcpy_unit_stride_e32mf2>:
    13c0: 6f 00 c0 00  	j	0x13cc <.LBB16_2>

000013c4 <.LBB16_1>:
    13c4: 93 b6 16 00  	seqz	a3, a3
    13c8: 63 94 06 02  	bnez	a3, 0x13f0 <.LBB16_4>

000013cc <.LBB16_2>:
    13cc: d7 76 75 05  	<unknown>
    13d0: e3 8a 06 fe  	beqz	a3, 0x13c4 <.LBB16_1>
    13d4: 87 ec 05 02  	<unknown>
    13d8: a7 6c 06 02  	<unknown>
    13dc: 13 97 26 00  	slli	a4, a3, 2
    13e0: b3 85 e5 00  	add	a1, a1, a4
    13e4: 33 06 e6 00  	add	a2, a2, a4
    13e8: 33 05 d5 40  	sub	a0, a0, a3
    13ec: 6f f0 9f fd  	j	0x13c4 <.LBB16_1>

000013f0 <.LBB16_4>:
    13f0: 67 80 00 00  	ret

000013f4 <vector_memcpy_unit_stride_e64m2>:
    13f4: 6f 00 c0 00  	j	0x1400 <.LBB17_2>

000013f8 <.LBB17_1>:
    13f8: 93 b6 16 00  	seqz	a3, a3
    13fc: 63 94 06 02  	bnez	a3, 0x1424 <.LBB17_4>

00001400 <.LBB17_2>:
    1400: d7 76 95 05  	<unknown>
    1404: e3 8a 06 fe  	beqz	a3, 0x13f8 <.LBB17_1>
    1408: 07 fd 05 02  	<unknown>
    140c: 27 7d 06 02  	<unknown>
    1410: 13 97 36 00  	slli	a4, a3, 3
    1414: b3 85 e5 00  	add	a1, a1, a4
    1418: 33 06 e6 00  	add	a2, a2, a4
    141c: 33 05 d5 40  	sub	a0, a0, a3
    1420: 6f f0 9f fd  	j	0x13f8 <.LBB17_1>

00001424 <.LBB17_4>:
    1424: 67 80 00 00  	ret

00001428 <vector_memcpy_strided_e8m8>:
    1428: 93 08 40 00  	addi	a7, zero, 4
    142c: 6f 00 40 02  	j	0x1450 <.LBB18_4>

00001430 <.LBB18_1>:
    1430: 07 84 05 02  	<unknown>
    1434: 27 04 06 02  	<unknown>
    1438: 13 08 07 00  	mv	a6, a4

0000143c <.LBB18_2>:
    143c: 33 05 05 41  	sub	a0, a0, a6
    1440: b3 85 05 01  	add	a1, a1, a6
    1444: 33 06 06 01  	add	a2, a2, a6

00001448 <.LBB18_3>:
    1448: 93 36 17 00  	seqz	a3, a4
    144c: 63 9c 06 02  	bnez	a3, 0x1484 <.LBB18_8>

00001450 <.LBB18_4>:
    1450: 57 77 35 04  	<unknown>
    1454: e3 0a 07 fe  	beqz	a4, 0x1448 <.LBB18_3>
    1458: 13 18 27 00  	slli	a6, a4, 2
    145c: e3 7a a8 fc  	bgeu	a6, a0, 0x1430 <.LBB18_1>
    1460: 93 07 00 00  	mv	a5, zero

00001464 <.LBB18_7>:
    1464: b3 86 f5 00  	add	a3, a1, a5
    1468: 57 70 37 04  	<unknown>
    146c: 07 84 16 0b  	<unknown>
    1470: b3 06 f6 00  	add	a3, a2, a5
    1474: 93 87 17 00  	addi	a5, a5, 1
    1478: 27 84 16 0b  	<unknown>
    147c: e3 94 17 ff  	bne	a5, a7, 0x1464 <.LBB18_7>
    1480: 6f f0 df fb  	j	0x143c <.LBB18_2>

00001484 <.LBB18_8>:
    1484: 67 80 00 00  	ret

00001488 <vector_memcpy_strided_e16m8>:
    1488: 93 08 80 00  	addi	a7, zero, 8
    148c: 6f 00 80 02  	j	0x14b4 <.LBB19_4>

00001490 <.LBB19_1>:
    1490: 07 d4 05 02  	<unknown>
    1494: 27 54 06 02  	<unknown>
    1498: 13 08 07 00  	mv	a6, a4

0000149c <.LBB19_2>:
    149c: 33 05 05 41  	sub	a0, a0, a6
    14a0: 93 16 18 00  	slli	a3, a6, 1
    14a4: b3 85 d5 00  	add	a1, a1, a3
    14a8: 33 06 d6 00  	add	a2, a2, a3

000014ac <.LBB19_3>:
    14ac: 93 36 17 00  	seqz	a3, a4
    14b0: 63 9c 06 02  	bnez	a3, 0x14e8 <.LBB19_8>

000014b4 <.LBB19_4>:
    14b4: 57 77 b5 04  	<unknown>
    14b8: e3 0a 07 fe  	beqz	a4, 0x14ac <.LBB19_3>
    14bc: 13 18 27 00  	slli	a6, a4, 2
    14c0: e3 78 a8 fc  	bgeu	a6, a0, 0x1490 <.LBB19_1>
    14c4: 93 07 00 00  	mv	a5, zero

000014c8 <.LBB19_7>:
    14c8: b3 86 f5 00  	add	a3, a1, a5
    14cc: 57 70 b7 04  	<unknown>
    14d0: 07 d4 16 0b  	<unknown>
    14d4: b3 06 f6 00  	add	a3, a2, a5
    14d8: 93 87 27 00  	addi	a5, a5, 2
    14dc: 27 d4 16 0b  	<unknown>
    14e0: e3 94 17 ff  	bne	a5, a7, 0x14c8 <.LBB19_7>
    14e4: 6f f0 9f fb  	j	0x149c <.LBB19_2>

000014e8 <.LBB19_8>:
    14e8: 67 80 00 00  	ret

000014ec <vector_memcpy_strided_e32m8>:
    14ec: 93 08 00 01  	addi	a7, zero, 16
    14f0: 6f 00 80 02  	j	0x1518 <.LBB20_4>

000014f4 <.LBB20_1>:
    14f4: 07 e4 05 02  	<unknown>
    14f8: 27 64 06 02  	<unknown>
    14fc: 13 08 07 00  	mv	a6, a4

00001500 <.LBB20_2>:
    1500: 33 05 05 41  	sub	a0, a0, a6
    1504: 93 16 28 00  	slli	a3, a6, 2
    1508: b3 85 d5 00  	add	a1, a1, a3
    150c: 33 06 d6 00  	add	a2, a2, a3

00001510 <.LBB20_3>:
    1510: 93 36 17 00  	seqz	a3, a4
    1514: 63 9c 06 02  	bnez	a3, 0x154c <.LBB20_8>

00001518 <.LBB20_4>:
    1518: 57 77 35 05  	<unknown>
    151c: e3 0a 07 fe  	beqz	a4, 0x1510 <.LBB20_3>
    1520: 13 18 27 00  	slli	a6, a4, 2
    1524: e3 78 a8 fc  	bgeu	a6, a0, 0x14f4 <.LBB20_1>
    1528: 93 07 00 00  	mv	a5, zero

0000152c <.LBB20_7>:
    152c: b3 86 f5 00  	add	a3, a1, a5
    1530: 57 70 37 05  	<unknown>
    1534: 07 e4 16 0b  	<unknown>
    1538: b3 06 f6 00  	add	a3, a2, a5
    153c: 93 87 47 00  	addi	a5, a5, 4
    1540: 27 e4 16 0b  	<unknown>
    1544: e3 94 17 ff  	bne	a5, a7, 0x152c <.LBB20_7>
    1548: 6f f0 9f fb  	j	0x1500 <.LBB20_2>

0000154c <.LBB20_8>:
    154c: 67 80 00 00  	ret

00001550 <vector_memcpy_strided_e32mf2>:
    1550: 93 08 00 01  	addi	a7, zero, 16
    1554: 6f 00 80 02  	j	0x157c <.LBB21_4>

00001558 <.LBB21_1>:
    1558: 87 ec 05 02  	<unknown>
    155c: a7 6c 06 02  	<unknown>
    1560: 13 08 07 00  	mv	a6, a4

00001564 <.LBB21_2>:
    1564: 33 05 05 41  	sub	a0, a0, a6
    1568: 93 16 28 00  	slli	a3, a6, 2
    156c: b3 85 d5 00  	add	a1, a1, a3
    1570: 33 06 d6 00  	add	a2, a2, a3

00001574 <.LBB21_3>:
    1574: 93 36 17 00  	seqz	a3, a4
    1578: 63 9c 06 02  	bnez	a3, 0x15b0 <.LBB21_8>

0000157c <.LBB21_4>:
    157c: 57 77 75 05  	<unknown>
    1580: e3 0a 07 fe  	beqz	a4, 0x1574 <.LBB21_3>
    1584: 13 18 27 00  	slli	a6, a4, 2
    1588: e3 78 a8 fc  	bgeu	a6, a0, 0x1558 <.LBB21_1>
    158c: 93 07 00 00  	mv	a5, zero

00001590 <.LBB21_7>:
    1590: b3 86 f5 00  	add	a3, a1, a5
    1594: 57 70 77 05  	<unknown>
    1598: 87 ec 16 0b  	<unknown>
    159c: b3 06 f6 00  	add	a3, a2, a5
    15a0: 93 87 47 00  	addi	a5, a5, 4
    15a4: a7 ec 16 0b  	<unknown>
    15a8: e3 94 17 ff  	bne	a5, a7, 0x1590 <.LBB21_7>
    15ac: 6f f0 9f fb  	j	0x1564 <.LBB21_2>

000015b0 <.LBB21_8>:
    15b0: 67 80 00 00  	ret

000015b4 <vector_memcpy_strided_e64m2>:
    15b4: 93 08 00 02  	addi	a7, zero, 32
    15b8: 6f 00 80 02  	j	0x15e0 <.LBB22_4>

000015bc <.LBB22_1>:
    15bc: 07 fd 05 02  	<unknown>
    15c0: 27 7d 06 02  	<unknown>
    15c4: 13 08 07 00  	mv	a6, a4

000015c8 <.LBB22_2>:
    15c8: 33 05 05 41  	sub	a0, a0, a6
    15cc: 93 16 38 00  	slli	a3, a6, 3
    15d0: b3 85 d5 00  	add	a1, a1, a3
    15d4: 33 06 d6 00  	add	a2, a2, a3

000015d8 <.LBB22_3>:
    15d8: 93 36 17 00  	seqz	a3, a4
    15dc: 63 9c 06 02  	bnez	a3, 0x1614 <.LBB22_8>

000015e0 <.LBB22_4>:
    15e0: 57 77 95 05  	<unknown>
    15e4: e3 0a 07 fe  	beqz	a4, 0x15d8 <.LBB22_3>
    15e8: 13 18 27 00  	slli	a6, a4, 2
    15ec: e3 78 a8 fc  	bgeu	a6, a0, 0x15bc <.LBB22_1>
    15f0: 93 07 00 00  	mv	a5, zero

000015f4 <.LBB22_7>:
    15f4: b3 86 f5 00  	add	a3, a1, a5
    15f8: 57 70 97 05  	<unknown>
    15fc: 07 fd 16 0b  	<unknown>
    1600: b3 06 f6 00  	add	a3, a2, a5
    1604: 93 87 87 00  	addi	a5, a5, 8
    1608: 27 fd 16 0b  	<unknown>
    160c: e3 94 17 ff  	bne	a5, a7, 0x15f4 <.LBB22_7>
    1610: 6f f0 9f fb  	j	0x15c8 <.LBB22_2>

00001614 <.LBB22_8>:
    1614: 67 80 00 00  	ret

00001618 <vector_memcpy_indexed_e8m8>:
    1618: 13 01 01 f6  	addi	sp, sp, -160
    161c: 23 2e 11 08  	sw	ra, 156(sp)
    1620: 23 2c 81 08  	sw	s0, 152(sp)
    1624: 23 2a 91 08  	sw	s1, 148(sp)
    1628: 23 28 21 09  	sw	s2, 144(sp)
    162c: 23 26 31 09  	sw	s3, 140(sp)
    1630: 23 24 41 09  	sw	s4, 136(sp)
    1634: 13 09 06 00  	mv	s2, a2
    1638: 93 84 05 00  	mv	s1, a1
    163c: 13 04 05 00  	mv	s0, a0
    1640: d7 79 30 04  	<unknown>
    1644: 13 05 81 00  	addi	a0, sp, 8
    1648: 13 06 00 08  	addi	a2, zero, 128
    164c: 13 0a 81 00  	addi	s4, sp, 8
    1650: 93 05 00 00  	mv	a1, zero
    1654: 97 f0 ff ff  	auipc	ra, 1048575
    1658: e7 80 00 9c  	jalr	-1600(ra)
    165c: 63 8e 09 00  	beqz	s3, 0x1678 <.LBB23_3>
    1660: 13 05 00 00  	mv	a0, zero

00001664 <.LBB23_2>:
    1664: 93 45 15 00  	xori	a1, a0, 1
    1668: 33 06 aa 00  	add	a2, s4, a0
    166c: 13 05 15 00  	addi	a0, a0, 1
    1670: 23 00 b6 00  	sb	a1, 0(a2)
    1674: e3 98 a9 fe  	bne	s3, a0, 0x1664 <.LBB23_2>

00001678 <.LBB23_3>:
    1678: 57 f0 39 04  	<unknown>
    167c: 13 05 81 00  	addi	a0, sp, 8
    1680: 07 04 05 02  	<unknown>
    1684: 6f 00 00 02  	j	0x16a4 <.LBB23_7>

00001688 <.LBB23_4>:
    1688: 07 88 04 02  	<unknown>
    168c: 27 08 09 02  	<unknown>

00001690 <.LBB23_5>:
    1690: b3 84 a4 00  	add	s1, s1, a0
    1694: 33 09 a9 00  	add	s2, s2, a0
    1698: 33 04 a4 40  	sub	s0, s0, a0

0000169c <.LBB23_6>:
    169c: 13 35 15 00  	seqz	a0, a0
    16a0: 63 1e 05 00  	bnez	a0, 0x16bc <.LBB23_10>

000016a4 <.LBB23_7>:
    16a4: 57 75 34 04  	<unknown>
    16a8: e3 0a 05 fe  	beqz	a0, 0x169c <.LBB23_6>
    16ac: e3 1e 35 fd  	bne	a0, s3, 0x1688 <.LBB23_4>
    16b0: 07 88 84 06  	<unknown>
    16b4: 27 08 89 06  	<unknown>
    16b8: 6f f0 9f fd  	j	0x1690 <.LBB23_5>

000016bc <.LBB23_10>:
    16bc: 03 2a 81 08  	lw	s4, 136(sp)
    16c0: 83 29 c1 08  	lw	s3, 140(sp)
    16c4: 03 29 01 09  	lw	s2, 144(sp)
    16c8: 83 24 41 09  	lw	s1, 148(sp)
    16cc: 03 24 81 09  	lw	s0, 152(sp)
    16d0: 83 20 c1 09  	lw	ra, 156(sp)
    16d4: 13 01 01 0a  	addi	sp, sp, 160
    16d8: 67 80 00 00  	ret

000016dc <vector_memcpy_indexed_e16m8>:
    16dc: 13 01 01 ee  	addi	sp, sp, -288
    16e0: 23 2e 11 10  	sw	ra, 284(sp)
    16e4: 23 2c 81 10  	sw	s0, 280(sp)
    16e8: 23 2a 91 10  	sw	s1, 276(sp)
    16ec: 23 28 21 11  	sw	s2, 272(sp)
    16f0: 23 26 31 11  	sw	s3, 268(sp)
    16f4: 23 24 41 11  	sw	s4, 264(sp)
    16f8: 13 09 06 00  	mv	s2, a2
    16fc: 13 8a 05 00  	mv	s4, a1
    1700: 13 04 05 00  	mv	s0, a0
    1704: d7 79 b0 04  	<unknown>
    1708: 13 05 81 00  	addi	a0, sp, 8
    170c: 13 06 00 10  	addi	a2, zero, 256
    1710: 93 04 81 00  	addi	s1, sp, 8
    1714: 93 05 00 00  	mv	a1, zero
    1718: 97 f0 ff ff  	auipc	ra, 1048575
    171c: e7 80 c0 8f  	jalr	-1796(ra)
    1720: 63 80 09 02  	beqz	s3, 0x1740 <.LBB24_3>
    1724: 13 05 00 00  	mv	a0, zero

00001728 <.LBB24_2>:
    1728: 93 15 15 00  	slli	a1, a0, 1
    172c: 93 c5 25 00  	xori	a1, a1, 2
    1730: 23 90 b4 00  	sh	a1, 0(s1)
    1734: 13 05 15 00  	addi	a0, a0, 1
    1738: 93 84 24 00  	addi	s1, s1, 2
    173c: e3 96 a9 fe  	bne	s3, a0, 0x1728 <.LBB24_2>

00001740 <.LBB24_3>:
    1740: 57 f0 b9 04  	<unknown>
    1744: 13 05 81 00  	addi	a0, sp, 8
    1748: 07 54 05 02  	<unknown>
    174c: 6f 00 40 02  	j	0x1770 <.LBB24_7>

00001750 <.LBB24_4>:
    1750: 07 58 0a 02  	<unknown>
    1754: 27 58 09 02  	<unknown>

00001758 <.LBB24_5>:
    1758: 93 15 15 00  	slli	a1, a0, 1
    175c: 33 0a ba 00  	add	s4, s4, a1
    1760: 33 09 b9 00  	add	s2, s2, a1
    1764: 33 04 a4 40  	sub	s0, s0, a0

00001768 <.LBB24_6>:
    1768: 13 35 15 00  	seqz	a0, a0
    176c: 63 1e 05 00  	bnez	a0, 0x1788 <.LBB24_10>

00001770 <.LBB24_7>:
    1770: 57 75 b4 04  	<unknown>
    1774: e3 0a 05 fe  	beqz	a0, 0x1768 <.LBB24_6>
    1778: e3 1c 35 fd  	bne	a0, s3, 0x1750 <.LBB24_4>
    177c: 07 58 8a 06  	<unknown>
    1780: 27 58 89 06  	<unknown>
    1784: 6f f0 5f fd  	j	0x1758 <.LBB24_5>

00001788 <.LBB24_10>:
    1788: 03 2a 81 10  	lw	s4, 264(sp)
    178c: 83 29 c1 10  	lw	s3, 268(sp)
    1790: 03 29 01 11  	lw	s2, 272(sp)
    1794: 83 24 41 11  	lw	s1, 276(sp)
    1798: 03 24 81 11  	lw	s0, 280(sp)
    179c: 83 20 c1 11  	lw	ra, 284(sp)
    17a0: 13 01 01 12  	addi	sp, sp, 288
    17a4: 67 80 00 00  	ret

000017a8 <vector_memcpy_indexed_e32m8>:
    17a8: 13 01 01 de  	addi	sp, sp, -544
    17ac: 23 2e 11 20  	sw	ra, 540(sp)
    17b0: 23 2c 81 20  	sw	s0, 536(sp)
    17b4: 23 2a 91 20  	sw	s1, 532(sp)
    17b8: 23 28 21 21  	sw	s2, 528(sp)
    17bc: 23 26 31 21  	sw	s3, 524(sp)
    17c0: 23 24 41 21  	sw	s4, 520(sp)
    17c4: 13 09 06 00  	mv	s2, a2
    17c8: 93 84 05 00  	mv	s1, a1
    17cc: 13 04 05 00  	mv	s0, a0
    17d0: d7 79 30 05  	<unknown>
    17d4: 13 05 81 00  	addi	a0, sp, 8
    17d8: 13 06 00 20  	addi	a2, zero, 512
    17dc: 13 0a 81 00  	addi	s4, sp, 8
    17e0: 93 05 00 00  	mv	a1, zero
    17e4: 97 f0 ff ff  	auipc	ra, 1048575
    17e8: e7 80 00 83  	jalr	-2000(ra)
    17ec: 63 82 09 02  	beqz	s3, 0x1810 <.LBB25_3>
    17f0: 13 05 00 00  	mv	a0, zero
    17f4: 93 85 09 00  	mv	a1, s3

000017f8 <.LBB25_2>:
    17f8: 13 46 45 00  	xori	a2, a0, 4
    17fc: b3 06 aa 00  	add	a3, s4, a0
    1800: 23 a0 c6 00  	sw	a2, 0(a3)
    1804: 93 85 f5 ff  	addi	a1, a1, -1
    1808: 13 05 45 00  	addi	a0, a0, 4
    180c: e3 96 05 fe  	bnez	a1, 0x17f8 <.LBB25_2>

00001810 <.LBB25_3>:
    1810: 57 f0 39 05  	<unknown>
    1814: 13 05 81 00  	addi	a0, sp, 8
    1818: 07 64 05 02  	<unknown>
    181c: 6f 00 40 02  	j	0x1840 <.LBB25_7>

00001820 <.LBB25_4>:
    1820: 07 e8 04 02  	<unknown>
    1824: 27 68 09 02  	<unknown>

00001828 <.LBB25_5>:
    1828: 93 15 25 00  	slli	a1, a0, 2
    182c: b3 84 b4 00  	add	s1, s1, a1
    1830: 33 09 b9 00  	add	s2, s2, a1
    1834: 33 04 a4 40  	sub	s0, s0, a0

00001838 <.LBB25_6>:
    1838: 13 35 15 00  	seqz	a0, a0
    183c: 63 1e 05 00  	bnez	a0, 0x1858 <.LBB25_10>

00001840 <.LBB25_7>:
    1840: 57 75 34 05  	<unknown>
    1844: e3 0a 05 fe  	beqz	a0, 0x1838 <.LBB25_6>
    1848: e3 1c 35 fd  	bne	a0, s3, 0x1820 <.LBB25_4>
    184c: 07 e8 84 06  	<unknown>
    1850: 27 68 89 06  	<unknown>
    1854: 6f f0 5f fd  	j	0x1828 <.LBB25_5>

00001858 <.LBB25_10>:
    1858: 03 2a 81 20  	lw	s4, 520(sp)
    185c: 83 29 c1 20  	lw	s3, 524(sp)
    1860: 03 29 01 21  	lw	s2, 528(sp)
    1864: 83 24 41 21  	lw	s1, 532(sp)
    1868: 03 24 81 21  	lw	s0, 536(sp)
    186c: 83 20 c1 21  	lw	ra, 540(sp)
    1870: 13 01 01 22  	addi	sp, sp, 544
    1874: 67 80 00 00  	ret

00001878 <vector_memcpy_indexed_e32mf2>:
    1878: 13 01 01 de  	addi	sp, sp, -544
    187c: 23 2e 11 20  	sw	ra, 540(sp)
    1880: 23 2c 81 20  	sw	s0, 536(sp)
    1884: 23 2a 91 20  	sw	s1, 532(sp)
    1888: 23 28 21 21  	sw	s2, 528(sp)
    188c: 23 26 31 21  	sw	s3, 524(sp)
    1890: 23 24 41 21  	sw	s4, 520(sp)
    1894: 13 09 06 00  	mv	s2, a2
    1898: 93 84 05 00  	mv	s1, a1
    189c: 13 04 05 00  	mv	s0, a0
    18a0: d7 79 70 05  	<unknown>
    18a4: 13 05 81 00  	addi	a0, sp, 8
    18a8: 13 06 00 20  	addi	a2, zero, 512
    18ac: 13 0a 81 00  	addi	s4, sp, 8
    18b0: 93 05 00 00  	mv	a1, zero
    18b4: 97 e0 ff ff  	auipc	ra, 1048574
    18b8: e7 80 00 76  	jalr	1888(ra)
    18bc: 63 82 09 02  	beqz	s3, 0x18e0 <.LBB26_3>
    18c0: 13 05 00 00  	mv	a0, zero
    18c4: 93 85 09 00  	mv	a1, s3

000018c8 <.LBB26_2>:
    18c8: 13 46 45 00  	xori	a2, a0, 4
    18cc: b3 06 aa 00  	add	a3, s4, a0
    18d0: 23 a0 c6 00  	sw	a2, 0(a3)
    18d4: 93 85 f5 ff  	addi	a1, a1, -1
    18d8: 13 05 45 00  	addi	a0, a0, 4
    18dc: e3 96 05 fe  	bnez	a1, 0x18c8 <.LBB26_2>

000018e0 <.LBB26_3>:
    18e0: 57 f0 79 05  	<unknown>
    18e4: 13 05 81 00  	addi	a0, sp, 8
    18e8: 87 6c 05 02  	<unknown>
    18ec: 6f 00 40 02  	j	0x1910 <.LBB26_7>

000018f0 <.LBB26_4>:
    18f0: 07 ed 04 02  	<unknown>
    18f4: 27 6d 09 02  	<unknown>

000018f8 <.LBB26_5>:
    18f8: 93 15 25 00  	slli	a1, a0, 2
    18fc: b3 84 b4 00  	add	s1, s1, a1
    1900: 33 09 b9 00  	add	s2, s2, a1
    1904: 33 04 a4 40  	sub	s0, s0, a0

00001908 <.LBB26_6>:
    1908: 13 35 15 00  	seqz	a0, a0
    190c: 63 1e 05 00  	bnez	a0, 0x1928 <.LBB26_10>

00001910 <.LBB26_7>:
    1910: 57 75 74 05  	<unknown>
    1914: e3 0a 05 fe  	beqz	a0, 0x1908 <.LBB26_6>
    1918: e3 1c 35 fd  	bne	a0, s3, 0x18f0 <.LBB26_4>
    191c: 07 ed 94 07  	<unknown>
    1920: 27 6d 99 07  	<unknown>
    1924: 6f f0 5f fd  	j	0x18f8 <.LBB26_5>

00001928 <.LBB26_10>:
    1928: 03 2a 81 20  	lw	s4, 520(sp)
    192c: 83 29 c1 20  	lw	s3, 524(sp)
    1930: 03 29 01 21  	lw	s2, 528(sp)
    1934: 83 24 41 21  	lw	s1, 532(sp)
    1938: 03 24 81 21  	lw	s0, 536(sp)
    193c: 83 20 c1 21  	lw	ra, 540(sp)
    1940: 13 01 01 22  	addi	sp, sp, 544
    1944: 67 80 00 00  	ret

00001948 <vector_memcpy_indexed_e64m2>:
    1948: 13 01 01 be  	addi	sp, sp, -1056
    194c: 23 2e 11 40  	sw	ra, 1052(sp)
    1950: 23 2c 81 40  	sw	s0, 1048(sp)
    1954: 23 2a 91 40  	sw	s1, 1044(sp)
    1958: 23 28 21 41  	sw	s2, 1040(sp)
    195c: 23 26 31 41  	sw	s3, 1036(sp)
    1960: 23 24 41 41  	sw	s4, 1032(sp)
    1964: 13 09 06 00  	mv	s2, a2
    1968: 13 8a 05 00  	mv	s4, a1
    196c: 13 04 05 00  	mv	s0, a0
    1970: d7 79 90 05  	<unknown>
    1974: 13 05 81 00  	addi	a0, sp, 8
    1978: 13 06 00 40  	addi	a2, zero, 1024
    197c: 93 04 81 00  	addi	s1, sp, 8
    1980: 93 05 00 00  	mv	a1, zero
    1984: 97 e0 ff ff  	auipc	ra, 1048574
    1988: e7 80 00 69  	jalr	1680(ra)
    198c: 63 84 09 02  	beqz	s3, 0x19b4 <.LBB27_3>
    1990: 13 05 00 00  	mv	a0, zero

00001994 <.LBB27_2>:
    1994: 93 45 15 00  	xori	a1, a0, 1
    1998: 13 96 35 00  	slli	a2, a1, 3
    199c: 93 d5 d5 01  	srli	a1, a1, 29
    19a0: 23 a2 b4 00  	sw	a1, 4(s1)
    19a4: 23 a0 c4 00  	sw	a2, 0(s1)
    19a8: 13 05 15 00  	addi	a0, a0, 1
    19ac: 93 84 84 00  	addi	s1, s1, 8
    19b0: e3 92 a9 fe  	bne	s3, a0, 0x1994 <.LBB27_2>

000019b4 <.LBB27_3>:
    19b4: 57 f0 99 05  	<unknown>
    19b8: 13 05 81 00  	addi	a0, sp, 8
    19bc: 07 7d 05 02  	<unknown>
    19c0: 6f 00 40 02  	j	0x19e4 <.LBB27_7>

000019c4 <.LBB27_4>:
    19c4: 07 7e 0a 02  	<unknown>
    19c8: 27 7e 09 02  	<unknown>

000019cc <.LBB27_5>:
    19cc: 93 15 35 00  	slli	a1, a0, 3
    19d0: 33 0a ba 00  	add	s4, s4, a1
    19d4: 33 09 b9 00  	add	s2, s2, a1
    19d8: 33 04 a4 40  	sub	s0, s0, a0

000019dc <.LBB27_6>:
    19dc: 13 35 15 00  	seqz	a0, a0
    19e0: 63 1e 05 00  	bnez	a0, 0x19fc <.LBB27_10>

000019e4 <.LBB27_7>:
    19e4: 57 75 94 05  	<unknown>
    19e8: e3 0a 05 fe  	beqz	a0, 0x19dc <.LBB27_6>
    19ec: e3 1c 35 fd  	bne	a0, s3, 0x19c4 <.LBB27_4>
    19f0: 07 7e aa 07  	<unknown>
    19f4: 27 7e a9 07  	<unknown>
    19f8: 6f f0 5f fd  	j	0x19cc <.LBB27_5>

000019fc <.LBB27_10>:
    19fc: 03 2a 81 40  	lw	s4, 1032(sp)
    1a00: 83 29 c1 40  	lw	s3, 1036(sp)
    1a04: 03 29 01 41  	lw	s2, 1040(sp)
    1a08: 83 24 41 41  	lw	s1, 1044(sp)
    1a0c: 03 24 81 41  	lw	s0, 1048(sp)
    1a10: 83 20 c1 41  	lw	ra, 1052(sp)
    1a14: 13 01 01 42  	addi	sp, sp, 1056
    1a18: 67 80 00 00  	ret

00001a1c <vector_memcpy_masked_e32m8>:
    1a1c: d7 76 30 05  	<unknown>
    1a20: 07 e4 05 02  	<unknown>
    1a24: 57 b0 80 62  	<unknown>
    1a28: 6f 00 c0 00  	j	0x1a34 <.LBB28_2>

00001a2c <.LBB28_1>:
    1a2c: 93 b6 16 00  	seqz	a3, a3
    1a30: 63 98 06 02  	bnez	a3, 0x1a60 <.LBB28_4>

00001a34 <.LBB28_2>:
    1a34: d7 76 35 05  	<unknown>
    1a38: e3 8a 06 fe  	beqz	a3, 0x1a2c <.LBB28_1>
    1a3c: 57 f0 36 01  	<unknown>
    1a40: 07 e4 05 00  	<unknown>
    1a44: 57 70 30 05  	<unknown>
    1a48: 27 64 06 00  	<unknown>
    1a4c: 13 97 26 00  	slli	a4, a3, 2
    1a50: b3 85 e5 00  	add	a1, a1, a4
    1a54: 33 06 e6 00  	add	a2, a2, a4
    1a58: 33 05 d5 40  	sub	a0, a0, a3
    1a5c: 6f f0 1f fd  	j	0x1a2c <.LBB28_1>

00001a60 <.LBB28_4>:
    1a60: 67 80 00 00  	ret

00001a64 <vector_memcpy_segmented_e8m2>:
    1a64: 93 08 00 01  	addi	a7, zero, 16
    1a68: 6f 00 c0 00  	j	0x1a74 <.LBB29_2>

00001a6c <.LBB29_1>:
    1a6c: 93 b6 12 00  	seqz	a3, t0
    1a70: 63 9e 06 04  	bnez	a3, 0x1acc <.LBB29_6>

00001a74 <.LBB29_2>:
    1a74: d7 72 15 04  	<unknown>
    1a78: e3 8a 02 fe  	beqz	t0, 0x1a6c <.LBB29_1>
    1a7c: 07 80 05 62  	<unknown>
    1a80: 83 27 06 00  	lw	a5, 0(a2)
    1a84: 27 80 07 02  	<unknown>
    1a88: 83 27 46 00  	lw	a5, 4(a2)
    1a8c: 27 81 07 02  	<unknown>
    1a90: 83 27 86 00  	lw	a5, 8(a2)
    1a94: 27 82 07 02  	<unknown>
    1a98: 03 28 c6 00  	lw	a6, 12(a2)
    1a9c: 93 07 00 00  	mv	a5, zero
    1aa0: 27 03 08 02  	<unknown>
    1aa4: 13 98 22 00  	slli	a6, t0, 2

00001aa8 <.LBB29_4>:
    1aa8: b3 06 f6 00  	add	a3, a2, a5
    1aac: 03 a7 06 00  	lw	a4, 0(a3)
    1ab0: 33 07 57 00  	add	a4, a4, t0
    1ab4: 93 87 47 00  	addi	a5, a5, 4
    1ab8: 23 a0 e6 00  	sw	a4, 0(a3)
    1abc: e3 96 17 ff  	bne	a5, a7, 0x1aa8 <.LBB29_4>
    1ac0: b3 85 05 01  	add	a1, a1, a6
    1ac4: 33 05 55 40  	sub	a0, a0, t0
    1ac8: 6f f0 5f fa  	j	0x1a6c <.LBB29_1>

00001acc <.LBB29_6>:
    1acc: 67 80 00 00  	ret

00001ad0 <vector_memcpy_segmented_e16m2>:
    1ad0: 93 08 00 01  	addi	a7, zero, 16
    1ad4: 6f 00 c0 00  	j	0x1ae0 <.LBB30_2>

00001ad8 <.LBB30_1>:
    1ad8: 93 b6 12 00  	seqz	a3, t0
    1adc: 63 92 06 06  	bnez	a3, 0x1b40 <.LBB30_6>

00001ae0 <.LBB30_2>:
    1ae0: d7 72 95 04  	<unknown>
    1ae4: e3 8a 02 fe  	beqz	t0, 0x1ad8 <.LBB30_1>
    1ae8: 07 d0 05 62  	<unknown>
    1aec: 83 27 06 00  	lw	a5, 0(a2)
    1af0: 27 d0 07 02  	<unknown>
    1af4: 83 27 46 00  	lw	a5, 4(a2)
    1af8: 27 d1 07 02  	<unknown>
    1afc: 83 27 86 00  	lw	a5, 8(a2)
    1b00: 27 d2 07 02  	<unknown>
    1b04: 03 28 c6 00  	lw	a6, 12(a2)
    1b08: 93 07 00 00  	mv	a5, zero
    1b0c: 27 53 08 02  	<unknown>
    1b10: 13 98 22 00  	slli	a6, t0, 2

00001b14 <.LBB30_4>:
    1b14: b3 06 f6 00  	add	a3, a2, a5
    1b18: 03 a3 06 00  	lw	t1, 0(a3)
    1b1c: 13 97 12 00  	slli	a4, t0, 1
    1b20: 33 07 e3 00  	add	a4, t1, a4
    1b24: 93 87 47 00  	addi	a5, a5, 4
    1b28: 23 a0 e6 00  	sw	a4, 0(a3)
    1b2c: e3 94 17 ff  	bne	a5, a7, 0x1b14 <.LBB30_4>
    1b30: 93 17 18 00  	slli	a5, a6, 1
    1b34: b3 85 f5 00  	add	a1, a1, a5
    1b38: 33 05 55 40  	sub	a0, a0, t0
    1b3c: 6f f0 df f9  	j	0x1ad8 <.LBB30_1>

00001b40 <.LBB30_6>:
    1b40: 67 80 00 00  	ret

00001b44 <vector_memcpy_segmented_e32m2>:
    1b44: 93 08 00 01  	addi	a7, zero, 16
    1b48: 6f 00 c0 00  	j	0x1b54 <.LBB31_2>

00001b4c <.LBB31_1>:
    1b4c: 93 36 18 00  	seqz	a3, a6
    1b50: 63 90 06 06  	bnez	a3, 0x1bb0 <.LBB31_6>

00001b54 <.LBB31_2>:
    1b54: 57 78 15 05  	<unknown>
    1b58: e3 0a 08 fe  	beqz	a6, 0x1b4c <.LBB31_1>
    1b5c: 07 e0 05 62  	<unknown>
    1b60: 03 27 06 00  	lw	a4, 0(a2)
    1b64: 27 60 07 02  	<unknown>
    1b68: 03 27 46 00  	lw	a4, 4(a2)
    1b6c: 27 61 07 02  	<unknown>
    1b70: 03 27 86 00  	lw	a4, 8(a2)
    1b74: 27 62 07 02  	<unknown>
    1b78: 83 27 c6 00  	lw	a5, 12(a2)
    1b7c: 13 07 00 00  	mv	a4, zero
    1b80: 27 e3 07 02  	<unknown>
    1b84: 93 12 28 00  	slli	t0, a6, 2

00001b88 <.LBB31_4>:
    1b88: b3 06 e6 00  	add	a3, a2, a4
    1b8c: 83 a7 06 00  	lw	a5, 0(a3)
    1b90: b3 87 57 00  	add	a5, a5, t0
    1b94: 13 07 47 00  	addi	a4, a4, 4
    1b98: 23 a0 f6 00  	sw	a5, 0(a3)
    1b9c: e3 16 17 ff  	bne	a4, a7, 0x1b88 <.LBB31_4>
    1ba0: 13 97 22 00  	slli	a4, t0, 2
    1ba4: b3 85 e5 00  	add	a1, a1, a4
    1ba8: 33 05 05 41  	sub	a0, a0, a6
    1bac: 6f f0 1f fa  	j	0x1b4c <.LBB31_1>

00001bb0 <.LBB31_6>:
    1bb0: 67 80 00 00  	ret

00001bb4 <vector_memcpy_segmented_e32mf2>:
    1bb4: 93 08 00 01  	addi	a7, zero, 16
    1bb8: 6f 00 c0 00  	j	0x1bc4 <.LBB32_2>

00001bbc <.LBB32_1>:
    1bbc: 93 36 18 00  	seqz	a3, a6
    1bc0: 63 90 06 06  	bnez	a3, 0x1c20 <.LBB32_6>

00001bc4 <.LBB32_2>:
    1bc4: 57 78 75 05  	<unknown>
    1bc8: e3 0a 08 fe  	beqz	a6, 0x1bbc <.LBB32_1>
    1bcc: 07 e0 05 62  	<unknown>
    1bd0: 03 27 06 00  	lw	a4, 0(a2)
    1bd4: 27 60 07 02  	<unknown>
    1bd8: 03 27 46 00  	lw	a4, 4(a2)
    1bdc: a7 60 07 02  	<unknown>
    1be0: 03 27 86 00  	lw	a4, 8(a2)
    1be4: 27 61 07 02  	<unknown>
    1be8: 83 27 c6 00  	lw	a5, 12(a2)
    1bec: 13 07 00 00  	mv	a4, zero
    1bf0: a7 e1 07 02  	<unknown>
    1bf4: 93 12 28 00  	slli	t0, a6, 2

00001bf8 <.LBB32_4>:
    1bf8: b3 06 e6 00  	add	a3, a2, a4
    1bfc: 83 a7 06 00  	lw	a5, 0(a3)
    1c00: b3 87 57 00  	add	a5, a5, t0
    1c04: 13 07 47 00  	addi	a4, a4, 4
    1c08: 23 a0 f6 00  	sw	a5, 0(a3)
    1c0c: e3 16 17 ff  	bne	a4, a7, 0x1bf8 <.LBB32_4>
    1c10: 13 97 22 00  	slli	a4, t0, 2
    1c14: b3 85 e5 00  	add	a1, a1, a4
    1c18: 33 05 05 41  	sub	a0, a0, a6
    1c1c: 6f f0 1f fa  	j	0x1bbc <.LBB32_1>

00001c20 <.LBB32_6>:
    1c20: 67 80 00 00  	ret

00001c24 <vector_memcpy_segmented_e64m2>:
    1c24: 93 08 00 01  	addi	a7, zero, 16
    1c28: 6f 00 c0 00  	j	0x1c34 <.LBB33_2>

00001c2c <.LBB33_1>:
    1c2c: 93 b6 12 00  	seqz	a3, t0
    1c30: 63 92 06 06  	bnez	a3, 0x1c94 <.LBB33_6>

00001c34 <.LBB33_2>:
    1c34: d7 72 95 05  	<unknown>
    1c38: e3 8a 02 fe  	beqz	t0, 0x1c2c <.LBB33_1>
    1c3c: 07 f0 05 62  	<unknown>
    1c40: 83 27 06 00  	lw	a5, 0(a2)
    1c44: 27 f0 07 02  	<unknown>
    1c48: 83 27 46 00  	lw	a5, 4(a2)
    1c4c: 27 f1 07 02  	<unknown>
    1c50: 83 27 86 00  	lw	a5, 8(a2)
    1c54: 27 f2 07 02  	<unknown>
    1c58: 03 28 c6 00  	lw	a6, 12(a2)
    1c5c: 93 07 00 00  	mv	a5, zero
    1c60: 27 73 08 02  	<unknown>
    1c64: 13 98 22 00  	slli	a6, t0, 2

00001c68 <.LBB33_4>:
    1c68: b3 06 f6 00  	add	a3, a2, a5
    1c6c: 03 a3 06 00  	lw	t1, 0(a3)
    1c70: 13 97 32 00  	slli	a4, t0, 3
    1c74: 33 07 e3 00  	add	a4, t1, a4
    1c78: 93 87 47 00  	addi	a5, a5, 4
    1c7c: 23 a0 e6 00  	sw	a4, 0(a3)
    1c80: e3 94 17 ff  	bne	a5, a7, 0x1c68 <.LBB33_4>
    1c84: 93 17 38 00  	slli	a5, a6, 3
    1c88: b3 85 f5 00  	add	a1, a1, a5
    1c8c: 33 05 55 40  	sub	a0, a0, t0
    1c90: 6f f0 df f9  	j	0x1c2c <.LBB33_1>

00001c94 <.LBB33_6>:
    1c94: 67 80 00 00  	ret

00001c98 <main>:
    1c98: 13 01 01 ff  	addi	sp, sp, -16
    1c9c: 23 26 11 00  	sw	ra, 12(sp)
    1ca0: 23 24 81 00  	sw	s0, 8(sp)
    1ca4: 23 22 91 00  	sw	s1, 4(sp)
    1ca8: 37 15 00 00  	lui	a0, 1
    1cac: 13 05 85 32  	addi	a0, a0, 808
    1cb0: 97 e0 ff ff  	auipc	ra, 1048574
    1cb4: e7 80 00 38  	jalr	896(ra)
    1cb8: 13 04 05 00  	mv	s0, a0
    1cbc: 93 84 05 00  	mv	s1, a1
    1cc0: 37 15 00 00  	lui	a0, 1
    1cc4: 13 05 85 35  	addi	a0, a0, 856
    1cc8: 97 e0 ff ff  	auipc	ra, 1048574
    1ccc: e7 80 80 46  	jalr	1128(ra)
    1cd0: 13 56 f5 01  	srli	a2, a0, 31
    1cd4: 93 95 15 00  	slli	a1, a1, 1
    1cd8: b3 e5 c5 00  	or	a1, a1, a2
    1cdc: 13 15 15 00  	slli	a0, a0, 1
    1ce0: 33 64 85 00  	or	s0, a0, s0
    1ce4: b3 e4 95 00  	or	s1, a1, s1
    1ce8: 37 15 00 00  	lui	a0, 1
    1cec: 13 05 c5 38  	addi	a0, a0, 908
    1cf0: 97 e0 ff ff  	auipc	ra, 1048574
    1cf4: e7 80 00 55  	jalr	1360(ra)
    1cf8: 13 56 e5 01  	srli	a2, a0, 30
    1cfc: 93 95 25 00  	slli	a1, a1, 2
    1d00: b3 e5 c5 00  	or	a1, a1, a2
    1d04: 13 15 25 00  	slli	a0, a0, 2
    1d08: b3 e4 b4 00  	or	s1, s1, a1
    1d0c: 33 64 a4 00  	or	s0, s0, a0
    1d10: 37 15 00 00  	lui	a0, 1
    1d14: 13 05 05 3c  	addi	a0, a0, 960
    1d18: 97 e0 ff ff  	auipc	ra, 1048574
    1d1c: e7 80 80 52  	jalr	1320(ra)
    1d20: 13 56 d5 01  	srli	a2, a0, 29
    1d24: 93 95 35 00  	slli	a1, a1, 3
    1d28: b3 e5 c5 00  	or	a1, a1, a2
    1d2c: 13 15 35 00  	slli	a0, a0, 3
    1d30: b3 e4 b4 00  	or	s1, s1, a1
    1d34: 33 64 a4 00  	or	s0, s0, a0
    1d38: 37 15 00 00  	lui	a0, 1
    1d3c: 13 05 45 3f  	addi	a0, a0, 1012
    1d40: 97 e0 ff ff  	auipc	ra, 1048574
    1d44: e7 80 40 5f  	jalr	1524(ra)
    1d48: 13 56 c5 01  	srli	a2, a0, 28
    1d4c: 93 95 45 00  	slli	a1, a1, 4
    1d50: b3 e5 c5 00  	or	a1, a1, a2
    1d54: 13 15 45 00  	slli	a0, a0, 4
    1d58: b3 e4 b4 00  	or	s1, s1, a1
    1d5c: 33 64 a4 00  	or	s0, s0, a0
    1d60: 37 15 00 00  	lui	a0, 1
    1d64: 13 05 85 42  	addi	a0, a0, 1064
    1d68: 97 e0 ff ff  	auipc	ra, 1048574
    1d6c: e7 80 80 2c  	jalr	712(ra)
    1d70: 13 56 b5 01  	srli	a2, a0, 27
    1d74: 93 95 55 00  	slli	a1, a1, 5
    1d78: b3 e5 c5 00  	or	a1, a1, a2
    1d7c: 13 15 55 00  	slli	a0, a0, 5
    1d80: b3 e4 b4 00  	or	s1, s1, a1
    1d84: 33 64 a4 00  	or	s0, s0, a0
    1d88: 37 15 00 00  	lui	a0, 1
    1d8c: 13 05 85 48  	addi	a0, a0, 1160
    1d90: 97 e0 ff ff  	auipc	ra, 1048574
    1d94: e7 80 00 3a  	jalr	928(ra)
    1d98: 13 56 a5 01  	srli	a2, a0, 26
    1d9c: 93 95 65 00  	slli	a1, a1, 6
    1da0: b3 e5 c5 00  	or	a1, a1, a2
    1da4: 13 15 65 00  	slli	a0, a0, 6
    1da8: b3 e4 b4 00  	or	s1, s1, a1
    1dac: 33 64 a4 00  	or	s0, s0, a0
    1db0: 37 15 00 00  	lui	a0, 1
    1db4: 13 05 c5 4e  	addi	a0, a0, 1260
    1db8: 97 e0 ff ff  	auipc	ra, 1048574
    1dbc: e7 80 80 48  	jalr	1160(ra)
    1dc0: 13 56 95 01  	srli	a2, a0, 25
    1dc4: 93 95 75 00  	slli	a1, a1, 7
    1dc8: b3 e5 c5 00  	or	a1, a1, a2
    1dcc: 13 15 75 00  	slli	a0, a0, 7
    1dd0: b3 e4 b4 00  	or	s1, s1, a1
    1dd4: 33 64 a4 00  	or	s0, s0, a0
    1dd8: 37 15 00 00  	lui	a0, 1
    1ddc: 13 05 05 55  	addi	a0, a0, 1360
    1de0: 97 e0 ff ff  	auipc	ra, 1048574
    1de4: e7 80 00 46  	jalr	1120(ra)
    1de8: 13 56 85 01  	srli	a2, a0, 24
    1dec: 93 95 85 00  	slli	a1, a1, 8
    1df0: b3 e5 c5 00  	or	a1, a1, a2
    1df4: 13 15 85 00  	slli	a0, a0, 8
    1df8: b3 e4 b4 00  	or	s1, s1, a1
    1dfc: 33 64 a4 00  	or	s0, s0, a0
    1e00: 37 15 00 00  	lui	a0, 1
    1e04: 13 05 45 5b  	addi	a0, a0, 1460
    1e08: 97 e0 ff ff  	auipc	ra, 1048574
    1e0c: e7 80 c0 52  	jalr	1324(ra)
    1e10: 13 56 75 01  	srli	a2, a0, 23
    1e14: 93 95 95 00  	slli	a1, a1, 9
    1e18: b3 e5 c5 00  	or	a1, a1, a2
    1e1c: 13 15 95 00  	slli	a0, a0, 9
    1e20: b3 e4 b4 00  	or	s1, s1, a1
    1e24: 33 64 a4 00  	or	s0, s0, a0
    1e28: 37 15 00 00  	lui	a0, 1
    1e2c: 13 05 85 61  	addi	a0, a0, 1560
    1e30: 97 e0 ff ff  	auipc	ra, 1048574
    1e34: e7 80 00 20  	jalr	512(ra)
    1e38: 13 56 65 01  	srli	a2, a0, 22
    1e3c: 93 95 a5 00  	slli	a1, a1, 10
    1e40: b3 e5 c5 00  	or	a1, a1, a2
    1e44: 13 15 a5 00  	slli	a0, a0, 10
    1e48: b3 e4 b4 00  	or	s1, s1, a1
    1e4c: 33 64 a4 00  	or	s0, s0, a0
    1e50: 37 15 00 00  	lui	a0, 1
    1e54: 13 05 c5 6d  	addi	a0, a0, 1756
    1e58: 97 e0 ff ff  	auipc	ra, 1048574
    1e5c: e7 80 80 2d  	jalr	728(ra)
    1e60: 13 56 55 01  	srli	a2, a0, 21
    1e64: 93 95 b5 00  	slli	a1, a1, 11
    1e68: b3 e5 c5 00  	or	a1, a1, a2
    1e6c: 13 15 b5 00  	slli	a0, a0, 11
    1e70: b3 e4 b4 00  	or	s1, s1, a1
    1e74: 33 64 a4 00  	or	s0, s0, a0
    1e78: 37 15 00 00  	lui	a0, 1
    1e7c: 13 05 85 7a  	addi	a0, a0, 1960
    1e80: 97 e0 ff ff  	auipc	ra, 1048574
    1e84: e7 80 00 3c  	jalr	960(ra)
    1e88: 13 56 45 01  	srli	a2, a0, 20
    1e8c: 93 95 c5 00  	slli	a1, a1, 12
    1e90: b3 e5 c5 00  	or	a1, a1, a2
    1e94: 13 15 c5 00  	slli	a0, a0, 12
    1e98: b3 e4 b4 00  	or	s1, s1, a1
    1e9c: 33 64 a4 00  	or	s0, s0, a0
    1ea0: 37 25 00 00  	lui	a0, 2
    1ea4: 13 05 85 87  	addi	a0, a0, -1928
    1ea8: 97 e0 ff ff  	auipc	ra, 1048574
    1eac: e7 80 80 39  	jalr	920(ra)
    1eb0: 13 56 35 01  	srli	a2, a0, 19
    1eb4: 93 95 d5 00  	slli	a1, a1, 13
    1eb8: b3 e5 c5 00  	or	a1, a1, a2
    1ebc: 13 15 d5 00  	slli	a0, a0, 13
    1ec0: b3 e4 b4 00  	or	s1, s1, a1
    1ec4: 33 64 a4 00  	or	s0, s0, a0
    1ec8: 37 25 00 00  	lui	a0, 2
    1ecc: 13 05 85 94  	addi	a0, a0, -1720
    1ed0: 97 e0 ff ff  	auipc	ra, 1048574
    1ed4: e7 80 40 46  	jalr	1124(ra)
    1ed8: 13 56 25 01  	srli	a2, a0, 18
    1edc: 93 95 e5 00  	slli	a1, a1, 14
    1ee0: b3 e5 c5 00  	or	a1, a1, a2
    1ee4: 13 15 e5 00  	slli	a0, a0, 14
    1ee8: b3 e4 b4 00  	or	s1, s1, a1
    1eec: 33 64 a4 00  	or	s0, s0, a0
    1ef0: 37 25 00 00  	lui	a0, 2
    1ef4: 13 05 c5 a1  	addi	a0, a0, -1508
    1ef8: 97 f0 ff ff  	auipc	ra, 1048575
    1efc: e7 80 80 84  	jalr	-1976(ra)
    1f00: 13 56 15 01  	srli	a2, a0, 17
    1f04: 93 95 f5 00  	slli	a1, a1, 15
    1f08: b3 e5 c5 00  	or	a1, a1, a2
    1f0c: 13 15 f5 00  	slli	a0, a0, 15
    1f10: b3 e4 b4 00  	or	s1, s1, a1
    1f14: 33 64 a4 00  	or	s0, s0, a0
    1f18: 37 25 00 00  	lui	a0, 2
    1f1c: 13 05 45 a6  	addi	a0, a0, -1436
    1f20: 97 f0 ff ff  	auipc	ra, 1048575
    1f24: e7 80 40 b3  	jalr	-1228(ra)
    1f28: 13 56 05 01  	srli	a2, a0, 16
    1f2c: 93 95 05 01  	slli	a1, a1, 16
    1f30: b3 e5 c5 00  	or	a1, a1, a2
    1f34: 13 15 05 01  	slli	a0, a0, 16
    1f38: b3 e4 b4 00  	or	s1, s1, a1
    1f3c: 33 64 a4 00  	or	s0, s0, a0
    1f40: 37 25 00 00  	lui	a0, 2
    1f44: 13 05 05 ad  	addi	a0, a0, -1328
    1f48: 97 f0 ff ff  	auipc	ra, 1048575
    1f4c: e7 80 00 d1  	jalr	-752(ra)
    1f50: 13 56 f5 00  	srli	a2, a0, 15
    1f54: 93 95 15 01  	slli	a1, a1, 17
    1f58: b3 e5 c5 00  	or	a1, a1, a2
    1f5c: 13 15 15 01  	slli	a0, a0, 17
    1f60: b3 e4 b4 00  	or	s1, s1, a1
    1f64: 33 64 a4 00  	or	s0, s0, a0
    1f68: 37 25 00 00  	lui	a0, 2
    1f6c: 13 05 45 b4  	addi	a0, a0, -1212
    1f70: 97 f0 ff ff  	auipc	ra, 1048575
    1f74: e7 80 00 ed  	jalr	-304(ra)
    1f78: 13 56 e5 00  	srli	a2, a0, 14
    1f7c: 93 95 25 01  	slli	a1, a1, 18
    1f80: b3 e5 c5 00  	or	a1, a1, a2
    1f84: 13 15 25 01  	slli	a0, a0, 18
    1f88: b3 e4 b4 00  	or	s1, s1, a1
    1f8c: 33 64 a4 00  	or	s0, s0, a0
    1f90: 37 25 00 00  	lui	a0, 2
    1f94: 13 05 45 bb  	addi	a0, a0, -1100
    1f98: 97 f0 ff ff  	auipc	ra, 1048575
    1f9c: e7 80 80 ea  	jalr	-344(ra)
    1fa0: 13 56 d5 00  	srli	a2, a0, 13
    1fa4: 93 95 35 01  	slli	a1, a1, 19
    1fa8: b3 e5 c5 00  	or	a1, a1, a2
    1fac: 13 15 35 01  	slli	a0, a0, 19
    1fb0: b3 e4 b4 00  	or	s1, s1, a1
    1fb4: 33 64 a4 00  	or	s0, s0, a0
    1fb8: 37 25 00 00  	lui	a0, 2
    1fbc: 13 05 45 c2  	addi	a0, a0, -988
    1fc0: 97 f0 ff ff  	auipc	ra, 1048575
    1fc4: e7 80 80 04  	jalr	72(ra)
    1fc8: 13 56 c5 00  	srli	a2, a0, 12
    1fcc: 93 95 45 01  	slli	a1, a1, 20
    1fd0: b3 e5 c5 00  	or	a1, a1, a2
    1fd4: 13 15 45 01  	slli	a0, a0, 20
    1fd8: b3 e5 b4 00  	or	a1, s1, a1
    1fdc: 33 65 a4 00  	or	a0, s0, a0
    1fe0: 37 06 00 01  	lui	a2, 4096
    1fe4: 23 22 06 00  	sw	zero, 4(a2)
    1fe8: b7 06 20 00  	lui	a3, 512
    1fec: 93 86 f6 ff  	addi	a3, a3, -1
    1ff0: 23 20 d6 00  	sw	a3, 0(a2)
    1ff4: 37 06 00 01  	lui	a2, 4096
    1ff8: 23 24 a6 00  	sw	a0, 8(a2)
    1ffc: 23 26 b6 00  	sw	a1, 12(a2)
    2000: 13 05 00 00  	mv	a0, zero
    2004: 83 24 41 00  	lw	s1, 4(sp)
    2008: 03 24 81 00  	lw	s0, 8(sp)
    200c: 83 20 c1 00  	lw	ra, 12(sp)
    2010: 13 01 01 01  	addi	sp, sp, 16
    2014: 67 80 00 00  	ret
