
/media/common/University/Edu/Year4_Masters/Project/riscv-v-lite/programs/build/llvm-13-rv32imv/vector_memcpy/vector_memcpy.elf:	file format elf32-littleriscv
Contents of section .text.init:
 0000 17010100 13010102 97100000 e780000d  ................
 0010 6f000000                             o...
Contents of section .text:
 0014 630c0600 93060500 2380b600 1306f6ff  c.......#.......
 0024 93861600 e31a06fe 67800000 130101ef  ........g.......
 0034 23261110 23248110 23229110 23202111  #&..#$..#"..# !.
 0044 13090500 13040108 13050108 13060008  ................
 0054 93040008 93050000 97000000 e78080fb  ................
 0064 13050100 13060008 93050000 97000000  ................
 0074 e78040fa 13050000 b305a400 2380a500  ..@.........#...
 0084 13051500 e31a95fe 93040108 1305e006  ................
 0094 93050108 13060100 13040100 e7000900  ................
 00a4 13050000 9305d006 03c60400 83460400  .............F..
 00b4 631ed604 1376f50f 13041400 93841400  c....v..........
 00c4 13051500 e362b6fe 8345e106 13050000  .....b...E......
 00d4 63900504 9305f006 1305f0ff 13060100  c...............
 00e4 93968501 93d68641 63cc0600 13f7f50f  .......Ac.......
 00f4 3307e600 03470700 93851500 e30207fe  3....G..........
 0104 3325d500 13451500 6f008000 13050000  3%...E..o.......
 0114 03290110 83244110 03248110 8320c110  .)...$A..$... ..
 0124 13010111 67800000 130101df 23261120  ....g.......#&. 
 0134 23248120 23229120 23202121 13090500  #$. #". # !!....
 0144 13050110 13060010 13040110 93050000  ................
 0154 97000000 e78000ec 13050100 13060010  ................
 0164 93050000 97000000 e780c0ea 13050000  ................
 0174 93050008 2310a400 13051500 13042400  ....#.........$.
 0184 e31ab5fe 93040110 1305e006 93050110  ................
 0194 13060100 13040100 e7000900 13050000  ................
 01a4 b7050100 9385f5ff 1306d006 83d60400  ................
 01b4 03570400 6392e606 b376b500 13042400  .W..c....v....$.
 01c4 93842400 13051500 e3e2c6fe 8355c10d  ..$..........U..
 01d4 13050000 63940504 1305e006 b7050100  ....c...........
 01e4 9385f5ff 1306e007 93060100 3377b500  ............3w..
 01f4 636ee600 13051500 b377b500 93971700  cn.......w......
 0204 b387f600 83d70700 e38207fe 1335f707  .............5..
 0214 13451500 6f008000 13050000 03290120  .E..o........). 
 0224 83244120 03248120 8320c120 13010121  .$A .$. . . ...!
 0234 67800000 130101be 232e1140 232c8140  g.......#..@#,.@
 0244 232a9140 23282141 13090500 13050121  #*.@#(!A.......!
 0254 13060020 93040121 93050000 97000000  ... ...!........
 0264 e78040db 13050101 13060020 93050000  ..@........ ....
 0274 97000000 e78000da 13050000 93050008  ................
 0284 23a0a400 13051500 93844400 e31ab5fe  #.........D.....
 0294 93040121 1305e006 93050121 13060101  ...!.......!....
 02a4 13040101 e7000900 13050000 9305801b  ................
 02b4 3386a400 03260600 b306a400 83a60600  3....&..........
 02c4 6314d604 13054500 e314b5fe 8325811c  c.....E......%..
 02d4 13050000 639c0502 1305c11c 9306e006  ....c...........
 02e4 9305f007 13860600 638ab600 03270500  ........c....'..
 02f4 93061600 13054500 e30607fe 1305e007  ......E.........
 0304 3335c500 6f008000 13050000 03290141  35..o........).A
 0314 83244141 03248141 8320c141 13010142  .$AA.$.A. .A...B
 0324 67800000 13010181 2326117e 2324817e  g.......#&.~#$.~
 0334 2322917e 2320217f 130101fd 13090500  #".~# !.........
 0344 13050141 13060040 13040141 93050000  ...A...@...A....
 0354 97000000 e78000cc 13050101 13060040  ...............@
 0364 93050000 97000000 e780c0ca 93050000  ................
 0374 13050000 6f00c001 13060000 93861500  ....o...........
 0384 b3b5b600 3305b500 93850600 63020602  ....3.......c...
 0394 13963500 3306c400 2320b600 13664600  ..5.3...# ...fF.
 03a4 2320a600 e31a05fc 13b6f507 6ff01ffd  # ..........o...
 03b4 93040141 1305e006 93050141 13060101  ...A.......A....
 03c4 13040101 e7000900 93050000 13050000  ................
 03d4 6f00c001 13060000 93861500 b3b5b600  o...............
 03e4 3305b500 93850600 63060604 13963500  3.......c.....5.
 03f4 b386c400 13e74600 03270700 83a60600  ......F..'......
 0404 3306c400 93674600 03260600 83a70700  3....gF..&......
 0414 33c6c600 b346f700 3366d600 63180600  3....F..3f..c...
 0424 e31a05fa 13b6d506 6ff01ffb 13050000  ........o.......
 0434 6f008007 03254138 83250138 b3e5a500  o....%A8.%.8....
 0444 13050000 63920506 13050000 9306e006  ....c...........
 0454 9305e007 13060101 630a0500 13070000  ........c.......
 0464 b337a000 638a0700 6f00c003 13b7f607  .7..c...o.......
 0474 b3b7d500 63980702 93871600 93943700  ....c.........7.
 0484 b3049600 03a40400 93e44400 83a40400  ..........D.....
 0494 b3b6d700 b3649400 3305d500 93860700  .....d..3.......
 04a4 e38c04fa 13451700 13010103 0329017e  .....E.......).~
 04b4 8324417e 0324817e 8320c17e 1301017f  .$A~.$.~. .~....
 04c4 67800000 130101ee 232e1110 232c8110  g.......#...#,..
 04d4 232a9110 23282111 23263111 13090500  #*..#(!.#&1.....
 04e4 9309c108 1305c108 13060008 93040008  ................
 04f4 93050000 97000000 e780c0b1 1305c100  ................
 0504 13060008 1304c100 93050000 97000000  ................
 0514 e78040b0 13050000 9305b00b 3386a900  ..@.........3...
 0524 2300a600 3306a400 13051500 2300b600  #...3.......#...
 0534 e31695fe 9304e006 9309c108 1305e006  ................
 0544 9305c108 1306c100 1304c100 e7000900  ................
 0554 13050000 9305b00b 6f00c001 b386a900  ........o.......
 0564 83c60600 03460600 6394c606 13051500  .....F..c.......
 0574 630e9500 93761500 3306a400 e39006fe  c....v..3.......
 0584 03460600 e304b6fe 6f008004 8345a107  .F......o....E..
 0594 1305b00b 639ea502 1306f006 9305f0ff  ....c...........
 05a4 9306c100 13178601 13578741 634c0700  .........W.AcL..
 05b4 9377f60f b387f600 83c70700 13061600  .w..............
 05c4 e382a7fe 33a5e500 13451500 6f008000  ....3....E..o...
 05d4 13050000 8329c110 03290111 83244111  .....)...)...$A.
 05e4 03248111 8320c111 13010112 67800000  .$... ......g...
 05f4 130101de 232e1120 232c8120 232a9120  ....#.. #,. #*. 
 0604 23282121 23263121 13090500 1305c110  #(!!#&1!........
 0614 13060010 1304c110 93050000 97000000  ................
 0624 e780409f 1305c100 13060010 9304c100  ..@.............
 0634 93050000 97000000 e780c09d 13050000  ................
 0644 9305b00b 13060008 2310a400 2390b400  ........#...#...
 0654 13051500 13042400 93842400 e316c5fe  ......$...$.....
 0664 9309e006 1304c110 1305e006 9305c110  ................
 0674 1306c100 9304c100 e7000900 13050000  ................
 0684 9305b00b 6f000002 03560400 83d60400  ....o....V......
 0694 631ad606 13051500 13042400 93842400  c.........$...$.
 06a4 630c3501 13761500 e31006fe 03d60400  c.5..v..........
 06b4 e302b6fe 6f000005 8355810e 1305b00b  ....o....U......
 06c4 6392a504 9305e006 37060100 1306f6ff  c.......7.......
 06d4 9306e007 1307c100 b3f7c500 63eef600  ............c...
 06e4 93851500 b3f4c500 93941400 b3049700  ................
 06f4 83d40400 e382a4fe 13b5f707 13451500  .............E..
 0704 6f008000 13050000 8329c120 03290121  o........). .).!
 0714 83244121 03248121 8320c121 13010122  .$A!.$.!. .!..."
 0724 67800000 130101be 232e1140 232c8140  g.......#..@#,.@
 0734 232a9140 23282141 23263141 13090500  #*.@#(!A#&1A....
 0744 1305c120 13060020 1304c120 93050000  ... ... ... ....
 0754 97000000 e780008c 1305c100 13060020  ............... 
 0764 9304c100 93050000 97000000 e780808a  ................
 0774 13050000 9305b00b 13060008 2320a400  ............# ..
 0784 23a0b400 13051500 93844400 13044400  #.........D...D.
 0794 e316c5fe 9309e006 1304c120 1305e006  ........... ....
 07a4 9305c120 1306c100 9304c100 e7000900  ... ............
 07b4 13050000 9305b00b 6f000002 03260400  ........o....&..
 07c4 83a60400 6312d606 13051500 93844400  ....c.........D.
 07d4 13044400 630c3501 13761500 e31006fe  ..D.c.5..v......
 07e4 03a60400 e302b6fe 6f000004 8325411c  ........o....%A.
 07f4 1305b00b 639aa502 9305811c 1307e006  ....c...........
 0804 1306f007 93060700 630ac700 83a70500  ........c.......
 0814 13871600 93854500 e386a7fe 1305e007  ......E.........
 0824 3335d500 6f008000 13050000 8329c140  35..o........).@
 0834 03290141 83244141 03248141 8320c141  .).A.$AA.$.A. .A
 0844 13010142 67800000 13010181 2326117e  ...Bg.......#&.~
 0854 2324817e 2322917e 2320217f 130101fd  #$.~#".~# !.....
 0864 13090500 13050141 13060040 13040141  .......A...@...A
 0874 93050000 97f0ffff e780c079 13050101  ...........y....
 0884 13060040 93040101 93050000 97f0ffff  ...@............
 0894 e7804078 13060000 13050000 9305b00b  ..@x............
 08a4 6f00c001 93060000 13071600 3336c700  o...........36..
 08b4 3305c500 13060700 638a0602 93163600  3.......c.....6.
 08c4 3307d400 2320c700 13674700 2320a700  3...# ...gG.# ..
 08d4 b386d400 23a0b600 93e64600 23a00600  ....#.....F.#...
 08e4 e31205fc 9336f607 6ff01ffc 93040141  .....6..o......A
 08f4 1305e006 93050141 13060101 13040101  .......A........
 0904 e7000900 93050000 13050000 6f00c001  ............o...
 0914 13060000 93861500 b3b5b600 3305b500  ............3...
 0924 93850600 630a0606 93f61500 13963500  ....c.........5.
 0934 63920602 3306c400 93664600 03260600  c...3....fF..&..
 0944 83a60600 1346b60b 3366d600 630c0602  .....F..3f..c...
 0954 6f000004 b386c400 13e74600 03270700  o.........F..'..
 0964 83a60600 3306c400 93674600 03260600  ....3....gF..&..
 0974 83a70700 33c6c600 b346f700 3366d600  ....3....F..3f..
 0984 63180600 e31605f8 13b6d506 6ff09ff8  c...........o...
 0994 13050000 6f000008 03250138 83254138  ....o....%.8.%A8
 09a4 1345b50b b365b500 13050000 63940506  .E...e......c...
 09b4 13050000 9306e006 9305e007 13060101  ................
 09c4 6f000004 13b7f607 b3b7d500 63920704  o...........c...
 09d4 93871600 93943700 b3049600 13e44400  ......7.......D.
 09e4 83a40400 03240400 b3b6d700 93c4b40b  .....$..........
 09f4 b3e48400 3305d500 93860700 639a0400  ....3.......c...
 0a04 e30205fc 13070000 b337a000 e38207fc  .........7......
 0a14 13451700 13010103 0329017e 8324417e  .E.......).~.$A~
 0a24 0324817e 8320c17e 1301017f 67800000  .$.~. .~....g...
 0a34 6f00c000 93b61600 63920602 d7763504  o.......c....v5.
 0a44 e38a06fe 07840502 27040602 b385d500  ........'.......
 0a54 3306d600 3305d540 6ff0dffd 67800000  3...3..@o...g...
 0a64 6f00c000 93b61600 63940602 d776b504  o.......c....v..
 0a74 e38a06fe 07d40502 27540602 13971600  ........'T......
 0a84 b385e500 3306e600 3305d540 6ff09ffd  ....3...3..@o...
 0a94 67800000 6f00c000 93b61600 63940602  g...o.......c...
 0aa4 d7763505 e38a06fe 07e40502 27640602  .v5.........'d..
 0ab4 13972600 b385e500 3306e600 3305d540  ..&.....3...3..@
 0ac4 6ff09ffd 67800000 6f00c000 93b61600  o...g...o.......
 0ad4 63940602 d7767505 e38a06fe 87ec0502  c....vu.........
 0ae4 a76c0602 13972600 b385e500 3306e600  .l....&.....3...
 0af4 3305d540 6ff09ffd 67800000 93084000  3..@o...g.....@.
 0b04 6f004002 07840502 27040602 13080700  o.@.....'.......
 0b14 33050541 b3850501 33060601 93361700  3..A....3....6..
 0b24 639c0602 57773504 e30a07fe 13182700  c...Ww5.......'.
 0b34 e37aa8fc 93070000 b386f500 57703704  .z..........Wp7.
 0b44 0784160b b306f600 93871700 2784160b  ............'...
 0b54 e39417ff 6ff0dffb 67800000 93088000  ....o...g.......
 0b64 6f008002 07d40502 27540602 13080700  o.......'T......
 0b74 33050541 93161800 b385d500 3306d600  3..A........3...
 0b84 93361700 639c0602 5777b504 e30a07fe  .6..c...Ww......
 0b94 13182700 e378a8fc 93070000 b386f500  ..'..x..........
 0ba4 5770b704 07d4160b b306f600 93872700  Wp............'.
 0bb4 27d4160b e39417ff 6ff09ffb 67800000  '.......o...g...
 0bc4 93080001 6f008002 07e40502 27640602  ....o.......'d..
 0bd4 13080700 33050541 93162800 b385d500  ....3..A..(.....
 0be4 3306d600 93361700 639c0602 57773505  3....6..c...Ww5.
 0bf4 e30a07fe 13182700 e378a8fc 93070000  ......'..x......
 0c04 b386f500 57703705 07e4160b b306f600  ....Wp7.........
 0c14 93874700 27e4160b e39417ff 6ff09ffb  ..G.'.......o...
 0c24 67800000 93080001 6f008002 87ec0502  g.......o.......
 0c34 a76c0602 13080700 33050541 93162800  .l......3..A..(.
 0c44 b385d500 3306d600 93361700 639c0602  ....3....6..c...
 0c54 57777505 e30a07fe 13182700 e378a8fc  Wwu.......'..x..
 0c64 93070000 b386f500 57707705 87ec160b  ........Wpw.....
 0c74 b306f600 93874700 a7ec160b e39417ff  ......G.........
 0c84 6ff09ffb 67800000 130101f6 232e1108  o...g.......#...
 0c94 232c8108 232a9108 23282109 23263109  #,..#*..#(!.#&1.
 0ca4 23244109 13090600 93840500 13040500  #$A.............
 0cb4 d7793004 13058100 13060008 130a8100  .y0.............
 0cc4 93050000 97f0ffff e780c034 638e0900  ...........4c...
 0cd4 13050000 93451500 3306aa00 13051500  .....E..3.......
 0ce4 2300b600 e398a9fe 57f03904 13058100  #.......W.9.....
 0cf4 07040502 6f000002 07880402 27080902  ....o.......'...
 0d04 b384a400 3309a900 3304a440 13351500  ....3...3..@.5..
 0d14 631e0500 57753404 e30a05fe e31e35fd  c...Wu4.......5.
 0d24 07888406 27088906 6ff09ffd 032a8108  ....'...o....*..
 0d34 8329c108 03290109 83244109 03248109  .)...)...$A..$..
 0d44 8320c109 1301010a 67800000 130101ee  . ......g.......
 0d54 232e1110 232c8110 232a9110 23282111  #...#,..#*..#(!.
 0d64 23263111 23244111 13090600 138a0500  #&1.#$A.........
 0d74 13040500 d779b004 13058100 13060010  .....y..........
 0d84 93048100 93050000 97f0ffff e7808028  ...............(
 0d94 63800902 13050000 93151500 93c52500  c.............%.
 0da4 2390b400 13051500 93842400 e396a9fe  #.........$.....
 0db4 57f0b904 13058100 07540502 6f004002  W........T..o.@.
 0dc4 07580a02 27580902 93151500 330aba00  .X..'X......3...
 0dd4 3309b900 3304a440 13351500 631e0500  3...3..@.5..c...
 0de4 5775b404 e30a05fe e31c35fd 07588a06  Wu........5..X..
 0df4 27588906 6ff05ffd 032a8110 8329c110  'X..o._..*...)..
 0e04 03290111 83244111 03248111 8320c111  .)...$A..$... ..
 0e14 13010112 67800000 130101de 232e1120  ....g.......#.. 
 0e24 232c8120 232a9120 23282121 23263121  #,. #*. #(!!#&1!
 0e34 23244121 13090600 93840500 13040500  #$A!............
 0e44 d7793005 13058100 13060020 130a8100  .y0........ ....
 0e54 93050000 97f0ffff e780c01b 63820902  ............c...
 0e64 13050000 93850900 13464500 b306aa00  .........FE.....
 0e74 23a0c600 9385f5ff 13054500 e39605fe  #.........E.....
 0e84 57f03905 13058100 07640502 6f004002  W.9......d..o.@.
 0e94 07e80402 27680902 93152500 b384b400  ....'h....%.....
 0ea4 3309b900 3304a440 13351500 631e0500  3...3..@.5..c...
 0eb4 57753405 e30a05fe e31c35fd 07e88406  Wu4.......5.....
 0ec4 27688906 6ff05ffd 032a8120 8329c120  'h..o._..*. .). 
 0ed4 03290121 83244121 03248121 8320c121  .).!.$A!.$.!. .!
 0ee4 13010122 67800000 130101de 232e1120  ..."g.......#.. 
 0ef4 232c8120 232a9120 23282121 23263121  #,. #*. #(!!#&1!
 0f04 23244121 13090600 93840500 13040500  #$A!............
 0f14 d7797005 13058100 13060020 130a8100  .yp........ ....
 0f24 93050000 97f0ffff e780c00e 63820902  ............c...
 0f34 13050000 93850900 13464500 b306aa00  .........FE.....
 0f44 23a0c600 9385f5ff 13054500 e39605fe  #.........E.....
 0f54 57f07905 13058100 876c0502 6f004002  W.y......l..o.@.
 0f64 07ed0402 276d0902 93152500 b384b400  ....'m....%.....
 0f74 3309b900 3304a440 13351500 631e0500  3...3..@.5..c...
 0f84 57757405 e30a05fe e31c35fd 07ed9407  Wut.......5.....
 0f94 276d9907 6ff05ffd 032a8120 8329c120  'm..o._..*. .). 
 0fa4 03290121 83244121 03248121 8320c121  .).!.$A!.$.!. .!
 0fb4 13010122 67800000 d7763004 07840502  ..."g....v0.....
 0fc4 57b08062 6f00c000 93b61600 63960602  W..bo.......c...
 0fd4 d7763504 e38a06fe 57f03600 07840500  .v5.....W.6.....
 0fe4 57703004 27040600 b385d500 3306d600  Wp0.'.......3...
 0ff4 3305d540 6ff05ffd 67800000 d776b004  3..@o._.g....v..
 1004 07d40502 57b08062 6f00c000 93b61600  ....W..bo.......
 1014 63980602 d776b504 e38a06fe 57f0b600  c....v......W...
 1024 07d40500 5770b004 27540600 13971600  ....Wp..'T......
 1034 b385e500 3306e600 3305d540 6ff01ffd  ....3...3..@o...
 1044 67800000 d7763005 07e40502 57b08062  g....v0.....W..b
 1054 6f00c000 93b61600 63980602 d7763505  o.......c....v5.
 1064 e38a06fe 57f03601 07e40500 57703005  ....W.6.....Wp0.
 1074 27640600 13972600 b385e500 3306e600  'd....&.....3...
 1084 3305d540 6ff01ffd 67800000 d7767005  3..@o...g....vp.
 1094 87ec0502 57b09063 6f00c000 93b61600  ....W..co.......
 10a4 63980602 d7767505 e38a06fe 57f07601  c....vu.....W.v.
 10b4 87ec0500 57707005 a76c0600 13972600  ....Wpp..l....&.
 10c4 b385e500 3306e600 3305d540 6ff01ffd  ....3...3..@o...
 10d4 67800000 130101ff 23261100 23248100  g.......#&..#$..
 10e4 37150000 130545a3 97f0ffff e78040f4  7.....E.......@.
 10f4 13040500 37150000 130545a6 97f0ffff  ....7.....E.....
 1104 e780c002 13151500 33648500 37150000  ........3d..7...
 1114 130585a9 97f0ffff e7800012 13152500  ..............%.
 1124 3364a400 37150000 1305c5ac 97f0ffff  3d..7...........
 1134 e7808010 13153500 3364a400 37150000  ......5.3d..7...
 1144 130505b0 97f0ffff e78080ee 13154500  ..............E.
 1154 3364a400 37150000 130505b6 97f0ffff  3d..7...........
 1164 e780c0fc 13155500 3364a400 37150000  ......U.3d..7...
 1174 130545bc 97f0ffff e780000c 13156500  ..E...........e.
 1184 3364a400 37150000 130585c2 97f0ffff  3d..7...........
 1194 e780800a 13157500 3364a400 37150000  ......u.3d..7...
 11a4 1305c5c8 97f0ffff e78080e8 13158500  ................
 11b4 3364a400 37150000 130505d5 97f0ffff  3d..7...........
 11c4 e780c0f6 13159500 3364a400 37150000  ........3d..7...
 11d4 1305c5e1 97f0ffff e7800006 1315a500  ................
 11e4 3364a400 37150000 1305c5ee 97f0ffff  3d..7...........
 11f4 e7808004 1315b500 3364a400 37150000  ........3d..7...
 1204 1305c5fb 97f0ffff e78080e2 1315c500  ................
 1214 3364a400 37150000 13050500 97f0ffff  3d..7...........
 1224 e780c0f0 1315d500 3364a400 37150000  ........3d..7...
 1234 13058504 97f0ffff e7800000 1315e500  ................
 1244 3364a400 37150000 13050509 97f0ffff  3d..7...........
 1254 e78080fe 1315f500 3365a400 b70500f0  ........3e......
 1264 23a0a500 03248100 8320c100 13010101  #....$... ......
 1274 67800000                             g...
Contents of section .comment:
 0000 5562756e 74752063 6c616e67 20766572  Ubuntu clang ver
 0010 73696f6e 2031332e 302e312d 2b2b3230  sion 13.0.1-++20
 0020 32323031 32303131 30393234 2b373565  220120110924+75e
 0030 33336637 31633264 612d317e 65787031  33f71c2da-1~exp1
 0040 7e323032 32303132 30323331 3030312e  ~20220120231001.
 0050 3538004c 696e6b65 723a2055 62756e74  58.Linker: Ubunt
 0060 75204c4c 44203133 2e302e31 0000      u LLD 13.0.1..
Contents of section .riscv.attributes:
 0000 41320000 00726973 63760001 28000000  A2...riscv..(...
 0010 04100572 76333269 3270305f 6d327030  ...rv32i2p0_m2p0
 0020 5f763070 31305f7a 766c7373 65673070  _v0p10_zvlsseg0p
 0030 313000                               10.
Contents of section .symtab:
 0000 00000000 00000000 00000000 00000000  ................
 0010 01000000 00000000 00000000 00000100  ................
 0020 07000000 00000000 00000000 00000100  ................
 0030 13000000 10000000 00000000 00000100  ................
 0040 17000000 00000000 00000000 0400f1ff  ................
 0050 2c000000 2c000000 00000000 00000200  ,...,...........
 0060 34000000 1c000000 00000000 00000200  4...............
 0070 3c000000 7c000000 00000000 00000200  <...|...........
 0080 44000000 ac000000 00000000 00000200  D...............
 0090 4c000000 10010000 00000000 00000200  L...............
 00a0 55000000 14010000 00000000 00000200  U...............
 00b0 5e000000 e4000000 00000000 00000200  ^...............
 00c0 66000000 04010000 00000000 00000200  f...............
 00d0 6e000000 78010000 00000000 00000200  n...x...........
 00e0 76000000 b0010000 00000000 00000200  v...............
 00f0 7e000000 1c020000 00000000 00000200  ~...............
 0100 87000000 20020000 00000000 00000200  .... ...........
 0110 90000000 f0010000 00000000 00000200  ................
 0120 98000000 10020000 00000000 00000200  ................
 0130 a0000000 84020000 00000000 00000200  ................
 0140 a8000000 b4020000 00000000 00000200  ................
 0150 b0000000 0c030000 00000000 00000200  ................
 0160 b9000000 10030000 00000000 00000200  ................
 0170 c2000000 e8020000 00000000 00000200  ................
 0180 ca000000 00030000 00000000 00000200  ................
 0190 d2000000 94030000 00000000 00000200  ................
 01a0 da000000 7c030000 00000000 00000200  ....|...........
 01b0 e2000000 80030000 00000000 00000200  ................
 01c0 ea000000 b4030000 00000000 00000200  ................
 01d0 f2000000 f0030000 00000000 00000200  ................
 01e0 fa000000 d8030000 00000000 00000200  ................
 01f0 02010000 dc030000 00000000 00000200  ................
 0200 0a010000 38040000 00000000 00000200  ....8...........
 0210 13010000 30040000 00000000 00000200  ....0...........
 0220 1c010000 ac040000 00000000 00000200  ................
 0230 25010000 5c040000 00000000 00000200  %...\...........
 0240 2e010000 70040000 00000000 00000200  ....p...........
 0250 37010000 7c040000 00000000 00000200  7...|...........
 0260 40010000 a8040000 00000000 00000200  @...............
 0270 49010000 20050000 00000000 00000200  I... ...........
 0280 51010000 78050000 00000000 00000200  Q...x...........
 0290 59010000 60050000 00000000 00000200  Y...`...........
 02a0 61010000 d4050000 00000000 00000200  a...............
 02b0 6a010000 70050000 00000000 00000200  j...p...........
 02c0 72010000 90050000 00000000 00000200  r...............
 02d0 7a010000 a8050000 00000000 00000200  z...............
 02e0 82010000 c8050000 00000000 00000200  ................
 02f0 8b010000 d8050000 00000000 00000200  ................
 0300 94010000 4c060000 00000000 00000200  ....L...........
 0310 9c010000 a8060000 00000000 00000200  ................
 0320 a4010000 8c060000 00000000 00000200  ................
 0330 ac010000 08070000 00000000 00000200  ................
 0340 b5010000 98060000 00000000 00000200  ................
 0350 bd010000 bc060000 00000000 00000200  ................
 0360 c5010000 dc060000 00000000 00000200  ................
 0370 cd010000 fc060000 00000000 00000200  ................
 0380 d6010000 0c070000 00000000 00000200  ................
 0390 df010000 80070000 00000000 00000200  ................
 03a0 e7010000 dc070000 00000000 00000200  ................
 03b0 ef010000 c0070000 00000000 00000200  ................
 03c0 f7010000 2c080000 00000000 00000200  ....,...........
 03d0 00020000 cc070000 00000000 00000200  ................
 03e0 08020000 f0070000 00000000 00000200  ................
 03f0 10020000 08080000 00000000 00000200  ................
 0400 18020000 20080000 00000000 00000200  .... ...........
 0410 21020000 30080000 00000000 00000200  !...0...........
 0420 2a020000 c0080000 00000000 00000200  *...............
 0430 32020000 a8080000 00000000 00000200  2...............
 0440 3a020000 ac080000 00000000 00000200  :...............
 0450 42020000 f0080000 00000000 00000200  B...............
 0460 4a020000 2c090000 00000000 00000200  J...,...........
 0470 52020000 14090000 00000000 00000200  R...............
 0480 5a020000 18090000 00000000 00000200  Z...............
 0490 62020000 9c090000 00000000 00000200  b...............
 04a0 6b020000 58090000 00000000 00000200  k...X...........
 04b0 74020000 88090000 00000000 00000200  t...............
 04c0 7d020000 94090000 00000000 00000200  }...............
 04d0 86020000 180a0000 00000000 00000200  ................
 04e0 8f020000 040a0000 00000000 00000200  ................
 04f0 98020000 c8090000 00000000 00000200  ................
 0500 a1020000 140a0000 00000000 00000200  ................
 0510 aa020000 d4090000 00000000 00000200  ................
 0520 b3020000 400a0000 00000000 00000200  ....@...........
 0530 bb020000 380a0000 00000000 00000200  ....8...........
 0540 c3020000 600a0000 00000000 00000200  ....`...........
 0550 cb020000 700a0000 00000000 00000200  ....p...........
 0560 d4020000 680a0000 00000000 00000200  ....h...........
 0570 dd020000 940a0000 00000000 00000200  ................
 0580 e6020000 a40a0000 00000000 00000200  ................
 0590 ef020000 9c0a0000 00000000 00000200  ................
 05a0 f8020000 c80a0000 00000000 00000200  ................
 05b0 01030000 d80a0000 00000000 00000200  ................
 05c0 0a030000 d00a0000 00000000 00000200  ................
 05d0 13030000 fc0a0000 00000000 00000200  ................
 05e0 1c030000 280b0000 00000000 00000200  ....(...........
 05f0 25030000 080b0000 00000000 00000200  %...............
 0600 2e030000 140b0000 00000000 00000200  ................
 0610 37030000 200b0000 00000000 00000200  7... ...........
 0620 40030000 5c0b0000 00000000 00000200  @...\...........
 0630 49030000 3c0b0000 00000000 00000200  I...<...........
 0640 52030000 8c0b0000 00000000 00000200  R...............
 0650 5b030000 680b0000 00000000 00000200  [...h...........
 0660 64030000 740b0000 00000000 00000200  d...t...........
 0670 6d030000 840b0000 00000000 00000200  m...............
 0680 76030000 c00b0000 00000000 00000200  v...............
 0690 7f030000 a00b0000 00000000 00000200  ................
 06a0 88030000 f00b0000 00000000 00000200  ................
 06b0 91030000 cc0b0000 00000000 00000200  ................
 06c0 9a030000 d80b0000 00000000 00000200  ................
 06d0 a3030000 e80b0000 00000000 00000200  ................
 06e0 ac030000 240c0000 00000000 00000200  ....$...........
 06f0 b5030000 040c0000 00000000 00000200  ................
 0700 be030000 540c0000 00000000 00000200  ....T...........
 0710 c7030000 300c0000 00000000 00000200  ....0...........
 0720 d0030000 3c0c0000 00000000 00000200  ....<...........
 0730 d9030000 4c0c0000 00000000 00000200  ....L...........
 0740 e2030000 880c0000 00000000 00000200  ................
 0750 eb030000 680c0000 00000000 00000200  ....h...........
 0760 f4030000 ec0c0000 00000000 00000200  ................
 0770 fd030000 d80c0000 00000000 00000200  ................
 0780 06040000 180d0000 00000000 00000200  ................
 0790 0f040000 fc0c0000 00000000 00000200  ................
 07a0 18040000 040d0000 00000000 00000200  ................
 07b0 21040000 100d0000 00000000 00000200  !...............
 07c0 2a040000 300d0000 00000000 00000200  *...0...........
 07d0 34040000 b40d0000 00000000 00000200  4...............
 07e0 3d040000 9c0d0000 00000000 00000200  =...............
 07f0 46040000 e40d0000 00000000 00000200  F...............
 0800 4f040000 c40d0000 00000000 00000200  O...............
 0810 58040000 cc0d0000 00000000 00000200  X...............
 0820 61040000 dc0d0000 00000000 00000200  a...............
 0830 6a040000 fc0d0000 00000000 00000200  j...............
 0840 74040000 840e0000 00000000 00000200  t...............
 0850 7d040000 6c0e0000 00000000 00000200  }...l...........
 0860 86040000 b40e0000 00000000 00000200  ................
 0870 8f040000 940e0000 00000000 00000200  ................
 0880 98040000 9c0e0000 00000000 00000200  ................
 0890 a1040000 ac0e0000 00000000 00000200  ................
 08a0 aa040000 cc0e0000 00000000 00000200  ................
 08b0 b4040000 540f0000 00000000 00000200  ....T...........
 08c0 bd040000 3c0f0000 00000000 00000200  ....<...........
 08d0 c6040000 840f0000 00000000 00000200  ................
 08e0 cf040000 640f0000 00000000 00000200  ....d...........
 08f0 d8040000 6c0f0000 00000000 00000200  ....l...........
 0900 e1040000 7c0f0000 00000000 00000200  ....|...........
 0910 ea040000 9c0f0000 00000000 00000200  ................
 0920 f4040000 d40f0000 00000000 00000200  ................
 0930 fd040000 cc0f0000 00000000 00000200  ................
 0940 06050000 fc0f0000 00000000 00000200  ................
 0950 0f050000 18100000 00000000 00000200  ................
 0960 18050000 10100000 00000000 00000200  ................
 0970 21050000 44100000 00000000 00000200  !...D...........
 0980 2a050000 60100000 00000000 00000200  *...`...........
 0990 33050000 58100000 00000000 00000200  3...X...........
 09a0 3c050000 8c100000 00000000 00000200  <...............
 09b0 45050000 a8100000 00000000 00000200  E...............
 09c0 4e050000 a0100000 00000000 00000200  N...............
 09d0 57050000 d4100000 00000000 00000200  W...............
 09e0 60050000 00000100 00000000 1000f1ff  `...............
 09f0 65050000 d8100000 a0010000 12000200  e...............
 0a00 6a050000 14000000 1c000000 12000200  j...............
 0a10 71050000 30000000 fc000000 12000200  q...0...........
 0a20 8f050000 2c010000 0c010000 12000200  ....,...........
 0a30 ae050000 38020000 f0000000 12000200  ....8...........
 0a40 cd050000 28030000 a0010000 12000200  ....(...........
 0a50 ec050000 c8040000 2c010000 12000200  ........,.......
 0a60 11060000 f4050000 34010000 12000200  ........4.......
 0a70 37060000 28070000 24010000 12000200  7...(...$.......
 0a80 5d060000 4c080000 e8010000 12000200  ]...L...........
 0a90 83060000 340a0000 30000000 12000200  ....4...0.......
 0aa0 a2060000 640a0000 34000000 12000200  ....d...4.......
 0ab0 c2060000 980a0000 34000000 12000200  ........4.......
 0ac0 e2060000 cc0a0000 34000000 12000200  ........4.......
 0ad0 03070000 000b0000 60000000 12000200  ........`.......
 0ae0 1e070000 600b0000 64000000 12000200  ....`...d.......
 0af0 3a070000 c40b0000 64000000 12000200  :.......d.......
 0b00 56070000 280c0000 64000000 12000200  V...(...d.......
 0b10 73070000 8c0c0000 c4000000 12000200  s...............
 0b20 8e070000 500d0000 cc000000 12000200  ....P...........
 0b30 aa070000 1c0e0000 d0000000 12000200  ................
 0b40 c6070000 ec0e0000 d0000000 12000200  ................
 0b50 e3070000 bc0f0000 44000000 12000200  ........D.......
 0b60 04080000 00100000 48000000 12000200  ........H.......
 0b70 26080000 48100000 48000000 12000200  &...H...H.......
 0b80 48080000 90100000 48000000 12000200  H.......H.......
Contents of section .shstrtab:
 0000 002e7465 78742e69 6e697400 2e746578  ..text.init..tex
 0010 74002e63 6f6d6d65 6e74002e 72697363  t..comment..risc
 0020 762e6174 74726962 75746573 002e7379  v.attributes..sy
 0030 6d746162 002e7368 73747274 6162002e  mtab..shstrtab..
 0040 73747274 616200                      strtab.
Contents of section .strtab:
 0000 00656e74 7279002e 4c706372 656c5f68  .entry..Lpcrel_h
 0010 69300065 6e640074 6573745f 76656374  i0.end.test_vect
 0020 6f725f6d 656d6370 792e6300 2e4c4242  or_memcpy.c..LBB
 0030 305f3300 2e4c4242 305f3200 2e4c4242  0_3..LBB0_2..LBB
 0040 315f3100 2e4c4242 315f3300 2e4c4242  1_1..LBB1_3..LBB
 0050 315f3130 002e4c42 42315f31 31002e4c  1_10..LBB1_11..L
 0060 4242315f 37002e4c 4242315f 39002e4c  BB1_7..LBB1_9..L
 0070 4242325f 31002e4c 4242325f 33002e4c  BB2_1..LBB2_3..L
 0080 4242325f 3130002e 4c424232 5f313100  BB2_10..LBB2_11.
 0090 2e4c4242 325f3700 2e4c4242 325f3900  .LBB2_7..LBB2_9.
 00a0 2e4c4242 335f3100 2e4c4242 335f3300  .LBB3_1..LBB3_3.
 00b0 2e4c4242 335f3130 002e4c42 42335f31  .LBB3_10..LBB3_1
 00c0 31002e4c 4242335f 37002e4c 4242335f  1..LBB3_7..LBB3_
 00d0 39002e4c 4242345f 33002e4c 4242345f  9..LBB4_3..LBB4_
 00e0 31002e4c 4242345f 32002e4c 4242345f  1..LBB4_2..LBB4_
 00f0 35002e4c 4242345f 38002e4c 4242345f  5..LBB4_8..LBB4_
 0100 36002e4c 4242345f 37002e4c 4242345f  6..LBB4_7..LBB4_
 0110 3132002e 4c424234 5f313100 2e4c4242  12..LBB4_11..LBB
 0120 345f3139 002e4c42 42345f31 34002e4c  4_19..LBB4_14..L
 0130 4242345f 3136002e 4c424234 5f313700  BB4_16..LBB4_17.
 0140 2e4c4242 345f3138 002e4c42 42355f31  .LBB4_18..LBB5_1
 0150 002e4c42 42355f35 002e4c42 42355f33  ..LBB5_5..LBB5_3
 0160 002e4c42 42355f31 32002e4c 4242355f  ..LBB5_12..LBB5_
 0170 34002e4c 4242355f 37002e4c 4242355f  4..LBB5_7..LBB5_
 0180 39002e4c 4242355f 3131002e 4c424235  9..LBB5_11..LBB5
 0190 5f313300 2e4c4242 365f3100 2e4c4242  _13..LBB6_1..LBB
 01a0 365f3500 2e4c4242 365f3300 2e4c4242  6_5..LBB6_3..LBB
 01b0 365f3132 002e4c42 42365f34 002e4c42  6_12..LBB6_4..LB
 01c0 42365f37 002e4c42 42365f39 002e4c42  B6_7..LBB6_9..LB
 01d0 42365f31 31002e4c 4242365f 3133002e  B6_11..LBB6_13..
 01e0 4c424237 5f31002e 4c424237 5f35002e  LBB7_1..LBB7_5..
 01f0 4c424237 5f33002e 4c424237 5f313200  LBB7_3..LBB7_12.
 0200 2e4c4242 375f3400 2e4c4242 375f3700  .LBB7_4..LBB7_7.
 0210 2e4c4242 375f3900 2e4c4242 375f3131  .LBB7_9..LBB7_11
 0220 002e4c42 42375f31 33002e4c 4242385f  ..LBB7_13..LBB8_
 0230 33002e4c 4242385f 31002e4c 4242385f  3..LBB8_1..LBB8_
 0240 32002e4c 4242385f 35002e4c 4242385f  2..LBB8_5..LBB8_
 0250 38002e4c 4242385f 36002e4c 4242385f  8..LBB8_6..LBB8_
 0260 37002e4c 4242385f 3134002e 4c424238  7..LBB8_14..LBB8
 0270 5f313000 2e4c4242 385f3131 002e4c42  _10..LBB8_11..LB
 0280 42385f31 33002e4c 4242385f 3231002e  B8_13..LBB8_21..
 0290 4c424238 5f313800 2e4c4242 385f3136  LBB8_18..LBB8_16
 02a0 002e4c42 42385f32 30002e4c 4242385f  ..LBB8_20..LBB8_
 02b0 3137002e 4c424239 5f32002e 4c424239  17..LBB9_2..LBB9
 02c0 5f31002e 4c424239 5f34002e 4c424231  _1..LBB9_4..LBB1
 02d0 305f3200 2e4c4242 31305f31 002e4c42  0_2..LBB10_1..LB
 02e0 4231305f 34002e4c 42423131 5f32002e  B10_4..LBB11_2..
 02f0 4c424231 315f3100 2e4c4242 31315f34  LBB11_1..LBB11_4
 0300 002e4c42 4231325f 32002e4c 42423132  ..LBB12_2..LBB12
 0310 5f31002e 4c424231 325f3400 2e4c4242  _1..LBB12_4..LBB
 0320 31335f34 002e4c42 4231335f 31002e4c  13_4..LBB13_1..L
 0330 42423133 5f32002e 4c424231 335f3300  BB13_2..LBB13_3.
 0340 2e4c4242 31335f38 002e4c42 4231335f  .LBB13_8..LBB13_
 0350 37002e4c 42423134 5f34002e 4c424231  7..LBB14_4..LBB1
 0360 345f3100 2e4c4242 31345f32 002e4c42  4_1..LBB14_2..LB
 0370 4231345f 33002e4c 42423134 5f38002e  B14_3..LBB14_8..
 0380 4c424231 345f3700 2e4c4242 31355f34  LBB14_7..LBB15_4
 0390 002e4c42 4231355f 31002e4c 42423135  ..LBB15_1..LBB15
 03a0 5f32002e 4c424231 355f3300 2e4c4242  _2..LBB15_3..LBB
 03b0 31355f38 002e4c42 4231355f 37002e4c  15_8..LBB15_7..L
 03c0 42423136 5f34002e 4c424231 365f3100  BB16_4..LBB16_1.
 03d0 2e4c4242 31365f32 002e4c42 4231365f  .LBB16_2..LBB16_
 03e0 33002e4c 42423136 5f38002e 4c424231  3..LBB16_8..LBB1
 03f0 365f3700 2e4c4242 31375f33 002e4c42  6_7..LBB17_3..LB
 0400 4231375f 32002e4c 42423137 5f37002e  B17_2..LBB17_7..
 0410 4c424231 375f3400 2e4c4242 31375f35  LBB17_4..LBB17_5
 0420 002e4c42 4231375f 36002e4c 42423137  ..LBB17_6..LBB17
 0430 5f313000 2e4c4242 31385f33 002e4c42  _10..LBB18_3..LB
 0440 4231385f 32002e4c 42423138 5f37002e  B18_2..LBB18_7..
 0450 4c424231 385f3400 2e4c4242 31385f35  LBB18_4..LBB18_5
 0460 002e4c42 4231385f 36002e4c 42423138  ..LBB18_6..LBB18
 0470 5f313000 2e4c4242 31395f33 002e4c42  _10..LBB19_3..LB
 0480 4231395f 32002e4c 42423139 5f37002e  B19_2..LBB19_7..
 0490 4c424231 395f3400 2e4c4242 31395f35  LBB19_4..LBB19_5
 04a0 002e4c42 4231395f 36002e4c 42423139  ..LBB19_6..LBB19
 04b0 5f313000 2e4c4242 32305f33 002e4c42  _10..LBB20_3..LB
 04c0 4232305f 32002e4c 42423230 5f37002e  B20_2..LBB20_7..
 04d0 4c424232 305f3400 2e4c4242 32305f35  LBB20_4..LBB20_5
 04e0 002e4c42 4232305f 36002e4c 42423230  ..LBB20_6..LBB20
 04f0 5f313000 2e4c4242 32315f32 002e4c42  _10..LBB21_2..LB
 0500 4232315f 31002e4c 42423231 5f34002e  B21_1..LBB21_4..
 0510 4c424232 325f3200 2e4c4242 32325f31  LBB22_2..LBB22_1
 0520 002e4c42 4232325f 34002e4c 42423233  ..LBB22_4..LBB23
 0530 5f32002e 4c424232 335f3100 2e4c4242  _2..LBB23_1..LBB
 0540 32335f34 002e4c42 4232345f 32002e4c  23_4..LBB24_2..L
 0550 42423234 5f31002e 4c424232 345f3400  BB24_1..LBB24_4.
 0560 5f5f7370 006d6169 6e006d65 6d736574  __sp.main.memset
 0570 00766563 746f725f 6d656d63 70795f68  .vector_memcpy_h
 0580 61726e65 73735f75 696e7438 5f740076  arness_uint8_t.v
 0590 6563746f 725f6d65 6d637079 5f686172  ector_memcpy_har
 05a0 6e657373 5f75696e 7431365f 74007665  ness_uint16_t.ve
 05b0 63746f72 5f6d656d 6370795f 6861726e  ctor_memcpy_harn
 05c0 6573735f 75696e74 33325f74 00766563  ess_uint32_t.vec
 05d0 746f725f 6d656d63 70795f68 61726e65  tor_memcpy_harne
 05e0 73735f75 696e7436 345f7400 76656374  ss_uint64_t.vect
 05f0 6f725f6d 656d6370 795f6d61 736b6564  or_memcpy_masked
 0600 5f686172 6e657373 5f75696e 74385f74  _harness_uint8_t
 0610 00766563 746f725f 6d656d63 70795f6d  .vector_memcpy_m
 0620 61736b65 645f6861 726e6573 735f7569  asked_harness_ui
 0630 6e743136 5f740076 6563746f 725f6d65  nt16_t.vector_me
 0640 6d637079 5f6d6173 6b65645f 6861726e  mcpy_masked_harn
 0650 6573735f 75696e74 33325f74 00766563  ess_uint32_t.vec
 0660 746f725f 6d656d63 70795f6d 61736b65  tor_memcpy_maske
 0670 645f6861 726e6573 735f7569 6e743634  d_harness_uint64
 0680 5f740076 6563746f 725f6d65 6d637079  _t.vector_memcpy
 0690 5f756e69 745f7374 72696465 5f65386d  _unit_stride_e8m
 06a0 38007665 63746f72 5f6d656d 6370795f  8.vector_memcpy_
 06b0 756e6974 5f737472 6964655f 6531366d  unit_stride_e16m
 06c0 38007665 63746f72 5f6d656d 6370795f  8.vector_memcpy_
 06d0 756e6974 5f737472 6964655f 6533326d  unit_stride_e32m
 06e0 38007665 63746f72 5f6d656d 6370795f  8.vector_memcpy_
 06f0 756e6974 5f737472 6964655f 6533326d  unit_stride_e32m
 0700 66320076 6563746f 725f6d65 6d637079  f2.vector_memcpy
 0710 5f737472 69646564 5f65386d 38007665  _strided_e8m8.ve
 0720 63746f72 5f6d656d 6370795f 73747269  ctor_memcpy_stri
 0730 6465645f 6531366d 38007665 63746f72  ded_e16m8.vector
 0740 5f6d656d 6370795f 73747269 6465645f  _memcpy_strided_
 0750 6533326d 38007665 63746f72 5f6d656d  e32m8.vector_mem
 0760 6370795f 73747269 6465645f 6533326d  cpy_strided_e32m
 0770 66320076 6563746f 725f6d65 6d637079  f2.vector_memcpy
 0780 5f696e64 65786564 5f65386d 38007665  _indexed_e8m8.ve
 0790 63746f72 5f6d656d 6370795f 696e6465  ctor_memcpy_inde
 07a0 7865645f 6531366d 38007665 63746f72  xed_e16m8.vector
 07b0 5f6d656d 6370795f 696e6465 7865645f  _memcpy_indexed_
 07c0 6533326d 38007665 63746f72 5f6d656d  e32m8.vector_mem
 07d0 6370795f 696e6465 7865645f 6533326d  cpy_indexed_e32m
 07e0 66320076 6563746f 725f6d65 6d637079  f2.vector_memcpy
 07f0 5f6d6173 6b65645f 73747269 64655f65  _masked_stride_e
 0800 386d3800 76656374 6f725f6d 656d6370  8m8.vector_memcp
 0810 795f6d61 736b6564 5f737472 6964655f  y_masked_stride_
 0820 6531366d 38007665 63746f72 5f6d656d  e16m8.vector_mem
 0830 6370795f 6d61736b 65645f73 74726964  cpy_masked_strid
 0840 655f6533 326d3800 76656374 6f725f6d  e_e32m8.vector_m
 0850 656d6370 795f6d61 736b6564 5f737472  emcpy_masked_str
 0860 6964655f 6533326d 663200             ide_e32mf2.

Disassembly of section .text.init:

00000000 <entry>:
       0: 17 01 01 00  	auipc	sp, 16
       4: 13 01 01 02  	addi	sp, sp, 32
       8: 97 10 00 00  	auipc	ra, 1
       c: e7 80 00 0d  	jalr	208(ra)

00000010 <end>:
      10: 6f 00 00 00  	j	0x10 <end>

Disassembly of section .text:

00000014 <memset>:
      14: 63 0c 06 00  	beqz	a2, 0x2c <.LBB0_3>
      18: 93 06 05 00  	mv	a3, a0

0000001c <.LBB0_2>:
      1c: 23 80 b6 00  	sb	a1, 0(a3)
      20: 13 06 f6 ff  	addi	a2, a2, -1
      24: 93 86 16 00  	addi	a3, a3, 1
      28: e3 1a 06 fe  	bnez	a2, 0x1c <.LBB0_2>

0000002c <.LBB0_3>:
      2c: 67 80 00 00  	ret

00000030 <vector_memcpy_harness_uint8_t>:
      30: 13 01 01 ef  	addi	sp, sp, -272
      34: 23 26 11 10  	sw	ra, 268(sp)
      38: 23 24 81 10  	sw	s0, 264(sp)
      3c: 23 22 91 10  	sw	s1, 260(sp)
      40: 23 20 21 11  	sw	s2, 256(sp)
      44: 13 09 05 00  	mv	s2, a0
      48: 13 04 01 08  	addi	s0, sp, 128
      4c: 13 05 01 08  	addi	a0, sp, 128
      50: 13 06 00 08  	addi	a2, zero, 128
      54: 93 04 00 08  	addi	s1, zero, 128
      58: 93 05 00 00  	mv	a1, zero
      5c: 97 00 00 00  	auipc	ra, 0
      60: e7 80 80 fb  	jalr	-72(ra)
      64: 13 05 01 00  	mv	a0, sp
      68: 13 06 00 08  	addi	a2, zero, 128
      6c: 93 05 00 00  	mv	a1, zero
      70: 97 00 00 00  	auipc	ra, 0
      74: e7 80 40 fa  	jalr	-92(ra)
      78: 13 05 00 00  	mv	a0, zero

0000007c <.LBB1_1>:
      7c: b3 05 a4 00  	add	a1, s0, a0
      80: 23 80 a5 00  	sb	a0, 0(a1)
      84: 13 05 15 00  	addi	a0, a0, 1
      88: e3 1a 95 fe  	bne	a0, s1, 0x7c <.LBB1_1>
      8c: 93 04 01 08  	addi	s1, sp, 128
      90: 13 05 e0 06  	addi	a0, zero, 110
      94: 93 05 01 08  	addi	a1, sp, 128
      98: 13 06 01 00  	mv	a2, sp
      9c: 13 04 01 00  	mv	s0, sp
      a0: e7 00 09 00  	jalr	s2
      a4: 13 05 00 00  	mv	a0, zero
      a8: 93 05 d0 06  	addi	a1, zero, 109

000000ac <.LBB1_3>:
      ac: 03 c6 04 00  	lbu	a2, 0(s1)
      b0: 83 46 04 00  	lbu	a3, 0(s0)
      b4: 63 1e d6 04  	bne	a2, a3, 0x110 <.LBB1_10>
      b8: 13 76 f5 0f  	andi	a2, a0, 255
      bc: 13 04 14 00  	addi	s0, s0, 1
      c0: 93 84 14 00  	addi	s1, s1, 1
      c4: 13 05 15 00  	addi	a0, a0, 1
      c8: e3 62 b6 fe  	bltu	a2, a1, 0xac <.LBB1_3>
      cc: 83 45 e1 06  	lbu	a1, 110(sp)
      d0: 13 05 00 00  	mv	a0, zero
      d4: 63 90 05 04  	bnez	a1, 0x114 <.LBB1_11>
      d8: 93 05 f0 06  	addi	a1, zero, 111
      dc: 13 05 f0 ff  	addi	a0, zero, -1
      e0: 13 06 01 00  	mv	a2, sp

000000e4 <.LBB1_7>:
      e4: 93 96 85 01  	slli	a3, a1, 24
      e8: 93 d6 86 41  	srai	a3, a3, 24
      ec: 63 cc 06 00  	bltz	a3, 0x104 <.LBB1_9>
      f0: 13 f7 f5 0f  	andi	a4, a1, 255
      f4: 33 07 e6 00  	add	a4, a2, a4
      f8: 03 47 07 00  	lbu	a4, 0(a4)
      fc: 93 85 15 00  	addi	a1, a1, 1
     100: e3 02 07 fe  	beqz	a4, 0xe4 <.LBB1_7>

00000104 <.LBB1_9>:
     104: 33 25 d5 00  	slt	a0, a0, a3
     108: 13 45 15 00  	xori	a0, a0, 1
     10c: 6f 00 80 00  	j	0x114 <.LBB1_11>

00000110 <.LBB1_10>:
     110: 13 05 00 00  	mv	a0, zero

00000114 <.LBB1_11>:
     114: 03 29 01 10  	lw	s2, 256(sp)
     118: 83 24 41 10  	lw	s1, 260(sp)
     11c: 03 24 81 10  	lw	s0, 264(sp)
     120: 83 20 c1 10  	lw	ra, 268(sp)
     124: 13 01 01 11  	addi	sp, sp, 272
     128: 67 80 00 00  	ret

0000012c <vector_memcpy_harness_uint16_t>:
     12c: 13 01 01 df  	addi	sp, sp, -528
     130: 23 26 11 20  	sw	ra, 524(sp)
     134: 23 24 81 20  	sw	s0, 520(sp)
     138: 23 22 91 20  	sw	s1, 516(sp)
     13c: 23 20 21 21  	sw	s2, 512(sp)
     140: 13 09 05 00  	mv	s2, a0
     144: 13 05 01 10  	addi	a0, sp, 256
     148: 13 06 00 10  	addi	a2, zero, 256
     14c: 13 04 01 10  	addi	s0, sp, 256
     150: 93 05 00 00  	mv	a1, zero
     154: 97 00 00 00  	auipc	ra, 0
     158: e7 80 00 ec  	jalr	-320(ra)
     15c: 13 05 01 00  	mv	a0, sp
     160: 13 06 00 10  	addi	a2, zero, 256
     164: 93 05 00 00  	mv	a1, zero
     168: 97 00 00 00  	auipc	ra, 0
     16c: e7 80 c0 ea  	jalr	-340(ra)
     170: 13 05 00 00  	mv	a0, zero
     174: 93 05 00 08  	addi	a1, zero, 128

00000178 <.LBB2_1>:
     178: 23 10 a4 00  	sh	a0, 0(s0)
     17c: 13 05 15 00  	addi	a0, a0, 1
     180: 13 04 24 00  	addi	s0, s0, 2
     184: e3 1a b5 fe  	bne	a0, a1, 0x178 <.LBB2_1>
     188: 93 04 01 10  	addi	s1, sp, 256
     18c: 13 05 e0 06  	addi	a0, zero, 110
     190: 93 05 01 10  	addi	a1, sp, 256
     194: 13 06 01 00  	mv	a2, sp
     198: 13 04 01 00  	mv	s0, sp
     19c: e7 00 09 00  	jalr	s2
     1a0: 13 05 00 00  	mv	a0, zero
     1a4: b7 05 01 00  	lui	a1, 16
     1a8: 93 85 f5 ff  	addi	a1, a1, -1
     1ac: 13 06 d0 06  	addi	a2, zero, 109

000001b0 <.LBB2_3>:
     1b0: 83 d6 04 00  	lhu	a3, 0(s1)
     1b4: 03 57 04 00  	lhu	a4, 0(s0)
     1b8: 63 92 e6 06  	bne	a3, a4, 0x21c <.LBB2_10>
     1bc: b3 76 b5 00  	and	a3, a0, a1
     1c0: 13 04 24 00  	addi	s0, s0, 2
     1c4: 93 84 24 00  	addi	s1, s1, 2
     1c8: 13 05 15 00  	addi	a0, a0, 1
     1cc: e3 e2 c6 fe  	bltu	a3, a2, 0x1b0 <.LBB2_3>
     1d0: 83 55 c1 0d  	lhu	a1, 220(sp)
     1d4: 13 05 00 00  	mv	a0, zero
     1d8: 63 94 05 04  	bnez	a1, 0x220 <.LBB2_11>
     1dc: 13 05 e0 06  	addi	a0, zero, 110
     1e0: b7 05 01 00  	lui	a1, 16
     1e4: 93 85 f5 ff  	addi	a1, a1, -1
     1e8: 13 06 e0 07  	addi	a2, zero, 126
     1ec: 93 06 01 00  	mv	a3, sp

000001f0 <.LBB2_7>:
     1f0: 33 77 b5 00  	and	a4, a0, a1
     1f4: 63 6e e6 00  	bltu	a2, a4, 0x210 <.LBB2_9>
     1f8: 13 05 15 00  	addi	a0, a0, 1
     1fc: b3 77 b5 00  	and	a5, a0, a1
     200: 93 97 17 00  	slli	a5, a5, 1
     204: b3 87 f6 00  	add	a5, a3, a5
     208: 83 d7 07 00  	lhu	a5, 0(a5)
     20c: e3 82 07 fe  	beqz	a5, 0x1f0 <.LBB2_7>

00000210 <.LBB2_9>:
     210: 13 35 f7 07  	sltiu	a0, a4, 127
     214: 13 45 15 00  	xori	a0, a0, 1
     218: 6f 00 80 00  	j	0x220 <.LBB2_11>

0000021c <.LBB2_10>:
     21c: 13 05 00 00  	mv	a0, zero

00000220 <.LBB2_11>:
     220: 03 29 01 20  	lw	s2, 512(sp)
     224: 83 24 41 20  	lw	s1, 516(sp)
     228: 03 24 81 20  	lw	s0, 520(sp)
     22c: 83 20 c1 20  	lw	ra, 524(sp)
     230: 13 01 01 21  	addi	sp, sp, 528
     234: 67 80 00 00  	ret

00000238 <vector_memcpy_harness_uint32_t>:
     238: 13 01 01 be  	addi	sp, sp, -1056
     23c: 23 2e 11 40  	sw	ra, 1052(sp)
     240: 23 2c 81 40  	sw	s0, 1048(sp)
     244: 23 2a 91 40  	sw	s1, 1044(sp)
     248: 23 28 21 41  	sw	s2, 1040(sp)
     24c: 13 09 05 00  	mv	s2, a0
     250: 13 05 01 21  	addi	a0, sp, 528
     254: 13 06 00 20  	addi	a2, zero, 512
     258: 93 04 01 21  	addi	s1, sp, 528
     25c: 93 05 00 00  	mv	a1, zero
     260: 97 00 00 00  	auipc	ra, 0
     264: e7 80 40 db  	jalr	-588(ra)
     268: 13 05 01 01  	addi	a0, sp, 16
     26c: 13 06 00 20  	addi	a2, zero, 512
     270: 93 05 00 00  	mv	a1, zero
     274: 97 00 00 00  	auipc	ra, 0
     278: e7 80 00 da  	jalr	-608(ra)
     27c: 13 05 00 00  	mv	a0, zero
     280: 93 05 00 08  	addi	a1, zero, 128

00000284 <.LBB3_1>:
     284: 23 a0 a4 00  	sw	a0, 0(s1)
     288: 13 05 15 00  	addi	a0, a0, 1
     28c: 93 84 44 00  	addi	s1, s1, 4
     290: e3 1a b5 fe  	bne	a0, a1, 0x284 <.LBB3_1>
     294: 93 04 01 21  	addi	s1, sp, 528
     298: 13 05 e0 06  	addi	a0, zero, 110
     29c: 93 05 01 21  	addi	a1, sp, 528
     2a0: 13 06 01 01  	addi	a2, sp, 16
     2a4: 13 04 01 01  	addi	s0, sp, 16
     2a8: e7 00 09 00  	jalr	s2
     2ac: 13 05 00 00  	mv	a0, zero
     2b0: 93 05 80 1b  	addi	a1, zero, 440

000002b4 <.LBB3_3>:
     2b4: 33 86 a4 00  	add	a2, s1, a0
     2b8: 03 26 06 00  	lw	a2, 0(a2)
     2bc: b3 06 a4 00  	add	a3, s0, a0
     2c0: 83 a6 06 00  	lw	a3, 0(a3)
     2c4: 63 14 d6 04  	bne	a2, a3, 0x30c <.LBB3_10>
     2c8: 13 05 45 00  	addi	a0, a0, 4
     2cc: e3 14 b5 fe  	bne	a0, a1, 0x2b4 <.LBB3_3>
     2d0: 83 25 81 1c  	lw	a1, 456(sp)
     2d4: 13 05 00 00  	mv	a0, zero
     2d8: 63 9c 05 02  	bnez	a1, 0x310 <.LBB3_11>
     2dc: 13 05 c1 1c  	addi	a0, sp, 460
     2e0: 93 06 e0 06  	addi	a3, zero, 110
     2e4: 93 05 f0 07  	addi	a1, zero, 127

000002e8 <.LBB3_7>:
     2e8: 13 86 06 00  	mv	a2, a3
     2ec: 63 8a b6 00  	beq	a3, a1, 0x300 <.LBB3_9>
     2f0: 03 27 05 00  	lw	a4, 0(a0)
     2f4: 93 06 16 00  	addi	a3, a2, 1
     2f8: 13 05 45 00  	addi	a0, a0, 4
     2fc: e3 06 07 fe  	beqz	a4, 0x2e8 <.LBB3_7>

00000300 <.LBB3_9>:
     300: 13 05 e0 07  	addi	a0, zero, 126
     304: 33 35 c5 00  	sltu	a0, a0, a2
     308: 6f 00 80 00  	j	0x310 <.LBB3_11>

0000030c <.LBB3_10>:
     30c: 13 05 00 00  	mv	a0, zero

00000310 <.LBB3_11>:
     310: 03 29 01 41  	lw	s2, 1040(sp)
     314: 83 24 41 41  	lw	s1, 1044(sp)
     318: 03 24 81 41  	lw	s0, 1048(sp)
     31c: 83 20 c1 41  	lw	ra, 1052(sp)
     320: 13 01 01 42  	addi	sp, sp, 1056
     324: 67 80 00 00  	ret

00000328 <vector_memcpy_harness_uint64_t>:
     328: 13 01 01 81  	addi	sp, sp, -2032
     32c: 23 26 11 7e  	sw	ra, 2028(sp)
     330: 23 24 81 7e  	sw	s0, 2024(sp)
     334: 23 22 91 7e  	sw	s1, 2020(sp)
     338: 23 20 21 7f  	sw	s2, 2016(sp)
     33c: 13 01 01 fd  	addi	sp, sp, -48
     340: 13 09 05 00  	mv	s2, a0
     344: 13 05 01 41  	addi	a0, sp, 1040
     348: 13 06 00 40  	addi	a2, zero, 1024
     34c: 13 04 01 41  	addi	s0, sp, 1040
     350: 93 05 00 00  	mv	a1, zero
     354: 97 00 00 00  	auipc	ra, 0
     358: e7 80 00 cc  	jalr	-832(ra)
     35c: 13 05 01 01  	addi	a0, sp, 16
     360: 13 06 00 40  	addi	a2, zero, 1024
     364: 93 05 00 00  	mv	a1, zero
     368: 97 00 00 00  	auipc	ra, 0
     36c: e7 80 c0 ca  	jalr	-852(ra)
     370: 93 05 00 00  	mv	a1, zero
     374: 13 05 00 00  	mv	a0, zero
     378: 6f 00 c0 01  	j	0x394 <.LBB4_3>

0000037c <.LBB4_1>:
     37c: 13 06 00 00  	mv	a2, zero

00000380 <.LBB4_2>:
     380: 93 86 15 00  	addi	a3, a1, 1
     384: b3 b5 b6 00  	sltu	a1, a3, a1
     388: 33 05 b5 00  	add	a0, a0, a1
     38c: 93 85 06 00  	mv	a1, a3
     390: 63 02 06 02  	beqz	a2, 0x3b4 <.LBB4_5>

00000394 <.LBB4_3>:
     394: 13 96 35 00  	slli	a2, a1, 3
     398: 33 06 c4 00  	add	a2, s0, a2
     39c: 23 20 b6 00  	sw	a1, 0(a2)
     3a0: 13 66 46 00  	ori	a2, a2, 4
     3a4: 23 20 a6 00  	sw	a0, 0(a2)
     3a8: e3 1a 05 fc  	bnez	a0, 0x37c <.LBB4_1>
     3ac: 13 b6 f5 07  	sltiu	a2, a1, 127
     3b0: 6f f0 1f fd  	j	0x380 <.LBB4_2>

000003b4 <.LBB4_5>:
     3b4: 93 04 01 41  	addi	s1, sp, 1040
     3b8: 13 05 e0 06  	addi	a0, zero, 110
     3bc: 93 05 01 41  	addi	a1, sp, 1040
     3c0: 13 06 01 01  	addi	a2, sp, 16
     3c4: 13 04 01 01  	addi	s0, sp, 16
     3c8: e7 00 09 00  	jalr	s2
     3cc: 93 05 00 00  	mv	a1, zero
     3d0: 13 05 00 00  	mv	a0, zero
     3d4: 6f 00 c0 01  	j	0x3f0 <.LBB4_8>

000003d8 <.LBB4_6>:
     3d8: 13 06 00 00  	mv	a2, zero

000003dc <.LBB4_7>:
     3dc: 93 86 15 00  	addi	a3, a1, 1
     3e0: b3 b5 b6 00  	sltu	a1, a3, a1
     3e4: 33 05 b5 00  	add	a0, a0, a1
     3e8: 93 85 06 00  	mv	a1, a3
     3ec: 63 06 06 04  	beqz	a2, 0x438 <.LBB4_12>

000003f0 <.LBB4_8>:
     3f0: 13 96 35 00  	slli	a2, a1, 3
     3f4: b3 86 c4 00  	add	a3, s1, a2
     3f8: 13 e7 46 00  	ori	a4, a3, 4
     3fc: 03 27 07 00  	lw	a4, 0(a4)
     400: 83 a6 06 00  	lw	a3, 0(a3)
     404: 33 06 c4 00  	add	a2, s0, a2
     408: 93 67 46 00  	ori	a5, a2, 4
     40c: 03 26 06 00  	lw	a2, 0(a2)
     410: 83 a7 07 00  	lw	a5, 0(a5)
     414: 33 c6 c6 00  	xor	a2, a3, a2
     418: b3 46 f7 00  	xor	a3, a4, a5
     41c: 33 66 d6 00  	or	a2, a2, a3
     420: 63 18 06 00  	bnez	a2, 0x430 <.LBB4_11>
     424: e3 1a 05 fa  	bnez	a0, 0x3d8 <.LBB4_6>
     428: 13 b6 d5 06  	sltiu	a2, a1, 109
     42c: 6f f0 1f fb  	j	0x3dc <.LBB4_7>

00000430 <.LBB4_11>:
     430: 13 05 00 00  	mv	a0, zero
     434: 6f 00 80 07  	j	0x4ac <.LBB4_19>

00000438 <.LBB4_12>:
     438: 03 25 41 38  	lw	a0, 900(sp)
     43c: 83 25 01 38  	lw	a1, 896(sp)
     440: b3 e5 a5 00  	or	a1, a1, a0
     444: 13 05 00 00  	mv	a0, zero
     448: 63 92 05 06  	bnez	a1, 0x4ac <.LBB4_19>
     44c: 13 05 00 00  	mv	a0, zero
     450: 93 06 e0 06  	addi	a3, zero, 110
     454: 93 05 e0 07  	addi	a1, zero, 126
     458: 13 06 01 01  	addi	a2, sp, 16

0000045c <.LBB4_14>:
     45c: 63 0a 05 00  	beqz	a0, 0x470 <.LBB4_16>
     460: 13 07 00 00  	mv	a4, zero
     464: b3 37 a0 00  	snez	a5, a0
     468: 63 8a 07 00  	beqz	a5, 0x47c <.LBB4_17>
     46c: 6f 00 c0 03  	j	0x4a8 <.LBB4_18>

00000470 <.LBB4_16>:
     470: 13 b7 f6 07  	sltiu	a4, a3, 127
     474: b3 b7 d5 00  	sltu	a5, a1, a3
     478: 63 98 07 02  	bnez	a5, 0x4a8 <.LBB4_18>

0000047c <.LBB4_17>:
     47c: 93 87 16 00  	addi	a5, a3, 1
     480: 93 94 37 00  	slli	s1, a5, 3
     484: b3 04 96 00  	add	s1, a2, s1
     488: 03 a4 04 00  	lw	s0, 0(s1)
     48c: 93 e4 44 00  	ori	s1, s1, 4
     490: 83 a4 04 00  	lw	s1, 0(s1)
     494: b3 b6 d7 00  	sltu	a3, a5, a3
     498: b3 64 94 00  	or	s1, s0, s1
     49c: 33 05 d5 00  	add	a0, a0, a3
     4a0: 93 86 07 00  	mv	a3, a5
     4a4: e3 8c 04 fa  	beqz	s1, 0x45c <.LBB4_14>

000004a8 <.LBB4_18>:
     4a8: 13 45 17 00  	xori	a0, a4, 1

000004ac <.LBB4_19>:
     4ac: 13 01 01 03  	addi	sp, sp, 48
     4b0: 03 29 01 7e  	lw	s2, 2016(sp)
     4b4: 83 24 41 7e  	lw	s1, 2020(sp)
     4b8: 03 24 81 7e  	lw	s0, 2024(sp)
     4bc: 83 20 c1 7e  	lw	ra, 2028(sp)
     4c0: 13 01 01 7f  	addi	sp, sp, 2032
     4c4: 67 80 00 00  	ret

000004c8 <vector_memcpy_masked_harness_uint8_t>:
     4c8: 13 01 01 ee  	addi	sp, sp, -288
     4cc: 23 2e 11 10  	sw	ra, 284(sp)
     4d0: 23 2c 81 10  	sw	s0, 280(sp)
     4d4: 23 2a 91 10  	sw	s1, 276(sp)
     4d8: 23 28 21 11  	sw	s2, 272(sp)
     4dc: 23 26 31 11  	sw	s3, 268(sp)
     4e0: 13 09 05 00  	mv	s2, a0
     4e4: 93 09 c1 08  	addi	s3, sp, 140
     4e8: 13 05 c1 08  	addi	a0, sp, 140
     4ec: 13 06 00 08  	addi	a2, zero, 128
     4f0: 93 04 00 08  	addi	s1, zero, 128
     4f4: 93 05 00 00  	mv	a1, zero
     4f8: 97 00 00 00  	auipc	ra, 0
     4fc: e7 80 c0 b1  	jalr	-1252(ra)
     500: 13 05 c1 00  	addi	a0, sp, 12
     504: 13 06 00 08  	addi	a2, zero, 128
     508: 13 04 c1 00  	addi	s0, sp, 12
     50c: 93 05 00 00  	mv	a1, zero
     510: 97 00 00 00  	auipc	ra, 0
     514: e7 80 40 b0  	jalr	-1276(ra)
     518: 13 05 00 00  	mv	a0, zero
     51c: 93 05 b0 0b  	addi	a1, zero, 187

00000520 <.LBB5_1>:
     520: 33 86 a9 00  	add	a2, s3, a0
     524: 23 00 a6 00  	sb	a0, 0(a2)
     528: 33 06 a4 00  	add	a2, s0, a0
     52c: 13 05 15 00  	addi	a0, a0, 1
     530: 23 00 b6 00  	sb	a1, 0(a2)
     534: e3 16 95 fe  	bne	a0, s1, 0x520 <.LBB5_1>
     538: 93 04 e0 06  	addi	s1, zero, 110
     53c: 93 09 c1 08  	addi	s3, sp, 140
     540: 13 05 e0 06  	addi	a0, zero, 110
     544: 93 05 c1 08  	addi	a1, sp, 140
     548: 13 06 c1 00  	addi	a2, sp, 12
     54c: 13 04 c1 00  	addi	s0, sp, 12
     550: e7 00 09 00  	jalr	s2
     554: 13 05 00 00  	mv	a0, zero
     558: 93 05 b0 0b  	addi	a1, zero, 187
     55c: 6f 00 c0 01  	j	0x578 <.LBB5_5>

00000560 <.LBB5_3>:
     560: b3 86 a9 00  	add	a3, s3, a0
     564: 83 c6 06 00  	lbu	a3, 0(a3)
     568: 03 46 06 00  	lbu	a2, 0(a2)
     56c: 63 94 c6 06  	bne	a3, a2, 0x5d4 <.LBB5_12>

00000570 <.LBB5_4>:
     570: 13 05 15 00  	addi	a0, a0, 1
     574: 63 0e 95 00  	beq	a0, s1, 0x590 <.LBB5_7>

00000578 <.LBB5_5>:
     578: 93 76 15 00  	andi	a3, a0, 1
     57c: 33 06 a4 00  	add	a2, s0, a0
     580: e3 90 06 fe  	bnez	a3, 0x560 <.LBB5_3>
     584: 03 46 06 00  	lbu	a2, 0(a2)
     588: e3 04 b6 fe  	beq	a2, a1, 0x570 <.LBB5_4>
     58c: 6f 00 80 04  	j	0x5d4 <.LBB5_12>

00000590 <.LBB5_7>:
     590: 83 45 a1 07  	lbu	a1, 122(sp)
     594: 13 05 b0 0b  	addi	a0, zero, 187
     598: 63 9e a5 02  	bne	a1, a0, 0x5d4 <.LBB5_12>
     59c: 13 06 f0 06  	addi	a2, zero, 111
     5a0: 93 05 f0 ff  	addi	a1, zero, -1
     5a4: 93 06 c1 00  	addi	a3, sp, 12

000005a8 <.LBB5_9>:
     5a8: 13 17 86 01  	slli	a4, a2, 24
     5ac: 13 57 87 41  	srai	a4, a4, 24
     5b0: 63 4c 07 00  	bltz	a4, 0x5c8 <.LBB5_11>
     5b4: 93 77 f6 0f  	andi	a5, a2, 255
     5b8: b3 87 f6 00  	add	a5, a3, a5
     5bc: 83 c7 07 00  	lbu	a5, 0(a5)
     5c0: 13 06 16 00  	addi	a2, a2, 1
     5c4: e3 82 a7 fe  	beq	a5, a0, 0x5a8 <.LBB5_9>

000005c8 <.LBB5_11>:
     5c8: 33 a5 e5 00  	slt	a0, a1, a4
     5cc: 13 45 15 00  	xori	a0, a0, 1
     5d0: 6f 00 80 00  	j	0x5d8 <.LBB5_13>

000005d4 <.LBB5_12>:
     5d4: 13 05 00 00  	mv	a0, zero

000005d8 <.LBB5_13>:
     5d8: 83 29 c1 10  	lw	s3, 268(sp)
     5dc: 03 29 01 11  	lw	s2, 272(sp)
     5e0: 83 24 41 11  	lw	s1, 276(sp)
     5e4: 03 24 81 11  	lw	s0, 280(sp)
     5e8: 83 20 c1 11  	lw	ra, 284(sp)
     5ec: 13 01 01 12  	addi	sp, sp, 288
     5f0: 67 80 00 00  	ret

000005f4 <vector_memcpy_masked_harness_uint16_t>:
     5f4: 13 01 01 de  	addi	sp, sp, -544
     5f8: 23 2e 11 20  	sw	ra, 540(sp)
     5fc: 23 2c 81 20  	sw	s0, 536(sp)
     600: 23 2a 91 20  	sw	s1, 532(sp)
     604: 23 28 21 21  	sw	s2, 528(sp)
     608: 23 26 31 21  	sw	s3, 524(sp)
     60c: 13 09 05 00  	mv	s2, a0
     610: 13 05 c1 10  	addi	a0, sp, 268
     614: 13 06 00 10  	addi	a2, zero, 256
     618: 13 04 c1 10  	addi	s0, sp, 268
     61c: 93 05 00 00  	mv	a1, zero
     620: 97 00 00 00  	auipc	ra, 0
     624: e7 80 40 9f  	jalr	-1548(ra)
     628: 13 05 c1 00  	addi	a0, sp, 12
     62c: 13 06 00 10  	addi	a2, zero, 256
     630: 93 04 c1 00  	addi	s1, sp, 12
     634: 93 05 00 00  	mv	a1, zero
     638: 97 00 00 00  	auipc	ra, 0
     63c: e7 80 c0 9d  	jalr	-1572(ra)
     640: 13 05 00 00  	mv	a0, zero
     644: 93 05 b0 0b  	addi	a1, zero, 187
     648: 13 06 00 08  	addi	a2, zero, 128

0000064c <.LBB6_1>:
     64c: 23 10 a4 00  	sh	a0, 0(s0)
     650: 23 90 b4 00  	sh	a1, 0(s1)
     654: 13 05 15 00  	addi	a0, a0, 1
     658: 13 04 24 00  	addi	s0, s0, 2
     65c: 93 84 24 00  	addi	s1, s1, 2
     660: e3 16 c5 fe  	bne	a0, a2, 0x64c <.LBB6_1>
     664: 93 09 e0 06  	addi	s3, zero, 110
     668: 13 04 c1 10  	addi	s0, sp, 268
     66c: 13 05 e0 06  	addi	a0, zero, 110
     670: 93 05 c1 10  	addi	a1, sp, 268
     674: 13 06 c1 00  	addi	a2, sp, 12
     678: 93 04 c1 00  	addi	s1, sp, 12
     67c: e7 00 09 00  	jalr	s2
     680: 13 05 00 00  	mv	a0, zero
     684: 93 05 b0 0b  	addi	a1, zero, 187
     688: 6f 00 00 02  	j	0x6a8 <.LBB6_5>

0000068c <.LBB6_3>:
     68c: 03 56 04 00  	lhu	a2, 0(s0)
     690: 83 d6 04 00  	lhu	a3, 0(s1)
     694: 63 1a d6 06  	bne	a2, a3, 0x708 <.LBB6_12>

00000698 <.LBB6_4>:
     698: 13 05 15 00  	addi	a0, a0, 1
     69c: 13 04 24 00  	addi	s0, s0, 2
     6a0: 93 84 24 00  	addi	s1, s1, 2
     6a4: 63 0c 35 01  	beq	a0, s3, 0x6bc <.LBB6_7>

000006a8 <.LBB6_5>:
     6a8: 13 76 15 00  	andi	a2, a0, 1
     6ac: e3 10 06 fe  	bnez	a2, 0x68c <.LBB6_3>
     6b0: 03 d6 04 00  	lhu	a2, 0(s1)
     6b4: e3 02 b6 fe  	beq	a2, a1, 0x698 <.LBB6_4>
     6b8: 6f 00 00 05  	j	0x708 <.LBB6_12>

000006bc <.LBB6_7>:
     6bc: 83 55 81 0e  	lhu	a1, 232(sp)
     6c0: 13 05 b0 0b  	addi	a0, zero, 187
     6c4: 63 92 a5 04  	bne	a1, a0, 0x708 <.LBB6_12>
     6c8: 93 05 e0 06  	addi	a1, zero, 110
     6cc: 37 06 01 00  	lui	a2, 16
     6d0: 13 06 f6 ff  	addi	a2, a2, -1
     6d4: 93 06 e0 07  	addi	a3, zero, 126
     6d8: 13 07 c1 00  	addi	a4, sp, 12

000006dc <.LBB6_9>:
     6dc: b3 f7 c5 00  	and	a5, a1, a2
     6e0: 63 ee f6 00  	bltu	a3, a5, 0x6fc <.LBB6_11>
     6e4: 93 85 15 00  	addi	a1, a1, 1
     6e8: b3 f4 c5 00  	and	s1, a1, a2
     6ec: 93 94 14 00  	slli	s1, s1, 1
     6f0: b3 04 97 00  	add	s1, a4, s1
     6f4: 83 d4 04 00  	lhu	s1, 0(s1)
     6f8: e3 82 a4 fe  	beq	s1, a0, 0x6dc <.LBB6_9>

000006fc <.LBB6_11>:
     6fc: 13 b5 f7 07  	sltiu	a0, a5, 127
     700: 13 45 15 00  	xori	a0, a0, 1
     704: 6f 00 80 00  	j	0x70c <.LBB6_13>

00000708 <.LBB6_12>:
     708: 13 05 00 00  	mv	a0, zero

0000070c <.LBB6_13>:
     70c: 83 29 c1 20  	lw	s3, 524(sp)
     710: 03 29 01 21  	lw	s2, 528(sp)
     714: 83 24 41 21  	lw	s1, 532(sp)
     718: 03 24 81 21  	lw	s0, 536(sp)
     71c: 83 20 c1 21  	lw	ra, 540(sp)
     720: 13 01 01 22  	addi	sp, sp, 544
     724: 67 80 00 00  	ret

00000728 <vector_memcpy_masked_harness_uint32_t>:
     728: 13 01 01 be  	addi	sp, sp, -1056
     72c: 23 2e 11 40  	sw	ra, 1052(sp)
     730: 23 2c 81 40  	sw	s0, 1048(sp)
     734: 23 2a 91 40  	sw	s1, 1044(sp)
     738: 23 28 21 41  	sw	s2, 1040(sp)
     73c: 23 26 31 41  	sw	s3, 1036(sp)
     740: 13 09 05 00  	mv	s2, a0
     744: 13 05 c1 20  	addi	a0, sp, 524
     748: 13 06 00 20  	addi	a2, zero, 512
     74c: 13 04 c1 20  	addi	s0, sp, 524
     750: 93 05 00 00  	mv	a1, zero
     754: 97 00 00 00  	auipc	ra, 0
     758: e7 80 00 8c  	jalr	-1856(ra)
     75c: 13 05 c1 00  	addi	a0, sp, 12
     760: 13 06 00 20  	addi	a2, zero, 512
     764: 93 04 c1 00  	addi	s1, sp, 12
     768: 93 05 00 00  	mv	a1, zero
     76c: 97 00 00 00  	auipc	ra, 0
     770: e7 80 80 8a  	jalr	-1880(ra)
     774: 13 05 00 00  	mv	a0, zero
     778: 93 05 b0 0b  	addi	a1, zero, 187
     77c: 13 06 00 08  	addi	a2, zero, 128

00000780 <.LBB7_1>:
     780: 23 20 a4 00  	sw	a0, 0(s0)
     784: 23 a0 b4 00  	sw	a1, 0(s1)
     788: 13 05 15 00  	addi	a0, a0, 1
     78c: 93 84 44 00  	addi	s1, s1, 4
     790: 13 04 44 00  	addi	s0, s0, 4
     794: e3 16 c5 fe  	bne	a0, a2, 0x780 <.LBB7_1>
     798: 93 09 e0 06  	addi	s3, zero, 110
     79c: 13 04 c1 20  	addi	s0, sp, 524
     7a0: 13 05 e0 06  	addi	a0, zero, 110
     7a4: 93 05 c1 20  	addi	a1, sp, 524
     7a8: 13 06 c1 00  	addi	a2, sp, 12
     7ac: 93 04 c1 00  	addi	s1, sp, 12
     7b0: e7 00 09 00  	jalr	s2
     7b4: 13 05 00 00  	mv	a0, zero
     7b8: 93 05 b0 0b  	addi	a1, zero, 187
     7bc: 6f 00 00 02  	j	0x7dc <.LBB7_5>

000007c0 <.LBB7_3>:
     7c0: 03 26 04 00  	lw	a2, 0(s0)
     7c4: 83 a6 04 00  	lw	a3, 0(s1)
     7c8: 63 12 d6 06  	bne	a2, a3, 0x82c <.LBB7_12>

000007cc <.LBB7_4>:
     7cc: 13 05 15 00  	addi	a0, a0, 1
     7d0: 93 84 44 00  	addi	s1, s1, 4
     7d4: 13 04 44 00  	addi	s0, s0, 4
     7d8: 63 0c 35 01  	beq	a0, s3, 0x7f0 <.LBB7_7>

000007dc <.LBB7_5>:
     7dc: 13 76 15 00  	andi	a2, a0, 1
     7e0: e3 10 06 fe  	bnez	a2, 0x7c0 <.LBB7_3>
     7e4: 03 a6 04 00  	lw	a2, 0(s1)
     7e8: e3 02 b6 fe  	beq	a2, a1, 0x7cc <.LBB7_4>
     7ec: 6f 00 00 04  	j	0x82c <.LBB7_12>

000007f0 <.LBB7_7>:
     7f0: 83 25 41 1c  	lw	a1, 452(sp)
     7f4: 13 05 b0 0b  	addi	a0, zero, 187
     7f8: 63 9a a5 02  	bne	a1, a0, 0x82c <.LBB7_12>
     7fc: 93 05 81 1c  	addi	a1, sp, 456
     800: 13 07 e0 06  	addi	a4, zero, 110
     804: 13 06 f0 07  	addi	a2, zero, 127

00000808 <.LBB7_9>:
     808: 93 06 07 00  	mv	a3, a4
     80c: 63 0a c7 00  	beq	a4, a2, 0x820 <.LBB7_11>
     810: 83 a7 05 00  	lw	a5, 0(a1)
     814: 13 87 16 00  	addi	a4, a3, 1
     818: 93 85 45 00  	addi	a1, a1, 4
     81c: e3 86 a7 fe  	beq	a5, a0, 0x808 <.LBB7_9>

00000820 <.LBB7_11>:
     820: 13 05 e0 07  	addi	a0, zero, 126
     824: 33 35 d5 00  	sltu	a0, a0, a3
     828: 6f 00 80 00  	j	0x830 <.LBB7_13>

0000082c <.LBB7_12>:
     82c: 13 05 00 00  	mv	a0, zero

00000830 <.LBB7_13>:
     830: 83 29 c1 40  	lw	s3, 1036(sp)
     834: 03 29 01 41  	lw	s2, 1040(sp)
     838: 83 24 41 41  	lw	s1, 1044(sp)
     83c: 03 24 81 41  	lw	s0, 1048(sp)
     840: 83 20 c1 41  	lw	ra, 1052(sp)
     844: 13 01 01 42  	addi	sp, sp, 1056
     848: 67 80 00 00  	ret

0000084c <vector_memcpy_masked_harness_uint64_t>:
     84c: 13 01 01 81  	addi	sp, sp, -2032
     850: 23 26 11 7e  	sw	ra, 2028(sp)
     854: 23 24 81 7e  	sw	s0, 2024(sp)
     858: 23 22 91 7e  	sw	s1, 2020(sp)
     85c: 23 20 21 7f  	sw	s2, 2016(sp)
     860: 13 01 01 fd  	addi	sp, sp, -48
     864: 13 09 05 00  	mv	s2, a0
     868: 13 05 01 41  	addi	a0, sp, 1040
     86c: 13 06 00 40  	addi	a2, zero, 1024
     870: 13 04 01 41  	addi	s0, sp, 1040
     874: 93 05 00 00  	mv	a1, zero
     878: 97 f0 ff ff  	auipc	ra, 1048575
     87c: e7 80 c0 79  	jalr	1948(ra)
     880: 13 05 01 01  	addi	a0, sp, 16
     884: 13 06 00 40  	addi	a2, zero, 1024
     888: 93 04 01 01  	addi	s1, sp, 16
     88c: 93 05 00 00  	mv	a1, zero
     890: 97 f0 ff ff  	auipc	ra, 1048575
     894: e7 80 40 78  	jalr	1924(ra)
     898: 13 06 00 00  	mv	a2, zero
     89c: 13 05 00 00  	mv	a0, zero
     8a0: 93 05 b0 0b  	addi	a1, zero, 187
     8a4: 6f 00 c0 01  	j	0x8c0 <.LBB8_3>

000008a8 <.LBB8_1>:
     8a8: 93 06 00 00  	mv	a3, zero

000008ac <.LBB8_2>:
     8ac: 13 07 16 00  	addi	a4, a2, 1
     8b0: 33 36 c7 00  	sltu	a2, a4, a2
     8b4: 33 05 c5 00  	add	a0, a0, a2
     8b8: 13 06 07 00  	mv	a2, a4
     8bc: 63 8a 06 02  	beqz	a3, 0x8f0 <.LBB8_5>

000008c0 <.LBB8_3>:
     8c0: 93 16 36 00  	slli	a3, a2, 3
     8c4: 33 07 d4 00  	add	a4, s0, a3
     8c8: 23 20 c7 00  	sw	a2, 0(a4)
     8cc: 13 67 47 00  	ori	a4, a4, 4
     8d0: 23 20 a7 00  	sw	a0, 0(a4)
     8d4: b3 86 d4 00  	add	a3, s1, a3
     8d8: 23 a0 b6 00  	sw	a1, 0(a3)
     8dc: 93 e6 46 00  	ori	a3, a3, 4
     8e0: 23 a0 06 00  	sw	zero, 0(a3)
     8e4: e3 12 05 fc  	bnez	a0, 0x8a8 <.LBB8_1>
     8e8: 93 36 f6 07  	sltiu	a3, a2, 127
     8ec: 6f f0 1f fc  	j	0x8ac <.LBB8_2>

000008f0 <.LBB8_5>:
     8f0: 93 04 01 41  	addi	s1, sp, 1040
     8f4: 13 05 e0 06  	addi	a0, zero, 110
     8f8: 93 05 01 41  	addi	a1, sp, 1040
     8fc: 13 06 01 01  	addi	a2, sp, 16
     900: 13 04 01 01  	addi	s0, sp, 16
     904: e7 00 09 00  	jalr	s2
     908: 93 05 00 00  	mv	a1, zero
     90c: 13 05 00 00  	mv	a0, zero
     910: 6f 00 c0 01  	j	0x92c <.LBB8_8>

00000914 <.LBB8_6>:
     914: 13 06 00 00  	mv	a2, zero

00000918 <.LBB8_7>:
     918: 93 86 15 00  	addi	a3, a1, 1
     91c: b3 b5 b6 00  	sltu	a1, a3, a1
     920: 33 05 b5 00  	add	a0, a0, a1
     924: 93 85 06 00  	mv	a1, a3
     928: 63 0a 06 06  	beqz	a2, 0x99c <.LBB8_14>

0000092c <.LBB8_8>:
     92c: 93 f6 15 00  	andi	a3, a1, 1
     930: 13 96 35 00  	slli	a2, a1, 3
     934: 63 92 06 02  	bnez	a3, 0x958 <.LBB8_10>
     938: 33 06 c4 00  	add	a2, s0, a2
     93c: 93 66 46 00  	ori	a3, a2, 4
     940: 03 26 06 00  	lw	a2, 0(a2)
     944: 83 a6 06 00  	lw	a3, 0(a3)
     948: 13 46 b6 0b  	xori	a2, a2, 187
     94c: 33 66 d6 00  	or	a2, a2, a3
     950: 63 0c 06 02  	beqz	a2, 0x988 <.LBB8_11>
     954: 6f 00 00 04  	j	0x994 <.LBB8_13>

00000958 <.LBB8_10>:
     958: b3 86 c4 00  	add	a3, s1, a2
     95c: 13 e7 46 00  	ori	a4, a3, 4
     960: 03 27 07 00  	lw	a4, 0(a4)
     964: 83 a6 06 00  	lw	a3, 0(a3)
     968: 33 06 c4 00  	add	a2, s0, a2
     96c: 93 67 46 00  	ori	a5, a2, 4
     970: 03 26 06 00  	lw	a2, 0(a2)
     974: 83 a7 07 00  	lw	a5, 0(a5)
     978: 33 c6 c6 00  	xor	a2, a3, a2
     97c: b3 46 f7 00  	xor	a3, a4, a5
     980: 33 66 d6 00  	or	a2, a2, a3
     984: 63 18 06 00  	bnez	a2, 0x994 <.LBB8_13>

00000988 <.LBB8_11>:
     988: e3 16 05 f8  	bnez	a0, 0x914 <.LBB8_6>
     98c: 13 b6 d5 06  	sltiu	a2, a1, 109
     990: 6f f0 9f f8  	j	0x918 <.LBB8_7>

00000994 <.LBB8_13>:
     994: 13 05 00 00  	mv	a0, zero
     998: 6f 00 00 08  	j	0xa18 <.LBB8_21>

0000099c <.LBB8_14>:
     99c: 03 25 01 38  	lw	a0, 896(sp)
     9a0: 83 25 41 38  	lw	a1, 900(sp)
     9a4: 13 45 b5 0b  	xori	a0, a0, 187
     9a8: b3 65 b5 00  	or	a1, a0, a1
     9ac: 13 05 00 00  	mv	a0, zero
     9b0: 63 94 05 06  	bnez	a1, 0xa18 <.LBB8_21>
     9b4: 13 05 00 00  	mv	a0, zero
     9b8: 93 06 e0 06  	addi	a3, zero, 110
     9bc: 93 05 e0 07  	addi	a1, zero, 126
     9c0: 13 06 01 01  	addi	a2, sp, 16
     9c4: 6f 00 00 04  	j	0xa04 <.LBB8_18>

000009c8 <.LBB8_16>:
     9c8: 13 b7 f6 07  	sltiu	a4, a3, 127
     9cc: b3 b7 d5 00  	sltu	a5, a1, a3
     9d0: 63 92 07 04  	bnez	a5, 0xa14 <.LBB8_20>

000009d4 <.LBB8_17>:
     9d4: 93 87 16 00  	addi	a5, a3, 1
     9d8: 93 94 37 00  	slli	s1, a5, 3
     9dc: b3 04 96 00  	add	s1, a2, s1
     9e0: 13 e4 44 00  	ori	s0, s1, 4
     9e4: 83 a4 04 00  	lw	s1, 0(s1)
     9e8: 03 24 04 00  	lw	s0, 0(s0)
     9ec: b3 b6 d7 00  	sltu	a3, a5, a3
     9f0: 93 c4 b4 0b  	xori	s1, s1, 187
     9f4: b3 e4 84 00  	or	s1, s1, s0
     9f8: 33 05 d5 00  	add	a0, a0, a3
     9fc: 93 86 07 00  	mv	a3, a5
     a00: 63 9a 04 00  	bnez	s1, 0xa14 <.LBB8_20>

00000a04 <.LBB8_18>:
     a04: e3 02 05 fc  	beqz	a0, 0x9c8 <.LBB8_16>
     a08: 13 07 00 00  	mv	a4, zero
     a0c: b3 37 a0 00  	snez	a5, a0
     a10: e3 82 07 fc  	beqz	a5, 0x9d4 <.LBB8_17>

00000a14 <.LBB8_20>:
     a14: 13 45 17 00  	xori	a0, a4, 1

00000a18 <.LBB8_21>:
     a18: 13 01 01 03  	addi	sp, sp, 48
     a1c: 03 29 01 7e  	lw	s2, 2016(sp)
     a20: 83 24 41 7e  	lw	s1, 2020(sp)
     a24: 03 24 81 7e  	lw	s0, 2024(sp)
     a28: 83 20 c1 7e  	lw	ra, 2028(sp)
     a2c: 13 01 01 7f  	addi	sp, sp, 2032
     a30: 67 80 00 00  	ret

00000a34 <vector_memcpy_unit_stride_e8m8>:
     a34: 6f 00 c0 00  	j	0xa40 <.LBB9_2>

00000a38 <.LBB9_1>:
     a38: 93 b6 16 00  	seqz	a3, a3
     a3c: 63 92 06 02  	bnez	a3, 0xa60 <.LBB9_4>

00000a40 <.LBB9_2>:
     a40: d7 76 35 04  	<unknown>
     a44: e3 8a 06 fe  	beqz	a3, 0xa38 <.LBB9_1>
     a48: 07 84 05 02  	<unknown>
     a4c: 27 04 06 02  	<unknown>
     a50: b3 85 d5 00  	add	a1, a1, a3
     a54: 33 06 d6 00  	add	a2, a2, a3
     a58: 33 05 d5 40  	sub	a0, a0, a3
     a5c: 6f f0 df fd  	j	0xa38 <.LBB9_1>

00000a60 <.LBB9_4>:
     a60: 67 80 00 00  	ret

00000a64 <vector_memcpy_unit_stride_e16m8>:
     a64: 6f 00 c0 00  	j	0xa70 <.LBB10_2>

00000a68 <.LBB10_1>:
     a68: 93 b6 16 00  	seqz	a3, a3
     a6c: 63 94 06 02  	bnez	a3, 0xa94 <.LBB10_4>

00000a70 <.LBB10_2>:
     a70: d7 76 b5 04  	<unknown>
     a74: e3 8a 06 fe  	beqz	a3, 0xa68 <.LBB10_1>
     a78: 07 d4 05 02  	<unknown>
     a7c: 27 54 06 02  	<unknown>
     a80: 13 97 16 00  	slli	a4, a3, 1
     a84: b3 85 e5 00  	add	a1, a1, a4
     a88: 33 06 e6 00  	add	a2, a2, a4
     a8c: 33 05 d5 40  	sub	a0, a0, a3
     a90: 6f f0 9f fd  	j	0xa68 <.LBB10_1>

00000a94 <.LBB10_4>:
     a94: 67 80 00 00  	ret

00000a98 <vector_memcpy_unit_stride_e32m8>:
     a98: 6f 00 c0 00  	j	0xaa4 <.LBB11_2>

00000a9c <.LBB11_1>:
     a9c: 93 b6 16 00  	seqz	a3, a3
     aa0: 63 94 06 02  	bnez	a3, 0xac8 <.LBB11_4>

00000aa4 <.LBB11_2>:
     aa4: d7 76 35 05  	<unknown>
     aa8: e3 8a 06 fe  	beqz	a3, 0xa9c <.LBB11_1>
     aac: 07 e4 05 02  	<unknown>
     ab0: 27 64 06 02  	<unknown>
     ab4: 13 97 26 00  	slli	a4, a3, 2
     ab8: b3 85 e5 00  	add	a1, a1, a4
     abc: 33 06 e6 00  	add	a2, a2, a4
     ac0: 33 05 d5 40  	sub	a0, a0, a3
     ac4: 6f f0 9f fd  	j	0xa9c <.LBB11_1>

00000ac8 <.LBB11_4>:
     ac8: 67 80 00 00  	ret

00000acc <vector_memcpy_unit_stride_e32mf2>:
     acc: 6f 00 c0 00  	j	0xad8 <.LBB12_2>

00000ad0 <.LBB12_1>:
     ad0: 93 b6 16 00  	seqz	a3, a3
     ad4: 63 94 06 02  	bnez	a3, 0xafc <.LBB12_4>

00000ad8 <.LBB12_2>:
     ad8: d7 76 75 05  	<unknown>
     adc: e3 8a 06 fe  	beqz	a3, 0xad0 <.LBB12_1>
     ae0: 87 ec 05 02  	<unknown>
     ae4: a7 6c 06 02  	<unknown>
     ae8: 13 97 26 00  	slli	a4, a3, 2
     aec: b3 85 e5 00  	add	a1, a1, a4
     af0: 33 06 e6 00  	add	a2, a2, a4
     af4: 33 05 d5 40  	sub	a0, a0, a3
     af8: 6f f0 9f fd  	j	0xad0 <.LBB12_1>

00000afc <.LBB12_4>:
     afc: 67 80 00 00  	ret

00000b00 <vector_memcpy_strided_e8m8>:
     b00: 93 08 40 00  	addi	a7, zero, 4
     b04: 6f 00 40 02  	j	0xb28 <.LBB13_4>

00000b08 <.LBB13_1>:
     b08: 07 84 05 02  	<unknown>
     b0c: 27 04 06 02  	<unknown>
     b10: 13 08 07 00  	mv	a6, a4

00000b14 <.LBB13_2>:
     b14: 33 05 05 41  	sub	a0, a0, a6
     b18: b3 85 05 01  	add	a1, a1, a6
     b1c: 33 06 06 01  	add	a2, a2, a6

00000b20 <.LBB13_3>:
     b20: 93 36 17 00  	seqz	a3, a4
     b24: 63 9c 06 02  	bnez	a3, 0xb5c <.LBB13_8>

00000b28 <.LBB13_4>:
     b28: 57 77 35 04  	<unknown>
     b2c: e3 0a 07 fe  	beqz	a4, 0xb20 <.LBB13_3>
     b30: 13 18 27 00  	slli	a6, a4, 2
     b34: e3 7a a8 fc  	bgeu	a6, a0, 0xb08 <.LBB13_1>
     b38: 93 07 00 00  	mv	a5, zero

00000b3c <.LBB13_7>:
     b3c: b3 86 f5 00  	add	a3, a1, a5
     b40: 57 70 37 04  	<unknown>
     b44: 07 84 16 0b  	<unknown>
     b48: b3 06 f6 00  	add	a3, a2, a5
     b4c: 93 87 17 00  	addi	a5, a5, 1
     b50: 27 84 16 0b  	<unknown>
     b54: e3 94 17 ff  	bne	a5, a7, 0xb3c <.LBB13_7>
     b58: 6f f0 df fb  	j	0xb14 <.LBB13_2>

00000b5c <.LBB13_8>:
     b5c: 67 80 00 00  	ret

00000b60 <vector_memcpy_strided_e16m8>:
     b60: 93 08 80 00  	addi	a7, zero, 8
     b64: 6f 00 80 02  	j	0xb8c <.LBB14_4>

00000b68 <.LBB14_1>:
     b68: 07 d4 05 02  	<unknown>
     b6c: 27 54 06 02  	<unknown>
     b70: 13 08 07 00  	mv	a6, a4

00000b74 <.LBB14_2>:
     b74: 33 05 05 41  	sub	a0, a0, a6
     b78: 93 16 18 00  	slli	a3, a6, 1
     b7c: b3 85 d5 00  	add	a1, a1, a3
     b80: 33 06 d6 00  	add	a2, a2, a3

00000b84 <.LBB14_3>:
     b84: 93 36 17 00  	seqz	a3, a4
     b88: 63 9c 06 02  	bnez	a3, 0xbc0 <.LBB14_8>

00000b8c <.LBB14_4>:
     b8c: 57 77 b5 04  	<unknown>
     b90: e3 0a 07 fe  	beqz	a4, 0xb84 <.LBB14_3>
     b94: 13 18 27 00  	slli	a6, a4, 2
     b98: e3 78 a8 fc  	bgeu	a6, a0, 0xb68 <.LBB14_1>
     b9c: 93 07 00 00  	mv	a5, zero

00000ba0 <.LBB14_7>:
     ba0: b3 86 f5 00  	add	a3, a1, a5
     ba4: 57 70 b7 04  	<unknown>
     ba8: 07 d4 16 0b  	<unknown>
     bac: b3 06 f6 00  	add	a3, a2, a5
     bb0: 93 87 27 00  	addi	a5, a5, 2
     bb4: 27 d4 16 0b  	<unknown>
     bb8: e3 94 17 ff  	bne	a5, a7, 0xba0 <.LBB14_7>
     bbc: 6f f0 9f fb  	j	0xb74 <.LBB14_2>

00000bc0 <.LBB14_8>:
     bc0: 67 80 00 00  	ret

00000bc4 <vector_memcpy_strided_e32m8>:
     bc4: 93 08 00 01  	addi	a7, zero, 16
     bc8: 6f 00 80 02  	j	0xbf0 <.LBB15_4>

00000bcc <.LBB15_1>:
     bcc: 07 e4 05 02  	<unknown>
     bd0: 27 64 06 02  	<unknown>
     bd4: 13 08 07 00  	mv	a6, a4

00000bd8 <.LBB15_2>:
     bd8: 33 05 05 41  	sub	a0, a0, a6
     bdc: 93 16 28 00  	slli	a3, a6, 2
     be0: b3 85 d5 00  	add	a1, a1, a3
     be4: 33 06 d6 00  	add	a2, a2, a3

00000be8 <.LBB15_3>:
     be8: 93 36 17 00  	seqz	a3, a4
     bec: 63 9c 06 02  	bnez	a3, 0xc24 <.LBB15_8>

00000bf0 <.LBB15_4>:
     bf0: 57 77 35 05  	<unknown>
     bf4: e3 0a 07 fe  	beqz	a4, 0xbe8 <.LBB15_3>
     bf8: 13 18 27 00  	slli	a6, a4, 2
     bfc: e3 78 a8 fc  	bgeu	a6, a0, 0xbcc <.LBB15_1>
     c00: 93 07 00 00  	mv	a5, zero

00000c04 <.LBB15_7>:
     c04: b3 86 f5 00  	add	a3, a1, a5
     c08: 57 70 37 05  	<unknown>
     c0c: 07 e4 16 0b  	<unknown>
     c10: b3 06 f6 00  	add	a3, a2, a5
     c14: 93 87 47 00  	addi	a5, a5, 4
     c18: 27 e4 16 0b  	<unknown>
     c1c: e3 94 17 ff  	bne	a5, a7, 0xc04 <.LBB15_7>
     c20: 6f f0 9f fb  	j	0xbd8 <.LBB15_2>

00000c24 <.LBB15_8>:
     c24: 67 80 00 00  	ret

00000c28 <vector_memcpy_strided_e32mf2>:
     c28: 93 08 00 01  	addi	a7, zero, 16
     c2c: 6f 00 80 02  	j	0xc54 <.LBB16_4>

00000c30 <.LBB16_1>:
     c30: 87 ec 05 02  	<unknown>
     c34: a7 6c 06 02  	<unknown>
     c38: 13 08 07 00  	mv	a6, a4

00000c3c <.LBB16_2>:
     c3c: 33 05 05 41  	sub	a0, a0, a6
     c40: 93 16 28 00  	slli	a3, a6, 2
     c44: b3 85 d5 00  	add	a1, a1, a3
     c48: 33 06 d6 00  	add	a2, a2, a3

00000c4c <.LBB16_3>:
     c4c: 93 36 17 00  	seqz	a3, a4
     c50: 63 9c 06 02  	bnez	a3, 0xc88 <.LBB16_8>

00000c54 <.LBB16_4>:
     c54: 57 77 75 05  	<unknown>
     c58: e3 0a 07 fe  	beqz	a4, 0xc4c <.LBB16_3>
     c5c: 13 18 27 00  	slli	a6, a4, 2
     c60: e3 78 a8 fc  	bgeu	a6, a0, 0xc30 <.LBB16_1>
     c64: 93 07 00 00  	mv	a5, zero

00000c68 <.LBB16_7>:
     c68: b3 86 f5 00  	add	a3, a1, a5
     c6c: 57 70 77 05  	<unknown>
     c70: 87 ec 16 0b  	<unknown>
     c74: b3 06 f6 00  	add	a3, a2, a5
     c78: 93 87 47 00  	addi	a5, a5, 4
     c7c: a7 ec 16 0b  	<unknown>
     c80: e3 94 17 ff  	bne	a5, a7, 0xc68 <.LBB16_7>
     c84: 6f f0 9f fb  	j	0xc3c <.LBB16_2>

00000c88 <.LBB16_8>:
     c88: 67 80 00 00  	ret

00000c8c <vector_memcpy_indexed_e8m8>:
     c8c: 13 01 01 f6  	addi	sp, sp, -160
     c90: 23 2e 11 08  	sw	ra, 156(sp)
     c94: 23 2c 81 08  	sw	s0, 152(sp)
     c98: 23 2a 91 08  	sw	s1, 148(sp)
     c9c: 23 28 21 09  	sw	s2, 144(sp)
     ca0: 23 26 31 09  	sw	s3, 140(sp)
     ca4: 23 24 41 09  	sw	s4, 136(sp)
     ca8: 13 09 06 00  	mv	s2, a2
     cac: 93 84 05 00  	mv	s1, a1
     cb0: 13 04 05 00  	mv	s0, a0
     cb4: d7 79 30 04  	<unknown>
     cb8: 13 05 81 00  	addi	a0, sp, 8
     cbc: 13 06 00 08  	addi	a2, zero, 128
     cc0: 13 0a 81 00  	addi	s4, sp, 8
     cc4: 93 05 00 00  	mv	a1, zero
     cc8: 97 f0 ff ff  	auipc	ra, 1048575
     ccc: e7 80 c0 34  	jalr	844(ra)
     cd0: 63 8e 09 00  	beqz	s3, 0xcec <.LBB17_3>
     cd4: 13 05 00 00  	mv	a0, zero

00000cd8 <.LBB17_2>:
     cd8: 93 45 15 00  	xori	a1, a0, 1
     cdc: 33 06 aa 00  	add	a2, s4, a0
     ce0: 13 05 15 00  	addi	a0, a0, 1
     ce4: 23 00 b6 00  	sb	a1, 0(a2)
     ce8: e3 98 a9 fe  	bne	s3, a0, 0xcd8 <.LBB17_2>

00000cec <.LBB17_3>:
     cec: 57 f0 39 04  	<unknown>
     cf0: 13 05 81 00  	addi	a0, sp, 8
     cf4: 07 04 05 02  	<unknown>
     cf8: 6f 00 00 02  	j	0xd18 <.LBB17_7>

00000cfc <.LBB17_4>:
     cfc: 07 88 04 02  	<unknown>
     d00: 27 08 09 02  	<unknown>

00000d04 <.LBB17_5>:
     d04: b3 84 a4 00  	add	s1, s1, a0
     d08: 33 09 a9 00  	add	s2, s2, a0
     d0c: 33 04 a4 40  	sub	s0, s0, a0

00000d10 <.LBB17_6>:
     d10: 13 35 15 00  	seqz	a0, a0
     d14: 63 1e 05 00  	bnez	a0, 0xd30 <.LBB17_10>

00000d18 <.LBB17_7>:
     d18: 57 75 34 04  	<unknown>
     d1c: e3 0a 05 fe  	beqz	a0, 0xd10 <.LBB17_6>
     d20: e3 1e 35 fd  	bne	a0, s3, 0xcfc <.LBB17_4>
     d24: 07 88 84 06  	<unknown>
     d28: 27 08 89 06  	<unknown>
     d2c: 6f f0 9f fd  	j	0xd04 <.LBB17_5>

00000d30 <.LBB17_10>:
     d30: 03 2a 81 08  	lw	s4, 136(sp)
     d34: 83 29 c1 08  	lw	s3, 140(sp)
     d38: 03 29 01 09  	lw	s2, 144(sp)
     d3c: 83 24 41 09  	lw	s1, 148(sp)
     d40: 03 24 81 09  	lw	s0, 152(sp)
     d44: 83 20 c1 09  	lw	ra, 156(sp)
     d48: 13 01 01 0a  	addi	sp, sp, 160
     d4c: 67 80 00 00  	ret

00000d50 <vector_memcpy_indexed_e16m8>:
     d50: 13 01 01 ee  	addi	sp, sp, -288
     d54: 23 2e 11 10  	sw	ra, 284(sp)
     d58: 23 2c 81 10  	sw	s0, 280(sp)
     d5c: 23 2a 91 10  	sw	s1, 276(sp)
     d60: 23 28 21 11  	sw	s2, 272(sp)
     d64: 23 26 31 11  	sw	s3, 268(sp)
     d68: 23 24 41 11  	sw	s4, 264(sp)
     d6c: 13 09 06 00  	mv	s2, a2
     d70: 13 8a 05 00  	mv	s4, a1
     d74: 13 04 05 00  	mv	s0, a0
     d78: d7 79 b0 04  	<unknown>
     d7c: 13 05 81 00  	addi	a0, sp, 8
     d80: 13 06 00 10  	addi	a2, zero, 256
     d84: 93 04 81 00  	addi	s1, sp, 8
     d88: 93 05 00 00  	mv	a1, zero
     d8c: 97 f0 ff ff  	auipc	ra, 1048575
     d90: e7 80 80 28  	jalr	648(ra)
     d94: 63 80 09 02  	beqz	s3, 0xdb4 <.LBB18_3>
     d98: 13 05 00 00  	mv	a0, zero

00000d9c <.LBB18_2>:
     d9c: 93 15 15 00  	slli	a1, a0, 1
     da0: 93 c5 25 00  	xori	a1, a1, 2
     da4: 23 90 b4 00  	sh	a1, 0(s1)
     da8: 13 05 15 00  	addi	a0, a0, 1
     dac: 93 84 24 00  	addi	s1, s1, 2
     db0: e3 96 a9 fe  	bne	s3, a0, 0xd9c <.LBB18_2>

00000db4 <.LBB18_3>:
     db4: 57 f0 b9 04  	<unknown>
     db8: 13 05 81 00  	addi	a0, sp, 8
     dbc: 07 54 05 02  	<unknown>
     dc0: 6f 00 40 02  	j	0xde4 <.LBB18_7>

00000dc4 <.LBB18_4>:
     dc4: 07 58 0a 02  	<unknown>
     dc8: 27 58 09 02  	<unknown>

00000dcc <.LBB18_5>:
     dcc: 93 15 15 00  	slli	a1, a0, 1
     dd0: 33 0a ba 00  	add	s4, s4, a1
     dd4: 33 09 b9 00  	add	s2, s2, a1
     dd8: 33 04 a4 40  	sub	s0, s0, a0

00000ddc <.LBB18_6>:
     ddc: 13 35 15 00  	seqz	a0, a0
     de0: 63 1e 05 00  	bnez	a0, 0xdfc <.LBB18_10>

00000de4 <.LBB18_7>:
     de4: 57 75 b4 04  	<unknown>
     de8: e3 0a 05 fe  	beqz	a0, 0xddc <.LBB18_6>
     dec: e3 1c 35 fd  	bne	a0, s3, 0xdc4 <.LBB18_4>
     df0: 07 58 8a 06  	<unknown>
     df4: 27 58 89 06  	<unknown>
     df8: 6f f0 5f fd  	j	0xdcc <.LBB18_5>

00000dfc <.LBB18_10>:
     dfc: 03 2a 81 10  	lw	s4, 264(sp)
     e00: 83 29 c1 10  	lw	s3, 268(sp)
     e04: 03 29 01 11  	lw	s2, 272(sp)
     e08: 83 24 41 11  	lw	s1, 276(sp)
     e0c: 03 24 81 11  	lw	s0, 280(sp)
     e10: 83 20 c1 11  	lw	ra, 284(sp)
     e14: 13 01 01 12  	addi	sp, sp, 288
     e18: 67 80 00 00  	ret

00000e1c <vector_memcpy_indexed_e32m8>:
     e1c: 13 01 01 de  	addi	sp, sp, -544
     e20: 23 2e 11 20  	sw	ra, 540(sp)
     e24: 23 2c 81 20  	sw	s0, 536(sp)
     e28: 23 2a 91 20  	sw	s1, 532(sp)
     e2c: 23 28 21 21  	sw	s2, 528(sp)
     e30: 23 26 31 21  	sw	s3, 524(sp)
     e34: 23 24 41 21  	sw	s4, 520(sp)
     e38: 13 09 06 00  	mv	s2, a2
     e3c: 93 84 05 00  	mv	s1, a1
     e40: 13 04 05 00  	mv	s0, a0
     e44: d7 79 30 05  	<unknown>
     e48: 13 05 81 00  	addi	a0, sp, 8
     e4c: 13 06 00 20  	addi	a2, zero, 512
     e50: 13 0a 81 00  	addi	s4, sp, 8
     e54: 93 05 00 00  	mv	a1, zero
     e58: 97 f0 ff ff  	auipc	ra, 1048575
     e5c: e7 80 c0 1b  	jalr	444(ra)
     e60: 63 82 09 02  	beqz	s3, 0xe84 <.LBB19_3>
     e64: 13 05 00 00  	mv	a0, zero
     e68: 93 85 09 00  	mv	a1, s3

00000e6c <.LBB19_2>:
     e6c: 13 46 45 00  	xori	a2, a0, 4
     e70: b3 06 aa 00  	add	a3, s4, a0
     e74: 23 a0 c6 00  	sw	a2, 0(a3)
     e78: 93 85 f5 ff  	addi	a1, a1, -1
     e7c: 13 05 45 00  	addi	a0, a0, 4
     e80: e3 96 05 fe  	bnez	a1, 0xe6c <.LBB19_2>

00000e84 <.LBB19_3>:
     e84: 57 f0 39 05  	<unknown>
     e88: 13 05 81 00  	addi	a0, sp, 8
     e8c: 07 64 05 02  	<unknown>
     e90: 6f 00 40 02  	j	0xeb4 <.LBB19_7>

00000e94 <.LBB19_4>:
     e94: 07 e8 04 02  	<unknown>
     e98: 27 68 09 02  	<unknown>

00000e9c <.LBB19_5>:
     e9c: 93 15 25 00  	slli	a1, a0, 2
     ea0: b3 84 b4 00  	add	s1, s1, a1
     ea4: 33 09 b9 00  	add	s2, s2, a1
     ea8: 33 04 a4 40  	sub	s0, s0, a0

00000eac <.LBB19_6>:
     eac: 13 35 15 00  	seqz	a0, a0
     eb0: 63 1e 05 00  	bnez	a0, 0xecc <.LBB19_10>

00000eb4 <.LBB19_7>:
     eb4: 57 75 34 05  	<unknown>
     eb8: e3 0a 05 fe  	beqz	a0, 0xeac <.LBB19_6>
     ebc: e3 1c 35 fd  	bne	a0, s3, 0xe94 <.LBB19_4>
     ec0: 07 e8 84 06  	<unknown>
     ec4: 27 68 89 06  	<unknown>
     ec8: 6f f0 5f fd  	j	0xe9c <.LBB19_5>

00000ecc <.LBB19_10>:
     ecc: 03 2a 81 20  	lw	s4, 520(sp)
     ed0: 83 29 c1 20  	lw	s3, 524(sp)
     ed4: 03 29 01 21  	lw	s2, 528(sp)
     ed8: 83 24 41 21  	lw	s1, 532(sp)
     edc: 03 24 81 21  	lw	s0, 536(sp)
     ee0: 83 20 c1 21  	lw	ra, 540(sp)
     ee4: 13 01 01 22  	addi	sp, sp, 544
     ee8: 67 80 00 00  	ret

00000eec <vector_memcpy_indexed_e32mf2>:
     eec: 13 01 01 de  	addi	sp, sp, -544
     ef0: 23 2e 11 20  	sw	ra, 540(sp)
     ef4: 23 2c 81 20  	sw	s0, 536(sp)
     ef8: 23 2a 91 20  	sw	s1, 532(sp)
     efc: 23 28 21 21  	sw	s2, 528(sp)
     f00: 23 26 31 21  	sw	s3, 524(sp)
     f04: 23 24 41 21  	sw	s4, 520(sp)
     f08: 13 09 06 00  	mv	s2, a2
     f0c: 93 84 05 00  	mv	s1, a1
     f10: 13 04 05 00  	mv	s0, a0
     f14: d7 79 70 05  	<unknown>
     f18: 13 05 81 00  	addi	a0, sp, 8
     f1c: 13 06 00 20  	addi	a2, zero, 512
     f20: 13 0a 81 00  	addi	s4, sp, 8
     f24: 93 05 00 00  	mv	a1, zero
     f28: 97 f0 ff ff  	auipc	ra, 1048575
     f2c: e7 80 c0 0e  	jalr	236(ra)
     f30: 63 82 09 02  	beqz	s3, 0xf54 <.LBB20_3>
     f34: 13 05 00 00  	mv	a0, zero
     f38: 93 85 09 00  	mv	a1, s3

00000f3c <.LBB20_2>:
     f3c: 13 46 45 00  	xori	a2, a0, 4
     f40: b3 06 aa 00  	add	a3, s4, a0
     f44: 23 a0 c6 00  	sw	a2, 0(a3)
     f48: 93 85 f5 ff  	addi	a1, a1, -1
     f4c: 13 05 45 00  	addi	a0, a0, 4
     f50: e3 96 05 fe  	bnez	a1, 0xf3c <.LBB20_2>

00000f54 <.LBB20_3>:
     f54: 57 f0 79 05  	<unknown>
     f58: 13 05 81 00  	addi	a0, sp, 8
     f5c: 87 6c 05 02  	<unknown>
     f60: 6f 00 40 02  	j	0xf84 <.LBB20_7>

00000f64 <.LBB20_4>:
     f64: 07 ed 04 02  	<unknown>
     f68: 27 6d 09 02  	<unknown>

00000f6c <.LBB20_5>:
     f6c: 93 15 25 00  	slli	a1, a0, 2
     f70: b3 84 b4 00  	add	s1, s1, a1
     f74: 33 09 b9 00  	add	s2, s2, a1
     f78: 33 04 a4 40  	sub	s0, s0, a0

00000f7c <.LBB20_6>:
     f7c: 13 35 15 00  	seqz	a0, a0
     f80: 63 1e 05 00  	bnez	a0, 0xf9c <.LBB20_10>

00000f84 <.LBB20_7>:
     f84: 57 75 74 05  	<unknown>
     f88: e3 0a 05 fe  	beqz	a0, 0xf7c <.LBB20_6>
     f8c: e3 1c 35 fd  	bne	a0, s3, 0xf64 <.LBB20_4>
     f90: 07 ed 94 07  	<unknown>
     f94: 27 6d 99 07  	<unknown>
     f98: 6f f0 5f fd  	j	0xf6c <.LBB20_5>

00000f9c <.LBB20_10>:
     f9c: 03 2a 81 20  	lw	s4, 520(sp)
     fa0: 83 29 c1 20  	lw	s3, 524(sp)
     fa4: 03 29 01 21  	lw	s2, 528(sp)
     fa8: 83 24 41 21  	lw	s1, 532(sp)
     fac: 03 24 81 21  	lw	s0, 536(sp)
     fb0: 83 20 c1 21  	lw	ra, 540(sp)
     fb4: 13 01 01 22  	addi	sp, sp, 544
     fb8: 67 80 00 00  	ret

00000fbc <vector_memcpy_masked_stride_e8m8>:
     fbc: d7 76 30 04  	<unknown>
     fc0: 07 84 05 02  	<unknown>
     fc4: 57 b0 80 62  	<unknown>
     fc8: 6f 00 c0 00  	j	0xfd4 <.LBB21_2>

00000fcc <.LBB21_1>:
     fcc: 93 b6 16 00  	seqz	a3, a3
     fd0: 63 96 06 02  	bnez	a3, 0xffc <.LBB21_4>

00000fd4 <.LBB21_2>:
     fd4: d7 76 35 04  	<unknown>
     fd8: e3 8a 06 fe  	beqz	a3, 0xfcc <.LBB21_1>
     fdc: 57 f0 36 00  	<unknown>
     fe0: 07 84 05 00  	<unknown>
     fe4: 57 70 30 04  	<unknown>
     fe8: 27 04 06 00  	<unknown>
     fec: b3 85 d5 00  	add	a1, a1, a3
     ff0: 33 06 d6 00  	add	a2, a2, a3
     ff4: 33 05 d5 40  	sub	a0, a0, a3
     ff8: 6f f0 5f fd  	j	0xfcc <.LBB21_1>

00000ffc <.LBB21_4>:
     ffc: 67 80 00 00  	ret

00001000 <vector_memcpy_masked_stride_e16m8>:
    1000: d7 76 b0 04  	<unknown>
    1004: 07 d4 05 02  	<unknown>
    1008: 57 b0 80 62  	<unknown>
    100c: 6f 00 c0 00  	j	0x1018 <.LBB22_2>

00001010 <.LBB22_1>:
    1010: 93 b6 16 00  	seqz	a3, a3
    1014: 63 98 06 02  	bnez	a3, 0x1044 <.LBB22_4>

00001018 <.LBB22_2>:
    1018: d7 76 b5 04  	<unknown>
    101c: e3 8a 06 fe  	beqz	a3, 0x1010 <.LBB22_1>
    1020: 57 f0 b6 00  	<unknown>
    1024: 07 d4 05 00  	<unknown>
    1028: 57 70 b0 04  	<unknown>
    102c: 27 54 06 00  	<unknown>
    1030: 13 97 16 00  	slli	a4, a3, 1
    1034: b3 85 e5 00  	add	a1, a1, a4
    1038: 33 06 e6 00  	add	a2, a2, a4
    103c: 33 05 d5 40  	sub	a0, a0, a3
    1040: 6f f0 1f fd  	j	0x1010 <.LBB22_1>

00001044 <.LBB22_4>:
    1044: 67 80 00 00  	ret

00001048 <vector_memcpy_masked_stride_e32m8>:
    1048: d7 76 30 05  	<unknown>
    104c: 07 e4 05 02  	<unknown>
    1050: 57 b0 80 62  	<unknown>
    1054: 6f 00 c0 00  	j	0x1060 <.LBB23_2>

00001058 <.LBB23_1>:
    1058: 93 b6 16 00  	seqz	a3, a3
    105c: 63 98 06 02  	bnez	a3, 0x108c <.LBB23_4>

00001060 <.LBB23_2>:
    1060: d7 76 35 05  	<unknown>
    1064: e3 8a 06 fe  	beqz	a3, 0x1058 <.LBB23_1>
    1068: 57 f0 36 01  	<unknown>
    106c: 07 e4 05 00  	<unknown>
    1070: 57 70 30 05  	<unknown>
    1074: 27 64 06 00  	<unknown>
    1078: 13 97 26 00  	slli	a4, a3, 2
    107c: b3 85 e5 00  	add	a1, a1, a4
    1080: 33 06 e6 00  	add	a2, a2, a4
    1084: 33 05 d5 40  	sub	a0, a0, a3
    1088: 6f f0 1f fd  	j	0x1058 <.LBB23_1>

0000108c <.LBB23_4>:
    108c: 67 80 00 00  	ret

00001090 <vector_memcpy_masked_stride_e32mf2>:
    1090: d7 76 70 05  	<unknown>
    1094: 87 ec 05 02  	<unknown>
    1098: 57 b0 90 63  	<unknown>
    109c: 6f 00 c0 00  	j	0x10a8 <.LBB24_2>

000010a0 <.LBB24_1>:
    10a0: 93 b6 16 00  	seqz	a3, a3
    10a4: 63 98 06 02  	bnez	a3, 0x10d4 <.LBB24_4>

000010a8 <.LBB24_2>:
    10a8: d7 76 75 05  	<unknown>
    10ac: e3 8a 06 fe  	beqz	a3, 0x10a0 <.LBB24_1>
    10b0: 57 f0 76 01  	<unknown>
    10b4: 87 ec 05 00  	<unknown>
    10b8: 57 70 70 05  	<unknown>
    10bc: a7 6c 06 00  	<unknown>
    10c0: 13 97 26 00  	slli	a4, a3, 2
    10c4: b3 85 e5 00  	add	a1, a1, a4
    10c8: 33 06 e6 00  	add	a2, a2, a4
    10cc: 33 05 d5 40  	sub	a0, a0, a3
    10d0: 6f f0 1f fd  	j	0x10a0 <.LBB24_1>

000010d4 <.LBB24_4>:
    10d4: 67 80 00 00  	ret

000010d8 <main>:
    10d8: 13 01 01 ff  	addi	sp, sp, -16
    10dc: 23 26 11 00  	sw	ra, 12(sp)
    10e0: 23 24 81 00  	sw	s0, 8(sp)
    10e4: 37 15 00 00  	lui	a0, 1
    10e8: 13 05 45 a3  	addi	a0, a0, -1484
    10ec: 97 f0 ff ff  	auipc	ra, 1048575
    10f0: e7 80 40 f4  	jalr	-188(ra)
    10f4: 13 04 05 00  	mv	s0, a0
    10f8: 37 15 00 00  	lui	a0, 1
    10fc: 13 05 45 a6  	addi	a0, a0, -1436
    1100: 97 f0 ff ff  	auipc	ra, 1048575
    1104: e7 80 c0 02  	jalr	44(ra)
    1108: 13 15 15 00  	slli	a0, a0, 1
    110c: 33 64 85 00  	or	s0, a0, s0
    1110: 37 15 00 00  	lui	a0, 1
    1114: 13 05 85 a9  	addi	a0, a0, -1384
    1118: 97 f0 ff ff  	auipc	ra, 1048575
    111c: e7 80 00 12  	jalr	288(ra)
    1120: 13 15 25 00  	slli	a0, a0, 2
    1124: 33 64 a4 00  	or	s0, s0, a0
    1128: 37 15 00 00  	lui	a0, 1
    112c: 13 05 c5 ac  	addi	a0, a0, -1332
    1130: 97 f0 ff ff  	auipc	ra, 1048575
    1134: e7 80 80 10  	jalr	264(ra)
    1138: 13 15 35 00  	slli	a0, a0, 3
    113c: 33 64 a4 00  	or	s0, s0, a0
    1140: 37 15 00 00  	lui	a0, 1
    1144: 13 05 05 b0  	addi	a0, a0, -1280
    1148: 97 f0 ff ff  	auipc	ra, 1048575
    114c: e7 80 80 ee  	jalr	-280(ra)
    1150: 13 15 45 00  	slli	a0, a0, 4
    1154: 33 64 a4 00  	or	s0, s0, a0
    1158: 37 15 00 00  	lui	a0, 1
    115c: 13 05 05 b6  	addi	a0, a0, -1184
    1160: 97 f0 ff ff  	auipc	ra, 1048575
    1164: e7 80 c0 fc  	jalr	-52(ra)
    1168: 13 15 55 00  	slli	a0, a0, 5
    116c: 33 64 a4 00  	or	s0, s0, a0
    1170: 37 15 00 00  	lui	a0, 1
    1174: 13 05 45 bc  	addi	a0, a0, -1084
    1178: 97 f0 ff ff  	auipc	ra, 1048575
    117c: e7 80 00 0c  	jalr	192(ra)
    1180: 13 15 65 00  	slli	a0, a0, 6
    1184: 33 64 a4 00  	or	s0, s0, a0
    1188: 37 15 00 00  	lui	a0, 1
    118c: 13 05 85 c2  	addi	a0, a0, -984
    1190: 97 f0 ff ff  	auipc	ra, 1048575
    1194: e7 80 80 0a  	jalr	168(ra)
    1198: 13 15 75 00  	slli	a0, a0, 7
    119c: 33 64 a4 00  	or	s0, s0, a0
    11a0: 37 15 00 00  	lui	a0, 1
    11a4: 13 05 c5 c8  	addi	a0, a0, -884
    11a8: 97 f0 ff ff  	auipc	ra, 1048575
    11ac: e7 80 80 e8  	jalr	-376(ra)
    11b0: 13 15 85 00  	slli	a0, a0, 8
    11b4: 33 64 a4 00  	or	s0, s0, a0
    11b8: 37 15 00 00  	lui	a0, 1
    11bc: 13 05 05 d5  	addi	a0, a0, -688
    11c0: 97 f0 ff ff  	auipc	ra, 1048575
    11c4: e7 80 c0 f6  	jalr	-148(ra)
    11c8: 13 15 95 00  	slli	a0, a0, 9
    11cc: 33 64 a4 00  	or	s0, s0, a0
    11d0: 37 15 00 00  	lui	a0, 1
    11d4: 13 05 c5 e1  	addi	a0, a0, -484
    11d8: 97 f0 ff ff  	auipc	ra, 1048575
    11dc: e7 80 00 06  	jalr	96(ra)
    11e0: 13 15 a5 00  	slli	a0, a0, 10
    11e4: 33 64 a4 00  	or	s0, s0, a0
    11e8: 37 15 00 00  	lui	a0, 1
    11ec: 13 05 c5 ee  	addi	a0, a0, -276
    11f0: 97 f0 ff ff  	auipc	ra, 1048575
    11f4: e7 80 80 04  	jalr	72(ra)
    11f8: 13 15 b5 00  	slli	a0, a0, 11
    11fc: 33 64 a4 00  	or	s0, s0, a0
    1200: 37 15 00 00  	lui	a0, 1
    1204: 13 05 c5 fb  	addi	a0, a0, -68
    1208: 97 f0 ff ff  	auipc	ra, 1048575
    120c: e7 80 80 e2  	jalr	-472(ra)
    1210: 13 15 c5 00  	slli	a0, a0, 12
    1214: 33 64 a4 00  	or	s0, s0, a0
    1218: 37 15 00 00  	lui	a0, 1
    121c: 13 05 05 00  	mv	a0, a0
    1220: 97 f0 ff ff  	auipc	ra, 1048575
    1224: e7 80 c0 f0  	jalr	-244(ra)
    1228: 13 15 d5 00  	slli	a0, a0, 13
    122c: 33 64 a4 00  	or	s0, s0, a0
    1230: 37 15 00 00  	lui	a0, 1
    1234: 13 05 85 04  	addi	a0, a0, 72
    1238: 97 f0 ff ff  	auipc	ra, 1048575
    123c: e7 80 00 00  	jalr	ra
    1240: 13 15 e5 00  	slli	a0, a0, 14
    1244: 33 64 a4 00  	or	s0, s0, a0
    1248: 37 15 00 00  	lui	a0, 1
    124c: 13 05 05 09  	addi	a0, a0, 144
    1250: 97 f0 ff ff  	auipc	ra, 1048575
    1254: e7 80 80 fe  	jalr	-24(ra)
    1258: 13 15 f5 00  	slli	a0, a0, 15
    125c: 33 65 a4 00  	or	a0, s0, a0
    1260: b7 05 00 f0  	lui	a1, 983040
    1264: 23 a0 a5 00  	sw	a0, 0(a1)
    1268: 03 24 81 00  	lw	s0, 8(sp)
    126c: 83 20 c1 00  	lw	ra, 12(sp)
    1270: 13 01 01 01  	addi	sp, sp, 16
    1274: 67 80 00 00  	ret
