
/media/common/University/Edu/Year4_Masters/Project/riscv-v-lite/programs/build/llvm-13-rv32imv/vector_memcpy/vector_memcpy.elf:	file format elf32-littleriscv
Contents of section .text.init:
 0000 17010100 13010102 97200000 e78040b4  ......... ....@.
 0010 6f000000                             o...
Contents of section .text:
 0014 630c0600 93060500 2380b600 1306f6ff  c.......#.......
 0024 93861600 e31a06fe 67800000 130101ef  ........g.......
 0034 23261110 23248110 23229110 23202111  #&..#$..#"..# !.
 0044 13090500 13040108 13050108 13060008  ................
 0054 93040008 93050000 97000000 e78080fb  ................
 0064 13050100 13060008 93050000 97000000  ................
 0074 e78040fa 13050000 b305a400 2380a500  ..@.........#...
 0084 13051500 e31a95fe 93040108 1305e006  ................
 0094 93050108 13060100 13040100 e7000900  ................
 00a4 13050000 9305d006 03c60400 83460400  .............F..
 00b4 631ed604 1376f50f 13041400 93841400  c....v..........
 00c4 13051500 e362b6fe 8345e106 13050000  .....b...E......
 00d4 63900504 9305f006 1305f0ff 13060100  c...............
 00e4 93968501 93d68641 63cc0600 13f7f50f  .......Ac.......
 00f4 3307e600 03470700 93851500 e30207fe  3....G..........
 0104 3325d500 13451500 6f008000 13050000  3%...E..o.......
 0114 03290110 83244110 03248110 8320c110  .)...$A..$... ..
 0124 13010111 67800000 130101df 23261120  ....g.......#&. 
 0134 23248120 23229120 23202121 13090500  #$. #". # !!....
 0144 13050110 13060010 13040110 93050000  ................
 0154 97000000 e78000ec 13050100 13060010  ................
 0164 93050000 97000000 e780c0ea 13050000  ................
 0174 93050008 2310a400 13051500 13042400  ....#.........$.
 0184 e31ab5fe 93040110 1305e006 93050110  ................
 0194 13060100 13040100 e7000900 13050000  ................
 01a4 b7050100 9385f5ff 1306d006 83d60400  ................
 01b4 03570400 6392e606 b376b500 13042400  .W..c....v....$.
 01c4 93842400 13051500 e3e2c6fe 8355c10d  ..$..........U..
 01d4 13050000 63940504 1305e006 b7050100  ....c...........
 01e4 9385f5ff 1306e007 93060100 3377b500  ............3w..
 01f4 636ee600 13051500 b377b500 93971700  cn.......w......
 0204 b387f600 83d70700 e38207fe 1335f707  .............5..
 0214 13451500 6f008000 13050000 03290120  .E..o........). 
 0224 83244120 03248120 8320c120 13010121  .$A .$. . . ...!
 0234 67800000 130101be 232e1140 232c8140  g.......#..@#,.@
 0244 232a9140 23282141 13090500 13050121  #*.@#(!A.......!
 0254 13060020 93040121 93050000 97000000  ... ...!........
 0264 e78040db 13050101 13060020 93050000  ..@........ ....
 0274 97000000 e78000da 13050000 93050008  ................
 0284 23a0a400 13051500 93844400 e31ab5fe  #.........D.....
 0294 93040121 1305e006 93050121 13060101  ...!.......!....
 02a4 13040101 e7000900 13050000 9305801b  ................
 02b4 3386a400 03260600 b306a400 83a60600  3....&..........
 02c4 6314d604 13054500 e314b5fe 8325811c  c.....E......%..
 02d4 13050000 639c0502 1305c11c 9306e006  ....c...........
 02e4 9305f007 13860600 638ab600 03270500  ........c....'..
 02f4 93061600 13054500 e30607fe 1305e007  ......E.........
 0304 3335c500 6f008000 13050000 03290141  35..o........).A
 0314 83244141 03248141 8320c141 13010142  .$AA.$.A. .A...B
 0324 67800000 13010181 2326117e 2324817e  g.......#&.~#$.~
 0334 2322917e 2320217f 130101fd 13090500  #".~# !.........
 0344 13050141 13060040 13040141 93050000  ...A...@...A....
 0354 97000000 e78000cc 13050101 13060040  ...............@
 0364 93050000 97000000 e780c0ca 93050000  ................
 0374 13050000 6f00c001 13060000 93861500  ....o...........
 0384 b3b5b600 3305b500 93850600 63020602  ....3.......c...
 0394 13963500 3306c400 2320b600 13664600  ..5.3...# ...fF.
 03a4 2320a600 e31a05fc 13b6f507 6ff01ffd  # ..........o...
 03b4 93040141 1305e006 93050141 13060101  ...A.......A....
 03c4 13040101 e7000900 93050000 13050000  ................
 03d4 6f00c001 13060000 93861500 b3b5b600  o...............
 03e4 3305b500 93850600 63060604 13963500  3.......c.....5.
 03f4 b386c400 13e74600 03270700 83a60600  ......F..'......
 0404 3306c400 93674600 03260600 83a70700  3....gF..&......
 0414 33c6c600 b346f700 3366d600 63180600  3....F..3f..c...
 0424 e31a05fa 13b6d506 6ff01ffb 13050000  ........o.......
 0434 6f008007 03254138 83250138 b3e5a500  o....%A8.%.8....
 0444 13050000 63920506 13050000 9306e006  ....c...........
 0454 9305e007 13060101 630a0500 13070000  ........c.......
 0464 b337a000 638a0700 6f00c003 13b7f607  .7..c...o.......
 0474 b3b7d500 63980702 93871600 93943700  ....c.........7.
 0484 b3049600 03a40400 93e44400 83a40400  ..........D.....
 0494 b3b6d700 b3649400 3305d500 93860700  .....d..3.......
 04a4 e38c04fa 13451700 13010103 0329017e  .....E.......).~
 04b4 8324417e 0324817e 8320c17e 1301017f  .$A~.$.~. .~....
 04c4 67800000 130101ee 232e1110 232c8110  g.......#...#,..
 04d4 232a9110 23282111 23263111 13090500  #*..#(!.#&1.....
 04e4 9309c108 1305c108 13060008 93040008  ................
 04f4 93050000 97000000 e780c0b1 1305c100  ................
 0504 13060008 1304c100 93050000 97000000  ................
 0514 e78040b0 13050000 9305b00b 3386a900  ..@.........3...
 0524 2300a600 3306a400 13051500 2300b600  #...3.......#...
 0534 e31695fe 9304e006 9309c108 1305e006  ................
 0544 9305c108 1306c100 1304c100 e7000900  ................
 0554 13050000 9305b00b 6f00c001 b386a900  ........o.......
 0564 83c60600 03460600 6394c606 13051500  .....F..c.......
 0574 630e9500 93761500 3306a400 e39006fe  c....v..3.......
 0584 03460600 e304b6fe 6f008004 8345a107  .F......o....E..
 0594 1305b00b 639ea502 1306f006 9305f0ff  ....c...........
 05a4 9306c100 13178601 13578741 634c0700  .........W.AcL..
 05b4 9377f60f b387f600 83c70700 13061600  .w..............
 05c4 e382a7fe 33a5e500 13451500 6f008000  ....3....E..o...
 05d4 13050000 8329c110 03290111 83244111  .....)...)...$A.
 05e4 03248111 8320c111 13010112 67800000  .$... ......g...
 05f4 130101de 232e1120 232c8120 232a9120  ....#.. #,. #*. 
 0604 23282121 23263121 13090500 1305c110  #(!!#&1!........
 0614 13060010 1304c110 93050000 97000000  ................
 0624 e780409f 1305c100 13060010 9304c100  ..@.............
 0634 93050000 97000000 e780c09d 13050000  ................
 0644 9305b00b 13060008 2310a400 2390b400  ........#...#...
 0654 13051500 13042400 93842400 e316c5fe  ......$...$.....
 0664 9309e006 1304c110 1305e006 9305c110  ................
 0674 1306c100 9304c100 e7000900 13050000  ................
 0684 9305b00b 6f000002 03560400 83d60400  ....o....V......
 0694 631ad606 13051500 13042400 93842400  c.........$...$.
 06a4 630c3501 13761500 e31006fe 03d60400  c.5..v..........
 06b4 e302b6fe 6f000005 8355810e 1305b00b  ....o....U......
 06c4 6392a504 9305e006 37060100 1306f6ff  c.......7.......
 06d4 9306e007 1307c100 b3f7c500 63eef600  ............c...
 06e4 93851500 b3f4c500 93941400 b3049700  ................
 06f4 83d40400 e382a4fe 13b5f707 13451500  .............E..
 0704 6f008000 13050000 8329c120 03290121  o........). .).!
 0714 83244121 03248121 8320c121 13010122  .$A!.$.!. .!..."
 0724 67800000 130101be 232e1140 232c8140  g.......#..@#,.@
 0734 232a9140 23282141 23263141 13090500  #*.@#(!A#&1A....
 0744 1305c120 13060020 1304c120 93050000  ... ... ... ....
 0754 97000000 e780008c 1305c100 13060020  ............... 
 0764 9304c100 93050000 97000000 e780808a  ................
 0774 13050000 9305b00b 13060008 2320a400  ............# ..
 0784 23a0b400 13051500 93844400 13044400  #.........D...D.
 0794 e316c5fe 9309e006 1304c120 1305e006  ........... ....
 07a4 9305c120 1306c100 9304c100 e7000900  ... ............
 07b4 13050000 9305b00b 6f000002 03260400  ........o....&..
 07c4 83a60400 6312d606 13051500 93844400  ....c.........D.
 07d4 13044400 630c3501 13761500 e31006fe  ..D.c.5..v......
 07e4 03a60400 e302b6fe 6f000004 8325411c  ........o....%A.
 07f4 1305b00b 639aa502 9305811c 1307e006  ....c...........
 0804 1306f007 93060700 630ac700 83a70500  ........c.......
 0814 13871600 93854500 e386a7fe 1305e007  ......E.........
 0824 3335d500 6f008000 13050000 8329c140  35..o........).@
 0834 03290141 83244141 03248141 8320c141  .).A.$AA.$.A. .A
 0844 13010142 67800000 13010181 2326117e  ...Bg.......#&.~
 0854 2324817e 2322917e 2320217f 130101fd  #$.~#".~# !.....
 0864 13090500 13050141 13060040 13040141  .......A...@...A
 0874 93050000 97f0ffff e780c079 13050101  ...........y....
 0884 13060040 93040101 93050000 97f0ffff  ...@............
 0894 e7804078 13060000 13050000 9305b00b  ..@x............
 08a4 6f00c001 93060000 13071600 3336c700  o...........36..
 08b4 3305c500 13060700 638a0602 93163600  3.......c.....6.
 08c4 3307d400 2320c700 13674700 2320a700  3...# ...gG.# ..
 08d4 b386d400 23a0b600 93e64600 23a00600  ....#.....F.#...
 08e4 e31205fc 9336f607 6ff01ffc 93040141  .....6..o......A
 08f4 1305e006 93050141 13060101 13040101  .......A........
 0904 e7000900 93050000 13050000 6f00c001  ............o...
 0914 13060000 93861500 b3b5b600 3305b500  ............3...
 0924 93850600 630a0606 93f61500 13963500  ....c.........5.
 0934 63920602 3306c400 93664600 03260600  c...3....fF..&..
 0944 83a60600 1346b60b 3366d600 630c0602  .....F..3f..c...
 0954 6f000004 b386c400 13e74600 03270700  o.........F..'..
 0964 83a60600 3306c400 93674600 03260600  ....3....gF..&..
 0974 83a70700 33c6c600 b346f700 3366d600  ....3....F..3f..
 0984 63180600 e31605f8 13b6d506 6ff09ff8  c...........o...
 0994 13050000 6f000008 03250138 83254138  ....o....%.8.%A8
 09a4 1345b50b b365b500 13050000 63940506  .E...e......c...
 09b4 13050000 9306e006 9305e007 13060101  ................
 09c4 6f000004 13b7f607 b3b7d500 63920704  o...........c...
 09d4 93871600 93943700 b3049600 13e44400  ......7.......D.
 09e4 83a40400 03240400 b3b6d700 93c4b40b  .....$..........
 09f4 b3e48400 3305d500 93860700 639a0400  ....3.......c...
 0a04 e30205fc 13070000 b337a000 e38207fc  .........7......
 0a14 13451700 13010103 0329017e 8324417e  .E.......).~.$A~
 0a24 0324817e 8320c17e 1301017f 67800000  .$.~. .~....g...
 0a34 130101ed 23261112 23248112 23229112  ....#&..#$..#"..
 0a44 23202113 232e3111 232c4111 13090500  # !.#.1.#,A.....
 0a54 93048109 13058109 13060008 13040008  ................
 0a64 93050000 97f0ffff e780c05a 13050000  ...........Z....
 0a74 232a0108 23280108 23260108 23240108  #*..#(..#&..#$..
 0a84 23220108 23200108 232e0106 232c0106  #"..# ..#...#,..
 0a94 232a0106 23280106 23260106 23240106  #*..#(..#&..#$..
 0aa4 23220106 23200106 232e0104 232c0104  #"..# ..#...#,..
 0ab4 232a0104 23280104 23260104 23240104  #*..#(..#&..#$..
 0ac4 23220104 23200104 232e0102 232c0102  #"..# ..#...#,..
 0ad4 232a0102 23280102 23260102 23240102  #*..#(..#&..#$..
 0ae4 23220102 23200102 232e0100 232c0100  #"..# ..#...#,..
 0af4 b385a400 2380a500 13051500 e31a85fe  ....#...........
 0b04 93098107 23243101 130a8105 23264101  ....#$1.....#&A.
 0b14 13048103 23288100 93048101 232a9100  ....#(......#*..
 0b24 1305a001 93058109 13068100 e7000900  ................
 0b34 13050000 9305b109 13069001 83c6d5ff  ................
 0b44 03c70900 6390e606 83c6e5ff 03470a00  ....c........G..
 0b54 639ae604 83c6f5ff 03470400 6394e604  c........G..c...
 0b64 83c60500 03c70400 639ee602 9376f50f  ........c....v..
 0b74 93841400 13041400 130a1a00 93891900  ................
 0b84 93854500 13051500 e3eac6fa 83452109  ..E..........E!.
 0b94 13051000 638a0502 1345f5ff 13751500  ....c....E...u..
 0ba4 6f008000 13050000 032a8111 8329c111  o........*...)..
 0bb4 03290112 83244112 03248112 8320c112  .)...$A..$... ..
 0bc4 13010113 67800000 93052107 13062105  ....g.....!...!.
 0bd4 93062103 13051000 1307a001 9307e001  ..!.............
 0be4 93048107 03c40500 e31804fa 03440600  .............D..
 0bf4 e31404fa 03c40600 e31004fa 1374f70f  .............t..
 0c04 1335f401 e3ea87f8 13071700 1374f70f  .5...........t..
 0c14 33848400 03440400 93851500 13061600  3....D..........
 0c24 93861600 e30004fc 6ff01ff7 130101dd  ........o.......
 0c34 23261122 23248122 23229122 23202123  #&."#$."#"."# !#
 0c44 232e3121 232c4121 13090500 13058111  #.1!#,A!........
 0c54 13060010 13048111 93050000 97f0ffff  ................
 0c64 e780403b 1305810d 13060004 93050000  ..@;............
 0c74 97f0ffff e780003a 13058109 13060004  .......:........
 0c84 93050000 97f0ffff e780c038 13058105  ...........8....
 0c94 13060004 93050000 97f0ffff e7808037  ...............7
 0ca4 13058101 13060004 93050000 97f0ffff  ................
 0cb4 e7804036 13050000 93050008 2310a400  ..@6........#...
 0cc4 13051500 13042400 e31ab5fe 9309810d  ......$.........
 0cd4 23243101 130a8109 23264101 93048105  #$1.....#&A.....
 0ce4 23289100 13048101 232a8100 1305a001  #(......#*......
 0cf4 93058111 13068100 e7000900 13050000  ................
 0d04 9305c111 37060100 1306f6ff 93069001  ....7...........
 0d14 03d7c5ff 83d70900 6310f706 03d7e5ff  ........c.......
 0d24 83570a00 631af704 03d70500 83d70400  .W..c...........
 0d34 6314f704 03d72500 83570400 631ef702  c.....%..W..c...
 0d44 3377c500 13042400 93842400 130a2a00  3w....$...$...*.
 0d54 93892900 93858500 13051500 e36ad7fa  ..)..........j..
 0d64 8355c110 13051000 638a0502 1345f5ff  .U......c....E..
 0d74 13751500 6f008000 13050000 032a8121  .u..o........*.!
 0d84 8329c121 03290122 83244122 03248122  .).!.).".$A".$."
 0d94 8320c122 13010123 67800000 9305c10c  . ."...#g.......
 0da4 1306c108 9306c104 13051000 1307a001  ................
 0db4 b7070100 9387f7ff 9304e001 1308810d  ................
 0dc4 03d40500 e31404fa 03540600 e31004fa  .........T......
 0dd4 03d40600 e31c04f8 3374f700 1335f401  ........3t...5..
 0de4 e3e684f8 13071700 3374f700 13141400  ........3t......
 0df4 33048800 03540400 93852500 13062600  3....T....%...&.
 0e04 93862600 e30e04fa 6ff05ff6 130101bd  ..&.....o._.....
 0e14 23261142 23248142 23229142 23202143  #&.B#$.B#".B# !C
 0e24 232e3141 232c4141 13090500 13058121  #.1A#,AA.......!
 0e34 13060020 13048121 93050000 97f0ffff  ... ...!........
 0e44 e780401d 13058119 13060008 93040008  ..@.............
 0e54 93050000 97f0ffff e780c01b 13058111  ................
 0e64 13060008 93050000 97f0ffff e780801a  ................
 0e74 13058109 13060008 93050000 97f0ffff  ................
 0e84 e7804019 13058101 13060008 93050000  ..@.............
 0e94 97f0ffff e7800018 13050000 2320a400  ............# ..
 0ea4 13051500 13044400 e31a95fe 93098119  ......D.........
 0eb4 23243101 130a8111 23264101 93048109  #$1.....#&A.....
 0ec4 23289100 13048101 232a8100 1305a001  #(......#*......
 0ed4 93058121 13068100 e7000900 13050000  ...!............
 0ee4 93050122 13068006 83a685ff 3387a900  ..."........3...
 0ef4 03270700 639ce604 83a6c5ff 3307aa00  .'..c.......3...
 0f04 03270700 6394e604 83a60500 3387a400  .'..c.......3...
 0f14 03270700 639ce602 83a64500 3307a400  .'..c.....E.3...
 0f24 03270700 6394e602 13054500 93850501  .'..c.....E.....
 0f34 e31cc5fa 83250120 13051000 638a0502  .....%. ....c...
 0f44 1345f5ff 13751500 6f008000 13050000  .E...u..o.......
 0f54 032a8141 8329c141 03290142 83244142  .*.A.).A.).B.$AB
 0f64 03248142 8320c142 13010143 67800000  .$.B. .B...Cg...
 0f74 93050118 13060110 93060108 13074120  ..............A 
 0f84 13051000 9307a001 9304f001 03a40500  ................
 0f94 e31804fa 03240600 e31404fa 03a40600  .....$..........
 0fa4 e31004fa 13b5f701 e38c97f8 03240700  .............$..
 0fb4 93854500 13064600 93864600 13074700  ..E...F...F...G.
 0fc4 93871700 e30404fc 6ff09ff7 13010181  ........o.......
 0fd4 2326117e 2324817e 2322917e 2320217f  #&.~#$.~#".~# !.
 0fe4 232e317d 232c417d 232a517d 2328617d  #.1}#,A}#*Q}#(a}
 0ff4 2326717d 130101fb 13090500 13058141  #&q}...........A
 1004 13060040 13048141 93050000 97f0ffff  ...@...A........
 1014 e7804000 13058131 13060010 93050000  ..@....1........
 1024 97f0ffff e78000ff 13058121 13060010  ...........!....
 1034 93050000 97f0ffff e780c0fd 13058111  ................
 1044 13060010 93050000 97f0ffff e78080fc  ................
 1054 13058101 13060010 93050000 97f0ffff  ................
 1064 e78040fb 93050000 13050000 6f00c001  ..@.........o...
 1074 13060000 93861500 b3b5b600 3305b500  ............3...
 1084 93850600 63020602 13963500 3306c400  ....c.....5.3...
 1094 2320b600 13664600 2320a600 e31a05fc  # ...fF.# ......
 10a4 13b6f507 6ff01ffd 130b8131 23246101  ....o......1#$a.
 10b4 930a8121 23265101 93098111 23283101  ...!#&Q.....#(1.
 10c4 130a8101 232a4101 1305a001 93058141  ....#*A........A
 10d4 13068100 930b8141 e7000900 93050000  .......A........
 10e4 13050000 6f00c001 13060000 93861500  ....o...........
 10f4 b3b5b600 3305b500 93850600 63000612  ....3.......c...
 1104 13965500 3386cb00 93664600 83a60600  ..U.3....fF.....
 1114 03270600 13963500 b307cb00 93e44700  .'....5.......G.
 1124 83a70700 83a40400 3347f700 b3c69600  ........3G......
 1134 b366d700 639a060a 93962500 93963600  .f..c.....%...6.
 1144 13e78600 3387eb00 93674700 83a70700  ....3....gG.....
 1154 03270700 b384ca00 13e44400 83a40400  .'........D.....
 1164 03240400 33479700 b3c78700 3367f700  .$..3G......3g..
 1174 631c0706 13e70601 3387eb00 93674700  c.......3....gG.
 1184 83a70700 03270700 b384c900 13e44400  .....'........D.
 1194 83a40400 03240400 33479700 b3c78700  .....$..3G......
 11a4 3367f700 63120704 93e68601 b386db00  3g..c...........
 11b4 13e74600 03270700 83a60600 3306ca00  ..F..'......3...
 11c4 93674600 03260600 83a70700 33c6c600  .gF..&......3...
 11d4 b346f700 3366d600 63180600 e31605f0  .F..3f..c.......
 11e4 13b69501 6ff09ff0 13050000 13010105  ....o...........
 11f4 832bc17c 032b017d 832a417d 032a817d  .+.|.+.}.*A}.*.}
 1204 8329c17d 0329017e 8324417e 0324817e  .).}.).~.$A~.$.~
 1214 8320c17e 1301017f 67800000 0325c13e  . .~....g....%.>
 1224 8325813e b3e5a500 93021000 63880500  .%.>........c...
 1234 13c5f2ff 13751500 6ff05ffb 93050000  .....u..o._.....
 1244 1306812e 9306811e 1307810e 1304a001  ................
 1254 93021000 1308e001 93088131 03254600  ...........1.%F.
 1264 83270600 33e5a700 e31405fc 03a54600  .'..3.........F.
 1274 83a70600 33e5a700 e31c05fa 03254700  ....3........%G.
 1284 83270700 33e5a700 e31405fa 63880500  .'..3.......c...
 1294 93020000 b337b000 6f00c000 9332f401  .....7..o....2..
 12a4 b3378800 e39607f8 93071400 93943700  .7............7.
 12b4 b3849800 03a50400 93e44400 83a40400  ..........D.....
 12c4 33b48700 b3858500 33659500 13068600  3.......3e......
 12d4 93868600 13078700 13840700 e30005f8  ................
 12e4 6ff01ff5 6f00c000 93b61600 63920602  o...o.......c...
 12f4 d7763504 e38a06fe 07840502 27040602  .v5.........'...
 1304 b385d500 3306d600 3305d540 6ff0dffd  ....3...3..@o...
 1314 67800000 6f00c000 93b61600 63940602  g...o.......c...
 1324 d776b504 e38a06fe 07d40502 27540602  .v..........'T..
 1334 13971600 b385e500 3306e600 3305d540  ........3...3..@
 1344 6ff09ffd 67800000 6f00c000 93b61600  o...g...o.......
 1354 63940602 d7763505 e38a06fe 07e40502  c....v5.........
 1364 27640602 13972600 b385e500 3306e600  'd....&.....3...
 1374 3305d540 6ff09ffd 67800000 6f00c000  3..@o...g...o...
 1384 93b61600 63940602 d7767505 e38a06fe  ....c....vu.....
 1394 87ec0502 a76c0602 13972600 b385e500  .....l....&.....
 13a4 3306e600 3305d540 6ff09ffd 67800000  3...3..@o...g...
 13b4 93084000 6f004002 07840502 27040602  ..@.o.@.....'...
 13c4 13080700 33050541 b3850501 33060601  ....3..A....3...
 13d4 93361700 639c0602 57773504 e30a07fe  .6..c...Ww5.....
 13e4 13182700 e37aa8fc 93070000 b386f500  ..'..z..........
 13f4 57703704 0784160b b306f600 93871700  Wp7.............
 1404 2784160b e39417ff 6ff0dffb 67800000  '.......o...g...
 1414 93088000 6f008002 07d40502 27540602  ....o.......'T..
 1424 13080700 33050541 93161800 b385d500  ....3..A........
 1434 3306d600 93361700 639c0602 5777b504  3....6..c...Ww..
 1444 e30a07fe 13182700 e378a8fc 93070000  ......'..x......
 1454 b386f500 5770b704 07d4160b b306f600  ....Wp..........
 1464 93872700 27d4160b e39417ff 6ff09ffb  ..'.'.......o...
 1474 67800000 93080001 6f008002 07e40502  g.......o.......
 1484 27640602 13080700 33050541 93162800  'd......3..A..(.
 1494 b385d500 3306d600 93361700 639c0602  ....3....6..c...
 14a4 57773505 e30a07fe 13182700 e378a8fc  Ww5.......'..x..
 14b4 93070000 b386f500 57703705 07e4160b  ........Wp7.....
 14c4 b306f600 93874700 27e4160b e39417ff  ......G.'.......
 14d4 6ff09ffb 67800000 93080001 6f008002  o...g.......o...
 14e4 87ec0502 a76c0602 13080700 33050541  .....l......3..A
 14f4 93162800 b385d500 3306d600 93361700  ..(.....3....6..
 1504 639c0602 57777505 e30a07fe 13182700  c...Wwu.......'.
 1514 e378a8fc 93070000 b386f500 57707705  .x..........Wpw.
 1524 87ec160b b306f600 93874700 a7ec160b  ..........G.....
 1534 e39417ff 6ff09ffb 67800000 130101f6  ....o...g.......
 1544 232e1108 232c8108 232a9108 23282109  #...#,..#*..#(!.
 1554 23263109 23244109 13090600 93840500  #&1.#$A.........
 1564 13040500 d7793004 13058100 13060008  .....y0.........
 1574 130a8100 93050000 97f0ffff e78080a9  ................
 1584 638e0900 13050000 93451500 3306aa00  c........E..3...
 1594 13051500 2300b600 e398a9fe 57f03904  ....#.......W.9.
 15a4 13058100 07040502 6f000002 07880402  ........o.......
 15b4 27080902 b384a400 3309a900 3304a440  '.......3...3..@
 15c4 13351500 631e0500 57753404 e30a05fe  .5..c...Wu4.....
 15d4 e31e35fd 07888406 27088906 6ff09ffd  ..5.....'...o...
 15e4 032a8108 8329c108 03290109 83244109  .*...)...)...$A.
 15f4 03248109 8320c109 1301010a 67800000  .$... ......g...
 1604 130101ee 232e1110 232c8110 232a9110  ....#...#,..#*..
 1614 23282111 23263111 23244111 13090600  #(!.#&1.#$A.....
 1624 138a0500 13040500 d779b004 13058100  .........y......
 1634 13060010 93048100 93050000 97f0ffff  ................
 1644 e780409d 63800902 13050000 93151500  ..@.c...........
 1654 93c52500 2390b400 13051500 93842400  ..%.#.........$.
 1664 e396a9fe 57f0b904 13058100 07540502  ....W........T..
 1674 6f004002 07580a02 27580902 93151500  o.@..X..'X......
 1684 330aba00 3309b900 3304a440 13351500  3...3...3..@.5..
 1694 631e0500 5775b404 e30a05fe e31c35fd  c...Wu........5.
 16a4 07588a06 27588906 6ff05ffd 032a8110  .X..'X..o._..*..
 16b4 8329c110 03290111 83244111 03248111  .)...)...$A..$..
 16c4 8320c111 13010112 67800000 130101de  . ......g.......
 16d4 232e1120 232c8120 232a9120 23282121  #.. #,. #*. #(!!
 16e4 23263121 23244121 13090600 93840500  #&1!#$A!........
 16f4 13040500 d7793005 13058100 13060020  .....y0........ 
 1704 130a8100 93050000 97f0ffff e7808090  ................
 1714 63820902 13050000 93850900 13464500  c............FE.
 1724 b306aa00 23a0c600 9385f5ff 13054500  ....#.........E.
 1734 e39605fe 57f03905 13058100 07640502  ....W.9......d..
 1744 6f004002 07e80402 27680902 93152500  o.@.....'h....%.
 1754 b384b400 3309b900 3304a440 13351500  ....3...3..@.5..
 1764 631e0500 57753405 e30a05fe e31c35fd  c...Wu4.......5.
 1774 07e88406 27688906 6ff05ffd 032a8120  ....'h..o._..*. 
 1784 8329c120 03290121 83244121 03248121  .). .).!.$A!.$.!
 1794 8320c121 13010122 67800000 130101de  . .!..."g.......
 17a4 232e1120 232c8120 232a9120 23282121  #.. #,. #*. #(!!
 17b4 23263121 23244121 13090600 93840500  #&1!#$A!........
 17c4 13040500 d7797005 13058100 13060020  .....yp........ 
 17d4 130a8100 93050000 97f0ffff e7808083  ................
 17e4 63820902 13050000 93850900 13464500  c............FE.
 17f4 b306aa00 23a0c600 9385f5ff 13054500  ....#.........E.
 1804 e39605fe 57f07905 13058100 876c0502  ....W.y......l..
 1814 6f004002 07ed0402 276d0902 93152500  o.@.....'m....%.
 1824 b384b400 3309b900 3304a440 13351500  ....3...3..@.5..
 1834 631e0500 57757405 e30a05fe e31c35fd  c...Wut.......5.
 1844 07ed9407 276d9907 6ff05ffd 032a8120  ....'m..o._..*. 
 1854 8329c120 03290121 83244121 03248121  .). .).!.$A!.$.!
 1864 8320c121 13010122 67800000 d7763004  . .!..."g....v0.
 1874 07840502 57b08062 6f00c000 93b61600  ....W..bo.......
 1884 63960602 d7763504 e38a06fe 57f03600  c....v5.....W.6.
 1894 07840500 57703004 27040600 b385d500  ....Wp0.'.......
 18a4 3306d600 3305d540 6ff05ffd 67800000  3...3..@o._.g...
 18b4 d776b004 07d40502 57b08062 6f00c000  .v......W..bo...
 18c4 93b61600 63980602 d776b504 e38a06fe  ....c....v......
 18d4 57f0b600 07d40500 5770b004 27540600  W.......Wp..'T..
 18e4 13971600 b385e500 3306e600 3305d540  ........3...3..@
 18f4 6ff01ffd 67800000 d7763005 07e40502  o...g....v0.....
 1904 57b08062 6f00c000 93b61600 63980602  W..bo.......c...
 1914 d7763505 e38a06fe 57f03601 07e40500  .v5.....W.6.....
 1924 57703005 27640600 13972600 b385e500  Wp0.'d....&.....
 1934 3306e600 3305d540 6ff01ffd 67800000  3...3..@o...g...
 1944 d7767005 87ec0502 57b09063 6f00c000  .vp.....W..co...
 1954 93b61600 63980602 d7767505 e38a06fe  ....c....vu.....
 1964 57f07601 87ec0500 57707005 a76c0600  W.v.....Wpp..l..
 1974 13972600 b385e500 3306e600 3305d540  ..&.....3...3..@
 1984 6ff01ffd 67800000 93080001 6f00c000  o...g.......o...
 1994 93b61200 639e0604 d7721504 e38a02fe  ....c....r......
 19a4 07800562 83270600 27800702 83274600  ...b.'..'....'F.
 19b4 27810702 83278600 27820702 0328c600  '....'..'....(..
 19c4 93070000 27030802 13982200 b306f600  ....'.....".....
 19d4 03a70600 33075700 93874700 23a0e600  ....3.W...G.#...
 19e4 e39617ff b3850501 33055540 6ff05ffa  ........3.U@o._.
 19f4 67800000 93080001 6f00c000 93b61200  g.......o.......
 1a04 63920606 d7729504 e38a02fe 07d00562  c....r.........b
 1a14 83270600 27d00702 83274600 27d10702  .'..'....'F.'...
 1a24 83278600 27d20702 0328c600 93070000  .'..'....(......
 1a34 27530802 13982200 b306f600 03a30600  'S....".........
 1a44 13971200 3307e300 93874700 23a0e600  ....3.....G.#...
 1a54 e39417ff 93171800 b385f500 33055540  ............3.U@
 1a64 6ff0dff9 67800000 93080001 6f00c000  o...g.......o...
 1a74 93361800 63900606 57781505 e30a08fe  .6..c...Wx......
 1a84 07e00562 03270600 27600702 03274600  ...b.'..'`...'F.
 1a94 27610702 03278600 27620702 8327c600  'a...'..'b...'..
 1aa4 13070000 27e30702 93122800 b306e600  ....'.....(.....
 1ab4 83a70600 b3875700 13074700 23a0f600  ......W...G.#...
 1ac4 e31617ff 13972200 b385e500 33050541  ......".....3..A
 1ad4 6ff01ffa 67800000 93080001 6f00c000  o...g.......o...
 1ae4 93361800 63900606 57787505 e30a08fe  .6..c...Wxu.....
 1af4 07e00562 03270600 27600702 03274600  ...b.'..'`...'F.
 1b04 a7600702 03278600 27610702 8327c600  .`...'..'a...'..
 1b14 13070000 a7e10702 93122800 b306e600  ..........(.....
 1b24 83a70600 b3875700 13074700 23a0f600  ......W...G.#...
 1b34 e31617ff 13972200 b385e500 33050541  ......".....3..A
 1b44 6ff01ffa 67800000 130101ff 23261100  o...g.......#&..
 1b54 23248100 37150000 1305852e 97e0ffff  #$..7...........
 1b64 e780004d 13040500 37150000 13058531  ...M....7......1
 1b74 97e0ffff e780805b 13151500 33648500  .......[....3d..
 1b84 37150000 1305c534 97e0ffff e780c06a  7......4.......j
 1b94 13152500 3364a400 37150000 13050538  ..%.3d..7......8
 1ba4 97e0ffff e7804069 13153500 3364a400  ......@i..5.3d..
 1bb4 37150000 1305453b 97e0ffff e7804047  7.....E;......@G
 1bc4 13154500 3364a400 37150000 13054541  ..E.3d..7.....EA
 1bd4 97e0ffff e7808055 13155500 3364a400  .......U..U.3d..
 1be4 37150000 13058547 97e0ffff e780c064  7......G.......d
 1bf4 13156500 3364a400 37150000 1305c54d  ..e.3d..7......M
 1c04 97e0ffff e7804063 13157500 3364a400  ......@c..u.3d..
 1c14 37150000 13050554 97e0ffff e7804041  7......T......@A
 1c24 13158500 3364a400 37150000 13054560  ....3d..7.....E`
 1c34 97e0ffff e780804f 13159500 3364a400  .......O....3d..
 1c44 37150000 1305056d 97e0ffff e780c05e  7......m.......^
 1c54 1315a500 3364a400 37150000 1305057a  ....3d..7......z
 1c64 97e0ffff e780405d 1315b500 3364a400  ......@]....3d..
 1c74 37250000 13050587 97f0ffff e780c084  7%..............
 1c84 1315c500 3364a400 37250000 1305458b  ....3d..7%....E.
 1c94 97f0ffff e7800096 1315d500 3364a400  ............3d..
 1ca4 37250000 1305c58f 97f0ffff e780c0a7  7%..............
 1cb4 1315e500 3364a400 37250000 13054594  ....3d..7%....E.
 1cc4 97f0ffff e78040a6 1315f500 3364a400  ......@.....3d..
 1cd4 37250000 1305c598 97f0ffff e78080d5  7%..............
 1ce4 13150501 3364a400 37250000 1305859f  ....3d..7%......
 1cf4 97f0ffff e780c0f3 13151501 3364a400  ............3d..
 1d04 37250000 1305c5a6 97f0ffff e7804010  7%............@.
 1d14 13152501 3364a400 37250000 1305c5ad  ..%.3d..7%......
 1d24 97f0ffff e780c00e 13153501 3365a400  ..........5.3e..
 1d34 b70500f0 23a0a500 03248100 8320c100  ....#....$... ..
 1d44 13010101 67800000                    ....g...
Contents of section .comment:
 0000 5562756e 74752063 6c616e67 20766572  Ubuntu clang ver
 0010 73696f6e 2031332e 302e312d 2b2b3230  sion 13.0.1-++20
 0020 32323031 32303131 30393234 2b373565  220120110924+75e
 0030 33336637 31633264 612d317e 65787031  33f71c2da-1~exp1
 0040 7e323032 32303132 30323331 3030312e  ~20220120231001.
 0050 3538004c 696e6b65 723a2055 62756e74  58.Linker: Ubunt
 0060 75204c4c 44203133 2e302e31 0000      u LLD 13.0.1..
Contents of section .riscv.attributes:
 0000 41320000 00726973 63760001 28000000  A2...riscv..(...
 0010 04100572 76333269 3270305f 6d327030  ...rv32i2p0_m2p0
 0020 5f763070 31305f7a 766c7373 65673070  _v0p10_zvlsseg0p
 0030 313000                               10.
Contents of section .symtab:
 0000 00000000 00000000 00000000 00000000  ................
 0010 01000000 00000000 00000000 00000100  ................
 0020 07000000 00000000 00000000 00000100  ................
 0030 13000000 10000000 00000000 00000100  ................
 0040 17000000 00000000 00000000 0400f1ff  ................
 0050 2c000000 2c000000 00000000 00000200  ,...,...........
 0060 34000000 1c000000 00000000 00000200  4...............
 0070 3c000000 7c000000 00000000 00000200  <...|...........
 0080 44000000 ac000000 00000000 00000200  D...............
 0090 4c000000 10010000 00000000 00000200  L...............
 00a0 55000000 14010000 00000000 00000200  U...............
 00b0 5e000000 e4000000 00000000 00000200  ^...............
 00c0 66000000 04010000 00000000 00000200  f...............
 00d0 6e000000 78010000 00000000 00000200  n...x...........
 00e0 76000000 b0010000 00000000 00000200  v...............
 00f0 7e000000 1c020000 00000000 00000200  ~...............
 0100 87000000 20020000 00000000 00000200  .... ...........
 0110 90000000 f0010000 00000000 00000200  ................
 0120 98000000 10020000 00000000 00000200  ................
 0130 a0000000 84020000 00000000 00000200  ................
 0140 a8000000 b4020000 00000000 00000200  ................
 0150 b0000000 0c030000 00000000 00000200  ................
 0160 b9000000 10030000 00000000 00000200  ................
 0170 c2000000 e8020000 00000000 00000200  ................
 0180 ca000000 00030000 00000000 00000200  ................
 0190 d2000000 94030000 00000000 00000200  ................
 01a0 da000000 7c030000 00000000 00000200  ....|...........
 01b0 e2000000 80030000 00000000 00000200  ................
 01c0 ea000000 b4030000 00000000 00000200  ................
 01d0 f2000000 f0030000 00000000 00000200  ................
 01e0 fa000000 d8030000 00000000 00000200  ................
 01f0 02010000 dc030000 00000000 00000200  ................
 0200 0a010000 38040000 00000000 00000200  ....8...........
 0210 13010000 30040000 00000000 00000200  ....0...........
 0220 1c010000 ac040000 00000000 00000200  ................
 0230 25010000 5c040000 00000000 00000200  %...\...........
 0240 2e010000 70040000 00000000 00000200  ....p...........
 0250 37010000 7c040000 00000000 00000200  7...|...........
 0260 40010000 a8040000 00000000 00000200  @...............
 0270 49010000 20050000 00000000 00000200  I... ...........
 0280 51010000 78050000 00000000 00000200  Q...x...........
 0290 59010000 60050000 00000000 00000200  Y...`...........
 02a0 61010000 d4050000 00000000 00000200  a...............
 02b0 6a010000 70050000 00000000 00000200  j...p...........
 02c0 72010000 90050000 00000000 00000200  r...............
 02d0 7a010000 a8050000 00000000 00000200  z...............
 02e0 82010000 c8050000 00000000 00000200  ................
 02f0 8b010000 d8050000 00000000 00000200  ................
 0300 94010000 4c060000 00000000 00000200  ....L...........
 0310 9c010000 a8060000 00000000 00000200  ................
 0320 a4010000 8c060000 00000000 00000200  ................
 0330 ac010000 08070000 00000000 00000200  ................
 0340 b5010000 98060000 00000000 00000200  ................
 0350 bd010000 bc060000 00000000 00000200  ................
 0360 c5010000 dc060000 00000000 00000200  ................
 0370 cd010000 fc060000 00000000 00000200  ................
 0380 d6010000 0c070000 00000000 00000200  ................
 0390 df010000 80070000 00000000 00000200  ................
 03a0 e7010000 dc070000 00000000 00000200  ................
 03b0 ef010000 c0070000 00000000 00000200  ................
 03c0 f7010000 2c080000 00000000 00000200  ....,...........
 03d0 00020000 cc070000 00000000 00000200  ................
 03e0 08020000 f0070000 00000000 00000200  ................
 03f0 10020000 08080000 00000000 00000200  ................
 0400 18020000 20080000 00000000 00000200  .... ...........
 0410 21020000 30080000 00000000 00000200  !...0...........
 0420 2a020000 c0080000 00000000 00000200  *...............
 0430 32020000 a8080000 00000000 00000200  2...............
 0440 3a020000 ac080000 00000000 00000200  :...............
 0450 42020000 f0080000 00000000 00000200  B...............
 0460 4a020000 2c090000 00000000 00000200  J...,...........
 0470 52020000 14090000 00000000 00000200  R...............
 0480 5a020000 18090000 00000000 00000200  Z...............
 0490 62020000 9c090000 00000000 00000200  b...............
 04a0 6b020000 58090000 00000000 00000200  k...X...........
 04b0 74020000 88090000 00000000 00000200  t...............
 04c0 7d020000 94090000 00000000 00000200  }...............
 04d0 86020000 180a0000 00000000 00000200  ................
 04e0 8f020000 040a0000 00000000 00000200  ................
 04f0 98020000 c8090000 00000000 00000200  ................
 0500 a1020000 140a0000 00000000 00000200  ................
 0510 aa020000 d4090000 00000000 00000200  ................
 0520 b3020000 f40a0000 00000000 00000200  ................
 0530 bb020000 400b0000 00000000 00000200  ....@...........
 0540 c3020000 a80b0000 00000000 00000200  ................
 0550 cc020000 cc0b0000 00000000 00000200  ................
 0560 d5020000 9c0b0000 00000000 00000200  ................
 0570 dd020000 ac0b0000 00000000 00000200  ................
 0580 e6020000 e80b0000 00000000 00000200  ................
 0590 ef020000 c00c0000 00000000 00000200  ................
 05a0 f8020000 140d0000 00000000 00000200  ................
 05b0 01030000 7c0d0000 00000000 00000200  ....|...........
 05c0 0b030000 a00d0000 00000000 00000200  ................
 05d0 15030000 700d0000 00000000 00000200  ....p...........
 05e0 1e030000 800d0000 00000000 00000200  ................
 05f0 28030000 c40d0000 00000000 00000200  (...............
 0600 32030000 a00e0000 00000000 00000200  2...............
 0610 3b030000 ec0e0000 00000000 00000200  ;...............
 0620 44030000 500f0000 00000000 00000200  D...P...........
 0630 4e030000 740f0000 00000000 00000200  N...t...........
 0640 58030000 440f0000 00000000 00000200  X...D...........
 0650 61030000 540f0000 00000000 00000200  a...T...........
 0660 6b030000 900f0000 00000000 00000200  k...............
 0670 75030000 8c100000 00000000 00000200  u...............
 0680 7e030000 74100000 00000000 00000200  ~...t...........
 0690 87030000 78100000 00000000 00000200  ....x...........
 06a0 90030000 ac100000 00000000 00000200  ................
 06b0 99030000 04110000 00000000 00000200  ................
 06c0 a2030000 ec100000 00000000 00000200  ................
 06d0 ab030000 f0100000 00000000 00000200  ................
 06e0 b4030000 20120000 00000000 00000200  .... ...........
 06f0 be030000 ec110000 00000000 00000200  ................
 0700 c8030000 f0110000 00000000 00000200  ................
 0710 d2030000 40120000 00000000 00000200  ....@...........
 0720 dc030000 34120000 00000000 00000200  ....4...........
 0730 e6030000 60120000 00000000 00000200  ....`...........
 0740 f0030000 a0120000 00000000 00000200  ................
 0750 fa030000 a8120000 00000000 00000200  ................
 0760 04040000 f4120000 00000000 00000200  ................
 0770 0d040000 ec120000 00000000 00000200  ................
 0780 16040000 14130000 00000000 00000200  ................
 0790 1f040000 24130000 00000000 00000200  ....$...........
 07a0 28040000 1c130000 00000000 00000200  (...............
 07b0 31040000 48130000 00000000 00000200  1...H...........
 07c0 3a040000 58130000 00000000 00000200  :...X...........
 07d0 43040000 50130000 00000000 00000200  C...P...........
 07e0 4c040000 7c130000 00000000 00000200  L...|...........
 07f0 55040000 8c130000 00000000 00000200  U...............
 0800 5e040000 84130000 00000000 00000200  ^...............
 0810 67040000 b0130000 00000000 00000200  g...............
 0820 70040000 dc130000 00000000 00000200  p...............
 0830 79040000 bc130000 00000000 00000200  y...............
 0840 82040000 c8130000 00000000 00000200  ................
 0850 8b040000 d4130000 00000000 00000200  ................
 0860 94040000 10140000 00000000 00000200  ................
 0870 9d040000 f0130000 00000000 00000200  ................
 0880 a6040000 40140000 00000000 00000200  ....@...........
 0890 af040000 1c140000 00000000 00000200  ................
 08a0 b8040000 28140000 00000000 00000200  ....(...........
 08b0 c1040000 38140000 00000000 00000200  ....8...........
 08c0 ca040000 74140000 00000000 00000200  ....t...........
 08d0 d3040000 54140000 00000000 00000200  ....T...........
 08e0 dc040000 a4140000 00000000 00000200  ................
 08f0 e5040000 80140000 00000000 00000200  ................
 0900 ee040000 8c140000 00000000 00000200  ................
 0910 f7040000 9c140000 00000000 00000200  ................
 0920 00050000 d8140000 00000000 00000200  ................
 0930 09050000 b8140000 00000000 00000200  ................
 0940 12050000 08150000 00000000 00000200  ................
 0950 1b050000 e4140000 00000000 00000200  ................
 0960 24050000 f0140000 00000000 00000200  $...............
 0970 2d050000 00150000 00000000 00000200  -...............
 0980 36050000 3c150000 00000000 00000200  6...<...........
 0990 3f050000 1c150000 00000000 00000200  ?...............
 09a0 48050000 a0150000 00000000 00000200  H...............
 09b0 51050000 8c150000 00000000 00000200  Q...............
 09c0 5a050000 cc150000 00000000 00000200  Z...............
 09d0 63050000 b0150000 00000000 00000200  c...............
 09e0 6c050000 b8150000 00000000 00000200  l...............
 09f0 75050000 c4150000 00000000 00000200  u...............
 0a00 7e050000 e4150000 00000000 00000200  ~...............
 0a10 88050000 68160000 00000000 00000200  ....h...........
 0a20 91050000 50160000 00000000 00000200  ....P...........
 0a30 9a050000 98160000 00000000 00000200  ................
 0a40 a3050000 78160000 00000000 00000200  ....x...........
 0a50 ac050000 80160000 00000000 00000200  ................
 0a60 b5050000 90160000 00000000 00000200  ................
 0a70 be050000 b0160000 00000000 00000200  ................
 0a80 c8050000 38170000 00000000 00000200  ....8...........
 0a90 d1050000 20170000 00000000 00000200  .... ...........
 0aa0 da050000 68170000 00000000 00000200  ....h...........
 0ab0 e3050000 48170000 00000000 00000200  ....H...........
 0ac0 ec050000 50170000 00000000 00000200  ....P...........
 0ad0 f5050000 60170000 00000000 00000200  ....`...........
 0ae0 fe050000 80170000 00000000 00000200  ................
 0af0 08060000 08180000 00000000 00000200  ................
 0b00 11060000 f0170000 00000000 00000200  ................
 0b10 1a060000 38180000 00000000 00000200  ....8...........
 0b20 23060000 18180000 00000000 00000200  #...............
 0b30 2c060000 20180000 00000000 00000200  ,... ...........
 0b40 35060000 30180000 00000000 00000200  5...0...........
 0b50 3e060000 50180000 00000000 00000200  >...P...........
 0b60 48060000 88180000 00000000 00000200  H...............
 0b70 51060000 80180000 00000000 00000200  Q...............
 0b80 5a060000 b0180000 00000000 00000200  Z...............
 0b90 63060000 cc180000 00000000 00000200  c...............
 0ba0 6c060000 c4180000 00000000 00000200  l...............
 0bb0 75060000 f8180000 00000000 00000200  u...............
 0bc0 7e060000 14190000 00000000 00000200  ~...............
 0bd0 87060000 0c190000 00000000 00000200  ................
 0be0 90060000 40190000 00000000 00000200  ....@...........
 0bf0 99060000 5c190000 00000000 00000200  ....\...........
 0c00 a2060000 54190000 00000000 00000200  ....T...........
 0c10 ab060000 88190000 00000000 00000200  ................
 0c20 b4060000 9c190000 00000000 00000200  ................
 0c30 bd060000 94190000 00000000 00000200  ................
 0c40 c6060000 f4190000 00000000 00000200  ................
 0c50 cf060000 d0190000 00000000 00000200  ................
 0c60 d8060000 081a0000 00000000 00000200  ................
 0c70 e1060000 001a0000 00000000 00000200  ................
 0c80 ea060000 681a0000 00000000 00000200  ....h...........
 0c90 f3060000 3c1a0000 00000000 00000200  ....<...........
 0ca0 fc060000 7c1a0000 00000000 00000200  ....|...........
 0cb0 05070000 741a0000 00000000 00000200  ....t...........
 0cc0 0e070000 d81a0000 00000000 00000200  ................
 0cd0 17070000 b01a0000 00000000 00000200  ................
 0ce0 20070000 ec1a0000 00000000 00000200   ...............
 0cf0 29070000 e41a0000 00000000 00000200  )...............
 0d00 32070000 481b0000 00000000 00000200  2...H...........
 0d10 3b070000 201b0000 00000000 00000200  ;... ...........
 0d20 44070000 00000100 00000000 1000f1ff  D...............
 0d30 49070000 4c1b0000 00020000 12000200  I...L...........
 0d40 4e070000 14000000 1c000000 12000200  N...............
 0d50 55070000 30000000 fc000000 12000200  U...0...........
 0d60 73070000 2c010000 0c010000 12000200  s...,...........
 0d70 92070000 38020000 f0000000 12000200  ....8...........
 0d80 b1070000 28030000 a0010000 12000200  ....(...........
 0d90 d0070000 c8040000 2c010000 12000200  ........,.......
 0da0 f5070000 f4050000 34010000 12000200  ........4.......
 0db0 1b080000 28070000 24010000 12000200  ....(...$.......
 0dc0 41080000 4c080000 e8010000 12000200  A...L...........
 0dd0 67080000 340a0000 fc010000 12000200  g...4...........
 0de0 8f080000 300c0000 e0010000 12000200  ....0...........
 0df0 b8080000 100e0000 c0010000 12000200  ................
 0e00 e1080000 d00f0000 18030000 12000200  ................
 0e10 0a090000 e8120000 30000000 12000200  ........0.......
 0e20 29090000 18130000 34000000 12000200  ).......4.......
 0e30 49090000 4c130000 34000000 12000200  I...L...4.......
 0e40 69090000 80130000 34000000 12000200  i.......4.......
 0e50 8a090000 b4130000 60000000 12000200  ........`.......
 0e60 a5090000 14140000 64000000 12000200  ........d.......
 0e70 c1090000 78140000 64000000 12000200  ....x...d.......
 0e80 dd090000 dc140000 64000000 12000200  ........d.......
 0e90 fa090000 40150000 c4000000 12000200  ....@...........
 0ea0 150a0000 04160000 cc000000 12000200  ................
 0eb0 310a0000 d0160000 d0000000 12000200  1...............
 0ec0 4d0a0000 a0170000 d0000000 12000200  M...............
 0ed0 6a0a0000 70180000 44000000 12000200  j...p...D.......
 0ee0 840a0000 b4180000 48000000 12000200  ........H.......
 0ef0 9f0a0000 fc180000 48000000 12000200  ........H.......
 0f00 ba0a0000 44190000 48000000 12000200  ....D...H.......
 0f10 d60a0000 8c190000 6c000000 12000200  ........l.......
 0f20 f30a0000 f8190000 74000000 12000200  ........t.......
 0f30 110b0000 6c1a0000 70000000 12000200  ....l...p.......
 0f40 2f0b0000 dc1a0000 70000000 12000200  /.......p.......
Contents of section .shstrtab:
 0000 002e7465 78742e69 6e697400 2e746578  ..text.init..tex
 0010 74002e63 6f6d6d65 6e74002e 72697363  t..comment..risc
 0020 762e6174 74726962 75746573 002e7379  v.attributes..sy
 0030 6d746162 002e7368 73747274 6162002e  mtab..shstrtab..
 0040 73747274 616200                      strtab.
Contents of section .strtab:
 0000 00656e74 7279002e 4c706372 656c5f68  .entry..Lpcrel_h
 0010 69300065 6e640074 6573745f 76656374  i0.end.test_vect
 0020 6f725f6d 656d6370 792e6300 2e4c4242  or_memcpy.c..LBB
 0030 305f3300 2e4c4242 305f3200 2e4c4242  0_3..LBB0_2..LBB
 0040 315f3100 2e4c4242 315f3300 2e4c4242  1_1..LBB1_3..LBB
 0050 315f3130 002e4c42 42315f31 31002e4c  1_10..LBB1_11..L
 0060 4242315f 37002e4c 4242315f 39002e4c  BB1_7..LBB1_9..L
 0070 4242325f 31002e4c 4242325f 33002e4c  BB2_1..LBB2_3..L
 0080 4242325f 3130002e 4c424232 5f313100  BB2_10..LBB2_11.
 0090 2e4c4242 325f3700 2e4c4242 325f3900  .LBB2_7..LBB2_9.
 00a0 2e4c4242 335f3100 2e4c4242 335f3300  .LBB3_1..LBB3_3.
 00b0 2e4c4242 335f3130 002e4c42 42335f31  .LBB3_10..LBB3_1
 00c0 31002e4c 4242335f 37002e4c 4242335f  1..LBB3_7..LBB3_
 00d0 39002e4c 4242345f 33002e4c 4242345f  9..LBB4_3..LBB4_
 00e0 31002e4c 4242345f 32002e4c 4242345f  1..LBB4_2..LBB4_
 00f0 35002e4c 4242345f 38002e4c 4242345f  5..LBB4_8..LBB4_
 0100 36002e4c 4242345f 37002e4c 4242345f  6..LBB4_7..LBB4_
 0110 3132002e 4c424234 5f313100 2e4c4242  12..LBB4_11..LBB
 0120 345f3139 002e4c42 42345f31 34002e4c  4_19..LBB4_14..L
 0130 4242345f 3136002e 4c424234 5f313700  BB4_16..LBB4_17.
 0140 2e4c4242 345f3138 002e4c42 42355f31  .LBB4_18..LBB5_1
 0150 002e4c42 42355f35 002e4c42 42355f33  ..LBB5_5..LBB5_3
 0160 002e4c42 42355f31 32002e4c 4242355f  ..LBB5_12..LBB5_
 0170 34002e4c 4242355f 37002e4c 4242355f  4..LBB5_7..LBB5_
 0180 39002e4c 4242355f 3131002e 4c424235  9..LBB5_11..LBB5
 0190 5f313300 2e4c4242 365f3100 2e4c4242  _13..LBB6_1..LBB
 01a0 365f3500 2e4c4242 365f3300 2e4c4242  6_5..LBB6_3..LBB
 01b0 365f3132 002e4c42 42365f34 002e4c42  6_12..LBB6_4..LB
 01c0 42365f37 002e4c42 42365f39 002e4c42  B6_7..LBB6_9..LB
 01d0 42365f31 31002e4c 4242365f 3133002e  B6_11..LBB6_13..
 01e0 4c424237 5f31002e 4c424237 5f35002e  LBB7_1..LBB7_5..
 01f0 4c424237 5f33002e 4c424237 5f313200  LBB7_3..LBB7_12.
 0200 2e4c4242 375f3400 2e4c4242 375f3700  .LBB7_4..LBB7_7.
 0210 2e4c4242 375f3900 2e4c4242 375f3131  .LBB7_9..LBB7_11
 0220 002e4c42 42375f31 33002e4c 4242385f  ..LBB7_13..LBB8_
 0230 33002e4c 4242385f 31002e4c 4242385f  3..LBB8_1..LBB8_
 0240 32002e4c 4242385f 35002e4c 4242385f  2..LBB8_5..LBB8_
 0250 38002e4c 4242385f 36002e4c 4242385f  8..LBB8_6..LBB8_
 0260 37002e4c 4242385f 3134002e 4c424238  7..LBB8_14..LBB8
 0270 5f313000 2e4c4242 385f3131 002e4c42  _10..LBB8_11..LB
 0280 42385f31 33002e4c 4242385f 3231002e  B8_13..LBB8_21..
 0290 4c424238 5f313800 2e4c4242 385f3136  LBB8_18..LBB8_16
 02a0 002e4c42 42385f32 30002e4c 4242385f  ..LBB8_20..LBB8_
 02b0 3137002e 4c424239 5f31002e 4c424239  17..LBB9_1..LBB9
 02c0 5f33002e 4c424239 5f313000 2e4c4242  _3..LBB9_10..LBB
 02d0 395f3132 002e4c42 42395f39 002e4c42  9_12..LBB9_9..LB
 02e0 42395f31 31002e4c 4242395f 3133002e  B9_11..LBB9_13..
 02f0 4c424231 305f3100 2e4c4242 31305f33  LBB10_1..LBB10_3
 0300 002e4c42 4231305f 3130002e 4c424231  ..LBB10_10..LBB1
 0310 305f3132 002e4c42 4231305f 39002e4c  0_12..LBB10_9..L
 0320 42423130 5f313100 2e4c4242 31305f31  BB10_11..LBB10_1
 0330 33002e4c 42423131 5f31002e 4c424231  3..LBB11_1..LBB1
 0340 315f3300 2e4c4242 31315f31 30002e4c  1_3..LBB11_10..L
 0350 42423131 5f313200 2e4c4242 31315f39  BB11_12..LBB11_9
 0360 002e4c42 4231315f 3131002e 4c424231  ..LBB11_11..LBB1
 0370 315f3133 002e4c42 4231325f 33002e4c  1_13..LBB12_3..L
 0380 42423132 5f31002e 4c424231 325f3200  BB12_1..LBB12_2.
 0390 2e4c4242 31325f35 002e4c42 4231325f  .LBB12_5..LBB12_
 03a0 38002e4c 42423132 5f36002e 4c424231  8..LBB12_6..LBB1
 03b0 325f3700 2e4c4242 31325f31 36002e4c  2_7..LBB12_16..L
 03c0 42423132 5f313400 2e4c4242 31325f31  BB12_14..LBB12_1
 03d0 35002e4c 42423132 5f313800 2e4c4242  5..LBB12_18..LBB
 03e0 31325f31 37002e4c 42423132 5f313900  12_17..LBB12_19.
 03f0 2e4c4242 31325f32 34002e4c 42423132  .LBB12_24..LBB12
 0400 5f323500 2e4c4242 31335f32 002e4c42  _25..LBB13_2..LB
 0410 4231335f 31002e4c 42423133 5f34002e  B13_1..LBB13_4..
 0420 4c424231 345f3200 2e4c4242 31345f31  LBB14_2..LBB14_1
 0430 002e4c42 4231345f 34002e4c 42423135  ..LBB14_4..LBB15
 0440 5f32002e 4c424231 355f3100 2e4c4242  _2..LBB15_1..LBB
 0450 31355f34 002e4c42 4231365f 32002e4c  15_4..LBB16_2..L
 0460 42423136 5f31002e 4c424231 365f3400  BB16_1..LBB16_4.
 0470 2e4c4242 31375f34 002e4c42 4231375f  .LBB17_4..LBB17_
 0480 31002e4c 42423137 5f32002e 4c424231  1..LBB17_2..LBB1
 0490 375f3300 2e4c4242 31375f38 002e4c42  7_3..LBB17_8..LB
 04a0 4231375f 37002e4c 42423138 5f34002e  B17_7..LBB18_4..
 04b0 4c424231 385f3100 2e4c4242 31385f32  LBB18_1..LBB18_2
 04c0 002e4c42 4231385f 33002e4c 42423138  ..LBB18_3..LBB18
 04d0 5f38002e 4c424231 385f3700 2e4c4242  _8..LBB18_7..LBB
 04e0 31395f34 002e4c42 4231395f 31002e4c  19_4..LBB19_1..L
 04f0 42423139 5f32002e 4c424231 395f3300  BB19_2..LBB19_3.
 0500 2e4c4242 31395f38 002e4c42 4231395f  .LBB19_8..LBB19_
 0510 37002e4c 42423230 5f34002e 4c424232  7..LBB20_4..LBB2
 0520 305f3100 2e4c4242 32305f32 002e4c42  0_1..LBB20_2..LB
 0530 4232305f 33002e4c 42423230 5f38002e  B20_3..LBB20_8..
 0540 4c424232 305f3700 2e4c4242 32315f33  LBB20_7..LBB21_3
 0550 002e4c42 4232315f 32002e4c 42423231  ..LBB21_2..LBB21
 0560 5f37002e 4c424232 315f3400 2e4c4242  _7..LBB21_4..LBB
 0570 32315f35 002e4c42 4232315f 36002e4c  21_5..LBB21_6..L
 0580 42423231 5f313000 2e4c4242 32325f33  BB21_10..LBB22_3
 0590 002e4c42 4232325f 32002e4c 42423232  ..LBB22_2..LBB22
 05a0 5f37002e 4c424232 325f3400 2e4c4242  _7..LBB22_4..LBB
 05b0 32325f35 002e4c42 4232325f 36002e4c  22_5..LBB22_6..L
 05c0 42423232 5f313000 2e4c4242 32335f33  BB22_10..LBB23_3
 05d0 002e4c42 4232335f 32002e4c 42423233  ..LBB23_2..LBB23
 05e0 5f37002e 4c424232 335f3400 2e4c4242  _7..LBB23_4..LBB
 05f0 32335f35 002e4c42 4232335f 36002e4c  23_5..LBB23_6..L
 0600 42423233 5f313000 2e4c4242 32345f33  BB23_10..LBB24_3
 0610 002e4c42 4232345f 32002e4c 42423234  ..LBB24_2..LBB24
 0620 5f37002e 4c424232 345f3400 2e4c4242  _7..LBB24_4..LBB
 0630 32345f35 002e4c42 4232345f 36002e4c  24_5..LBB24_6..L
 0640 42423234 5f313000 2e4c4242 32355f32  BB24_10..LBB25_2
 0650 002e4c42 4232355f 31002e4c 42423235  ..LBB25_1..LBB25
 0660 5f34002e 4c424232 365f3200 2e4c4242  _4..LBB26_2..LBB
 0670 32365f31 002e4c42 4232365f 34002e4c  26_1..LBB26_4..L
 0680 42423237 5f32002e 4c424232 375f3100  BB27_2..LBB27_1.
 0690 2e4c4242 32375f34 002e4c42 4232385f  .LBB27_4..LBB28_
 06a0 32002e4c 42423238 5f31002e 4c424232  2..LBB28_1..LBB2
 06b0 385f3400 2e4c4242 32395f32 002e4c42  8_4..LBB29_2..LB
 06c0 4232395f 31002e4c 42423239 5f36002e  B29_1..LBB29_6..
 06d0 4c424232 395f3400 2e4c4242 33305f32  LBB29_4..LBB30_2
 06e0 002e4c42 4233305f 31002e4c 42423330  ..LBB30_1..LBB30
 06f0 5f36002e 4c424233 305f3400 2e4c4242  _6..LBB30_4..LBB
 0700 33315f32 002e4c42 4233315f 31002e4c  31_2..LBB31_1..L
 0710 42423331 5f36002e 4c424233 315f3400  BB31_6..LBB31_4.
 0720 2e4c4242 33325f32 002e4c42 4233325f  .LBB32_2..LBB32_
 0730 31002e4c 42423332 5f36002e 4c424233  1..LBB32_6..LBB3
 0740 325f3400 5f5f7370 006d6169 6e006d65  2_4.__sp.main.me
 0750 6d736574 00766563 746f725f 6d656d63  mset.vector_memc
 0760 70795f68 61726e65 73735f75 696e7438  py_harness_uint8
 0770 5f740076 6563746f 725f6d65 6d637079  _t.vector_memcpy
 0780 5f686172 6e657373 5f75696e 7431365f  _harness_uint16_
 0790 74007665 63746f72 5f6d656d 6370795f  t.vector_memcpy_
 07a0 6861726e 6573735f 75696e74 33325f74  harness_uint32_t
 07b0 00766563 746f725f 6d656d63 70795f68  .vector_memcpy_h
 07c0 61726e65 73735f75 696e7436 345f7400  arness_uint64_t.
 07d0 76656374 6f725f6d 656d6370 795f6d61  vector_memcpy_ma
 07e0 736b6564 5f686172 6e657373 5f75696e  sked_harness_uin
 07f0 74385f74 00766563 746f725f 6d656d63  t8_t.vector_memc
 0800 70795f6d 61736b65 645f6861 726e6573  py_masked_harnes
 0810 735f7569 6e743136 5f740076 6563746f  s_uint16_t.vecto
 0820 725f6d65 6d637079 5f6d6173 6b65645f  r_memcpy_masked_
 0830 6861726e 6573735f 75696e74 33325f74  harness_uint32_t
 0840 00766563 746f725f 6d656d63 70795f6d  .vector_memcpy_m
 0850 61736b65 645f6861 726e6573 735f7569  asked_harness_ui
 0860 6e743634 5f740076 6563746f 725f6d65  nt64_t.vector_me
 0870 6d637079 5f736567 6d656e74 65645f68  mcpy_segmented_h
 0880 61726e65 73735f75 696e7438 5f740076  arness_uint8_t.v
 0890 6563746f 725f6d65 6d637079 5f736567  ector_memcpy_seg
 08a0 6d656e74 65645f68 61726e65 73735f75  mented_harness_u
 08b0 696e7431 365f7400 76656374 6f725f6d  int16_t.vector_m
 08c0 656d6370 795f7365 676d656e 7465645f  emcpy_segmented_
 08d0 6861726e 6573735f 75696e74 33325f74  harness_uint32_t
 08e0 00766563 746f725f 6d656d63 70795f73  .vector_memcpy_s
 08f0 65676d65 6e746564 5f686172 6e657373  egmented_harness
 0900 5f75696e 7436345f 74007665 63746f72  _uint64_t.vector
 0910 5f6d656d 6370795f 756e6974 5f737472  _memcpy_unit_str
 0920 6964655f 65386d38 00766563 746f725f  ide_e8m8.vector_
 0930 6d656d63 70795f75 6e69745f 73747269  memcpy_unit_stri
 0940 64655f65 31366d38 00766563 746f725f  de_e16m8.vector_
 0950 6d656d63 70795f75 6e69745f 73747269  memcpy_unit_stri
 0960 64655f65 33326d38 00766563 746f725f  de_e32m8.vector_
 0970 6d656d63 70795f75 6e69745f 73747269  memcpy_unit_stri
 0980 64655f65 33326d66 32007665 63746f72  de_e32mf2.vector
 0990 5f6d656d 6370795f 73747269 6465645f  _memcpy_strided_
 09a0 65386d38 00766563 746f725f 6d656d63  e8m8.vector_memc
 09b0 70795f73 74726964 65645f65 31366d38  py_strided_e16m8
 09c0 00766563 746f725f 6d656d63 70795f73  .vector_memcpy_s
 09d0 74726964 65645f65 33326d38 00766563  trided_e32m8.vec
 09e0 746f725f 6d656d63 70795f73 74726964  tor_memcpy_strid
 09f0 65645f65 33326d66 32007665 63746f72  ed_e32mf2.vector
 0a00 5f6d656d 6370795f 696e6465 7865645f  _memcpy_indexed_
 0a10 65386d38 00766563 746f725f 6d656d63  e8m8.vector_memc
 0a20 70795f69 6e646578 65645f65 31366d38  py_indexed_e16m8
 0a30 00766563 746f725f 6d656d63 70795f69  .vector_memcpy_i
 0a40 6e646578 65645f65 33326d38 00766563  ndexed_e32m8.vec
 0a50 746f725f 6d656d63 70795f69 6e646578  tor_memcpy_index
 0a60 65645f65 33326d66 32007665 63746f72  ed_e32mf2.vector
 0a70 5f6d656d 6370795f 6d61736b 65645f65  _memcpy_masked_e
 0a80 386d3800 76656374 6f725f6d 656d6370  8m8.vector_memcp
 0a90 795f6d61 736b6564 5f653136 6d380076  y_masked_e16m8.v
 0aa0 6563746f 725f6d65 6d637079 5f6d6173  ector_memcpy_mas
 0ab0 6b65645f 6533326d 38007665 63746f72  ked_e32m8.vector
 0ac0 5f6d656d 6370795f 6d61736b 65645f65  _memcpy_masked_e
 0ad0 33326d66 32007665 63746f72 5f6d656d  32mf2.vector_mem
 0ae0 6370795f 7365676d 656e7465 645f6538  cpy_segmented_e8
 0af0 6d320076 6563746f 725f6d65 6d637079  m2.vector_memcpy
 0b00 5f736567 6d656e74 65645f65 31366d32  _segmented_e16m2
 0b10 00766563 746f725f 6d656d63 70795f73  .vector_memcpy_s
 0b20 65676d65 6e746564 5f653332 6d320076  egmented_e32m2.v
 0b30 6563746f 725f6d65 6d637079 5f736567  ector_memcpy_seg
 0b40 6d656e74 65645f65 33326d66 3200      mented_e32mf2.

Disassembly of section .text.init:

00000000 <entry>:
       0: 17 01 01 00  	auipc	sp, 16
       4: 13 01 01 02  	addi	sp, sp, 32
       8: 97 20 00 00  	auipc	ra, 2
       c: e7 80 40 b4  	jalr	-1212(ra)

00000010 <end>:
      10: 6f 00 00 00  	j	0x10 <end>

Disassembly of section .text:

00000014 <memset>:
      14: 63 0c 06 00  	beqz	a2, 0x2c <.LBB0_3>
      18: 93 06 05 00  	mv	a3, a0

0000001c <.LBB0_2>:
      1c: 23 80 b6 00  	sb	a1, 0(a3)
      20: 13 06 f6 ff  	addi	a2, a2, -1
      24: 93 86 16 00  	addi	a3, a3, 1
      28: e3 1a 06 fe  	bnez	a2, 0x1c <.LBB0_2>

0000002c <.LBB0_3>:
      2c: 67 80 00 00  	ret

00000030 <vector_memcpy_harness_uint8_t>:
      30: 13 01 01 ef  	addi	sp, sp, -272
      34: 23 26 11 10  	sw	ra, 268(sp)
      38: 23 24 81 10  	sw	s0, 264(sp)
      3c: 23 22 91 10  	sw	s1, 260(sp)
      40: 23 20 21 11  	sw	s2, 256(sp)
      44: 13 09 05 00  	mv	s2, a0
      48: 13 04 01 08  	addi	s0, sp, 128
      4c: 13 05 01 08  	addi	a0, sp, 128
      50: 13 06 00 08  	addi	a2, zero, 128
      54: 93 04 00 08  	addi	s1, zero, 128
      58: 93 05 00 00  	mv	a1, zero
      5c: 97 00 00 00  	auipc	ra, 0
      60: e7 80 80 fb  	jalr	-72(ra)
      64: 13 05 01 00  	mv	a0, sp
      68: 13 06 00 08  	addi	a2, zero, 128
      6c: 93 05 00 00  	mv	a1, zero
      70: 97 00 00 00  	auipc	ra, 0
      74: e7 80 40 fa  	jalr	-92(ra)
      78: 13 05 00 00  	mv	a0, zero

0000007c <.LBB1_1>:
      7c: b3 05 a4 00  	add	a1, s0, a0
      80: 23 80 a5 00  	sb	a0, 0(a1)
      84: 13 05 15 00  	addi	a0, a0, 1
      88: e3 1a 95 fe  	bne	a0, s1, 0x7c <.LBB1_1>
      8c: 93 04 01 08  	addi	s1, sp, 128
      90: 13 05 e0 06  	addi	a0, zero, 110
      94: 93 05 01 08  	addi	a1, sp, 128
      98: 13 06 01 00  	mv	a2, sp
      9c: 13 04 01 00  	mv	s0, sp
      a0: e7 00 09 00  	jalr	s2
      a4: 13 05 00 00  	mv	a0, zero
      a8: 93 05 d0 06  	addi	a1, zero, 109

000000ac <.LBB1_3>:
      ac: 03 c6 04 00  	lbu	a2, 0(s1)
      b0: 83 46 04 00  	lbu	a3, 0(s0)
      b4: 63 1e d6 04  	bne	a2, a3, 0x110 <.LBB1_10>
      b8: 13 76 f5 0f  	andi	a2, a0, 255
      bc: 13 04 14 00  	addi	s0, s0, 1
      c0: 93 84 14 00  	addi	s1, s1, 1
      c4: 13 05 15 00  	addi	a0, a0, 1
      c8: e3 62 b6 fe  	bltu	a2, a1, 0xac <.LBB1_3>
      cc: 83 45 e1 06  	lbu	a1, 110(sp)
      d0: 13 05 00 00  	mv	a0, zero
      d4: 63 90 05 04  	bnez	a1, 0x114 <.LBB1_11>
      d8: 93 05 f0 06  	addi	a1, zero, 111
      dc: 13 05 f0 ff  	addi	a0, zero, -1
      e0: 13 06 01 00  	mv	a2, sp

000000e4 <.LBB1_7>:
      e4: 93 96 85 01  	slli	a3, a1, 24
      e8: 93 d6 86 41  	srai	a3, a3, 24
      ec: 63 cc 06 00  	bltz	a3, 0x104 <.LBB1_9>
      f0: 13 f7 f5 0f  	andi	a4, a1, 255
      f4: 33 07 e6 00  	add	a4, a2, a4
      f8: 03 47 07 00  	lbu	a4, 0(a4)
      fc: 93 85 15 00  	addi	a1, a1, 1
     100: e3 02 07 fe  	beqz	a4, 0xe4 <.LBB1_7>

00000104 <.LBB1_9>:
     104: 33 25 d5 00  	slt	a0, a0, a3
     108: 13 45 15 00  	xori	a0, a0, 1
     10c: 6f 00 80 00  	j	0x114 <.LBB1_11>

00000110 <.LBB1_10>:
     110: 13 05 00 00  	mv	a0, zero

00000114 <.LBB1_11>:
     114: 03 29 01 10  	lw	s2, 256(sp)
     118: 83 24 41 10  	lw	s1, 260(sp)
     11c: 03 24 81 10  	lw	s0, 264(sp)
     120: 83 20 c1 10  	lw	ra, 268(sp)
     124: 13 01 01 11  	addi	sp, sp, 272
     128: 67 80 00 00  	ret

0000012c <vector_memcpy_harness_uint16_t>:
     12c: 13 01 01 df  	addi	sp, sp, -528
     130: 23 26 11 20  	sw	ra, 524(sp)
     134: 23 24 81 20  	sw	s0, 520(sp)
     138: 23 22 91 20  	sw	s1, 516(sp)
     13c: 23 20 21 21  	sw	s2, 512(sp)
     140: 13 09 05 00  	mv	s2, a0
     144: 13 05 01 10  	addi	a0, sp, 256
     148: 13 06 00 10  	addi	a2, zero, 256
     14c: 13 04 01 10  	addi	s0, sp, 256
     150: 93 05 00 00  	mv	a1, zero
     154: 97 00 00 00  	auipc	ra, 0
     158: e7 80 00 ec  	jalr	-320(ra)
     15c: 13 05 01 00  	mv	a0, sp
     160: 13 06 00 10  	addi	a2, zero, 256
     164: 93 05 00 00  	mv	a1, zero
     168: 97 00 00 00  	auipc	ra, 0
     16c: e7 80 c0 ea  	jalr	-340(ra)
     170: 13 05 00 00  	mv	a0, zero
     174: 93 05 00 08  	addi	a1, zero, 128

00000178 <.LBB2_1>:
     178: 23 10 a4 00  	sh	a0, 0(s0)
     17c: 13 05 15 00  	addi	a0, a0, 1
     180: 13 04 24 00  	addi	s0, s0, 2
     184: e3 1a b5 fe  	bne	a0, a1, 0x178 <.LBB2_1>
     188: 93 04 01 10  	addi	s1, sp, 256
     18c: 13 05 e0 06  	addi	a0, zero, 110
     190: 93 05 01 10  	addi	a1, sp, 256
     194: 13 06 01 00  	mv	a2, sp
     198: 13 04 01 00  	mv	s0, sp
     19c: e7 00 09 00  	jalr	s2
     1a0: 13 05 00 00  	mv	a0, zero
     1a4: b7 05 01 00  	lui	a1, 16
     1a8: 93 85 f5 ff  	addi	a1, a1, -1
     1ac: 13 06 d0 06  	addi	a2, zero, 109

000001b0 <.LBB2_3>:
     1b0: 83 d6 04 00  	lhu	a3, 0(s1)
     1b4: 03 57 04 00  	lhu	a4, 0(s0)
     1b8: 63 92 e6 06  	bne	a3, a4, 0x21c <.LBB2_10>
     1bc: b3 76 b5 00  	and	a3, a0, a1
     1c0: 13 04 24 00  	addi	s0, s0, 2
     1c4: 93 84 24 00  	addi	s1, s1, 2
     1c8: 13 05 15 00  	addi	a0, a0, 1
     1cc: e3 e2 c6 fe  	bltu	a3, a2, 0x1b0 <.LBB2_3>
     1d0: 83 55 c1 0d  	lhu	a1, 220(sp)
     1d4: 13 05 00 00  	mv	a0, zero
     1d8: 63 94 05 04  	bnez	a1, 0x220 <.LBB2_11>
     1dc: 13 05 e0 06  	addi	a0, zero, 110
     1e0: b7 05 01 00  	lui	a1, 16
     1e4: 93 85 f5 ff  	addi	a1, a1, -1
     1e8: 13 06 e0 07  	addi	a2, zero, 126
     1ec: 93 06 01 00  	mv	a3, sp

000001f0 <.LBB2_7>:
     1f0: 33 77 b5 00  	and	a4, a0, a1
     1f4: 63 6e e6 00  	bltu	a2, a4, 0x210 <.LBB2_9>
     1f8: 13 05 15 00  	addi	a0, a0, 1
     1fc: b3 77 b5 00  	and	a5, a0, a1
     200: 93 97 17 00  	slli	a5, a5, 1
     204: b3 87 f6 00  	add	a5, a3, a5
     208: 83 d7 07 00  	lhu	a5, 0(a5)
     20c: e3 82 07 fe  	beqz	a5, 0x1f0 <.LBB2_7>

00000210 <.LBB2_9>:
     210: 13 35 f7 07  	sltiu	a0, a4, 127
     214: 13 45 15 00  	xori	a0, a0, 1
     218: 6f 00 80 00  	j	0x220 <.LBB2_11>

0000021c <.LBB2_10>:
     21c: 13 05 00 00  	mv	a0, zero

00000220 <.LBB2_11>:
     220: 03 29 01 20  	lw	s2, 512(sp)
     224: 83 24 41 20  	lw	s1, 516(sp)
     228: 03 24 81 20  	lw	s0, 520(sp)
     22c: 83 20 c1 20  	lw	ra, 524(sp)
     230: 13 01 01 21  	addi	sp, sp, 528
     234: 67 80 00 00  	ret

00000238 <vector_memcpy_harness_uint32_t>:
     238: 13 01 01 be  	addi	sp, sp, -1056
     23c: 23 2e 11 40  	sw	ra, 1052(sp)
     240: 23 2c 81 40  	sw	s0, 1048(sp)
     244: 23 2a 91 40  	sw	s1, 1044(sp)
     248: 23 28 21 41  	sw	s2, 1040(sp)
     24c: 13 09 05 00  	mv	s2, a0
     250: 13 05 01 21  	addi	a0, sp, 528
     254: 13 06 00 20  	addi	a2, zero, 512
     258: 93 04 01 21  	addi	s1, sp, 528
     25c: 93 05 00 00  	mv	a1, zero
     260: 97 00 00 00  	auipc	ra, 0
     264: e7 80 40 db  	jalr	-588(ra)
     268: 13 05 01 01  	addi	a0, sp, 16
     26c: 13 06 00 20  	addi	a2, zero, 512
     270: 93 05 00 00  	mv	a1, zero
     274: 97 00 00 00  	auipc	ra, 0
     278: e7 80 00 da  	jalr	-608(ra)
     27c: 13 05 00 00  	mv	a0, zero
     280: 93 05 00 08  	addi	a1, zero, 128

00000284 <.LBB3_1>:
     284: 23 a0 a4 00  	sw	a0, 0(s1)
     288: 13 05 15 00  	addi	a0, a0, 1
     28c: 93 84 44 00  	addi	s1, s1, 4
     290: e3 1a b5 fe  	bne	a0, a1, 0x284 <.LBB3_1>
     294: 93 04 01 21  	addi	s1, sp, 528
     298: 13 05 e0 06  	addi	a0, zero, 110
     29c: 93 05 01 21  	addi	a1, sp, 528
     2a0: 13 06 01 01  	addi	a2, sp, 16
     2a4: 13 04 01 01  	addi	s0, sp, 16
     2a8: e7 00 09 00  	jalr	s2
     2ac: 13 05 00 00  	mv	a0, zero
     2b0: 93 05 80 1b  	addi	a1, zero, 440

000002b4 <.LBB3_3>:
     2b4: 33 86 a4 00  	add	a2, s1, a0
     2b8: 03 26 06 00  	lw	a2, 0(a2)
     2bc: b3 06 a4 00  	add	a3, s0, a0
     2c0: 83 a6 06 00  	lw	a3, 0(a3)
     2c4: 63 14 d6 04  	bne	a2, a3, 0x30c <.LBB3_10>
     2c8: 13 05 45 00  	addi	a0, a0, 4
     2cc: e3 14 b5 fe  	bne	a0, a1, 0x2b4 <.LBB3_3>
     2d0: 83 25 81 1c  	lw	a1, 456(sp)
     2d4: 13 05 00 00  	mv	a0, zero
     2d8: 63 9c 05 02  	bnez	a1, 0x310 <.LBB3_11>
     2dc: 13 05 c1 1c  	addi	a0, sp, 460
     2e0: 93 06 e0 06  	addi	a3, zero, 110
     2e4: 93 05 f0 07  	addi	a1, zero, 127

000002e8 <.LBB3_7>:
     2e8: 13 86 06 00  	mv	a2, a3
     2ec: 63 8a b6 00  	beq	a3, a1, 0x300 <.LBB3_9>
     2f0: 03 27 05 00  	lw	a4, 0(a0)
     2f4: 93 06 16 00  	addi	a3, a2, 1
     2f8: 13 05 45 00  	addi	a0, a0, 4
     2fc: e3 06 07 fe  	beqz	a4, 0x2e8 <.LBB3_7>

00000300 <.LBB3_9>:
     300: 13 05 e0 07  	addi	a0, zero, 126
     304: 33 35 c5 00  	sltu	a0, a0, a2
     308: 6f 00 80 00  	j	0x310 <.LBB3_11>

0000030c <.LBB3_10>:
     30c: 13 05 00 00  	mv	a0, zero

00000310 <.LBB3_11>:
     310: 03 29 01 41  	lw	s2, 1040(sp)
     314: 83 24 41 41  	lw	s1, 1044(sp)
     318: 03 24 81 41  	lw	s0, 1048(sp)
     31c: 83 20 c1 41  	lw	ra, 1052(sp)
     320: 13 01 01 42  	addi	sp, sp, 1056
     324: 67 80 00 00  	ret

00000328 <vector_memcpy_harness_uint64_t>:
     328: 13 01 01 81  	addi	sp, sp, -2032
     32c: 23 26 11 7e  	sw	ra, 2028(sp)
     330: 23 24 81 7e  	sw	s0, 2024(sp)
     334: 23 22 91 7e  	sw	s1, 2020(sp)
     338: 23 20 21 7f  	sw	s2, 2016(sp)
     33c: 13 01 01 fd  	addi	sp, sp, -48
     340: 13 09 05 00  	mv	s2, a0
     344: 13 05 01 41  	addi	a0, sp, 1040
     348: 13 06 00 40  	addi	a2, zero, 1024
     34c: 13 04 01 41  	addi	s0, sp, 1040
     350: 93 05 00 00  	mv	a1, zero
     354: 97 00 00 00  	auipc	ra, 0
     358: e7 80 00 cc  	jalr	-832(ra)
     35c: 13 05 01 01  	addi	a0, sp, 16
     360: 13 06 00 40  	addi	a2, zero, 1024
     364: 93 05 00 00  	mv	a1, zero
     368: 97 00 00 00  	auipc	ra, 0
     36c: e7 80 c0 ca  	jalr	-852(ra)
     370: 93 05 00 00  	mv	a1, zero
     374: 13 05 00 00  	mv	a0, zero
     378: 6f 00 c0 01  	j	0x394 <.LBB4_3>

0000037c <.LBB4_1>:
     37c: 13 06 00 00  	mv	a2, zero

00000380 <.LBB4_2>:
     380: 93 86 15 00  	addi	a3, a1, 1
     384: b3 b5 b6 00  	sltu	a1, a3, a1
     388: 33 05 b5 00  	add	a0, a0, a1
     38c: 93 85 06 00  	mv	a1, a3
     390: 63 02 06 02  	beqz	a2, 0x3b4 <.LBB4_5>

00000394 <.LBB4_3>:
     394: 13 96 35 00  	slli	a2, a1, 3
     398: 33 06 c4 00  	add	a2, s0, a2
     39c: 23 20 b6 00  	sw	a1, 0(a2)
     3a0: 13 66 46 00  	ori	a2, a2, 4
     3a4: 23 20 a6 00  	sw	a0, 0(a2)
     3a8: e3 1a 05 fc  	bnez	a0, 0x37c <.LBB4_1>
     3ac: 13 b6 f5 07  	sltiu	a2, a1, 127
     3b0: 6f f0 1f fd  	j	0x380 <.LBB4_2>

000003b4 <.LBB4_5>:
     3b4: 93 04 01 41  	addi	s1, sp, 1040
     3b8: 13 05 e0 06  	addi	a0, zero, 110
     3bc: 93 05 01 41  	addi	a1, sp, 1040
     3c0: 13 06 01 01  	addi	a2, sp, 16
     3c4: 13 04 01 01  	addi	s0, sp, 16
     3c8: e7 00 09 00  	jalr	s2
     3cc: 93 05 00 00  	mv	a1, zero
     3d0: 13 05 00 00  	mv	a0, zero
     3d4: 6f 00 c0 01  	j	0x3f0 <.LBB4_8>

000003d8 <.LBB4_6>:
     3d8: 13 06 00 00  	mv	a2, zero

000003dc <.LBB4_7>:
     3dc: 93 86 15 00  	addi	a3, a1, 1
     3e0: b3 b5 b6 00  	sltu	a1, a3, a1
     3e4: 33 05 b5 00  	add	a0, a0, a1
     3e8: 93 85 06 00  	mv	a1, a3
     3ec: 63 06 06 04  	beqz	a2, 0x438 <.LBB4_12>

000003f0 <.LBB4_8>:
     3f0: 13 96 35 00  	slli	a2, a1, 3
     3f4: b3 86 c4 00  	add	a3, s1, a2
     3f8: 13 e7 46 00  	ori	a4, a3, 4
     3fc: 03 27 07 00  	lw	a4, 0(a4)
     400: 83 a6 06 00  	lw	a3, 0(a3)
     404: 33 06 c4 00  	add	a2, s0, a2
     408: 93 67 46 00  	ori	a5, a2, 4
     40c: 03 26 06 00  	lw	a2, 0(a2)
     410: 83 a7 07 00  	lw	a5, 0(a5)
     414: 33 c6 c6 00  	xor	a2, a3, a2
     418: b3 46 f7 00  	xor	a3, a4, a5
     41c: 33 66 d6 00  	or	a2, a2, a3
     420: 63 18 06 00  	bnez	a2, 0x430 <.LBB4_11>
     424: e3 1a 05 fa  	bnez	a0, 0x3d8 <.LBB4_6>
     428: 13 b6 d5 06  	sltiu	a2, a1, 109
     42c: 6f f0 1f fb  	j	0x3dc <.LBB4_7>

00000430 <.LBB4_11>:
     430: 13 05 00 00  	mv	a0, zero
     434: 6f 00 80 07  	j	0x4ac <.LBB4_19>

00000438 <.LBB4_12>:
     438: 03 25 41 38  	lw	a0, 900(sp)
     43c: 83 25 01 38  	lw	a1, 896(sp)
     440: b3 e5 a5 00  	or	a1, a1, a0
     444: 13 05 00 00  	mv	a0, zero
     448: 63 92 05 06  	bnez	a1, 0x4ac <.LBB4_19>
     44c: 13 05 00 00  	mv	a0, zero
     450: 93 06 e0 06  	addi	a3, zero, 110
     454: 93 05 e0 07  	addi	a1, zero, 126
     458: 13 06 01 01  	addi	a2, sp, 16

0000045c <.LBB4_14>:
     45c: 63 0a 05 00  	beqz	a0, 0x470 <.LBB4_16>
     460: 13 07 00 00  	mv	a4, zero
     464: b3 37 a0 00  	snez	a5, a0
     468: 63 8a 07 00  	beqz	a5, 0x47c <.LBB4_17>
     46c: 6f 00 c0 03  	j	0x4a8 <.LBB4_18>

00000470 <.LBB4_16>:
     470: 13 b7 f6 07  	sltiu	a4, a3, 127
     474: b3 b7 d5 00  	sltu	a5, a1, a3
     478: 63 98 07 02  	bnez	a5, 0x4a8 <.LBB4_18>

0000047c <.LBB4_17>:
     47c: 93 87 16 00  	addi	a5, a3, 1
     480: 93 94 37 00  	slli	s1, a5, 3
     484: b3 04 96 00  	add	s1, a2, s1
     488: 03 a4 04 00  	lw	s0, 0(s1)
     48c: 93 e4 44 00  	ori	s1, s1, 4
     490: 83 a4 04 00  	lw	s1, 0(s1)
     494: b3 b6 d7 00  	sltu	a3, a5, a3
     498: b3 64 94 00  	or	s1, s0, s1
     49c: 33 05 d5 00  	add	a0, a0, a3
     4a0: 93 86 07 00  	mv	a3, a5
     4a4: e3 8c 04 fa  	beqz	s1, 0x45c <.LBB4_14>

000004a8 <.LBB4_18>:
     4a8: 13 45 17 00  	xori	a0, a4, 1

000004ac <.LBB4_19>:
     4ac: 13 01 01 03  	addi	sp, sp, 48
     4b0: 03 29 01 7e  	lw	s2, 2016(sp)
     4b4: 83 24 41 7e  	lw	s1, 2020(sp)
     4b8: 03 24 81 7e  	lw	s0, 2024(sp)
     4bc: 83 20 c1 7e  	lw	ra, 2028(sp)
     4c0: 13 01 01 7f  	addi	sp, sp, 2032
     4c4: 67 80 00 00  	ret

000004c8 <vector_memcpy_masked_harness_uint8_t>:
     4c8: 13 01 01 ee  	addi	sp, sp, -288
     4cc: 23 2e 11 10  	sw	ra, 284(sp)
     4d0: 23 2c 81 10  	sw	s0, 280(sp)
     4d4: 23 2a 91 10  	sw	s1, 276(sp)
     4d8: 23 28 21 11  	sw	s2, 272(sp)
     4dc: 23 26 31 11  	sw	s3, 268(sp)
     4e0: 13 09 05 00  	mv	s2, a0
     4e4: 93 09 c1 08  	addi	s3, sp, 140
     4e8: 13 05 c1 08  	addi	a0, sp, 140
     4ec: 13 06 00 08  	addi	a2, zero, 128
     4f0: 93 04 00 08  	addi	s1, zero, 128
     4f4: 93 05 00 00  	mv	a1, zero
     4f8: 97 00 00 00  	auipc	ra, 0
     4fc: e7 80 c0 b1  	jalr	-1252(ra)
     500: 13 05 c1 00  	addi	a0, sp, 12
     504: 13 06 00 08  	addi	a2, zero, 128
     508: 13 04 c1 00  	addi	s0, sp, 12
     50c: 93 05 00 00  	mv	a1, zero
     510: 97 00 00 00  	auipc	ra, 0
     514: e7 80 40 b0  	jalr	-1276(ra)
     518: 13 05 00 00  	mv	a0, zero
     51c: 93 05 b0 0b  	addi	a1, zero, 187

00000520 <.LBB5_1>:
     520: 33 86 a9 00  	add	a2, s3, a0
     524: 23 00 a6 00  	sb	a0, 0(a2)
     528: 33 06 a4 00  	add	a2, s0, a0
     52c: 13 05 15 00  	addi	a0, a0, 1
     530: 23 00 b6 00  	sb	a1, 0(a2)
     534: e3 16 95 fe  	bne	a0, s1, 0x520 <.LBB5_1>
     538: 93 04 e0 06  	addi	s1, zero, 110
     53c: 93 09 c1 08  	addi	s3, sp, 140
     540: 13 05 e0 06  	addi	a0, zero, 110
     544: 93 05 c1 08  	addi	a1, sp, 140
     548: 13 06 c1 00  	addi	a2, sp, 12
     54c: 13 04 c1 00  	addi	s0, sp, 12
     550: e7 00 09 00  	jalr	s2
     554: 13 05 00 00  	mv	a0, zero
     558: 93 05 b0 0b  	addi	a1, zero, 187
     55c: 6f 00 c0 01  	j	0x578 <.LBB5_5>

00000560 <.LBB5_3>:
     560: b3 86 a9 00  	add	a3, s3, a0
     564: 83 c6 06 00  	lbu	a3, 0(a3)
     568: 03 46 06 00  	lbu	a2, 0(a2)
     56c: 63 94 c6 06  	bne	a3, a2, 0x5d4 <.LBB5_12>

00000570 <.LBB5_4>:
     570: 13 05 15 00  	addi	a0, a0, 1
     574: 63 0e 95 00  	beq	a0, s1, 0x590 <.LBB5_7>

00000578 <.LBB5_5>:
     578: 93 76 15 00  	andi	a3, a0, 1
     57c: 33 06 a4 00  	add	a2, s0, a0
     580: e3 90 06 fe  	bnez	a3, 0x560 <.LBB5_3>
     584: 03 46 06 00  	lbu	a2, 0(a2)
     588: e3 04 b6 fe  	beq	a2, a1, 0x570 <.LBB5_4>
     58c: 6f 00 80 04  	j	0x5d4 <.LBB5_12>

00000590 <.LBB5_7>:
     590: 83 45 a1 07  	lbu	a1, 122(sp)
     594: 13 05 b0 0b  	addi	a0, zero, 187
     598: 63 9e a5 02  	bne	a1, a0, 0x5d4 <.LBB5_12>
     59c: 13 06 f0 06  	addi	a2, zero, 111
     5a0: 93 05 f0 ff  	addi	a1, zero, -1
     5a4: 93 06 c1 00  	addi	a3, sp, 12

000005a8 <.LBB5_9>:
     5a8: 13 17 86 01  	slli	a4, a2, 24
     5ac: 13 57 87 41  	srai	a4, a4, 24
     5b0: 63 4c 07 00  	bltz	a4, 0x5c8 <.LBB5_11>
     5b4: 93 77 f6 0f  	andi	a5, a2, 255
     5b8: b3 87 f6 00  	add	a5, a3, a5
     5bc: 83 c7 07 00  	lbu	a5, 0(a5)
     5c0: 13 06 16 00  	addi	a2, a2, 1
     5c4: e3 82 a7 fe  	beq	a5, a0, 0x5a8 <.LBB5_9>

000005c8 <.LBB5_11>:
     5c8: 33 a5 e5 00  	slt	a0, a1, a4
     5cc: 13 45 15 00  	xori	a0, a0, 1
     5d0: 6f 00 80 00  	j	0x5d8 <.LBB5_13>

000005d4 <.LBB5_12>:
     5d4: 13 05 00 00  	mv	a0, zero

000005d8 <.LBB5_13>:
     5d8: 83 29 c1 10  	lw	s3, 268(sp)
     5dc: 03 29 01 11  	lw	s2, 272(sp)
     5e0: 83 24 41 11  	lw	s1, 276(sp)
     5e4: 03 24 81 11  	lw	s0, 280(sp)
     5e8: 83 20 c1 11  	lw	ra, 284(sp)
     5ec: 13 01 01 12  	addi	sp, sp, 288
     5f0: 67 80 00 00  	ret

000005f4 <vector_memcpy_masked_harness_uint16_t>:
     5f4: 13 01 01 de  	addi	sp, sp, -544
     5f8: 23 2e 11 20  	sw	ra, 540(sp)
     5fc: 23 2c 81 20  	sw	s0, 536(sp)
     600: 23 2a 91 20  	sw	s1, 532(sp)
     604: 23 28 21 21  	sw	s2, 528(sp)
     608: 23 26 31 21  	sw	s3, 524(sp)
     60c: 13 09 05 00  	mv	s2, a0
     610: 13 05 c1 10  	addi	a0, sp, 268
     614: 13 06 00 10  	addi	a2, zero, 256
     618: 13 04 c1 10  	addi	s0, sp, 268
     61c: 93 05 00 00  	mv	a1, zero
     620: 97 00 00 00  	auipc	ra, 0
     624: e7 80 40 9f  	jalr	-1548(ra)
     628: 13 05 c1 00  	addi	a0, sp, 12
     62c: 13 06 00 10  	addi	a2, zero, 256
     630: 93 04 c1 00  	addi	s1, sp, 12
     634: 93 05 00 00  	mv	a1, zero
     638: 97 00 00 00  	auipc	ra, 0
     63c: e7 80 c0 9d  	jalr	-1572(ra)
     640: 13 05 00 00  	mv	a0, zero
     644: 93 05 b0 0b  	addi	a1, zero, 187
     648: 13 06 00 08  	addi	a2, zero, 128

0000064c <.LBB6_1>:
     64c: 23 10 a4 00  	sh	a0, 0(s0)
     650: 23 90 b4 00  	sh	a1, 0(s1)
     654: 13 05 15 00  	addi	a0, a0, 1
     658: 13 04 24 00  	addi	s0, s0, 2
     65c: 93 84 24 00  	addi	s1, s1, 2
     660: e3 16 c5 fe  	bne	a0, a2, 0x64c <.LBB6_1>
     664: 93 09 e0 06  	addi	s3, zero, 110
     668: 13 04 c1 10  	addi	s0, sp, 268
     66c: 13 05 e0 06  	addi	a0, zero, 110
     670: 93 05 c1 10  	addi	a1, sp, 268
     674: 13 06 c1 00  	addi	a2, sp, 12
     678: 93 04 c1 00  	addi	s1, sp, 12
     67c: e7 00 09 00  	jalr	s2
     680: 13 05 00 00  	mv	a0, zero
     684: 93 05 b0 0b  	addi	a1, zero, 187
     688: 6f 00 00 02  	j	0x6a8 <.LBB6_5>

0000068c <.LBB6_3>:
     68c: 03 56 04 00  	lhu	a2, 0(s0)
     690: 83 d6 04 00  	lhu	a3, 0(s1)
     694: 63 1a d6 06  	bne	a2, a3, 0x708 <.LBB6_12>

00000698 <.LBB6_4>:
     698: 13 05 15 00  	addi	a0, a0, 1
     69c: 13 04 24 00  	addi	s0, s0, 2
     6a0: 93 84 24 00  	addi	s1, s1, 2
     6a4: 63 0c 35 01  	beq	a0, s3, 0x6bc <.LBB6_7>

000006a8 <.LBB6_5>:
     6a8: 13 76 15 00  	andi	a2, a0, 1
     6ac: e3 10 06 fe  	bnez	a2, 0x68c <.LBB6_3>
     6b0: 03 d6 04 00  	lhu	a2, 0(s1)
     6b4: e3 02 b6 fe  	beq	a2, a1, 0x698 <.LBB6_4>
     6b8: 6f 00 00 05  	j	0x708 <.LBB6_12>

000006bc <.LBB6_7>:
     6bc: 83 55 81 0e  	lhu	a1, 232(sp)
     6c0: 13 05 b0 0b  	addi	a0, zero, 187
     6c4: 63 92 a5 04  	bne	a1, a0, 0x708 <.LBB6_12>
     6c8: 93 05 e0 06  	addi	a1, zero, 110
     6cc: 37 06 01 00  	lui	a2, 16
     6d0: 13 06 f6 ff  	addi	a2, a2, -1
     6d4: 93 06 e0 07  	addi	a3, zero, 126
     6d8: 13 07 c1 00  	addi	a4, sp, 12

000006dc <.LBB6_9>:
     6dc: b3 f7 c5 00  	and	a5, a1, a2
     6e0: 63 ee f6 00  	bltu	a3, a5, 0x6fc <.LBB6_11>
     6e4: 93 85 15 00  	addi	a1, a1, 1
     6e8: b3 f4 c5 00  	and	s1, a1, a2
     6ec: 93 94 14 00  	slli	s1, s1, 1
     6f0: b3 04 97 00  	add	s1, a4, s1
     6f4: 83 d4 04 00  	lhu	s1, 0(s1)
     6f8: e3 82 a4 fe  	beq	s1, a0, 0x6dc <.LBB6_9>

000006fc <.LBB6_11>:
     6fc: 13 b5 f7 07  	sltiu	a0, a5, 127
     700: 13 45 15 00  	xori	a0, a0, 1
     704: 6f 00 80 00  	j	0x70c <.LBB6_13>

00000708 <.LBB6_12>:
     708: 13 05 00 00  	mv	a0, zero

0000070c <.LBB6_13>:
     70c: 83 29 c1 20  	lw	s3, 524(sp)
     710: 03 29 01 21  	lw	s2, 528(sp)
     714: 83 24 41 21  	lw	s1, 532(sp)
     718: 03 24 81 21  	lw	s0, 536(sp)
     71c: 83 20 c1 21  	lw	ra, 540(sp)
     720: 13 01 01 22  	addi	sp, sp, 544
     724: 67 80 00 00  	ret

00000728 <vector_memcpy_masked_harness_uint32_t>:
     728: 13 01 01 be  	addi	sp, sp, -1056
     72c: 23 2e 11 40  	sw	ra, 1052(sp)
     730: 23 2c 81 40  	sw	s0, 1048(sp)
     734: 23 2a 91 40  	sw	s1, 1044(sp)
     738: 23 28 21 41  	sw	s2, 1040(sp)
     73c: 23 26 31 41  	sw	s3, 1036(sp)
     740: 13 09 05 00  	mv	s2, a0
     744: 13 05 c1 20  	addi	a0, sp, 524
     748: 13 06 00 20  	addi	a2, zero, 512
     74c: 13 04 c1 20  	addi	s0, sp, 524
     750: 93 05 00 00  	mv	a1, zero
     754: 97 00 00 00  	auipc	ra, 0
     758: e7 80 00 8c  	jalr	-1856(ra)
     75c: 13 05 c1 00  	addi	a0, sp, 12
     760: 13 06 00 20  	addi	a2, zero, 512
     764: 93 04 c1 00  	addi	s1, sp, 12
     768: 93 05 00 00  	mv	a1, zero
     76c: 97 00 00 00  	auipc	ra, 0
     770: e7 80 80 8a  	jalr	-1880(ra)
     774: 13 05 00 00  	mv	a0, zero
     778: 93 05 b0 0b  	addi	a1, zero, 187
     77c: 13 06 00 08  	addi	a2, zero, 128

00000780 <.LBB7_1>:
     780: 23 20 a4 00  	sw	a0, 0(s0)
     784: 23 a0 b4 00  	sw	a1, 0(s1)
     788: 13 05 15 00  	addi	a0, a0, 1
     78c: 93 84 44 00  	addi	s1, s1, 4
     790: 13 04 44 00  	addi	s0, s0, 4
     794: e3 16 c5 fe  	bne	a0, a2, 0x780 <.LBB7_1>
     798: 93 09 e0 06  	addi	s3, zero, 110
     79c: 13 04 c1 20  	addi	s0, sp, 524
     7a0: 13 05 e0 06  	addi	a0, zero, 110
     7a4: 93 05 c1 20  	addi	a1, sp, 524
     7a8: 13 06 c1 00  	addi	a2, sp, 12
     7ac: 93 04 c1 00  	addi	s1, sp, 12
     7b0: e7 00 09 00  	jalr	s2
     7b4: 13 05 00 00  	mv	a0, zero
     7b8: 93 05 b0 0b  	addi	a1, zero, 187
     7bc: 6f 00 00 02  	j	0x7dc <.LBB7_5>

000007c0 <.LBB7_3>:
     7c0: 03 26 04 00  	lw	a2, 0(s0)
     7c4: 83 a6 04 00  	lw	a3, 0(s1)
     7c8: 63 12 d6 06  	bne	a2, a3, 0x82c <.LBB7_12>

000007cc <.LBB7_4>:
     7cc: 13 05 15 00  	addi	a0, a0, 1
     7d0: 93 84 44 00  	addi	s1, s1, 4
     7d4: 13 04 44 00  	addi	s0, s0, 4
     7d8: 63 0c 35 01  	beq	a0, s3, 0x7f0 <.LBB7_7>

000007dc <.LBB7_5>:
     7dc: 13 76 15 00  	andi	a2, a0, 1
     7e0: e3 10 06 fe  	bnez	a2, 0x7c0 <.LBB7_3>
     7e4: 03 a6 04 00  	lw	a2, 0(s1)
     7e8: e3 02 b6 fe  	beq	a2, a1, 0x7cc <.LBB7_4>
     7ec: 6f 00 00 04  	j	0x82c <.LBB7_12>

000007f0 <.LBB7_7>:
     7f0: 83 25 41 1c  	lw	a1, 452(sp)
     7f4: 13 05 b0 0b  	addi	a0, zero, 187
     7f8: 63 9a a5 02  	bne	a1, a0, 0x82c <.LBB7_12>
     7fc: 93 05 81 1c  	addi	a1, sp, 456
     800: 13 07 e0 06  	addi	a4, zero, 110
     804: 13 06 f0 07  	addi	a2, zero, 127

00000808 <.LBB7_9>:
     808: 93 06 07 00  	mv	a3, a4
     80c: 63 0a c7 00  	beq	a4, a2, 0x820 <.LBB7_11>
     810: 83 a7 05 00  	lw	a5, 0(a1)
     814: 13 87 16 00  	addi	a4, a3, 1
     818: 93 85 45 00  	addi	a1, a1, 4
     81c: e3 86 a7 fe  	beq	a5, a0, 0x808 <.LBB7_9>

00000820 <.LBB7_11>:
     820: 13 05 e0 07  	addi	a0, zero, 126
     824: 33 35 d5 00  	sltu	a0, a0, a3
     828: 6f 00 80 00  	j	0x830 <.LBB7_13>

0000082c <.LBB7_12>:
     82c: 13 05 00 00  	mv	a0, zero

00000830 <.LBB7_13>:
     830: 83 29 c1 40  	lw	s3, 1036(sp)
     834: 03 29 01 41  	lw	s2, 1040(sp)
     838: 83 24 41 41  	lw	s1, 1044(sp)
     83c: 03 24 81 41  	lw	s0, 1048(sp)
     840: 83 20 c1 41  	lw	ra, 1052(sp)
     844: 13 01 01 42  	addi	sp, sp, 1056
     848: 67 80 00 00  	ret

0000084c <vector_memcpy_masked_harness_uint64_t>:
     84c: 13 01 01 81  	addi	sp, sp, -2032
     850: 23 26 11 7e  	sw	ra, 2028(sp)
     854: 23 24 81 7e  	sw	s0, 2024(sp)
     858: 23 22 91 7e  	sw	s1, 2020(sp)
     85c: 23 20 21 7f  	sw	s2, 2016(sp)
     860: 13 01 01 fd  	addi	sp, sp, -48
     864: 13 09 05 00  	mv	s2, a0
     868: 13 05 01 41  	addi	a0, sp, 1040
     86c: 13 06 00 40  	addi	a2, zero, 1024
     870: 13 04 01 41  	addi	s0, sp, 1040
     874: 93 05 00 00  	mv	a1, zero
     878: 97 f0 ff ff  	auipc	ra, 1048575
     87c: e7 80 c0 79  	jalr	1948(ra)
     880: 13 05 01 01  	addi	a0, sp, 16
     884: 13 06 00 40  	addi	a2, zero, 1024
     888: 93 04 01 01  	addi	s1, sp, 16
     88c: 93 05 00 00  	mv	a1, zero
     890: 97 f0 ff ff  	auipc	ra, 1048575
     894: e7 80 40 78  	jalr	1924(ra)
     898: 13 06 00 00  	mv	a2, zero
     89c: 13 05 00 00  	mv	a0, zero
     8a0: 93 05 b0 0b  	addi	a1, zero, 187
     8a4: 6f 00 c0 01  	j	0x8c0 <.LBB8_3>

000008a8 <.LBB8_1>:
     8a8: 93 06 00 00  	mv	a3, zero

000008ac <.LBB8_2>:
     8ac: 13 07 16 00  	addi	a4, a2, 1
     8b0: 33 36 c7 00  	sltu	a2, a4, a2
     8b4: 33 05 c5 00  	add	a0, a0, a2
     8b8: 13 06 07 00  	mv	a2, a4
     8bc: 63 8a 06 02  	beqz	a3, 0x8f0 <.LBB8_5>

000008c0 <.LBB8_3>:
     8c0: 93 16 36 00  	slli	a3, a2, 3
     8c4: 33 07 d4 00  	add	a4, s0, a3
     8c8: 23 20 c7 00  	sw	a2, 0(a4)
     8cc: 13 67 47 00  	ori	a4, a4, 4
     8d0: 23 20 a7 00  	sw	a0, 0(a4)
     8d4: b3 86 d4 00  	add	a3, s1, a3
     8d8: 23 a0 b6 00  	sw	a1, 0(a3)
     8dc: 93 e6 46 00  	ori	a3, a3, 4
     8e0: 23 a0 06 00  	sw	zero, 0(a3)
     8e4: e3 12 05 fc  	bnez	a0, 0x8a8 <.LBB8_1>
     8e8: 93 36 f6 07  	sltiu	a3, a2, 127
     8ec: 6f f0 1f fc  	j	0x8ac <.LBB8_2>

000008f0 <.LBB8_5>:
     8f0: 93 04 01 41  	addi	s1, sp, 1040
     8f4: 13 05 e0 06  	addi	a0, zero, 110
     8f8: 93 05 01 41  	addi	a1, sp, 1040
     8fc: 13 06 01 01  	addi	a2, sp, 16
     900: 13 04 01 01  	addi	s0, sp, 16
     904: e7 00 09 00  	jalr	s2
     908: 93 05 00 00  	mv	a1, zero
     90c: 13 05 00 00  	mv	a0, zero
     910: 6f 00 c0 01  	j	0x92c <.LBB8_8>

00000914 <.LBB8_6>:
     914: 13 06 00 00  	mv	a2, zero

00000918 <.LBB8_7>:
     918: 93 86 15 00  	addi	a3, a1, 1
     91c: b3 b5 b6 00  	sltu	a1, a3, a1
     920: 33 05 b5 00  	add	a0, a0, a1
     924: 93 85 06 00  	mv	a1, a3
     928: 63 0a 06 06  	beqz	a2, 0x99c <.LBB8_14>

0000092c <.LBB8_8>:
     92c: 93 f6 15 00  	andi	a3, a1, 1
     930: 13 96 35 00  	slli	a2, a1, 3
     934: 63 92 06 02  	bnez	a3, 0x958 <.LBB8_10>
     938: 33 06 c4 00  	add	a2, s0, a2
     93c: 93 66 46 00  	ori	a3, a2, 4
     940: 03 26 06 00  	lw	a2, 0(a2)
     944: 83 a6 06 00  	lw	a3, 0(a3)
     948: 13 46 b6 0b  	xori	a2, a2, 187
     94c: 33 66 d6 00  	or	a2, a2, a3
     950: 63 0c 06 02  	beqz	a2, 0x988 <.LBB8_11>
     954: 6f 00 00 04  	j	0x994 <.LBB8_13>

00000958 <.LBB8_10>:
     958: b3 86 c4 00  	add	a3, s1, a2
     95c: 13 e7 46 00  	ori	a4, a3, 4
     960: 03 27 07 00  	lw	a4, 0(a4)
     964: 83 a6 06 00  	lw	a3, 0(a3)
     968: 33 06 c4 00  	add	a2, s0, a2
     96c: 93 67 46 00  	ori	a5, a2, 4
     970: 03 26 06 00  	lw	a2, 0(a2)
     974: 83 a7 07 00  	lw	a5, 0(a5)
     978: 33 c6 c6 00  	xor	a2, a3, a2
     97c: b3 46 f7 00  	xor	a3, a4, a5
     980: 33 66 d6 00  	or	a2, a2, a3
     984: 63 18 06 00  	bnez	a2, 0x994 <.LBB8_13>

00000988 <.LBB8_11>:
     988: e3 16 05 f8  	bnez	a0, 0x914 <.LBB8_6>
     98c: 13 b6 d5 06  	sltiu	a2, a1, 109
     990: 6f f0 9f f8  	j	0x918 <.LBB8_7>

00000994 <.LBB8_13>:
     994: 13 05 00 00  	mv	a0, zero
     998: 6f 00 00 08  	j	0xa18 <.LBB8_21>

0000099c <.LBB8_14>:
     99c: 03 25 01 38  	lw	a0, 896(sp)
     9a0: 83 25 41 38  	lw	a1, 900(sp)
     9a4: 13 45 b5 0b  	xori	a0, a0, 187
     9a8: b3 65 b5 00  	or	a1, a0, a1
     9ac: 13 05 00 00  	mv	a0, zero
     9b0: 63 94 05 06  	bnez	a1, 0xa18 <.LBB8_21>
     9b4: 13 05 00 00  	mv	a0, zero
     9b8: 93 06 e0 06  	addi	a3, zero, 110
     9bc: 93 05 e0 07  	addi	a1, zero, 126
     9c0: 13 06 01 01  	addi	a2, sp, 16
     9c4: 6f 00 00 04  	j	0xa04 <.LBB8_18>

000009c8 <.LBB8_16>:
     9c8: 13 b7 f6 07  	sltiu	a4, a3, 127
     9cc: b3 b7 d5 00  	sltu	a5, a1, a3
     9d0: 63 92 07 04  	bnez	a5, 0xa14 <.LBB8_20>

000009d4 <.LBB8_17>:
     9d4: 93 87 16 00  	addi	a5, a3, 1
     9d8: 93 94 37 00  	slli	s1, a5, 3
     9dc: b3 04 96 00  	add	s1, a2, s1
     9e0: 13 e4 44 00  	ori	s0, s1, 4
     9e4: 83 a4 04 00  	lw	s1, 0(s1)
     9e8: 03 24 04 00  	lw	s0, 0(s0)
     9ec: b3 b6 d7 00  	sltu	a3, a5, a3
     9f0: 93 c4 b4 0b  	xori	s1, s1, 187
     9f4: b3 e4 84 00  	or	s1, s1, s0
     9f8: 33 05 d5 00  	add	a0, a0, a3
     9fc: 93 86 07 00  	mv	a3, a5
     a00: 63 9a 04 00  	bnez	s1, 0xa14 <.LBB8_20>

00000a04 <.LBB8_18>:
     a04: e3 02 05 fc  	beqz	a0, 0x9c8 <.LBB8_16>
     a08: 13 07 00 00  	mv	a4, zero
     a0c: b3 37 a0 00  	snez	a5, a0
     a10: e3 82 07 fc  	beqz	a5, 0x9d4 <.LBB8_17>

00000a14 <.LBB8_20>:
     a14: 13 45 17 00  	xori	a0, a4, 1

00000a18 <.LBB8_21>:
     a18: 13 01 01 03  	addi	sp, sp, 48
     a1c: 03 29 01 7e  	lw	s2, 2016(sp)
     a20: 83 24 41 7e  	lw	s1, 2020(sp)
     a24: 03 24 81 7e  	lw	s0, 2024(sp)
     a28: 83 20 c1 7e  	lw	ra, 2028(sp)
     a2c: 13 01 01 7f  	addi	sp, sp, 2032
     a30: 67 80 00 00  	ret

00000a34 <vector_memcpy_segmented_harness_uint8_t>:
     a34: 13 01 01 ed  	addi	sp, sp, -304
     a38: 23 26 11 12  	sw	ra, 300(sp)
     a3c: 23 24 81 12  	sw	s0, 296(sp)
     a40: 23 22 91 12  	sw	s1, 292(sp)
     a44: 23 20 21 13  	sw	s2, 288(sp)
     a48: 23 2e 31 11  	sw	s3, 284(sp)
     a4c: 23 2c 41 11  	sw	s4, 280(sp)
     a50: 13 09 05 00  	mv	s2, a0
     a54: 93 04 81 09  	addi	s1, sp, 152
     a58: 13 05 81 09  	addi	a0, sp, 152
     a5c: 13 06 00 08  	addi	a2, zero, 128
     a60: 13 04 00 08  	addi	s0, zero, 128
     a64: 93 05 00 00  	mv	a1, zero
     a68: 97 f0 ff ff  	auipc	ra, 1048575
     a6c: e7 80 c0 5a  	jalr	1452(ra)
     a70: 13 05 00 00  	mv	a0, zero
     a74: 23 2a 01 08  	sw	zero, 148(sp)
     a78: 23 28 01 08  	sw	zero, 144(sp)
     a7c: 23 26 01 08  	sw	zero, 140(sp)
     a80: 23 24 01 08  	sw	zero, 136(sp)
     a84: 23 22 01 08  	sw	zero, 132(sp)
     a88: 23 20 01 08  	sw	zero, 128(sp)
     a8c: 23 2e 01 06  	sw	zero, 124(sp)
     a90: 23 2c 01 06  	sw	zero, 120(sp)
     a94: 23 2a 01 06  	sw	zero, 116(sp)
     a98: 23 28 01 06  	sw	zero, 112(sp)
     a9c: 23 26 01 06  	sw	zero, 108(sp)
     aa0: 23 24 01 06  	sw	zero, 104(sp)
     aa4: 23 22 01 06  	sw	zero, 100(sp)
     aa8: 23 20 01 06  	sw	zero, 96(sp)
     aac: 23 2e 01 04  	sw	zero, 92(sp)
     ab0: 23 2c 01 04  	sw	zero, 88(sp)
     ab4: 23 2a 01 04  	sw	zero, 84(sp)
     ab8: 23 28 01 04  	sw	zero, 80(sp)
     abc: 23 26 01 04  	sw	zero, 76(sp)
     ac0: 23 24 01 04  	sw	zero, 72(sp)
     ac4: 23 22 01 04  	sw	zero, 68(sp)
     ac8: 23 20 01 04  	sw	zero, 64(sp)
     acc: 23 2e 01 02  	sw	zero, 60(sp)
     ad0: 23 2c 01 02  	sw	zero, 56(sp)
     ad4: 23 2a 01 02  	sw	zero, 52(sp)
     ad8: 23 28 01 02  	sw	zero, 48(sp)
     adc: 23 26 01 02  	sw	zero, 44(sp)
     ae0: 23 24 01 02  	sw	zero, 40(sp)
     ae4: 23 22 01 02  	sw	zero, 36(sp)
     ae8: 23 20 01 02  	sw	zero, 32(sp)
     aec: 23 2e 01 00  	sw	zero, 28(sp)
     af0: 23 2c 01 00  	sw	zero, 24(sp)

00000af4 <.LBB9_1>:
     af4: b3 85 a4 00  	add	a1, s1, a0
     af8: 23 80 a5 00  	sb	a0, 0(a1)
     afc: 13 05 15 00  	addi	a0, a0, 1
     b00: e3 1a 85 fe  	bne	a0, s0, 0xaf4 <.LBB9_1>
     b04: 93 09 81 07  	addi	s3, sp, 120
     b08: 23 24 31 01  	sw	s3, 8(sp)
     b0c: 13 0a 81 05  	addi	s4, sp, 88
     b10: 23 26 41 01  	sw	s4, 12(sp)
     b14: 13 04 81 03  	addi	s0, sp, 56
     b18: 23 28 81 00  	sw	s0, 16(sp)
     b1c: 93 04 81 01  	addi	s1, sp, 24
     b20: 23 2a 91 00  	sw	s1, 20(sp)
     b24: 13 05 a0 01  	addi	a0, zero, 26
     b28: 93 05 81 09  	addi	a1, sp, 152
     b2c: 13 06 81 00  	addi	a2, sp, 8
     b30: e7 00 09 00  	jalr	s2
     b34: 13 05 00 00  	mv	a0, zero
     b38: 93 05 b1 09  	addi	a1, sp, 155
     b3c: 13 06 90 01  	addi	a2, zero, 25

00000b40 <.LBB9_3>:
     b40: 83 c6 d5 ff  	lbu	a3, -3(a1)
     b44: 03 c7 09 00  	lbu	a4, 0(s3)
     b48: 63 90 e6 06  	bne	a3, a4, 0xba8 <.LBB9_10>
     b4c: 83 c6 e5 ff  	lbu	a3, -2(a1)
     b50: 03 47 0a 00  	lbu	a4, 0(s4)
     b54: 63 9a e6 04  	bne	a3, a4, 0xba8 <.LBB9_10>
     b58: 83 c6 f5 ff  	lbu	a3, -1(a1)
     b5c: 03 47 04 00  	lbu	a4, 0(s0)
     b60: 63 94 e6 04  	bne	a3, a4, 0xba8 <.LBB9_10>
     b64: 83 c6 05 00  	lbu	a3, 0(a1)
     b68: 03 c7 04 00  	lbu	a4, 0(s1)
     b6c: 63 9e e6 02  	bne	a3, a4, 0xba8 <.LBB9_10>
     b70: 93 76 f5 0f  	andi	a3, a0, 255
     b74: 93 84 14 00  	addi	s1, s1, 1
     b78: 13 04 14 00  	addi	s0, s0, 1
     b7c: 13 0a 1a 00  	addi	s4, s4, 1
     b80: 93 89 19 00  	addi	s3, s3, 1
     b84: 93 85 45 00  	addi	a1, a1, 4
     b88: 13 05 15 00  	addi	a0, a0, 1
     b8c: e3 ea c6 fa  	bltu	a3, a2, 0xb40 <.LBB9_3>
     b90: 83 45 21 09  	lbu	a1, 146(sp)
     b94: 13 05 10 00  	addi	a0, zero, 1
     b98: 63 8a 05 02  	beqz	a1, 0xbcc <.LBB9_12>

00000b9c <.LBB9_9>:
     b9c: 13 45 f5 ff  	not	a0, a0
     ba0: 13 75 15 00  	andi	a0, a0, 1
     ba4: 6f 00 80 00  	j	0xbac <.LBB9_11>

00000ba8 <.LBB9_10>:
     ba8: 13 05 00 00  	mv	a0, zero

00000bac <.LBB9_11>:
     bac: 03 2a 81 11  	lw	s4, 280(sp)
     bb0: 83 29 c1 11  	lw	s3, 284(sp)
     bb4: 03 29 01 12  	lw	s2, 288(sp)
     bb8: 83 24 41 12  	lw	s1, 292(sp)
     bbc: 03 24 81 12  	lw	s0, 296(sp)
     bc0: 83 20 c1 12  	lw	ra, 300(sp)
     bc4: 13 01 01 13  	addi	sp, sp, 304
     bc8: 67 80 00 00  	ret

00000bcc <.LBB9_12>:
     bcc: 93 05 21 07  	addi	a1, sp, 114
     bd0: 13 06 21 05  	addi	a2, sp, 82
     bd4: 93 06 21 03  	addi	a3, sp, 50
     bd8: 13 05 10 00  	addi	a0, zero, 1
     bdc: 13 07 a0 01  	addi	a4, zero, 26
     be0: 93 07 e0 01  	addi	a5, zero, 30
     be4: 93 04 81 07  	addi	s1, sp, 120

00000be8 <.LBB9_13>:
     be8: 03 c4 05 00  	lbu	s0, 0(a1)
     bec: e3 18 04 fa  	bnez	s0, 0xb9c <.LBB9_9>
     bf0: 03 44 06 00  	lbu	s0, 0(a2)
     bf4: e3 14 04 fa  	bnez	s0, 0xb9c <.LBB9_9>
     bf8: 03 c4 06 00  	lbu	s0, 0(a3)
     bfc: e3 10 04 fa  	bnez	s0, 0xb9c <.LBB9_9>
     c00: 13 74 f7 0f  	andi	s0, a4, 255
     c04: 13 35 f4 01  	sltiu	a0, s0, 31
     c08: e3 ea 87 f8  	bltu	a5, s0, 0xb9c <.LBB9_9>
     c0c: 13 07 17 00  	addi	a4, a4, 1
     c10: 13 74 f7 0f  	andi	s0, a4, 255
     c14: 33 84 84 00  	add	s0, s1, s0
     c18: 03 44 04 00  	lbu	s0, 0(s0)
     c1c: 93 85 15 00  	addi	a1, a1, 1
     c20: 13 06 16 00  	addi	a2, a2, 1
     c24: 93 86 16 00  	addi	a3, a3, 1
     c28: e3 00 04 fc  	beqz	s0, 0xbe8 <.LBB9_13>
     c2c: 6f f0 1f f7  	j	0xb9c <.LBB9_9>

00000c30 <vector_memcpy_segmented_harness_uint16_t>:
     c30: 13 01 01 dd  	addi	sp, sp, -560
     c34: 23 26 11 22  	sw	ra, 556(sp)
     c38: 23 24 81 22  	sw	s0, 552(sp)
     c3c: 23 22 91 22  	sw	s1, 548(sp)
     c40: 23 20 21 23  	sw	s2, 544(sp)
     c44: 23 2e 31 21  	sw	s3, 540(sp)
     c48: 23 2c 41 21  	sw	s4, 536(sp)
     c4c: 13 09 05 00  	mv	s2, a0
     c50: 13 05 81 11  	addi	a0, sp, 280
     c54: 13 06 00 10  	addi	a2, zero, 256
     c58: 13 04 81 11  	addi	s0, sp, 280
     c5c: 93 05 00 00  	mv	a1, zero
     c60: 97 f0 ff ff  	auipc	ra, 1048575
     c64: e7 80 40 3b  	jalr	948(ra)
     c68: 13 05 81 0d  	addi	a0, sp, 216
     c6c: 13 06 00 04  	addi	a2, zero, 64
     c70: 93 05 00 00  	mv	a1, zero
     c74: 97 f0 ff ff  	auipc	ra, 1048575
     c78: e7 80 00 3a  	jalr	928(ra)
     c7c: 13 05 81 09  	addi	a0, sp, 152
     c80: 13 06 00 04  	addi	a2, zero, 64
     c84: 93 05 00 00  	mv	a1, zero
     c88: 97 f0 ff ff  	auipc	ra, 1048575
     c8c: e7 80 c0 38  	jalr	908(ra)
     c90: 13 05 81 05  	addi	a0, sp, 88
     c94: 13 06 00 04  	addi	a2, zero, 64
     c98: 93 05 00 00  	mv	a1, zero
     c9c: 97 f0 ff ff  	auipc	ra, 1048575
     ca0: e7 80 80 37  	jalr	888(ra)
     ca4: 13 05 81 01  	addi	a0, sp, 24
     ca8: 13 06 00 04  	addi	a2, zero, 64
     cac: 93 05 00 00  	mv	a1, zero
     cb0: 97 f0 ff ff  	auipc	ra, 1048575
     cb4: e7 80 40 36  	jalr	868(ra)
     cb8: 13 05 00 00  	mv	a0, zero
     cbc: 93 05 00 08  	addi	a1, zero, 128

00000cc0 <.LBB10_1>:
     cc0: 23 10 a4 00  	sh	a0, 0(s0)
     cc4: 13 05 15 00  	addi	a0, a0, 1
     cc8: 13 04 24 00  	addi	s0, s0, 2
     ccc: e3 1a b5 fe  	bne	a0, a1, 0xcc0 <.LBB10_1>
     cd0: 93 09 81 0d  	addi	s3, sp, 216
     cd4: 23 24 31 01  	sw	s3, 8(sp)
     cd8: 13 0a 81 09  	addi	s4, sp, 152
     cdc: 23 26 41 01  	sw	s4, 12(sp)
     ce0: 93 04 81 05  	addi	s1, sp, 88
     ce4: 23 28 91 00  	sw	s1, 16(sp)
     ce8: 13 04 81 01  	addi	s0, sp, 24
     cec: 23 2a 81 00  	sw	s0, 20(sp)
     cf0: 13 05 a0 01  	addi	a0, zero, 26
     cf4: 93 05 81 11  	addi	a1, sp, 280
     cf8: 13 06 81 00  	addi	a2, sp, 8
     cfc: e7 00 09 00  	jalr	s2
     d00: 13 05 00 00  	mv	a0, zero
     d04: 93 05 c1 11  	addi	a1, sp, 284
     d08: 37 06 01 00  	lui	a2, 16
     d0c: 13 06 f6 ff  	addi	a2, a2, -1
     d10: 93 06 90 01  	addi	a3, zero, 25

00000d14 <.LBB10_3>:
     d14: 03 d7 c5 ff  	lhu	a4, -4(a1)
     d18: 83 d7 09 00  	lhu	a5, 0(s3)
     d1c: 63 10 f7 06  	bne	a4, a5, 0xd7c <.LBB10_10>
     d20: 03 d7 e5 ff  	lhu	a4, -2(a1)
     d24: 83 57 0a 00  	lhu	a5, 0(s4)
     d28: 63 1a f7 04  	bne	a4, a5, 0xd7c <.LBB10_10>
     d2c: 03 d7 05 00  	lhu	a4, 0(a1)
     d30: 83 d7 04 00  	lhu	a5, 0(s1)
     d34: 63 14 f7 04  	bne	a4, a5, 0xd7c <.LBB10_10>
     d38: 03 d7 25 00  	lhu	a4, 2(a1)
     d3c: 83 57 04 00  	lhu	a5, 0(s0)
     d40: 63 1e f7 02  	bne	a4, a5, 0xd7c <.LBB10_10>
     d44: 33 77 c5 00  	and	a4, a0, a2
     d48: 13 04 24 00  	addi	s0, s0, 2
     d4c: 93 84 24 00  	addi	s1, s1, 2
     d50: 13 0a 2a 00  	addi	s4, s4, 2
     d54: 93 89 29 00  	addi	s3, s3, 2
     d58: 93 85 85 00  	addi	a1, a1, 8
     d5c: 13 05 15 00  	addi	a0, a0, 1
     d60: e3 6a d7 fa  	bltu	a4, a3, 0xd14 <.LBB10_3>
     d64: 83 55 c1 10  	lhu	a1, 268(sp)
     d68: 13 05 10 00  	addi	a0, zero, 1
     d6c: 63 8a 05 02  	beqz	a1, 0xda0 <.LBB10_12>

00000d70 <.LBB10_9>:
     d70: 13 45 f5 ff  	not	a0, a0
     d74: 13 75 15 00  	andi	a0, a0, 1
     d78: 6f 00 80 00  	j	0xd80 <.LBB10_11>

00000d7c <.LBB10_10>:
     d7c: 13 05 00 00  	mv	a0, zero

00000d80 <.LBB10_11>:
     d80: 03 2a 81 21  	lw	s4, 536(sp)
     d84: 83 29 c1 21  	lw	s3, 540(sp)
     d88: 03 29 01 22  	lw	s2, 544(sp)
     d8c: 83 24 41 22  	lw	s1, 548(sp)
     d90: 03 24 81 22  	lw	s0, 552(sp)
     d94: 83 20 c1 22  	lw	ra, 556(sp)
     d98: 13 01 01 23  	addi	sp, sp, 560
     d9c: 67 80 00 00  	ret

00000da0 <.LBB10_12>:
     da0: 93 05 c1 0c  	addi	a1, sp, 204
     da4: 13 06 c1 08  	addi	a2, sp, 140
     da8: 93 06 c1 04  	addi	a3, sp, 76
     dac: 13 05 10 00  	addi	a0, zero, 1
     db0: 13 07 a0 01  	addi	a4, zero, 26
     db4: b7 07 01 00  	lui	a5, 16
     db8: 93 87 f7 ff  	addi	a5, a5, -1
     dbc: 93 04 e0 01  	addi	s1, zero, 30
     dc0: 13 08 81 0d  	addi	a6, sp, 216

00000dc4 <.LBB10_13>:
     dc4: 03 d4 05 00  	lhu	s0, 0(a1)
     dc8: e3 14 04 fa  	bnez	s0, 0xd70 <.LBB10_9>
     dcc: 03 54 06 00  	lhu	s0, 0(a2)
     dd0: e3 10 04 fa  	bnez	s0, 0xd70 <.LBB10_9>
     dd4: 03 d4 06 00  	lhu	s0, 0(a3)
     dd8: e3 1c 04 f8  	bnez	s0, 0xd70 <.LBB10_9>
     ddc: 33 74 f7 00  	and	s0, a4, a5
     de0: 13 35 f4 01  	sltiu	a0, s0, 31
     de4: e3 e6 84 f8  	bltu	s1, s0, 0xd70 <.LBB10_9>
     de8: 13 07 17 00  	addi	a4, a4, 1
     dec: 33 74 f7 00  	and	s0, a4, a5
     df0: 13 14 14 00  	slli	s0, s0, 1
     df4: 33 04 88 00  	add	s0, a6, s0
     df8: 03 54 04 00  	lhu	s0, 0(s0)
     dfc: 93 85 25 00  	addi	a1, a1, 2
     e00: 13 06 26 00  	addi	a2, a2, 2
     e04: 93 86 26 00  	addi	a3, a3, 2
     e08: e3 0e 04 fa  	beqz	s0, 0xdc4 <.LBB10_13>
     e0c: 6f f0 5f f6  	j	0xd70 <.LBB10_9>

00000e10 <vector_memcpy_segmented_harness_uint32_t>:
     e10: 13 01 01 bd  	addi	sp, sp, -1072
     e14: 23 26 11 42  	sw	ra, 1068(sp)
     e18: 23 24 81 42  	sw	s0, 1064(sp)
     e1c: 23 22 91 42  	sw	s1, 1060(sp)
     e20: 23 20 21 43  	sw	s2, 1056(sp)
     e24: 23 2e 31 41  	sw	s3, 1052(sp)
     e28: 23 2c 41 41  	sw	s4, 1048(sp)
     e2c: 13 09 05 00  	mv	s2, a0
     e30: 13 05 81 21  	addi	a0, sp, 536
     e34: 13 06 00 20  	addi	a2, zero, 512
     e38: 13 04 81 21  	addi	s0, sp, 536
     e3c: 93 05 00 00  	mv	a1, zero
     e40: 97 f0 ff ff  	auipc	ra, 1048575
     e44: e7 80 40 1d  	jalr	468(ra)
     e48: 13 05 81 19  	addi	a0, sp, 408
     e4c: 13 06 00 08  	addi	a2, zero, 128
     e50: 93 04 00 08  	addi	s1, zero, 128
     e54: 93 05 00 00  	mv	a1, zero
     e58: 97 f0 ff ff  	auipc	ra, 1048575
     e5c: e7 80 c0 1b  	jalr	444(ra)
     e60: 13 05 81 11  	addi	a0, sp, 280
     e64: 13 06 00 08  	addi	a2, zero, 128
     e68: 93 05 00 00  	mv	a1, zero
     e6c: 97 f0 ff ff  	auipc	ra, 1048575
     e70: e7 80 80 1a  	jalr	424(ra)
     e74: 13 05 81 09  	addi	a0, sp, 152
     e78: 13 06 00 08  	addi	a2, zero, 128
     e7c: 93 05 00 00  	mv	a1, zero
     e80: 97 f0 ff ff  	auipc	ra, 1048575
     e84: e7 80 40 19  	jalr	404(ra)
     e88: 13 05 81 01  	addi	a0, sp, 24
     e8c: 13 06 00 08  	addi	a2, zero, 128
     e90: 93 05 00 00  	mv	a1, zero
     e94: 97 f0 ff ff  	auipc	ra, 1048575
     e98: e7 80 00 18  	jalr	384(ra)
     e9c: 13 05 00 00  	mv	a0, zero

00000ea0 <.LBB11_1>:
     ea0: 23 20 a4 00  	sw	a0, 0(s0)
     ea4: 13 05 15 00  	addi	a0, a0, 1
     ea8: 13 04 44 00  	addi	s0, s0, 4
     eac: e3 1a 95 fe  	bne	a0, s1, 0xea0 <.LBB11_1>
     eb0: 93 09 81 19  	addi	s3, sp, 408
     eb4: 23 24 31 01  	sw	s3, 8(sp)
     eb8: 13 0a 81 11  	addi	s4, sp, 280
     ebc: 23 26 41 01  	sw	s4, 12(sp)
     ec0: 93 04 81 09  	addi	s1, sp, 152
     ec4: 23 28 91 00  	sw	s1, 16(sp)
     ec8: 13 04 81 01  	addi	s0, sp, 24
     ecc: 23 2a 81 00  	sw	s0, 20(sp)
     ed0: 13 05 a0 01  	addi	a0, zero, 26
     ed4: 93 05 81 21  	addi	a1, sp, 536
     ed8: 13 06 81 00  	addi	a2, sp, 8
     edc: e7 00 09 00  	jalr	s2
     ee0: 13 05 00 00  	mv	a0, zero
     ee4: 93 05 01 22  	addi	a1, sp, 544
     ee8: 13 06 80 06  	addi	a2, zero, 104

00000eec <.LBB11_3>:
     eec: 83 a6 85 ff  	lw	a3, -8(a1)
     ef0: 33 87 a9 00  	add	a4, s3, a0
     ef4: 03 27 07 00  	lw	a4, 0(a4)
     ef8: 63 9c e6 04  	bne	a3, a4, 0xf50 <.LBB11_10>
     efc: 83 a6 c5 ff  	lw	a3, -4(a1)
     f00: 33 07 aa 00  	add	a4, s4, a0
     f04: 03 27 07 00  	lw	a4, 0(a4)
     f08: 63 94 e6 04  	bne	a3, a4, 0xf50 <.LBB11_10>
     f0c: 83 a6 05 00  	lw	a3, 0(a1)
     f10: 33 87 a4 00  	add	a4, s1, a0
     f14: 03 27 07 00  	lw	a4, 0(a4)
     f18: 63 9c e6 02  	bne	a3, a4, 0xf50 <.LBB11_10>
     f1c: 83 a6 45 00  	lw	a3, 4(a1)
     f20: 33 07 a4 00  	add	a4, s0, a0
     f24: 03 27 07 00  	lw	a4, 0(a4)
     f28: 63 94 e6 02  	bne	a3, a4, 0xf50 <.LBB11_10>
     f2c: 13 05 45 00  	addi	a0, a0, 4
     f30: 93 85 05 01  	addi	a1, a1, 16
     f34: e3 1c c5 fa  	bne	a0, a2, 0xeec <.LBB11_3>
     f38: 83 25 01 20  	lw	a1, 512(sp)
     f3c: 13 05 10 00  	addi	a0, zero, 1
     f40: 63 8a 05 02  	beqz	a1, 0xf74 <.LBB11_12>

00000f44 <.LBB11_9>:
     f44: 13 45 f5 ff  	not	a0, a0
     f48: 13 75 15 00  	andi	a0, a0, 1
     f4c: 6f 00 80 00  	j	0xf54 <.LBB11_11>

00000f50 <.LBB11_10>:
     f50: 13 05 00 00  	mv	a0, zero

00000f54 <.LBB11_11>:
     f54: 03 2a 81 41  	lw	s4, 1048(sp)
     f58: 83 29 c1 41  	lw	s3, 1052(sp)
     f5c: 03 29 01 42  	lw	s2, 1056(sp)
     f60: 83 24 41 42  	lw	s1, 1060(sp)
     f64: 03 24 81 42  	lw	s0, 1064(sp)
     f68: 83 20 c1 42  	lw	ra, 1068(sp)
     f6c: 13 01 01 43  	addi	sp, sp, 1072
     f70: 67 80 00 00  	ret

00000f74 <.LBB11_12>:
     f74: 93 05 01 18  	addi	a1, sp, 384
     f78: 13 06 01 10  	addi	a2, sp, 256
     f7c: 93 06 01 08  	addi	a3, sp, 128
     f80: 13 07 41 20  	addi	a4, sp, 516
     f84: 13 05 10 00  	addi	a0, zero, 1
     f88: 93 07 a0 01  	addi	a5, zero, 26
     f8c: 93 04 f0 01  	addi	s1, zero, 31

00000f90 <.LBB11_13>:
     f90: 03 a4 05 00  	lw	s0, 0(a1)
     f94: e3 18 04 fa  	bnez	s0, 0xf44 <.LBB11_9>
     f98: 03 24 06 00  	lw	s0, 0(a2)
     f9c: e3 14 04 fa  	bnez	s0, 0xf44 <.LBB11_9>
     fa0: 03 a4 06 00  	lw	s0, 0(a3)
     fa4: e3 10 04 fa  	bnez	s0, 0xf44 <.LBB11_9>
     fa8: 13 b5 f7 01  	sltiu	a0, a5, 31
     fac: e3 8c 97 f8  	beq	a5, s1, 0xf44 <.LBB11_9>
     fb0: 03 24 07 00  	lw	s0, 0(a4)
     fb4: 93 85 45 00  	addi	a1, a1, 4
     fb8: 13 06 46 00  	addi	a2, a2, 4
     fbc: 93 86 46 00  	addi	a3, a3, 4
     fc0: 13 07 47 00  	addi	a4, a4, 4
     fc4: 93 87 17 00  	addi	a5, a5, 1
     fc8: e3 04 04 fc  	beqz	s0, 0xf90 <.LBB11_13>
     fcc: 6f f0 9f f7  	j	0xf44 <.LBB11_9>

00000fd0 <vector_memcpy_segmented_harness_uint64_t>:
     fd0: 13 01 01 81  	addi	sp, sp, -2032
     fd4: 23 26 11 7e  	sw	ra, 2028(sp)
     fd8: 23 24 81 7e  	sw	s0, 2024(sp)
     fdc: 23 22 91 7e  	sw	s1, 2020(sp)
     fe0: 23 20 21 7f  	sw	s2, 2016(sp)
     fe4: 23 2e 31 7d  	sw	s3, 2012(sp)
     fe8: 23 2c 41 7d  	sw	s4, 2008(sp)
     fec: 23 2a 51 7d  	sw	s5, 2004(sp)
     ff0: 23 28 61 7d  	sw	s6, 2000(sp)
     ff4: 23 26 71 7d  	sw	s7, 1996(sp)
     ff8: 13 01 01 fb  	addi	sp, sp, -80
     ffc: 13 09 05 00  	mv	s2, a0
    1000: 13 05 81 41  	addi	a0, sp, 1048
    1004: 13 06 00 40  	addi	a2, zero, 1024
    1008: 13 04 81 41  	addi	s0, sp, 1048
    100c: 93 05 00 00  	mv	a1, zero
    1010: 97 f0 ff ff  	auipc	ra, 1048575
    1014: e7 80 40 00  	jalr	4(ra)
    1018: 13 05 81 31  	addi	a0, sp, 792
    101c: 13 06 00 10  	addi	a2, zero, 256
    1020: 93 05 00 00  	mv	a1, zero
    1024: 97 f0 ff ff  	auipc	ra, 1048575
    1028: e7 80 00 ff  	jalr	-16(ra)
    102c: 13 05 81 21  	addi	a0, sp, 536
    1030: 13 06 00 10  	addi	a2, zero, 256
    1034: 93 05 00 00  	mv	a1, zero
    1038: 97 f0 ff ff  	auipc	ra, 1048575
    103c: e7 80 c0 fd  	jalr	-36(ra)
    1040: 13 05 81 11  	addi	a0, sp, 280
    1044: 13 06 00 10  	addi	a2, zero, 256
    1048: 93 05 00 00  	mv	a1, zero
    104c: 97 f0 ff ff  	auipc	ra, 1048575
    1050: e7 80 80 fc  	jalr	-56(ra)
    1054: 13 05 81 01  	addi	a0, sp, 24
    1058: 13 06 00 10  	addi	a2, zero, 256
    105c: 93 05 00 00  	mv	a1, zero
    1060: 97 f0 ff ff  	auipc	ra, 1048575
    1064: e7 80 40 fb  	jalr	-76(ra)
    1068: 93 05 00 00  	mv	a1, zero
    106c: 13 05 00 00  	mv	a0, zero
    1070: 6f 00 c0 01  	j	0x108c <.LBB12_3>

00001074 <.LBB12_1>:
    1074: 13 06 00 00  	mv	a2, zero

00001078 <.LBB12_2>:
    1078: 93 86 15 00  	addi	a3, a1, 1
    107c: b3 b5 b6 00  	sltu	a1, a3, a1
    1080: 33 05 b5 00  	add	a0, a0, a1
    1084: 93 85 06 00  	mv	a1, a3
    1088: 63 02 06 02  	beqz	a2, 0x10ac <.LBB12_5>

0000108c <.LBB12_3>:
    108c: 13 96 35 00  	slli	a2, a1, 3
    1090: 33 06 c4 00  	add	a2, s0, a2
    1094: 23 20 b6 00  	sw	a1, 0(a2)
    1098: 13 66 46 00  	ori	a2, a2, 4
    109c: 23 20 a6 00  	sw	a0, 0(a2)
    10a0: e3 1a 05 fc  	bnez	a0, 0x1074 <.LBB12_1>
    10a4: 13 b6 f5 07  	sltiu	a2, a1, 127
    10a8: 6f f0 1f fd  	j	0x1078 <.LBB12_2>

000010ac <.LBB12_5>:
    10ac: 13 0b 81 31  	addi	s6, sp, 792
    10b0: 23 24 61 01  	sw	s6, 8(sp)
    10b4: 93 0a 81 21  	addi	s5, sp, 536
    10b8: 23 26 51 01  	sw	s5, 12(sp)
    10bc: 93 09 81 11  	addi	s3, sp, 280
    10c0: 23 28 31 01  	sw	s3, 16(sp)
    10c4: 13 0a 81 01  	addi	s4, sp, 24
    10c8: 23 2a 41 01  	sw	s4, 20(sp)
    10cc: 13 05 a0 01  	addi	a0, zero, 26
    10d0: 93 05 81 41  	addi	a1, sp, 1048
    10d4: 13 06 81 00  	addi	a2, sp, 8
    10d8: 93 0b 81 41  	addi	s7, sp, 1048
    10dc: e7 00 09 00  	jalr	s2
    10e0: 93 05 00 00  	mv	a1, zero
    10e4: 13 05 00 00  	mv	a0, zero
    10e8: 6f 00 c0 01  	j	0x1104 <.LBB12_8>

000010ec <.LBB12_6>:
    10ec: 13 06 00 00  	mv	a2, zero

000010f0 <.LBB12_7>:
    10f0: 93 86 15 00  	addi	a3, a1, 1
    10f4: b3 b5 b6 00  	sltu	a1, a3, a1
    10f8: 33 05 b5 00  	add	a0, a0, a1
    10fc: 93 85 06 00  	mv	a1, a3
    1100: 63 00 06 12  	beqz	a2, 0x1220 <.LBB12_16>

00001104 <.LBB12_8>:
    1104: 13 96 55 00  	slli	a2, a1, 5
    1108: 33 86 cb 00  	add	a2, s7, a2
    110c: 93 66 46 00  	ori	a3, a2, 4
    1110: 83 a6 06 00  	lw	a3, 0(a3)
    1114: 03 27 06 00  	lw	a4, 0(a2)
    1118: 13 96 35 00  	slli	a2, a1, 3
    111c: b3 07 cb 00  	add	a5, s6, a2
    1120: 93 e4 47 00  	ori	s1, a5, 4
    1124: 83 a7 07 00  	lw	a5, 0(a5)
    1128: 83 a4 04 00  	lw	s1, 0(s1)
    112c: 33 47 f7 00  	xor	a4, a4, a5
    1130: b3 c6 96 00  	xor	a3, a3, s1
    1134: b3 66 d7 00  	or	a3, a4, a3
    1138: 63 9a 06 0a  	bnez	a3, 0x11ec <.LBB12_14>
    113c: 93 96 25 00  	slli	a3, a1, 2
    1140: 93 96 36 00  	slli	a3, a3, 3
    1144: 13 e7 86 00  	ori	a4, a3, 8
    1148: 33 87 eb 00  	add	a4, s7, a4
    114c: 93 67 47 00  	ori	a5, a4, 4
    1150: 83 a7 07 00  	lw	a5, 0(a5)
    1154: 03 27 07 00  	lw	a4, 0(a4)
    1158: b3 84 ca 00  	add	s1, s5, a2
    115c: 13 e4 44 00  	ori	s0, s1, 4
    1160: 83 a4 04 00  	lw	s1, 0(s1)
    1164: 03 24 04 00  	lw	s0, 0(s0)
    1168: 33 47 97 00  	xor	a4, a4, s1
    116c: b3 c7 87 00  	xor	a5, a5, s0
    1170: 33 67 f7 00  	or	a4, a4, a5
    1174: 63 1c 07 06  	bnez	a4, 0x11ec <.LBB12_14>
    1178: 13 e7 06 01  	ori	a4, a3, 16
    117c: 33 87 eb 00  	add	a4, s7, a4
    1180: 93 67 47 00  	ori	a5, a4, 4
    1184: 83 a7 07 00  	lw	a5, 0(a5)
    1188: 03 27 07 00  	lw	a4, 0(a4)
    118c: b3 84 c9 00  	add	s1, s3, a2
    1190: 13 e4 44 00  	ori	s0, s1, 4
    1194: 83 a4 04 00  	lw	s1, 0(s1)
    1198: 03 24 04 00  	lw	s0, 0(s0)
    119c: 33 47 97 00  	xor	a4, a4, s1
    11a0: b3 c7 87 00  	xor	a5, a5, s0
    11a4: 33 67 f7 00  	or	a4, a4, a5
    11a8: 63 12 07 04  	bnez	a4, 0x11ec <.LBB12_14>
    11ac: 93 e6 86 01  	ori	a3, a3, 24
    11b0: b3 86 db 00  	add	a3, s7, a3
    11b4: 13 e7 46 00  	ori	a4, a3, 4
    11b8: 03 27 07 00  	lw	a4, 0(a4)
    11bc: 83 a6 06 00  	lw	a3, 0(a3)
    11c0: 33 06 ca 00  	add	a2, s4, a2
    11c4: 93 67 46 00  	ori	a5, a2, 4
    11c8: 03 26 06 00  	lw	a2, 0(a2)
    11cc: 83 a7 07 00  	lw	a5, 0(a5)
    11d0: 33 c6 c6 00  	xor	a2, a3, a2
    11d4: b3 46 f7 00  	xor	a3, a4, a5
    11d8: 33 66 d6 00  	or	a2, a2, a3
    11dc: 63 18 06 00  	bnez	a2, 0x11ec <.LBB12_14>
    11e0: e3 16 05 f0  	bnez	a0, 0x10ec <.LBB12_6>
    11e4: 13 b6 95 01  	sltiu	a2, a1, 25
    11e8: 6f f0 9f f0  	j	0x10f0 <.LBB12_7>

000011ec <.LBB12_14>:
    11ec: 13 05 00 00  	mv	a0, zero

000011f0 <.LBB12_15>:
    11f0: 13 01 01 05  	addi	sp, sp, 80
    11f4: 83 2b c1 7c  	lw	s7, 1996(sp)
    11f8: 03 2b 01 7d  	lw	s6, 2000(sp)
    11fc: 83 2a 41 7d  	lw	s5, 2004(sp)
    1200: 03 2a 81 7d  	lw	s4, 2008(sp)
    1204: 83 29 c1 7d  	lw	s3, 2012(sp)
    1208: 03 29 01 7e  	lw	s2, 2016(sp)
    120c: 83 24 41 7e  	lw	s1, 2020(sp)
    1210: 03 24 81 7e  	lw	s0, 2024(sp)
    1214: 83 20 c1 7e  	lw	ra, 2028(sp)
    1218: 13 01 01 7f  	addi	sp, sp, 2032
    121c: 67 80 00 00  	ret

00001220 <.LBB12_16>:
    1220: 03 25 c1 3e  	lw	a0, 1004(sp)
    1224: 83 25 81 3e  	lw	a1, 1000(sp)
    1228: b3 e5 a5 00  	or	a1, a1, a0
    122c: 93 02 10 00  	addi	t0, zero, 1
    1230: 63 88 05 00  	beqz	a1, 0x1240 <.LBB12_18>

00001234 <.LBB12_17>:
    1234: 13 c5 f2 ff  	not	a0, t0
    1238: 13 75 15 00  	andi	a0, a0, 1
    123c: 6f f0 5f fb  	j	0x11f0 <.LBB12_15>

00001240 <.LBB12_18>:
    1240: 93 05 00 00  	mv	a1, zero
    1244: 13 06 81 2e  	addi	a2, sp, 744
    1248: 93 06 81 1e  	addi	a3, sp, 488
    124c: 13 07 81 0e  	addi	a4, sp, 232
    1250: 13 04 a0 01  	addi	s0, zero, 26
    1254: 93 02 10 00  	addi	t0, zero, 1
    1258: 13 08 e0 01  	addi	a6, zero, 30
    125c: 93 08 81 31  	addi	a7, sp, 792

00001260 <.LBB12_19>:
    1260: 03 25 46 00  	lw	a0, 4(a2)
    1264: 83 27 06 00  	lw	a5, 0(a2)
    1268: 33 e5 a7 00  	or	a0, a5, a0
    126c: e3 14 05 fc  	bnez	a0, 0x1234 <.LBB12_17>
    1270: 03 a5 46 00  	lw	a0, 4(a3)
    1274: 83 a7 06 00  	lw	a5, 0(a3)
    1278: 33 e5 a7 00  	or	a0, a5, a0
    127c: e3 1c 05 fa  	bnez	a0, 0x1234 <.LBB12_17>
    1280: 03 25 47 00  	lw	a0, 4(a4)
    1284: 83 27 07 00  	lw	a5, 0(a4)
    1288: 33 e5 a7 00  	or	a0, a5, a0
    128c: e3 14 05 fa  	bnez	a0, 0x1234 <.LBB12_17>
    1290: 63 88 05 00  	beqz	a1, 0x12a0 <.LBB12_24>
    1294: 93 02 00 00  	mv	t0, zero
    1298: b3 37 b0 00  	snez	a5, a1
    129c: 6f 00 c0 00  	j	0x12a8 <.LBB12_25>

000012a0 <.LBB12_24>:
    12a0: 93 32 f4 01  	sltiu	t0, s0, 31
    12a4: b3 37 88 00  	sltu	a5, a6, s0

000012a8 <.LBB12_25>:
    12a8: e3 96 07 f8  	bnez	a5, 0x1234 <.LBB12_17>
    12ac: 93 07 14 00  	addi	a5, s0, 1
    12b0: 93 94 37 00  	slli	s1, a5, 3
    12b4: b3 84 98 00  	add	s1, a7, s1
    12b8: 03 a5 04 00  	lw	a0, 0(s1)
    12bc: 93 e4 44 00  	ori	s1, s1, 4
    12c0: 83 a4 04 00  	lw	s1, 0(s1)
    12c4: 33 b4 87 00  	sltu	s0, a5, s0
    12c8: b3 85 85 00  	add	a1, a1, s0
    12cc: 33 65 95 00  	or	a0, a0, s1
    12d0: 13 06 86 00  	addi	a2, a2, 8
    12d4: 93 86 86 00  	addi	a3, a3, 8
    12d8: 13 07 87 00  	addi	a4, a4, 8
    12dc: 13 84 07 00  	mv	s0, a5
    12e0: e3 00 05 f8  	beqz	a0, 0x1260 <.LBB12_19>
    12e4: 6f f0 1f f5  	j	0x1234 <.LBB12_17>

000012e8 <vector_memcpy_unit_stride_e8m8>:
    12e8: 6f 00 c0 00  	j	0x12f4 <.LBB13_2>

000012ec <.LBB13_1>:
    12ec: 93 b6 16 00  	seqz	a3, a3
    12f0: 63 92 06 02  	bnez	a3, 0x1314 <.LBB13_4>

000012f4 <.LBB13_2>:
    12f4: d7 76 35 04  	<unknown>
    12f8: e3 8a 06 fe  	beqz	a3, 0x12ec <.LBB13_1>
    12fc: 07 84 05 02  	<unknown>
    1300: 27 04 06 02  	<unknown>
    1304: b3 85 d5 00  	add	a1, a1, a3
    1308: 33 06 d6 00  	add	a2, a2, a3
    130c: 33 05 d5 40  	sub	a0, a0, a3
    1310: 6f f0 df fd  	j	0x12ec <.LBB13_1>

00001314 <.LBB13_4>:
    1314: 67 80 00 00  	ret

00001318 <vector_memcpy_unit_stride_e16m8>:
    1318: 6f 00 c0 00  	j	0x1324 <.LBB14_2>

0000131c <.LBB14_1>:
    131c: 93 b6 16 00  	seqz	a3, a3
    1320: 63 94 06 02  	bnez	a3, 0x1348 <.LBB14_4>

00001324 <.LBB14_2>:
    1324: d7 76 b5 04  	<unknown>
    1328: e3 8a 06 fe  	beqz	a3, 0x131c <.LBB14_1>
    132c: 07 d4 05 02  	<unknown>
    1330: 27 54 06 02  	<unknown>
    1334: 13 97 16 00  	slli	a4, a3, 1
    1338: b3 85 e5 00  	add	a1, a1, a4
    133c: 33 06 e6 00  	add	a2, a2, a4
    1340: 33 05 d5 40  	sub	a0, a0, a3
    1344: 6f f0 9f fd  	j	0x131c <.LBB14_1>

00001348 <.LBB14_4>:
    1348: 67 80 00 00  	ret

0000134c <vector_memcpy_unit_stride_e32m8>:
    134c: 6f 00 c0 00  	j	0x1358 <.LBB15_2>

00001350 <.LBB15_1>:
    1350: 93 b6 16 00  	seqz	a3, a3
    1354: 63 94 06 02  	bnez	a3, 0x137c <.LBB15_4>

00001358 <.LBB15_2>:
    1358: d7 76 35 05  	<unknown>
    135c: e3 8a 06 fe  	beqz	a3, 0x1350 <.LBB15_1>
    1360: 07 e4 05 02  	<unknown>
    1364: 27 64 06 02  	<unknown>
    1368: 13 97 26 00  	slli	a4, a3, 2
    136c: b3 85 e5 00  	add	a1, a1, a4
    1370: 33 06 e6 00  	add	a2, a2, a4
    1374: 33 05 d5 40  	sub	a0, a0, a3
    1378: 6f f0 9f fd  	j	0x1350 <.LBB15_1>

0000137c <.LBB15_4>:
    137c: 67 80 00 00  	ret

00001380 <vector_memcpy_unit_stride_e32mf2>:
    1380: 6f 00 c0 00  	j	0x138c <.LBB16_2>

00001384 <.LBB16_1>:
    1384: 93 b6 16 00  	seqz	a3, a3
    1388: 63 94 06 02  	bnez	a3, 0x13b0 <.LBB16_4>

0000138c <.LBB16_2>:
    138c: d7 76 75 05  	<unknown>
    1390: e3 8a 06 fe  	beqz	a3, 0x1384 <.LBB16_1>
    1394: 87 ec 05 02  	<unknown>
    1398: a7 6c 06 02  	<unknown>
    139c: 13 97 26 00  	slli	a4, a3, 2
    13a0: b3 85 e5 00  	add	a1, a1, a4
    13a4: 33 06 e6 00  	add	a2, a2, a4
    13a8: 33 05 d5 40  	sub	a0, a0, a3
    13ac: 6f f0 9f fd  	j	0x1384 <.LBB16_1>

000013b0 <.LBB16_4>:
    13b0: 67 80 00 00  	ret

000013b4 <vector_memcpy_strided_e8m8>:
    13b4: 93 08 40 00  	addi	a7, zero, 4
    13b8: 6f 00 40 02  	j	0x13dc <.LBB17_4>

000013bc <.LBB17_1>:
    13bc: 07 84 05 02  	<unknown>
    13c0: 27 04 06 02  	<unknown>
    13c4: 13 08 07 00  	mv	a6, a4

000013c8 <.LBB17_2>:
    13c8: 33 05 05 41  	sub	a0, a0, a6
    13cc: b3 85 05 01  	add	a1, a1, a6
    13d0: 33 06 06 01  	add	a2, a2, a6

000013d4 <.LBB17_3>:
    13d4: 93 36 17 00  	seqz	a3, a4
    13d8: 63 9c 06 02  	bnez	a3, 0x1410 <.LBB17_8>

000013dc <.LBB17_4>:
    13dc: 57 77 35 04  	<unknown>
    13e0: e3 0a 07 fe  	beqz	a4, 0x13d4 <.LBB17_3>
    13e4: 13 18 27 00  	slli	a6, a4, 2
    13e8: e3 7a a8 fc  	bgeu	a6, a0, 0x13bc <.LBB17_1>
    13ec: 93 07 00 00  	mv	a5, zero

000013f0 <.LBB17_7>:
    13f0: b3 86 f5 00  	add	a3, a1, a5
    13f4: 57 70 37 04  	<unknown>
    13f8: 07 84 16 0b  	<unknown>
    13fc: b3 06 f6 00  	add	a3, a2, a5
    1400: 93 87 17 00  	addi	a5, a5, 1
    1404: 27 84 16 0b  	<unknown>
    1408: e3 94 17 ff  	bne	a5, a7, 0x13f0 <.LBB17_7>
    140c: 6f f0 df fb  	j	0x13c8 <.LBB17_2>

00001410 <.LBB17_8>:
    1410: 67 80 00 00  	ret

00001414 <vector_memcpy_strided_e16m8>:
    1414: 93 08 80 00  	addi	a7, zero, 8
    1418: 6f 00 80 02  	j	0x1440 <.LBB18_4>

0000141c <.LBB18_1>:
    141c: 07 d4 05 02  	<unknown>
    1420: 27 54 06 02  	<unknown>
    1424: 13 08 07 00  	mv	a6, a4

00001428 <.LBB18_2>:
    1428: 33 05 05 41  	sub	a0, a0, a6
    142c: 93 16 18 00  	slli	a3, a6, 1
    1430: b3 85 d5 00  	add	a1, a1, a3
    1434: 33 06 d6 00  	add	a2, a2, a3

00001438 <.LBB18_3>:
    1438: 93 36 17 00  	seqz	a3, a4
    143c: 63 9c 06 02  	bnez	a3, 0x1474 <.LBB18_8>

00001440 <.LBB18_4>:
    1440: 57 77 b5 04  	<unknown>
    1444: e3 0a 07 fe  	beqz	a4, 0x1438 <.LBB18_3>
    1448: 13 18 27 00  	slli	a6, a4, 2
    144c: e3 78 a8 fc  	bgeu	a6, a0, 0x141c <.LBB18_1>
    1450: 93 07 00 00  	mv	a5, zero

00001454 <.LBB18_7>:
    1454: b3 86 f5 00  	add	a3, a1, a5
    1458: 57 70 b7 04  	<unknown>
    145c: 07 d4 16 0b  	<unknown>
    1460: b3 06 f6 00  	add	a3, a2, a5
    1464: 93 87 27 00  	addi	a5, a5, 2
    1468: 27 d4 16 0b  	<unknown>
    146c: e3 94 17 ff  	bne	a5, a7, 0x1454 <.LBB18_7>
    1470: 6f f0 9f fb  	j	0x1428 <.LBB18_2>

00001474 <.LBB18_8>:
    1474: 67 80 00 00  	ret

00001478 <vector_memcpy_strided_e32m8>:
    1478: 93 08 00 01  	addi	a7, zero, 16
    147c: 6f 00 80 02  	j	0x14a4 <.LBB19_4>

00001480 <.LBB19_1>:
    1480: 07 e4 05 02  	<unknown>
    1484: 27 64 06 02  	<unknown>
    1488: 13 08 07 00  	mv	a6, a4

0000148c <.LBB19_2>:
    148c: 33 05 05 41  	sub	a0, a0, a6
    1490: 93 16 28 00  	slli	a3, a6, 2
    1494: b3 85 d5 00  	add	a1, a1, a3
    1498: 33 06 d6 00  	add	a2, a2, a3

0000149c <.LBB19_3>:
    149c: 93 36 17 00  	seqz	a3, a4
    14a0: 63 9c 06 02  	bnez	a3, 0x14d8 <.LBB19_8>

000014a4 <.LBB19_4>:
    14a4: 57 77 35 05  	<unknown>
    14a8: e3 0a 07 fe  	beqz	a4, 0x149c <.LBB19_3>
    14ac: 13 18 27 00  	slli	a6, a4, 2
    14b0: e3 78 a8 fc  	bgeu	a6, a0, 0x1480 <.LBB19_1>
    14b4: 93 07 00 00  	mv	a5, zero

000014b8 <.LBB19_7>:
    14b8: b3 86 f5 00  	add	a3, a1, a5
    14bc: 57 70 37 05  	<unknown>
    14c0: 07 e4 16 0b  	<unknown>
    14c4: b3 06 f6 00  	add	a3, a2, a5
    14c8: 93 87 47 00  	addi	a5, a5, 4
    14cc: 27 e4 16 0b  	<unknown>
    14d0: e3 94 17 ff  	bne	a5, a7, 0x14b8 <.LBB19_7>
    14d4: 6f f0 9f fb  	j	0x148c <.LBB19_2>

000014d8 <.LBB19_8>:
    14d8: 67 80 00 00  	ret

000014dc <vector_memcpy_strided_e32mf2>:
    14dc: 93 08 00 01  	addi	a7, zero, 16
    14e0: 6f 00 80 02  	j	0x1508 <.LBB20_4>

000014e4 <.LBB20_1>:
    14e4: 87 ec 05 02  	<unknown>
    14e8: a7 6c 06 02  	<unknown>
    14ec: 13 08 07 00  	mv	a6, a4

000014f0 <.LBB20_2>:
    14f0: 33 05 05 41  	sub	a0, a0, a6
    14f4: 93 16 28 00  	slli	a3, a6, 2
    14f8: b3 85 d5 00  	add	a1, a1, a3
    14fc: 33 06 d6 00  	add	a2, a2, a3

00001500 <.LBB20_3>:
    1500: 93 36 17 00  	seqz	a3, a4
    1504: 63 9c 06 02  	bnez	a3, 0x153c <.LBB20_8>

00001508 <.LBB20_4>:
    1508: 57 77 75 05  	<unknown>
    150c: e3 0a 07 fe  	beqz	a4, 0x1500 <.LBB20_3>
    1510: 13 18 27 00  	slli	a6, a4, 2
    1514: e3 78 a8 fc  	bgeu	a6, a0, 0x14e4 <.LBB20_1>
    1518: 93 07 00 00  	mv	a5, zero

0000151c <.LBB20_7>:
    151c: b3 86 f5 00  	add	a3, a1, a5
    1520: 57 70 77 05  	<unknown>
    1524: 87 ec 16 0b  	<unknown>
    1528: b3 06 f6 00  	add	a3, a2, a5
    152c: 93 87 47 00  	addi	a5, a5, 4
    1530: a7 ec 16 0b  	<unknown>
    1534: e3 94 17 ff  	bne	a5, a7, 0x151c <.LBB20_7>
    1538: 6f f0 9f fb  	j	0x14f0 <.LBB20_2>

0000153c <.LBB20_8>:
    153c: 67 80 00 00  	ret

00001540 <vector_memcpy_indexed_e8m8>:
    1540: 13 01 01 f6  	addi	sp, sp, -160
    1544: 23 2e 11 08  	sw	ra, 156(sp)
    1548: 23 2c 81 08  	sw	s0, 152(sp)
    154c: 23 2a 91 08  	sw	s1, 148(sp)
    1550: 23 28 21 09  	sw	s2, 144(sp)
    1554: 23 26 31 09  	sw	s3, 140(sp)
    1558: 23 24 41 09  	sw	s4, 136(sp)
    155c: 13 09 06 00  	mv	s2, a2
    1560: 93 84 05 00  	mv	s1, a1
    1564: 13 04 05 00  	mv	s0, a0
    1568: d7 79 30 04  	<unknown>
    156c: 13 05 81 00  	addi	a0, sp, 8
    1570: 13 06 00 08  	addi	a2, zero, 128
    1574: 13 0a 81 00  	addi	s4, sp, 8
    1578: 93 05 00 00  	mv	a1, zero
    157c: 97 f0 ff ff  	auipc	ra, 1048575
    1580: e7 80 80 a9  	jalr	-1384(ra)
    1584: 63 8e 09 00  	beqz	s3, 0x15a0 <.LBB21_3>
    1588: 13 05 00 00  	mv	a0, zero

0000158c <.LBB21_2>:
    158c: 93 45 15 00  	xori	a1, a0, 1
    1590: 33 06 aa 00  	add	a2, s4, a0
    1594: 13 05 15 00  	addi	a0, a0, 1
    1598: 23 00 b6 00  	sb	a1, 0(a2)
    159c: e3 98 a9 fe  	bne	s3, a0, 0x158c <.LBB21_2>

000015a0 <.LBB21_3>:
    15a0: 57 f0 39 04  	<unknown>
    15a4: 13 05 81 00  	addi	a0, sp, 8
    15a8: 07 04 05 02  	<unknown>
    15ac: 6f 00 00 02  	j	0x15cc <.LBB21_7>

000015b0 <.LBB21_4>:
    15b0: 07 88 04 02  	<unknown>
    15b4: 27 08 09 02  	<unknown>

000015b8 <.LBB21_5>:
    15b8: b3 84 a4 00  	add	s1, s1, a0
    15bc: 33 09 a9 00  	add	s2, s2, a0
    15c0: 33 04 a4 40  	sub	s0, s0, a0

000015c4 <.LBB21_6>:
    15c4: 13 35 15 00  	seqz	a0, a0
    15c8: 63 1e 05 00  	bnez	a0, 0x15e4 <.LBB21_10>

000015cc <.LBB21_7>:
    15cc: 57 75 34 04  	<unknown>
    15d0: e3 0a 05 fe  	beqz	a0, 0x15c4 <.LBB21_6>
    15d4: e3 1e 35 fd  	bne	a0, s3, 0x15b0 <.LBB21_4>
    15d8: 07 88 84 06  	<unknown>
    15dc: 27 08 89 06  	<unknown>
    15e0: 6f f0 9f fd  	j	0x15b8 <.LBB21_5>

000015e4 <.LBB21_10>:
    15e4: 03 2a 81 08  	lw	s4, 136(sp)
    15e8: 83 29 c1 08  	lw	s3, 140(sp)
    15ec: 03 29 01 09  	lw	s2, 144(sp)
    15f0: 83 24 41 09  	lw	s1, 148(sp)
    15f4: 03 24 81 09  	lw	s0, 152(sp)
    15f8: 83 20 c1 09  	lw	ra, 156(sp)
    15fc: 13 01 01 0a  	addi	sp, sp, 160
    1600: 67 80 00 00  	ret

00001604 <vector_memcpy_indexed_e16m8>:
    1604: 13 01 01 ee  	addi	sp, sp, -288
    1608: 23 2e 11 10  	sw	ra, 284(sp)
    160c: 23 2c 81 10  	sw	s0, 280(sp)
    1610: 23 2a 91 10  	sw	s1, 276(sp)
    1614: 23 28 21 11  	sw	s2, 272(sp)
    1618: 23 26 31 11  	sw	s3, 268(sp)
    161c: 23 24 41 11  	sw	s4, 264(sp)
    1620: 13 09 06 00  	mv	s2, a2
    1624: 13 8a 05 00  	mv	s4, a1
    1628: 13 04 05 00  	mv	s0, a0
    162c: d7 79 b0 04  	<unknown>
    1630: 13 05 81 00  	addi	a0, sp, 8
    1634: 13 06 00 10  	addi	a2, zero, 256
    1638: 93 04 81 00  	addi	s1, sp, 8
    163c: 93 05 00 00  	mv	a1, zero
    1640: 97 f0 ff ff  	auipc	ra, 1048575
    1644: e7 80 40 9d  	jalr	-1580(ra)
    1648: 63 80 09 02  	beqz	s3, 0x1668 <.LBB22_3>
    164c: 13 05 00 00  	mv	a0, zero

00001650 <.LBB22_2>:
    1650: 93 15 15 00  	slli	a1, a0, 1
    1654: 93 c5 25 00  	xori	a1, a1, 2
    1658: 23 90 b4 00  	sh	a1, 0(s1)
    165c: 13 05 15 00  	addi	a0, a0, 1
    1660: 93 84 24 00  	addi	s1, s1, 2
    1664: e3 96 a9 fe  	bne	s3, a0, 0x1650 <.LBB22_2>

00001668 <.LBB22_3>:
    1668: 57 f0 b9 04  	<unknown>
    166c: 13 05 81 00  	addi	a0, sp, 8
    1670: 07 54 05 02  	<unknown>
    1674: 6f 00 40 02  	j	0x1698 <.LBB22_7>

00001678 <.LBB22_4>:
    1678: 07 58 0a 02  	<unknown>
    167c: 27 58 09 02  	<unknown>

00001680 <.LBB22_5>:
    1680: 93 15 15 00  	slli	a1, a0, 1
    1684: 33 0a ba 00  	add	s4, s4, a1
    1688: 33 09 b9 00  	add	s2, s2, a1
    168c: 33 04 a4 40  	sub	s0, s0, a0

00001690 <.LBB22_6>:
    1690: 13 35 15 00  	seqz	a0, a0
    1694: 63 1e 05 00  	bnez	a0, 0x16b0 <.LBB22_10>

00001698 <.LBB22_7>:
    1698: 57 75 b4 04  	<unknown>
    169c: e3 0a 05 fe  	beqz	a0, 0x1690 <.LBB22_6>
    16a0: e3 1c 35 fd  	bne	a0, s3, 0x1678 <.LBB22_4>
    16a4: 07 58 8a 06  	<unknown>
    16a8: 27 58 89 06  	<unknown>
    16ac: 6f f0 5f fd  	j	0x1680 <.LBB22_5>

000016b0 <.LBB22_10>:
    16b0: 03 2a 81 10  	lw	s4, 264(sp)
    16b4: 83 29 c1 10  	lw	s3, 268(sp)
    16b8: 03 29 01 11  	lw	s2, 272(sp)
    16bc: 83 24 41 11  	lw	s1, 276(sp)
    16c0: 03 24 81 11  	lw	s0, 280(sp)
    16c4: 83 20 c1 11  	lw	ra, 284(sp)
    16c8: 13 01 01 12  	addi	sp, sp, 288
    16cc: 67 80 00 00  	ret

000016d0 <vector_memcpy_indexed_e32m8>:
    16d0: 13 01 01 de  	addi	sp, sp, -544
    16d4: 23 2e 11 20  	sw	ra, 540(sp)
    16d8: 23 2c 81 20  	sw	s0, 536(sp)
    16dc: 23 2a 91 20  	sw	s1, 532(sp)
    16e0: 23 28 21 21  	sw	s2, 528(sp)
    16e4: 23 26 31 21  	sw	s3, 524(sp)
    16e8: 23 24 41 21  	sw	s4, 520(sp)
    16ec: 13 09 06 00  	mv	s2, a2
    16f0: 93 84 05 00  	mv	s1, a1
    16f4: 13 04 05 00  	mv	s0, a0
    16f8: d7 79 30 05  	<unknown>
    16fc: 13 05 81 00  	addi	a0, sp, 8
    1700: 13 06 00 20  	addi	a2, zero, 512
    1704: 13 0a 81 00  	addi	s4, sp, 8
    1708: 93 05 00 00  	mv	a1, zero
    170c: 97 f0 ff ff  	auipc	ra, 1048575
    1710: e7 80 80 90  	jalr	-1784(ra)
    1714: 63 82 09 02  	beqz	s3, 0x1738 <.LBB23_3>
    1718: 13 05 00 00  	mv	a0, zero
    171c: 93 85 09 00  	mv	a1, s3

00001720 <.LBB23_2>:
    1720: 13 46 45 00  	xori	a2, a0, 4
    1724: b3 06 aa 00  	add	a3, s4, a0
    1728: 23 a0 c6 00  	sw	a2, 0(a3)
    172c: 93 85 f5 ff  	addi	a1, a1, -1
    1730: 13 05 45 00  	addi	a0, a0, 4
    1734: e3 96 05 fe  	bnez	a1, 0x1720 <.LBB23_2>

00001738 <.LBB23_3>:
    1738: 57 f0 39 05  	<unknown>
    173c: 13 05 81 00  	addi	a0, sp, 8
    1740: 07 64 05 02  	<unknown>
    1744: 6f 00 40 02  	j	0x1768 <.LBB23_7>

00001748 <.LBB23_4>:
    1748: 07 e8 04 02  	<unknown>
    174c: 27 68 09 02  	<unknown>

00001750 <.LBB23_5>:
    1750: 93 15 25 00  	slli	a1, a0, 2
    1754: b3 84 b4 00  	add	s1, s1, a1
    1758: 33 09 b9 00  	add	s2, s2, a1
    175c: 33 04 a4 40  	sub	s0, s0, a0

00001760 <.LBB23_6>:
    1760: 13 35 15 00  	seqz	a0, a0
    1764: 63 1e 05 00  	bnez	a0, 0x1780 <.LBB23_10>

00001768 <.LBB23_7>:
    1768: 57 75 34 05  	<unknown>
    176c: e3 0a 05 fe  	beqz	a0, 0x1760 <.LBB23_6>
    1770: e3 1c 35 fd  	bne	a0, s3, 0x1748 <.LBB23_4>
    1774: 07 e8 84 06  	<unknown>
    1778: 27 68 89 06  	<unknown>
    177c: 6f f0 5f fd  	j	0x1750 <.LBB23_5>

00001780 <.LBB23_10>:
    1780: 03 2a 81 20  	lw	s4, 520(sp)
    1784: 83 29 c1 20  	lw	s3, 524(sp)
    1788: 03 29 01 21  	lw	s2, 528(sp)
    178c: 83 24 41 21  	lw	s1, 532(sp)
    1790: 03 24 81 21  	lw	s0, 536(sp)
    1794: 83 20 c1 21  	lw	ra, 540(sp)
    1798: 13 01 01 22  	addi	sp, sp, 544
    179c: 67 80 00 00  	ret

000017a0 <vector_memcpy_indexed_e32mf2>:
    17a0: 13 01 01 de  	addi	sp, sp, -544
    17a4: 23 2e 11 20  	sw	ra, 540(sp)
    17a8: 23 2c 81 20  	sw	s0, 536(sp)
    17ac: 23 2a 91 20  	sw	s1, 532(sp)
    17b0: 23 28 21 21  	sw	s2, 528(sp)
    17b4: 23 26 31 21  	sw	s3, 524(sp)
    17b8: 23 24 41 21  	sw	s4, 520(sp)
    17bc: 13 09 06 00  	mv	s2, a2
    17c0: 93 84 05 00  	mv	s1, a1
    17c4: 13 04 05 00  	mv	s0, a0
    17c8: d7 79 70 05  	<unknown>
    17cc: 13 05 81 00  	addi	a0, sp, 8
    17d0: 13 06 00 20  	addi	a2, zero, 512
    17d4: 13 0a 81 00  	addi	s4, sp, 8
    17d8: 93 05 00 00  	mv	a1, zero
    17dc: 97 f0 ff ff  	auipc	ra, 1048575
    17e0: e7 80 80 83  	jalr	-1992(ra)
    17e4: 63 82 09 02  	beqz	s3, 0x1808 <.LBB24_3>
    17e8: 13 05 00 00  	mv	a0, zero
    17ec: 93 85 09 00  	mv	a1, s3

000017f0 <.LBB24_2>:
    17f0: 13 46 45 00  	xori	a2, a0, 4
    17f4: b3 06 aa 00  	add	a3, s4, a0
    17f8: 23 a0 c6 00  	sw	a2, 0(a3)
    17fc: 93 85 f5 ff  	addi	a1, a1, -1
    1800: 13 05 45 00  	addi	a0, a0, 4
    1804: e3 96 05 fe  	bnez	a1, 0x17f0 <.LBB24_2>

00001808 <.LBB24_3>:
    1808: 57 f0 79 05  	<unknown>
    180c: 13 05 81 00  	addi	a0, sp, 8
    1810: 87 6c 05 02  	<unknown>
    1814: 6f 00 40 02  	j	0x1838 <.LBB24_7>

00001818 <.LBB24_4>:
    1818: 07 ed 04 02  	<unknown>
    181c: 27 6d 09 02  	<unknown>

00001820 <.LBB24_5>:
    1820: 93 15 25 00  	slli	a1, a0, 2
    1824: b3 84 b4 00  	add	s1, s1, a1
    1828: 33 09 b9 00  	add	s2, s2, a1
    182c: 33 04 a4 40  	sub	s0, s0, a0

00001830 <.LBB24_6>:
    1830: 13 35 15 00  	seqz	a0, a0
    1834: 63 1e 05 00  	bnez	a0, 0x1850 <.LBB24_10>

00001838 <.LBB24_7>:
    1838: 57 75 74 05  	<unknown>
    183c: e3 0a 05 fe  	beqz	a0, 0x1830 <.LBB24_6>
    1840: e3 1c 35 fd  	bne	a0, s3, 0x1818 <.LBB24_4>
    1844: 07 ed 94 07  	<unknown>
    1848: 27 6d 99 07  	<unknown>
    184c: 6f f0 5f fd  	j	0x1820 <.LBB24_5>

00001850 <.LBB24_10>:
    1850: 03 2a 81 20  	lw	s4, 520(sp)
    1854: 83 29 c1 20  	lw	s3, 524(sp)
    1858: 03 29 01 21  	lw	s2, 528(sp)
    185c: 83 24 41 21  	lw	s1, 532(sp)
    1860: 03 24 81 21  	lw	s0, 536(sp)
    1864: 83 20 c1 21  	lw	ra, 540(sp)
    1868: 13 01 01 22  	addi	sp, sp, 544
    186c: 67 80 00 00  	ret

00001870 <vector_memcpy_masked_e8m8>:
    1870: d7 76 30 04  	<unknown>
    1874: 07 84 05 02  	<unknown>
    1878: 57 b0 80 62  	<unknown>
    187c: 6f 00 c0 00  	j	0x1888 <.LBB25_2>

00001880 <.LBB25_1>:
    1880: 93 b6 16 00  	seqz	a3, a3
    1884: 63 96 06 02  	bnez	a3, 0x18b0 <.LBB25_4>

00001888 <.LBB25_2>:
    1888: d7 76 35 04  	<unknown>
    188c: e3 8a 06 fe  	beqz	a3, 0x1880 <.LBB25_1>
    1890: 57 f0 36 00  	<unknown>
    1894: 07 84 05 00  	<unknown>
    1898: 57 70 30 04  	<unknown>
    189c: 27 04 06 00  	<unknown>
    18a0: b3 85 d5 00  	add	a1, a1, a3
    18a4: 33 06 d6 00  	add	a2, a2, a3
    18a8: 33 05 d5 40  	sub	a0, a0, a3
    18ac: 6f f0 5f fd  	j	0x1880 <.LBB25_1>

000018b0 <.LBB25_4>:
    18b0: 67 80 00 00  	ret

000018b4 <vector_memcpy_masked_e16m8>:
    18b4: d7 76 b0 04  	<unknown>
    18b8: 07 d4 05 02  	<unknown>
    18bc: 57 b0 80 62  	<unknown>
    18c0: 6f 00 c0 00  	j	0x18cc <.LBB26_2>

000018c4 <.LBB26_1>:
    18c4: 93 b6 16 00  	seqz	a3, a3
    18c8: 63 98 06 02  	bnez	a3, 0x18f8 <.LBB26_4>

000018cc <.LBB26_2>:
    18cc: d7 76 b5 04  	<unknown>
    18d0: e3 8a 06 fe  	beqz	a3, 0x18c4 <.LBB26_1>
    18d4: 57 f0 b6 00  	<unknown>
    18d8: 07 d4 05 00  	<unknown>
    18dc: 57 70 b0 04  	<unknown>
    18e0: 27 54 06 00  	<unknown>
    18e4: 13 97 16 00  	slli	a4, a3, 1
    18e8: b3 85 e5 00  	add	a1, a1, a4
    18ec: 33 06 e6 00  	add	a2, a2, a4
    18f0: 33 05 d5 40  	sub	a0, a0, a3
    18f4: 6f f0 1f fd  	j	0x18c4 <.LBB26_1>

000018f8 <.LBB26_4>:
    18f8: 67 80 00 00  	ret

000018fc <vector_memcpy_masked_e32m8>:
    18fc: d7 76 30 05  	<unknown>
    1900: 07 e4 05 02  	<unknown>
    1904: 57 b0 80 62  	<unknown>
    1908: 6f 00 c0 00  	j	0x1914 <.LBB27_2>

0000190c <.LBB27_1>:
    190c: 93 b6 16 00  	seqz	a3, a3
    1910: 63 98 06 02  	bnez	a3, 0x1940 <.LBB27_4>

00001914 <.LBB27_2>:
    1914: d7 76 35 05  	<unknown>
    1918: e3 8a 06 fe  	beqz	a3, 0x190c <.LBB27_1>
    191c: 57 f0 36 01  	<unknown>
    1920: 07 e4 05 00  	<unknown>
    1924: 57 70 30 05  	<unknown>
    1928: 27 64 06 00  	<unknown>
    192c: 13 97 26 00  	slli	a4, a3, 2
    1930: b3 85 e5 00  	add	a1, a1, a4
    1934: 33 06 e6 00  	add	a2, a2, a4
    1938: 33 05 d5 40  	sub	a0, a0, a3
    193c: 6f f0 1f fd  	j	0x190c <.LBB27_1>

00001940 <.LBB27_4>:
    1940: 67 80 00 00  	ret

00001944 <vector_memcpy_masked_e32mf2>:
    1944: d7 76 70 05  	<unknown>
    1948: 87 ec 05 02  	<unknown>
    194c: 57 b0 90 63  	<unknown>
    1950: 6f 00 c0 00  	j	0x195c <.LBB28_2>

00001954 <.LBB28_1>:
    1954: 93 b6 16 00  	seqz	a3, a3
    1958: 63 98 06 02  	bnez	a3, 0x1988 <.LBB28_4>

0000195c <.LBB28_2>:
    195c: d7 76 75 05  	<unknown>
    1960: e3 8a 06 fe  	beqz	a3, 0x1954 <.LBB28_1>
    1964: 57 f0 76 01  	<unknown>
    1968: 87 ec 05 00  	<unknown>
    196c: 57 70 70 05  	<unknown>
    1970: a7 6c 06 00  	<unknown>
    1974: 13 97 26 00  	slli	a4, a3, 2
    1978: b3 85 e5 00  	add	a1, a1, a4
    197c: 33 06 e6 00  	add	a2, a2, a4
    1980: 33 05 d5 40  	sub	a0, a0, a3
    1984: 6f f0 1f fd  	j	0x1954 <.LBB28_1>

00001988 <.LBB28_4>:
    1988: 67 80 00 00  	ret

0000198c <vector_memcpy_segmented_e8m2>:
    198c: 93 08 00 01  	addi	a7, zero, 16
    1990: 6f 00 c0 00  	j	0x199c <.LBB29_2>

00001994 <.LBB29_1>:
    1994: 93 b6 12 00  	seqz	a3, t0
    1998: 63 9e 06 04  	bnez	a3, 0x19f4 <.LBB29_6>

0000199c <.LBB29_2>:
    199c: d7 72 15 04  	<unknown>
    19a0: e3 8a 02 fe  	beqz	t0, 0x1994 <.LBB29_1>
    19a4: 07 80 05 62  	<unknown>
    19a8: 83 27 06 00  	lw	a5, 0(a2)
    19ac: 27 80 07 02  	<unknown>
    19b0: 83 27 46 00  	lw	a5, 4(a2)
    19b4: 27 81 07 02  	<unknown>
    19b8: 83 27 86 00  	lw	a5, 8(a2)
    19bc: 27 82 07 02  	<unknown>
    19c0: 03 28 c6 00  	lw	a6, 12(a2)
    19c4: 93 07 00 00  	mv	a5, zero
    19c8: 27 03 08 02  	<unknown>
    19cc: 13 98 22 00  	slli	a6, t0, 2

000019d0 <.LBB29_4>:
    19d0: b3 06 f6 00  	add	a3, a2, a5
    19d4: 03 a7 06 00  	lw	a4, 0(a3)
    19d8: 33 07 57 00  	add	a4, a4, t0
    19dc: 93 87 47 00  	addi	a5, a5, 4
    19e0: 23 a0 e6 00  	sw	a4, 0(a3)
    19e4: e3 96 17 ff  	bne	a5, a7, 0x19d0 <.LBB29_4>
    19e8: b3 85 05 01  	add	a1, a1, a6
    19ec: 33 05 55 40  	sub	a0, a0, t0
    19f0: 6f f0 5f fa  	j	0x1994 <.LBB29_1>

000019f4 <.LBB29_6>:
    19f4: 67 80 00 00  	ret

000019f8 <vector_memcpy_segmented_e16m2>:
    19f8: 93 08 00 01  	addi	a7, zero, 16
    19fc: 6f 00 c0 00  	j	0x1a08 <.LBB30_2>

00001a00 <.LBB30_1>:
    1a00: 93 b6 12 00  	seqz	a3, t0
    1a04: 63 92 06 06  	bnez	a3, 0x1a68 <.LBB30_6>

00001a08 <.LBB30_2>:
    1a08: d7 72 95 04  	<unknown>
    1a0c: e3 8a 02 fe  	beqz	t0, 0x1a00 <.LBB30_1>
    1a10: 07 d0 05 62  	<unknown>
    1a14: 83 27 06 00  	lw	a5, 0(a2)
    1a18: 27 d0 07 02  	<unknown>
    1a1c: 83 27 46 00  	lw	a5, 4(a2)
    1a20: 27 d1 07 02  	<unknown>
    1a24: 83 27 86 00  	lw	a5, 8(a2)
    1a28: 27 d2 07 02  	<unknown>
    1a2c: 03 28 c6 00  	lw	a6, 12(a2)
    1a30: 93 07 00 00  	mv	a5, zero
    1a34: 27 53 08 02  	<unknown>
    1a38: 13 98 22 00  	slli	a6, t0, 2

00001a3c <.LBB30_4>:
    1a3c: b3 06 f6 00  	add	a3, a2, a5
    1a40: 03 a3 06 00  	lw	t1, 0(a3)
    1a44: 13 97 12 00  	slli	a4, t0, 1
    1a48: 33 07 e3 00  	add	a4, t1, a4
    1a4c: 93 87 47 00  	addi	a5, a5, 4
    1a50: 23 a0 e6 00  	sw	a4, 0(a3)
    1a54: e3 94 17 ff  	bne	a5, a7, 0x1a3c <.LBB30_4>
    1a58: 93 17 18 00  	slli	a5, a6, 1
    1a5c: b3 85 f5 00  	add	a1, a1, a5
    1a60: 33 05 55 40  	sub	a0, a0, t0
    1a64: 6f f0 df f9  	j	0x1a00 <.LBB30_1>

00001a68 <.LBB30_6>:
    1a68: 67 80 00 00  	ret

00001a6c <vector_memcpy_segmented_e32m2>:
    1a6c: 93 08 00 01  	addi	a7, zero, 16
    1a70: 6f 00 c0 00  	j	0x1a7c <.LBB31_2>

00001a74 <.LBB31_1>:
    1a74: 93 36 18 00  	seqz	a3, a6
    1a78: 63 90 06 06  	bnez	a3, 0x1ad8 <.LBB31_6>

00001a7c <.LBB31_2>:
    1a7c: 57 78 15 05  	<unknown>
    1a80: e3 0a 08 fe  	beqz	a6, 0x1a74 <.LBB31_1>
    1a84: 07 e0 05 62  	<unknown>
    1a88: 03 27 06 00  	lw	a4, 0(a2)
    1a8c: 27 60 07 02  	<unknown>
    1a90: 03 27 46 00  	lw	a4, 4(a2)
    1a94: 27 61 07 02  	<unknown>
    1a98: 03 27 86 00  	lw	a4, 8(a2)
    1a9c: 27 62 07 02  	<unknown>
    1aa0: 83 27 c6 00  	lw	a5, 12(a2)
    1aa4: 13 07 00 00  	mv	a4, zero
    1aa8: 27 e3 07 02  	<unknown>
    1aac: 93 12 28 00  	slli	t0, a6, 2

00001ab0 <.LBB31_4>:
    1ab0: b3 06 e6 00  	add	a3, a2, a4
    1ab4: 83 a7 06 00  	lw	a5, 0(a3)
    1ab8: b3 87 57 00  	add	a5, a5, t0
    1abc: 13 07 47 00  	addi	a4, a4, 4
    1ac0: 23 a0 f6 00  	sw	a5, 0(a3)
    1ac4: e3 16 17 ff  	bne	a4, a7, 0x1ab0 <.LBB31_4>
    1ac8: 13 97 22 00  	slli	a4, t0, 2
    1acc: b3 85 e5 00  	add	a1, a1, a4
    1ad0: 33 05 05 41  	sub	a0, a0, a6
    1ad4: 6f f0 1f fa  	j	0x1a74 <.LBB31_1>

00001ad8 <.LBB31_6>:
    1ad8: 67 80 00 00  	ret

00001adc <vector_memcpy_segmented_e32mf2>:
    1adc: 93 08 00 01  	addi	a7, zero, 16
    1ae0: 6f 00 c0 00  	j	0x1aec <.LBB32_2>

00001ae4 <.LBB32_1>:
    1ae4: 93 36 18 00  	seqz	a3, a6
    1ae8: 63 90 06 06  	bnez	a3, 0x1b48 <.LBB32_6>

00001aec <.LBB32_2>:
    1aec: 57 78 75 05  	<unknown>
    1af0: e3 0a 08 fe  	beqz	a6, 0x1ae4 <.LBB32_1>
    1af4: 07 e0 05 62  	<unknown>
    1af8: 03 27 06 00  	lw	a4, 0(a2)
    1afc: 27 60 07 02  	<unknown>
    1b00: 03 27 46 00  	lw	a4, 4(a2)
    1b04: a7 60 07 02  	<unknown>
    1b08: 03 27 86 00  	lw	a4, 8(a2)
    1b0c: 27 61 07 02  	<unknown>
    1b10: 83 27 c6 00  	lw	a5, 12(a2)
    1b14: 13 07 00 00  	mv	a4, zero
    1b18: a7 e1 07 02  	<unknown>
    1b1c: 93 12 28 00  	slli	t0, a6, 2

00001b20 <.LBB32_4>:
    1b20: b3 06 e6 00  	add	a3, a2, a4
    1b24: 83 a7 06 00  	lw	a5, 0(a3)
    1b28: b3 87 57 00  	add	a5, a5, t0
    1b2c: 13 07 47 00  	addi	a4, a4, 4
    1b30: 23 a0 f6 00  	sw	a5, 0(a3)
    1b34: e3 16 17 ff  	bne	a4, a7, 0x1b20 <.LBB32_4>
    1b38: 13 97 22 00  	slli	a4, t0, 2
    1b3c: b3 85 e5 00  	add	a1, a1, a4
    1b40: 33 05 05 41  	sub	a0, a0, a6
    1b44: 6f f0 1f fa  	j	0x1ae4 <.LBB32_1>

00001b48 <.LBB32_6>:
    1b48: 67 80 00 00  	ret

00001b4c <main>:
    1b4c: 13 01 01 ff  	addi	sp, sp, -16
    1b50: 23 26 11 00  	sw	ra, 12(sp)
    1b54: 23 24 81 00  	sw	s0, 8(sp)
    1b58: 37 15 00 00  	lui	a0, 1
    1b5c: 13 05 85 2e  	addi	a0, a0, 744
    1b60: 97 e0 ff ff  	auipc	ra, 1048574
    1b64: e7 80 00 4d  	jalr	1232(ra)
    1b68: 13 04 05 00  	mv	s0, a0
    1b6c: 37 15 00 00  	lui	a0, 1
    1b70: 13 05 85 31  	addi	a0, a0, 792
    1b74: 97 e0 ff ff  	auipc	ra, 1048574
    1b78: e7 80 80 5b  	jalr	1464(ra)
    1b7c: 13 15 15 00  	slli	a0, a0, 1
    1b80: 33 64 85 00  	or	s0, a0, s0
    1b84: 37 15 00 00  	lui	a0, 1
    1b88: 13 05 c5 34  	addi	a0, a0, 844
    1b8c: 97 e0 ff ff  	auipc	ra, 1048574
    1b90: e7 80 c0 6a  	jalr	1708(ra)
    1b94: 13 15 25 00  	slli	a0, a0, 2
    1b98: 33 64 a4 00  	or	s0, s0, a0
    1b9c: 37 15 00 00  	lui	a0, 1
    1ba0: 13 05 05 38  	addi	a0, a0, 896
    1ba4: 97 e0 ff ff  	auipc	ra, 1048574
    1ba8: e7 80 40 69  	jalr	1684(ra)
    1bac: 13 15 35 00  	slli	a0, a0, 3
    1bb0: 33 64 a4 00  	or	s0, s0, a0
    1bb4: 37 15 00 00  	lui	a0, 1
    1bb8: 13 05 45 3b  	addi	a0, a0, 948
    1bbc: 97 e0 ff ff  	auipc	ra, 1048574
    1bc0: e7 80 40 47  	jalr	1140(ra)
    1bc4: 13 15 45 00  	slli	a0, a0, 4
    1bc8: 33 64 a4 00  	or	s0, s0, a0
    1bcc: 37 15 00 00  	lui	a0, 1
    1bd0: 13 05 45 41  	addi	a0, a0, 1044
    1bd4: 97 e0 ff ff  	auipc	ra, 1048574
    1bd8: e7 80 80 55  	jalr	1368(ra)
    1bdc: 13 15 55 00  	slli	a0, a0, 5
    1be0: 33 64 a4 00  	or	s0, s0, a0
    1be4: 37 15 00 00  	lui	a0, 1
    1be8: 13 05 85 47  	addi	a0, a0, 1144
    1bec: 97 e0 ff ff  	auipc	ra, 1048574
    1bf0: e7 80 c0 64  	jalr	1612(ra)
    1bf4: 13 15 65 00  	slli	a0, a0, 6
    1bf8: 33 64 a4 00  	or	s0, s0, a0
    1bfc: 37 15 00 00  	lui	a0, 1
    1c00: 13 05 c5 4d  	addi	a0, a0, 1244
    1c04: 97 e0 ff ff  	auipc	ra, 1048574
    1c08: e7 80 40 63  	jalr	1588(ra)
    1c0c: 13 15 75 00  	slli	a0, a0, 7
    1c10: 33 64 a4 00  	or	s0, s0, a0
    1c14: 37 15 00 00  	lui	a0, 1
    1c18: 13 05 05 54  	addi	a0, a0, 1344
    1c1c: 97 e0 ff ff  	auipc	ra, 1048574
    1c20: e7 80 40 41  	jalr	1044(ra)
    1c24: 13 15 85 00  	slli	a0, a0, 8
    1c28: 33 64 a4 00  	or	s0, s0, a0
    1c2c: 37 15 00 00  	lui	a0, 1
    1c30: 13 05 45 60  	addi	a0, a0, 1540
    1c34: 97 e0 ff ff  	auipc	ra, 1048574
    1c38: e7 80 80 4f  	jalr	1272(ra)
    1c3c: 13 15 95 00  	slli	a0, a0, 9
    1c40: 33 64 a4 00  	or	s0, s0, a0
    1c44: 37 15 00 00  	lui	a0, 1
    1c48: 13 05 05 6d  	addi	a0, a0, 1744
    1c4c: 97 e0 ff ff  	auipc	ra, 1048574
    1c50: e7 80 c0 5e  	jalr	1516(ra)
    1c54: 13 15 a5 00  	slli	a0, a0, 10
    1c58: 33 64 a4 00  	or	s0, s0, a0
    1c5c: 37 15 00 00  	lui	a0, 1
    1c60: 13 05 05 7a  	addi	a0, a0, 1952
    1c64: 97 e0 ff ff  	auipc	ra, 1048574
    1c68: e7 80 40 5d  	jalr	1492(ra)
    1c6c: 13 15 b5 00  	slli	a0, a0, 11
    1c70: 33 64 a4 00  	or	s0, s0, a0
    1c74: 37 25 00 00  	lui	a0, 2
    1c78: 13 05 05 87  	addi	a0, a0, -1936
    1c7c: 97 f0 ff ff  	auipc	ra, 1048575
    1c80: e7 80 c0 84  	jalr	-1972(ra)
    1c84: 13 15 c5 00  	slli	a0, a0, 12
    1c88: 33 64 a4 00  	or	s0, s0, a0
    1c8c: 37 25 00 00  	lui	a0, 2
    1c90: 13 05 45 8b  	addi	a0, a0, -1868
    1c94: 97 f0 ff ff  	auipc	ra, 1048575
    1c98: e7 80 00 96  	jalr	-1696(ra)
    1c9c: 13 15 d5 00  	slli	a0, a0, 13
    1ca0: 33 64 a4 00  	or	s0, s0, a0
    1ca4: 37 25 00 00  	lui	a0, 2
    1ca8: 13 05 c5 8f  	addi	a0, a0, -1796
    1cac: 97 f0 ff ff  	auipc	ra, 1048575
    1cb0: e7 80 c0 a7  	jalr	-1412(ra)
    1cb4: 13 15 e5 00  	slli	a0, a0, 14
    1cb8: 33 64 a4 00  	or	s0, s0, a0
    1cbc: 37 25 00 00  	lui	a0, 2
    1cc0: 13 05 45 94  	addi	a0, a0, -1724
    1cc4: 97 f0 ff ff  	auipc	ra, 1048575
    1cc8: e7 80 40 a6  	jalr	-1436(ra)
    1ccc: 13 15 f5 00  	slli	a0, a0, 15
    1cd0: 33 64 a4 00  	or	s0, s0, a0
    1cd4: 37 25 00 00  	lui	a0, 2
    1cd8: 13 05 c5 98  	addi	a0, a0, -1652
    1cdc: 97 f0 ff ff  	auipc	ra, 1048575
    1ce0: e7 80 80 d5  	jalr	-680(ra)
    1ce4: 13 15 05 01  	slli	a0, a0, 16
    1ce8: 33 64 a4 00  	or	s0, s0, a0
    1cec: 37 25 00 00  	lui	a0, 2
    1cf0: 13 05 85 9f  	addi	a0, a0, -1544
    1cf4: 97 f0 ff ff  	auipc	ra, 1048575
    1cf8: e7 80 c0 f3  	jalr	-196(ra)
    1cfc: 13 15 15 01  	slli	a0, a0, 17
    1d00: 33 64 a4 00  	or	s0, s0, a0
    1d04: 37 25 00 00  	lui	a0, 2
    1d08: 13 05 c5 a6  	addi	a0, a0, -1428
    1d0c: 97 f0 ff ff  	auipc	ra, 1048575
    1d10: e7 80 40 10  	jalr	260(ra)
    1d14: 13 15 25 01  	slli	a0, a0, 18
    1d18: 33 64 a4 00  	or	s0, s0, a0
    1d1c: 37 25 00 00  	lui	a0, 2
    1d20: 13 05 c5 ad  	addi	a0, a0, -1316
    1d24: 97 f0 ff ff  	auipc	ra, 1048575
    1d28: e7 80 c0 0e  	jalr	236(ra)
    1d2c: 13 15 35 01  	slli	a0, a0, 19
    1d30: 33 65 a4 00  	or	a0, s0, a0
    1d34: b7 05 00 f0  	lui	a1, 983040
    1d38: 23 a0 a5 00  	sw	a0, 0(a1)
    1d3c: 03 24 81 00  	lw	s0, 8(sp)
    1d40: 83 20 c1 00  	lw	ra, 12(sp)
    1d44: 13 01 01 01  	addi	sp, sp, 16
    1d48: 67 80 00 00  	ret
