
/media/common/University/Edu/Year4_Masters/Project/riscv-v-lite/programs/build/llvm-13-rv32imv/vector_memcpy/vector_memcpy.elf:	file format elf32-littleriscv
Contents of section .text.init:
 0000 17010100 13010102 97100000 e78080a4  ................
 0010 6f000000                             o...
Contents of section .text:
 0014 630c0600 93060500 2380b600 1306f6ff  c.......#.......
 0024 93861600 e31a06fe 67800000 130101ef  ........g.......
 0034 23261110 23248110 23229110 23202111  #&..#$..#"..# !.
 0044 13090500 13040108 13050108 13060008  ................
 0054 93040008 93050000 97000000 e78080fb  ................
 0064 13050100 13060008 93050000 97000000  ................
 0074 e78040fa 13050000 b305a400 2380a500  ..@.........#...
 0084 13051500 e31a95fe 93040108 1305e006  ................
 0094 93050108 13060100 13040100 e7000900  ................
 00a4 13050000 9305d006 03c60400 83460400  .............F..
 00b4 631ed604 1376f50f 13041400 93841400  c....v..........
 00c4 13051500 e362b6fe 8345e106 13050000  .....b...E......
 00d4 63900504 9305f006 1305f0ff 13060100  c...............
 00e4 93968501 93d68641 63cc0600 13f7f50f  .......Ac.......
 00f4 3307e600 03470700 93851500 e30207fe  3....G..........
 0104 3325d500 13451500 6f008000 13050000  3%...E..o.......
 0114 03290110 83244110 03248110 8320c110  .)...$A..$... ..
 0124 13010111 67800000 130101df 23261120  ....g.......#&. 
 0134 23248120 23229120 23202121 13090500  #$. #". # !!....
 0144 13050110 13060010 13040110 93050000  ................
 0154 97000000 e78000ec 13050100 13060010  ................
 0164 93050000 97000000 e780c0ea 13050000  ................
 0174 93050008 2310a400 13051500 13042400  ....#.........$.
 0184 e31ab5fe 93040110 1305e006 93050110  ................
 0194 13060100 13040100 e7000900 13050000  ................
 01a4 b7050100 9385f5ff 1306d006 83d60400  ................
 01b4 03570400 6392e606 b376b500 13042400  .W..c....v....$.
 01c4 93842400 13051500 e3e2c6fe 8355c10d  ..$..........U..
 01d4 13050000 63940504 1305e006 b7050100  ....c...........
 01e4 9385f5ff 1306e007 93060100 3377b500  ............3w..
 01f4 636ee600 13051500 b377b500 93971700  cn.......w......
 0204 b387f600 83d70700 e38207fe 1335f707  .............5..
 0214 13451500 6f008000 13050000 03290120  .E..o........). 
 0224 83244120 03248120 8320c120 13010121  .$A .$. . . ...!
 0234 67800000 130101be 232e1140 232c8140  g.......#..@#,.@
 0244 232a9140 23282141 13090500 13050121  #*.@#(!A.......!
 0254 13060020 93040121 93050000 97000000  ... ...!........
 0264 e78040db 13050101 13060020 93050000  ..@........ ....
 0274 97000000 e78000da 13050000 93050008  ................
 0284 23a0a400 13051500 93844400 e31ab5fe  #.........D.....
 0294 93040121 1305e006 93050121 13060101  ...!.......!....
 02a4 13040101 e7000900 13050000 9305801b  ................
 02b4 3386a400 03260600 b306a400 83a60600  3....&..........
 02c4 6314d604 13054500 e314b5fe 8325811c  c.....E......%..
 02d4 13050000 639c0502 1305c11c 9306e006  ....c...........
 02e4 9305f007 13860600 638ab600 03270500  ........c....'..
 02f4 93061600 13054500 e30607fe 1305e007  ......E.........
 0304 3335c500 6f008000 13050000 03290141  35..o........).A
 0314 83244141 03248141 8320c141 13010142  .$AA.$.A. .A...B
 0324 67800000 13010181 2326117e 2324817e  g.......#&.~#$.~
 0334 2322917e 2320217f 130101fd 13090500  #".~# !.........
 0344 13050141 13060040 13040141 93050000  ...A...@...A....
 0354 97000000 e78000cc 13050101 13060040  ...............@
 0364 93050000 97000000 e780c0ca 93050000  ................
 0374 13050000 6f00c001 13060000 93861500  ....o...........
 0384 b3b5b600 3305b500 93850600 63020602  ....3.......c...
 0394 13963500 3306c400 2320b600 13664600  ..5.3...# ...fF.
 03a4 2320a600 e31a05fc 13b6f507 6ff01ffd  # ..........o...
 03b4 93040141 1305e006 93050141 13060101  ...A.......A....
 03c4 13040101 e7000900 93050000 13050000  ................
 03d4 6f00c001 13060000 93861500 b3b5b600  o...............
 03e4 3305b500 93850600 63060604 13963500  3.......c.....5.
 03f4 b386c400 13e74600 03270700 83a60600  ......F..'......
 0404 3306c400 93674600 03260600 83a70700  3....gF..&......
 0414 33c6c600 b346f700 3366d600 63180600  3....F..3f..c...
 0424 e31a05fa 13b6d506 6ff01ffb 13050000  ........o.......
 0434 6f008007 03254138 83250138 b3e5a500  o....%A8.%.8....
 0444 13050000 63920506 13050000 9306e006  ....c...........
 0454 9305e007 13060101 630a0500 13070000  ........c.......
 0464 b337a000 638a0700 6f00c003 13b7f607  .7..c...o.......
 0474 b3b7d500 63980702 93871600 93943700  ....c.........7.
 0484 b3049600 03a40400 93e44400 83a40400  ..........D.....
 0494 b3b6d700 b3649400 3305d500 93860700  .....d..3.......
 04a4 e38c04fa 13451700 13010103 0329017e  .....E.......).~
 04b4 8324417e 0324817e 8320c17e 1301017f  .$A~.$.~. .~....
 04c4 67800000 6f00c000 93b61600 63920602  g...o.......c...
 04d4 d7763504 e38a06fe 07840502 27040602  .v5.........'...
 04e4 b385d500 3306d600 3305d540 6ff0dffd  ....3...3..@o...
 04f4 67800000 6f00c000 93b61600 63940602  g...o.......c...
 0504 d776b504 e38a06fe 07d40502 27540602  .v..........'T..
 0514 13971600 b385e500 3306e600 3305d540  ........3...3..@
 0524 6ff09ffd 67800000 6f00c000 93b61600  o...g...o.......
 0534 63940602 d7763505 e38a06fe 07e40502  c....v5.........
 0544 27640602 13972600 b385e500 3306e600  'd....&.....3...
 0554 3305d540 6ff09ffd 67800000 6f00c000  3..@o...g...o...
 0564 93b61600 63940602 d7767505 e38a06fe  ....c....vu.....
 0574 87ec0502 a76c0602 13972600 b385e500  .....l....&.....
 0584 3306e600 3305d540 6ff09ffd 67800000  3...3..@o...g...
 0594 93084000 6f004002 07840502 27040602  ..@.o.@.....'...
 05a4 13080700 33050541 b3850501 33060601  ....3..A....3...
 05b4 93361700 639c0602 57773504 e30a07fe  .6..c...Ww5.....
 05c4 13182700 e37aa8fc 93070000 b386f500  ..'..z..........
 05d4 57703704 0784160b b306f600 93871700  Wp7.............
 05e4 2784160b e39417ff 6ff0dffb 67800000  '.......o...g...
 05f4 93088000 6f008002 07d40502 27540602  ....o.......'T..
 0604 13080700 33050541 93161800 b385d500  ....3..A........
 0614 3306d600 93361700 639c0602 5777b504  3....6..c...Ww..
 0624 e30a07fe 13182700 e378a8fc 93070000  ......'..x......
 0634 b386f500 5770b704 07d4160b b306f600  ....Wp..........
 0644 93872700 27d4160b e39417ff 6ff09ffb  ..'.'.......o...
 0654 67800000 93080001 6f008002 07e40502  g.......o.......
 0664 27640602 13080700 33050541 93162800  'd......3..A..(.
 0674 b385d500 3306d600 93361700 639c0602  ....3....6..c...
 0684 57773505 e30a07fe 13182700 e378a8fc  Ww5.......'..x..
 0694 93070000 b386f500 57703705 07e4160b  ........Wp7.....
 06a4 b306f600 93874700 27e4160b e39417ff  ......G.'.......
 06b4 6ff09ffb 67800000 93080001 6f008002  o...g.......o...
 06c4 87ec0502 a76c0602 13080700 33050541  .....l......3..A
 06d4 93162800 b385d500 3306d600 93361700  ..(.....3....6..
 06e4 639c0602 57777505 e30a07fe 13182700  c...Wwu.......'.
 06f4 e378a8fc 93070000 b386f500 57707705  .x..........Wpw.
 0704 87ec160b b306f600 93874700 a7ec160b  ..........G.....
 0714 e39417ff 6ff09ffb 67800000 130101f6  ....o...g.......
 0724 232e1108 232c8108 232a9108 23282109  #...#,..#*..#(!.
 0734 23263109 23244109 13090600 93840500  #&1.#$A.........
 0744 13040500 d7793004 13058100 13060008  .....y0.........
 0754 130a8100 93050000 97000000 e780808b  ................
 0764 638e0900 13050000 93451500 3306aa00  c........E..3...
 0774 13051500 2300b600 e398a9fe 57f03904  ....#.......W.9.
 0784 13058100 07040502 6f000002 07880402  ........o.......
 0794 27080902 b384a400 3309a900 3304a440  '.......3...3..@
 07a4 13351500 631e0500 57753404 e30a05fe  .5..c...Wu4.....
 07b4 e31e35fd 07888406 27088906 6ff09ffd  ..5.....'...o...
 07c4 032a8108 8329c108 03290109 83244109  .*...)...)...$A.
 07d4 03248109 8320c109 1301010a 67800000  .$... ......g...
 07e4 130101ee 232e1110 232c8110 232a9110  ....#...#,..#*..
 07f4 23282111 23263111 23244111 13090600  #(!.#&1.#$A.....
 0804 138a0500 13040500 d779b004 13058100  .........y......
 0814 13060010 93048100 93050000 97f0ffff  ................
 0824 e780407f 63800902 13050000 93151500  ..@.c...........
 0834 93c52500 2390b400 13051500 93842400  ..%.#.........$.
 0844 e396a9fe 57f0b904 13058100 07540502  ....W........T..
 0854 6f004002 07580a02 27580902 93151500  o.@..X..'X......
 0864 330aba00 3309b900 3304a440 13351500  3...3...3..@.5..
 0874 631e0500 5775b404 e30a05fe e31c35fd  c...Wu........5.
 0884 07588a06 27588906 6ff05ffd 032a8110  .X..'X..o._..*..
 0894 8329c110 03290111 83244111 03248111  .)...)...$A..$..
 08a4 8320c111 13010112 67800000 130101de  . ......g.......
 08b4 232e1120 232c8120 232a9120 23282121  #.. #,. #*. #(!!
 08c4 23263121 23244121 13090600 93840500  #&1!#$A!........
 08d4 13040500 d7793005 13058100 13060020  .....y0........ 
 08e4 130a8100 93050000 97f0ffff e7808072  ...............r
 08f4 63820902 13050000 93850900 13464500  c............FE.
 0904 b306aa00 23a0c600 9385f5ff 13054500  ....#.........E.
 0914 e39605fe 57f03905 13058100 07640502  ....W.9......d..
 0924 6f004002 07e80402 27680902 93152500  o.@.....'h....%.
 0934 b384b400 3309b900 3304a440 13351500  ....3...3..@.5..
 0944 631e0500 57753405 e30a05fe e31c35fd  c...Wu4.......5.
 0954 07e88406 27688906 6ff05ffd 032a8120  ....'h..o._..*. 
 0964 8329c120 03290121 83244121 03248121  .). .).!.$A!.$.!
 0974 8320c121 13010122 67800000 130101de  . .!..."g.......
 0984 232e1120 232c8120 232a9120 23282121  #.. #,. #*. #(!!
 0994 23263121 23244121 13090600 93840500  #&1!#$A!........
 09a4 13040500 d7797005 13058100 13060020  .....yp........ 
 09b4 130a8100 93050000 97f0ffff e7808065  ...............e
 09c4 63820902 13050000 93850900 13464500  c............FE.
 09d4 b306aa00 23a0c600 9385f5ff 13054500  ....#.........E.
 09e4 e39605fe 57f07905 13058100 876c0502  ....W.y......l..
 09f4 6f004002 07ed0402 276d0902 93152500  o.@.....'m....%.
 0a04 b384b400 3309b900 3304a440 13351500  ....3...3..@.5..
 0a14 631e0500 57757405 e30a05fe e31c35fd  c...Wut.......5.
 0a24 07ed9407 276d9907 6ff05ffd 032a8120  ....'m..o._..*. 
 0a34 8329c120 03290121 83244121 03248121  .). .).!.$A!.$.!
 0a44 8320c121 13010122 67800000 130101ff  . .!..."g.......
 0a54 23261100 23248100 37050000 1305854c  #&..#$..7......L
 0a64 97f0ffff e780c05c 13040500 37050000  .......\....7...
 0a74 1305854f 97f0ffff e780406b 13151500  ...O......@k....
 0a84 33648500 37050000 1305c552 97f0ffff  3d..7......R....
 0a94 e780807a 13152500 3364a400 37050000  ...z..%.3d..7...
 0aa4 13050556 97f0ffff e7800079 13153500  ...V.......y..5.
 0ab4 3364a400 37050000 13054559 97f0ffff  3d..7.....EY....
 0ac4 e7800057 13154500 3364a400 37050000  ...W..E.3d..7...
 0ad4 1305455f 97f0ffff e7804065 13155500  ..E_......@e..U.
 0ae4 3364a400 37050000 13058565 97f0ffff  3d..7......e....
 0af4 e7808074 13156500 3364a400 37050000  ...t..e.3d..7...
 0b04 1305c56b 97f0ffff e7800073 13157500  ...k.......s..u.
 0b14 3364a400 37050000 13050572 97f0ffff  3d..7......r....
 0b24 e7800051 13158500 3364a400 37050000  ...Q....3d..7...
 0b34 1305457e 97f0ffff e780405f 13159500  ..E~......@_....
 0b44 3364a400 37150000 1305058b 97f0ffff  3d..7...........
 0b54 e780806e 1315a500 3364a400 37150000  ...n....3d..7...
 0b64 13050598 97f0ffff e780006d 1315b500  ...........m....
 0b74 3365a400 b70500f0 23a0a500 03248100  3e......#....$..
 0b84 8320c100 13010101 67800000           . ......g...
Contents of section .comment:
 0000 5562756e 74752063 6c616e67 20766572  Ubuntu clang ver
 0010 73696f6e 2031332e 302e312d 2b2b3230  sion 13.0.1-++20
 0020 32323031 32303131 30393234 2b373565  220120110924+75e
 0030 33336637 31633264 612d317e 65787031  33f71c2da-1~exp1
 0040 7e323032 32303132 30323331 3030312e  ~20220120231001.
 0050 3538004c 696e6b65 723a2055 62756e74  58.Linker: Ubunt
 0060 75204c4c 44203133 2e302e31 0000      u LLD 13.0.1..
Contents of section .riscv.attributes:
 0000 41320000 00726973 63760001 28000000  A2...riscv..(...
 0010 04100572 76333269 3270305f 6d327030  ...rv32i2p0_m2p0
 0020 5f763070 31305f7a 766c7373 65673070  _v0p10_zvlsseg0p
 0030 313000                               10.
Contents of section .symtab:
 0000 00000000 00000000 00000000 00000000  ................
 0010 01000000 00000000 00000000 00000100  ................
 0020 07000000 00000000 00000000 00000100  ................
 0030 13000000 10000000 00000000 00000100  ................
 0040 17000000 00000000 00000000 0400f1ff  ................
 0050 2c000000 2c000000 00000000 00000200  ,...,...........
 0060 34000000 1c000000 00000000 00000200  4...............
 0070 3c000000 7c000000 00000000 00000200  <...|...........
 0080 44000000 ac000000 00000000 00000200  D...............
 0090 4c000000 10010000 00000000 00000200  L...............
 00a0 55000000 14010000 00000000 00000200  U...............
 00b0 5e000000 e4000000 00000000 00000200  ^...............
 00c0 66000000 04010000 00000000 00000200  f...............
 00d0 6e000000 78010000 00000000 00000200  n...x...........
 00e0 76000000 b0010000 00000000 00000200  v...............
 00f0 7e000000 1c020000 00000000 00000200  ~...............
 0100 87000000 20020000 00000000 00000200  .... ...........
 0110 90000000 f0010000 00000000 00000200  ................
 0120 98000000 10020000 00000000 00000200  ................
 0130 a0000000 84020000 00000000 00000200  ................
 0140 a8000000 b4020000 00000000 00000200  ................
 0150 b0000000 0c030000 00000000 00000200  ................
 0160 b9000000 10030000 00000000 00000200  ................
 0170 c2000000 e8020000 00000000 00000200  ................
 0180 ca000000 00030000 00000000 00000200  ................
 0190 d2000000 94030000 00000000 00000200  ................
 01a0 da000000 7c030000 00000000 00000200  ....|...........
 01b0 e2000000 80030000 00000000 00000200  ................
 01c0 ea000000 b4030000 00000000 00000200  ................
 01d0 f2000000 f0030000 00000000 00000200  ................
 01e0 fa000000 d8030000 00000000 00000200  ................
 01f0 02010000 dc030000 00000000 00000200  ................
 0200 0a010000 38040000 00000000 00000200  ....8...........
 0210 13010000 30040000 00000000 00000200  ....0...........
 0220 1c010000 ac040000 00000000 00000200  ................
 0230 25010000 5c040000 00000000 00000200  %...\...........
 0240 2e010000 70040000 00000000 00000200  ....p...........
 0250 37010000 7c040000 00000000 00000200  7...|...........
 0260 40010000 a8040000 00000000 00000200  @...............
 0270 49010000 d4040000 00000000 00000200  I...............
 0280 51010000 cc040000 00000000 00000200  Q...............
 0290 59010000 f4040000 00000000 00000200  Y...............
 02a0 61010000 04050000 00000000 00000200  a...............
 02b0 69010000 fc040000 00000000 00000200  i...............
 02c0 71010000 28050000 00000000 00000200  q...(...........
 02d0 79010000 38050000 00000000 00000200  y...8...........
 02e0 81010000 30050000 00000000 00000200  ....0...........
 02f0 89010000 5c050000 00000000 00000200  ....\...........
 0300 91010000 6c050000 00000000 00000200  ....l...........
 0310 99010000 64050000 00000000 00000200  ....d...........
 0320 a1010000 90050000 00000000 00000200  ................
 0330 a9010000 bc050000 00000000 00000200  ................
 0340 b1010000 9c050000 00000000 00000200  ................
 0350 b9010000 a8050000 00000000 00000200  ................
 0360 c1010000 b4050000 00000000 00000200  ................
 0370 c9010000 f0050000 00000000 00000200  ................
 0380 d1010000 d0050000 00000000 00000200  ................
 0390 d9010000 20060000 00000000 00000200  .... ...........
 03a0 e2010000 fc050000 00000000 00000200  ................
 03b0 eb010000 08060000 00000000 00000200  ................
 03c0 f4010000 18060000 00000000 00000200  ................
 03d0 fd010000 54060000 00000000 00000200  ....T...........
 03e0 06020000 34060000 00000000 00000200  ....4...........
 03f0 0f020000 84060000 00000000 00000200  ................
 0400 18020000 60060000 00000000 00000200  ....`...........
 0410 21020000 6c060000 00000000 00000200  !...l...........
 0420 2a020000 7c060000 00000000 00000200  *...|...........
 0430 33020000 b8060000 00000000 00000200  3...............
 0440 3c020000 98060000 00000000 00000200  <...............
 0450 45020000 e8060000 00000000 00000200  E...............
 0460 4e020000 c4060000 00000000 00000200  N...............
 0470 57020000 d0060000 00000000 00000200  W...............
 0480 60020000 e0060000 00000000 00000200  `...............
 0490 69020000 1c070000 00000000 00000200  i...............
 04a0 72020000 fc060000 00000000 00000200  r...............
 04b0 7b020000 80070000 00000000 00000200  {...............
 04c0 84020000 6c070000 00000000 00000200  ....l...........
 04d0 8d020000 ac070000 00000000 00000200  ................
 04e0 96020000 90070000 00000000 00000200  ................
 04f0 9f020000 98070000 00000000 00000200  ................
 0500 a8020000 a4070000 00000000 00000200  ................
 0510 b1020000 c4070000 00000000 00000200  ................
 0520 bb020000 48080000 00000000 00000200  ....H...........
 0530 c4020000 30080000 00000000 00000200  ....0...........
 0540 cd020000 78080000 00000000 00000200  ....x...........
 0550 d6020000 58080000 00000000 00000200  ....X...........
 0560 df020000 60080000 00000000 00000200  ....`...........
 0570 e8020000 70080000 00000000 00000200  ....p...........
 0580 f1020000 90080000 00000000 00000200  ................
 0590 fb020000 18090000 00000000 00000200  ................
 05a0 04030000 00090000 00000000 00000200  ................
 05b0 0d030000 48090000 00000000 00000200  ....H...........
 05c0 16030000 28090000 00000000 00000200  ....(...........
 05d0 1f030000 30090000 00000000 00000200  ....0...........
 05e0 28030000 40090000 00000000 00000200  (...@...........
 05f0 31030000 60090000 00000000 00000200  1...`...........
 0600 3b030000 e8090000 00000000 00000200  ;...............
 0610 44030000 d0090000 00000000 00000200  D...............
 0620 4d030000 180a0000 00000000 00000200  M...............
 0630 56030000 f8090000 00000000 00000200  V...............
 0640 5f030000 000a0000 00000000 00000200  _...............
 0650 68030000 100a0000 00000000 00000200  h...............
 0660 71030000 300a0000 00000000 00000200  q...0...........
 0670 7b030000 00000100 00000000 1000f1ff  {...............
 0680 80030000 500a0000 40010000 12000200  ....P...@.......
 0690 85030000 14000000 1c000000 12000200  ................
 06a0 8c030000 30000000 fc000000 12000200  ....0...........
 06b0 aa030000 2c010000 0c010000 12000200  ....,...........
 06c0 c9030000 38020000 f0000000 12000200  ....8...........
 06d0 e8030000 28030000 a0010000 12000200  ....(...........
 06e0 07040000 c8040000 30000000 12000200  ........0.......
 06f0 26040000 f8040000 34000000 12000200  &.......4.......
 0700 46040000 2c050000 34000000 12000200  F...,...4.......
 0710 66040000 60050000 34000000 12000200  f...`...4.......
 0720 87040000 94050000 60000000 12000200  ........`.......
 0730 a2040000 f4050000 64000000 12000200  ........d.......
 0740 be040000 58060000 64000000 12000200  ....X...d.......
 0750 da040000 bc060000 64000000 12000200  ........d.......
 0760 f7040000 20070000 c4000000 12000200  .... ...........
 0770 12050000 e4070000 cc000000 12000200  ................
 0780 2e050000 b0080000 d0000000 12000200  ................
 0790 4a050000 80090000 d0000000 12000200  J...............
Contents of section .shstrtab:
 0000 002e7465 78742e69 6e697400 2e746578  ..text.init..tex
 0010 74002e63 6f6d6d65 6e74002e 72697363  t..comment..risc
 0020 762e6174 74726962 75746573 002e7379  v.attributes..sy
 0030 6d746162 002e7368 73747274 6162002e  mtab..shstrtab..
 0040 73747274 616200                      strtab.
Contents of section .strtab:
 0000 00656e74 7279002e 4c706372 656c5f68  .entry..Lpcrel_h
 0010 69300065 6e640074 6573745f 76656374  i0.end.test_vect
 0020 6f725f6d 656d6370 792e6300 2e4c4242  or_memcpy.c..LBB
 0030 305f3300 2e4c4242 305f3200 2e4c4242  0_3..LBB0_2..LBB
 0040 315f3100 2e4c4242 315f3300 2e4c4242  1_1..LBB1_3..LBB
 0050 315f3130 002e4c42 42315f31 31002e4c  1_10..LBB1_11..L
 0060 4242315f 37002e4c 4242315f 39002e4c  BB1_7..LBB1_9..L
 0070 4242325f 31002e4c 4242325f 33002e4c  BB2_1..LBB2_3..L
 0080 4242325f 3130002e 4c424232 5f313100  BB2_10..LBB2_11.
 0090 2e4c4242 325f3700 2e4c4242 325f3900  .LBB2_7..LBB2_9.
 00a0 2e4c4242 335f3100 2e4c4242 335f3300  .LBB3_1..LBB3_3.
 00b0 2e4c4242 335f3130 002e4c42 42335f31  .LBB3_10..LBB3_1
 00c0 31002e4c 4242335f 37002e4c 4242335f  1..LBB3_7..LBB3_
 00d0 39002e4c 4242345f 33002e4c 4242345f  9..LBB4_3..LBB4_
 00e0 31002e4c 4242345f 32002e4c 4242345f  1..LBB4_2..LBB4_
 00f0 35002e4c 4242345f 38002e4c 4242345f  5..LBB4_8..LBB4_
 0100 36002e4c 4242345f 37002e4c 4242345f  6..LBB4_7..LBB4_
 0110 3132002e 4c424234 5f313100 2e4c4242  12..LBB4_11..LBB
 0120 345f3139 002e4c42 42345f31 34002e4c  4_19..LBB4_14..L
 0130 4242345f 3136002e 4c424234 5f313700  BB4_16..LBB4_17.
 0140 2e4c4242 345f3138 002e4c42 42355f32  .LBB4_18..LBB5_2
 0150 002e4c42 42355f31 002e4c42 42355f34  ..LBB5_1..LBB5_4
 0160 002e4c42 42365f32 002e4c42 42365f31  ..LBB6_2..LBB6_1
 0170 002e4c42 42365f34 002e4c42 42375f32  ..LBB6_4..LBB7_2
 0180 002e4c42 42375f31 002e4c42 42375f34  ..LBB7_1..LBB7_4
 0190 002e4c42 42385f32 002e4c42 42385f31  ..LBB8_2..LBB8_1
 01a0 002e4c42 42385f34 002e4c42 42395f34  ..LBB8_4..LBB9_4
 01b0 002e4c42 42395f31 002e4c42 42395f32  ..LBB9_1..LBB9_2
 01c0 002e4c42 42395f33 002e4c42 42395f38  ..LBB9_3..LBB9_8
 01d0 002e4c42 42395f37 002e4c42 4231305f  ..LBB9_7..LBB10_
 01e0 34002e4c 42423130 5f31002e 4c424231  4..LBB10_1..LBB1
 01f0 305f3200 2e4c4242 31305f33 002e4c42  0_2..LBB10_3..LB
 0200 4231305f 38002e4c 42423130 5f37002e  B10_8..LBB10_7..
 0210 4c424231 315f3400 2e4c4242 31315f31  LBB11_4..LBB11_1
 0220 002e4c42 4231315f 32002e4c 42423131  ..LBB11_2..LBB11
 0230 5f33002e 4c424231 315f3800 2e4c4242  _3..LBB11_8..LBB
 0240 31315f37 002e4c42 4231325f 34002e4c  11_7..LBB12_4..L
 0250 42423132 5f31002e 4c424231 325f3200  BB12_1..LBB12_2.
 0260 2e4c4242 31325f33 002e4c42 4231325f  .LBB12_3..LBB12_
 0270 38002e4c 42423132 5f37002e 4c424231  8..LBB12_7..LBB1
 0280 335f3300 2e4c4242 31335f32 002e4c42  3_3..LBB13_2..LB
 0290 4231335f 37002e4c 42423133 5f34002e  B13_7..LBB13_4..
 02a0 4c424231 335f3500 2e4c4242 31335f36  LBB13_5..LBB13_6
 02b0 002e4c42 4231335f 3130002e 4c424231  ..LBB13_10..LBB1
 02c0 345f3300 2e4c4242 31345f32 002e4c42  4_3..LBB14_2..LB
 02d0 4231345f 37002e4c 42423134 5f34002e  B14_7..LBB14_4..
 02e0 4c424231 345f3500 2e4c4242 31345f36  LBB14_5..LBB14_6
 02f0 002e4c42 4231345f 3130002e 4c424231  ..LBB14_10..LBB1
 0300 355f3300 2e4c4242 31355f32 002e4c42  5_3..LBB15_2..LB
 0310 4231355f 37002e4c 42423135 5f34002e  B15_7..LBB15_4..
 0320 4c424231 355f3500 2e4c4242 31355f36  LBB15_5..LBB15_6
 0330 002e4c42 4231355f 3130002e 4c424231  ..LBB15_10..LBB1
 0340 365f3300 2e4c4242 31365f32 002e4c42  6_3..LBB16_2..LB
 0350 4231365f 37002e4c 42423136 5f34002e  B16_7..LBB16_4..
 0360 4c424231 365f3500 2e4c4242 31365f36  LBB16_5..LBB16_6
 0370 002e4c42 4231365f 3130005f 5f737000  ..LBB16_10.__sp.
 0380 6d61696e 006d656d 73657400 76656374  main.memset.vect
 0390 6f725f6d 656d6370 795f6861 726e6573  or_memcpy_harnes
 03a0 735f7569 6e74385f 74007665 63746f72  s_uint8_t.vector
 03b0 5f6d656d 6370795f 6861726e 6573735f  _memcpy_harness_
 03c0 75696e74 31365f74 00766563 746f725f  uint16_t.vector_
 03d0 6d656d63 70795f68 61726e65 73735f75  memcpy_harness_u
 03e0 696e7433 325f7400 76656374 6f725f6d  int32_t.vector_m
 03f0 656d6370 795f6861 726e6573 735f7569  emcpy_harness_ui
 0400 6e743634 5f740076 6563746f 725f6d65  nt64_t.vector_me
 0410 6d637079 5f756e69 745f7374 72696465  mcpy_unit_stride
 0420 5f65386d 38007665 63746f72 5f6d656d  _e8m8.vector_mem
 0430 6370795f 756e6974 5f737472 6964655f  cpy_unit_stride_
 0440 6531366d 38007665 63746f72 5f6d656d  e16m8.vector_mem
 0450 6370795f 756e6974 5f737472 6964655f  cpy_unit_stride_
 0460 6533326d 38007665 63746f72 5f6d656d  e32m8.vector_mem
 0470 6370795f 756e6974 5f737472 6964655f  cpy_unit_stride_
 0480 6533326d 66320076 6563746f 725f6d65  e32mf2.vector_me
 0490 6d637079 5f737472 69646564 5f65386d  mcpy_strided_e8m
 04a0 38007665 63746f72 5f6d656d 6370795f  8.vector_memcpy_
 04b0 73747269 6465645f 6531366d 38007665  strided_e16m8.ve
 04c0 63746f72 5f6d656d 6370795f 73747269  ctor_memcpy_stri
 04d0 6465645f 6533326d 38007665 63746f72  ded_e32m8.vector
 04e0 5f6d656d 6370795f 73747269 6465645f  _memcpy_strided_
 04f0 6533326d 66320076 6563746f 725f6d65  e32mf2.vector_me
 0500 6d637079 5f696e64 65786564 5f65386d  mcpy_indexed_e8m
 0510 38007665 63746f72 5f6d656d 6370795f  8.vector_memcpy_
 0520 696e6465 7865645f 6531366d 38007665  indexed_e16m8.ve
 0530 63746f72 5f6d656d 6370795f 696e6465  ctor_memcpy_inde
 0540 7865645f 6533326d 38007665 63746f72  xed_e32m8.vector
 0550 5f6d656d 6370795f 696e6465 7865645f  _memcpy_indexed_
 0560 6533326d 663200                      e32mf2.

Disassembly of section .text.init:

00000000 <entry>:
       0: 17 01 01 00  	auipc	sp, 16
       4: 13 01 01 02  	addi	sp, sp, 32
       8: 97 10 00 00  	auipc	ra, 1
       c: e7 80 80 a4  	jalr	-1464(ra)

00000010 <end>:
      10: 6f 00 00 00  	j	0x10 <end>

Disassembly of section .text:

00000014 <memset>:
      14: 63 0c 06 00  	beqz	a2, 0x2c <.LBB0_3>
      18: 93 06 05 00  	mv	a3, a0

0000001c <.LBB0_2>:
      1c: 23 80 b6 00  	sb	a1, 0(a3)
      20: 13 06 f6 ff  	addi	a2, a2, -1
      24: 93 86 16 00  	addi	a3, a3, 1
      28: e3 1a 06 fe  	bnez	a2, 0x1c <.LBB0_2>

0000002c <.LBB0_3>:
      2c: 67 80 00 00  	ret

00000030 <vector_memcpy_harness_uint8_t>:
      30: 13 01 01 ef  	addi	sp, sp, -272
      34: 23 26 11 10  	sw	ra, 268(sp)
      38: 23 24 81 10  	sw	s0, 264(sp)
      3c: 23 22 91 10  	sw	s1, 260(sp)
      40: 23 20 21 11  	sw	s2, 256(sp)
      44: 13 09 05 00  	mv	s2, a0
      48: 13 04 01 08  	addi	s0, sp, 128
      4c: 13 05 01 08  	addi	a0, sp, 128
      50: 13 06 00 08  	addi	a2, zero, 128
      54: 93 04 00 08  	addi	s1, zero, 128
      58: 93 05 00 00  	mv	a1, zero
      5c: 97 00 00 00  	auipc	ra, 0
      60: e7 80 80 fb  	jalr	-72(ra)
      64: 13 05 01 00  	mv	a0, sp
      68: 13 06 00 08  	addi	a2, zero, 128
      6c: 93 05 00 00  	mv	a1, zero
      70: 97 00 00 00  	auipc	ra, 0
      74: e7 80 40 fa  	jalr	-92(ra)
      78: 13 05 00 00  	mv	a0, zero

0000007c <.LBB1_1>:
      7c: b3 05 a4 00  	add	a1, s0, a0
      80: 23 80 a5 00  	sb	a0, 0(a1)
      84: 13 05 15 00  	addi	a0, a0, 1
      88: e3 1a 95 fe  	bne	a0, s1, 0x7c <.LBB1_1>
      8c: 93 04 01 08  	addi	s1, sp, 128
      90: 13 05 e0 06  	addi	a0, zero, 110
      94: 93 05 01 08  	addi	a1, sp, 128
      98: 13 06 01 00  	mv	a2, sp
      9c: 13 04 01 00  	mv	s0, sp
      a0: e7 00 09 00  	jalr	s2
      a4: 13 05 00 00  	mv	a0, zero
      a8: 93 05 d0 06  	addi	a1, zero, 109

000000ac <.LBB1_3>:
      ac: 03 c6 04 00  	lbu	a2, 0(s1)
      b0: 83 46 04 00  	lbu	a3, 0(s0)
      b4: 63 1e d6 04  	bne	a2, a3, 0x110 <.LBB1_10>
      b8: 13 76 f5 0f  	andi	a2, a0, 255
      bc: 13 04 14 00  	addi	s0, s0, 1
      c0: 93 84 14 00  	addi	s1, s1, 1
      c4: 13 05 15 00  	addi	a0, a0, 1
      c8: e3 62 b6 fe  	bltu	a2, a1, 0xac <.LBB1_3>
      cc: 83 45 e1 06  	lbu	a1, 110(sp)
      d0: 13 05 00 00  	mv	a0, zero
      d4: 63 90 05 04  	bnez	a1, 0x114 <.LBB1_11>
      d8: 93 05 f0 06  	addi	a1, zero, 111
      dc: 13 05 f0 ff  	addi	a0, zero, -1
      e0: 13 06 01 00  	mv	a2, sp

000000e4 <.LBB1_7>:
      e4: 93 96 85 01  	slli	a3, a1, 24
      e8: 93 d6 86 41  	srai	a3, a3, 24
      ec: 63 cc 06 00  	bltz	a3, 0x104 <.LBB1_9>
      f0: 13 f7 f5 0f  	andi	a4, a1, 255
      f4: 33 07 e6 00  	add	a4, a2, a4
      f8: 03 47 07 00  	lbu	a4, 0(a4)
      fc: 93 85 15 00  	addi	a1, a1, 1
     100: e3 02 07 fe  	beqz	a4, 0xe4 <.LBB1_7>

00000104 <.LBB1_9>:
     104: 33 25 d5 00  	slt	a0, a0, a3
     108: 13 45 15 00  	xori	a0, a0, 1
     10c: 6f 00 80 00  	j	0x114 <.LBB1_11>

00000110 <.LBB1_10>:
     110: 13 05 00 00  	mv	a0, zero

00000114 <.LBB1_11>:
     114: 03 29 01 10  	lw	s2, 256(sp)
     118: 83 24 41 10  	lw	s1, 260(sp)
     11c: 03 24 81 10  	lw	s0, 264(sp)
     120: 83 20 c1 10  	lw	ra, 268(sp)
     124: 13 01 01 11  	addi	sp, sp, 272
     128: 67 80 00 00  	ret

0000012c <vector_memcpy_harness_uint16_t>:
     12c: 13 01 01 df  	addi	sp, sp, -528
     130: 23 26 11 20  	sw	ra, 524(sp)
     134: 23 24 81 20  	sw	s0, 520(sp)
     138: 23 22 91 20  	sw	s1, 516(sp)
     13c: 23 20 21 21  	sw	s2, 512(sp)
     140: 13 09 05 00  	mv	s2, a0
     144: 13 05 01 10  	addi	a0, sp, 256
     148: 13 06 00 10  	addi	a2, zero, 256
     14c: 13 04 01 10  	addi	s0, sp, 256
     150: 93 05 00 00  	mv	a1, zero
     154: 97 00 00 00  	auipc	ra, 0
     158: e7 80 00 ec  	jalr	-320(ra)
     15c: 13 05 01 00  	mv	a0, sp
     160: 13 06 00 10  	addi	a2, zero, 256
     164: 93 05 00 00  	mv	a1, zero
     168: 97 00 00 00  	auipc	ra, 0
     16c: e7 80 c0 ea  	jalr	-340(ra)
     170: 13 05 00 00  	mv	a0, zero
     174: 93 05 00 08  	addi	a1, zero, 128

00000178 <.LBB2_1>:
     178: 23 10 a4 00  	sh	a0, 0(s0)
     17c: 13 05 15 00  	addi	a0, a0, 1
     180: 13 04 24 00  	addi	s0, s0, 2
     184: e3 1a b5 fe  	bne	a0, a1, 0x178 <.LBB2_1>
     188: 93 04 01 10  	addi	s1, sp, 256
     18c: 13 05 e0 06  	addi	a0, zero, 110
     190: 93 05 01 10  	addi	a1, sp, 256
     194: 13 06 01 00  	mv	a2, sp
     198: 13 04 01 00  	mv	s0, sp
     19c: e7 00 09 00  	jalr	s2
     1a0: 13 05 00 00  	mv	a0, zero
     1a4: b7 05 01 00  	lui	a1, 16
     1a8: 93 85 f5 ff  	addi	a1, a1, -1
     1ac: 13 06 d0 06  	addi	a2, zero, 109

000001b0 <.LBB2_3>:
     1b0: 83 d6 04 00  	lhu	a3, 0(s1)
     1b4: 03 57 04 00  	lhu	a4, 0(s0)
     1b8: 63 92 e6 06  	bne	a3, a4, 0x21c <.LBB2_10>
     1bc: b3 76 b5 00  	and	a3, a0, a1
     1c0: 13 04 24 00  	addi	s0, s0, 2
     1c4: 93 84 24 00  	addi	s1, s1, 2
     1c8: 13 05 15 00  	addi	a0, a0, 1
     1cc: e3 e2 c6 fe  	bltu	a3, a2, 0x1b0 <.LBB2_3>
     1d0: 83 55 c1 0d  	lhu	a1, 220(sp)
     1d4: 13 05 00 00  	mv	a0, zero
     1d8: 63 94 05 04  	bnez	a1, 0x220 <.LBB2_11>
     1dc: 13 05 e0 06  	addi	a0, zero, 110
     1e0: b7 05 01 00  	lui	a1, 16
     1e4: 93 85 f5 ff  	addi	a1, a1, -1
     1e8: 13 06 e0 07  	addi	a2, zero, 126
     1ec: 93 06 01 00  	mv	a3, sp

000001f0 <.LBB2_7>:
     1f0: 33 77 b5 00  	and	a4, a0, a1
     1f4: 63 6e e6 00  	bltu	a2, a4, 0x210 <.LBB2_9>
     1f8: 13 05 15 00  	addi	a0, a0, 1
     1fc: b3 77 b5 00  	and	a5, a0, a1
     200: 93 97 17 00  	slli	a5, a5, 1
     204: b3 87 f6 00  	add	a5, a3, a5
     208: 83 d7 07 00  	lhu	a5, 0(a5)
     20c: e3 82 07 fe  	beqz	a5, 0x1f0 <.LBB2_7>

00000210 <.LBB2_9>:
     210: 13 35 f7 07  	sltiu	a0, a4, 127
     214: 13 45 15 00  	xori	a0, a0, 1
     218: 6f 00 80 00  	j	0x220 <.LBB2_11>

0000021c <.LBB2_10>:
     21c: 13 05 00 00  	mv	a0, zero

00000220 <.LBB2_11>:
     220: 03 29 01 20  	lw	s2, 512(sp)
     224: 83 24 41 20  	lw	s1, 516(sp)
     228: 03 24 81 20  	lw	s0, 520(sp)
     22c: 83 20 c1 20  	lw	ra, 524(sp)
     230: 13 01 01 21  	addi	sp, sp, 528
     234: 67 80 00 00  	ret

00000238 <vector_memcpy_harness_uint32_t>:
     238: 13 01 01 be  	addi	sp, sp, -1056
     23c: 23 2e 11 40  	sw	ra, 1052(sp)
     240: 23 2c 81 40  	sw	s0, 1048(sp)
     244: 23 2a 91 40  	sw	s1, 1044(sp)
     248: 23 28 21 41  	sw	s2, 1040(sp)
     24c: 13 09 05 00  	mv	s2, a0
     250: 13 05 01 21  	addi	a0, sp, 528
     254: 13 06 00 20  	addi	a2, zero, 512
     258: 93 04 01 21  	addi	s1, sp, 528
     25c: 93 05 00 00  	mv	a1, zero
     260: 97 00 00 00  	auipc	ra, 0
     264: e7 80 40 db  	jalr	-588(ra)
     268: 13 05 01 01  	addi	a0, sp, 16
     26c: 13 06 00 20  	addi	a2, zero, 512
     270: 93 05 00 00  	mv	a1, zero
     274: 97 00 00 00  	auipc	ra, 0
     278: e7 80 00 da  	jalr	-608(ra)
     27c: 13 05 00 00  	mv	a0, zero
     280: 93 05 00 08  	addi	a1, zero, 128

00000284 <.LBB3_1>:
     284: 23 a0 a4 00  	sw	a0, 0(s1)
     288: 13 05 15 00  	addi	a0, a0, 1
     28c: 93 84 44 00  	addi	s1, s1, 4
     290: e3 1a b5 fe  	bne	a0, a1, 0x284 <.LBB3_1>
     294: 93 04 01 21  	addi	s1, sp, 528
     298: 13 05 e0 06  	addi	a0, zero, 110
     29c: 93 05 01 21  	addi	a1, sp, 528
     2a0: 13 06 01 01  	addi	a2, sp, 16
     2a4: 13 04 01 01  	addi	s0, sp, 16
     2a8: e7 00 09 00  	jalr	s2
     2ac: 13 05 00 00  	mv	a0, zero
     2b0: 93 05 80 1b  	addi	a1, zero, 440

000002b4 <.LBB3_3>:
     2b4: 33 86 a4 00  	add	a2, s1, a0
     2b8: 03 26 06 00  	lw	a2, 0(a2)
     2bc: b3 06 a4 00  	add	a3, s0, a0
     2c0: 83 a6 06 00  	lw	a3, 0(a3)
     2c4: 63 14 d6 04  	bne	a2, a3, 0x30c <.LBB3_10>
     2c8: 13 05 45 00  	addi	a0, a0, 4
     2cc: e3 14 b5 fe  	bne	a0, a1, 0x2b4 <.LBB3_3>
     2d0: 83 25 81 1c  	lw	a1, 456(sp)
     2d4: 13 05 00 00  	mv	a0, zero
     2d8: 63 9c 05 02  	bnez	a1, 0x310 <.LBB3_11>
     2dc: 13 05 c1 1c  	addi	a0, sp, 460
     2e0: 93 06 e0 06  	addi	a3, zero, 110
     2e4: 93 05 f0 07  	addi	a1, zero, 127

000002e8 <.LBB3_7>:
     2e8: 13 86 06 00  	mv	a2, a3
     2ec: 63 8a b6 00  	beq	a3, a1, 0x300 <.LBB3_9>
     2f0: 03 27 05 00  	lw	a4, 0(a0)
     2f4: 93 06 16 00  	addi	a3, a2, 1
     2f8: 13 05 45 00  	addi	a0, a0, 4
     2fc: e3 06 07 fe  	beqz	a4, 0x2e8 <.LBB3_7>

00000300 <.LBB3_9>:
     300: 13 05 e0 07  	addi	a0, zero, 126
     304: 33 35 c5 00  	sltu	a0, a0, a2
     308: 6f 00 80 00  	j	0x310 <.LBB3_11>

0000030c <.LBB3_10>:
     30c: 13 05 00 00  	mv	a0, zero

00000310 <.LBB3_11>:
     310: 03 29 01 41  	lw	s2, 1040(sp)
     314: 83 24 41 41  	lw	s1, 1044(sp)
     318: 03 24 81 41  	lw	s0, 1048(sp)
     31c: 83 20 c1 41  	lw	ra, 1052(sp)
     320: 13 01 01 42  	addi	sp, sp, 1056
     324: 67 80 00 00  	ret

00000328 <vector_memcpy_harness_uint64_t>:
     328: 13 01 01 81  	addi	sp, sp, -2032
     32c: 23 26 11 7e  	sw	ra, 2028(sp)
     330: 23 24 81 7e  	sw	s0, 2024(sp)
     334: 23 22 91 7e  	sw	s1, 2020(sp)
     338: 23 20 21 7f  	sw	s2, 2016(sp)
     33c: 13 01 01 fd  	addi	sp, sp, -48
     340: 13 09 05 00  	mv	s2, a0
     344: 13 05 01 41  	addi	a0, sp, 1040
     348: 13 06 00 40  	addi	a2, zero, 1024
     34c: 13 04 01 41  	addi	s0, sp, 1040
     350: 93 05 00 00  	mv	a1, zero
     354: 97 00 00 00  	auipc	ra, 0
     358: e7 80 00 cc  	jalr	-832(ra)
     35c: 13 05 01 01  	addi	a0, sp, 16
     360: 13 06 00 40  	addi	a2, zero, 1024
     364: 93 05 00 00  	mv	a1, zero
     368: 97 00 00 00  	auipc	ra, 0
     36c: e7 80 c0 ca  	jalr	-852(ra)
     370: 93 05 00 00  	mv	a1, zero
     374: 13 05 00 00  	mv	a0, zero
     378: 6f 00 c0 01  	j	0x394 <.LBB4_3>

0000037c <.LBB4_1>:
     37c: 13 06 00 00  	mv	a2, zero

00000380 <.LBB4_2>:
     380: 93 86 15 00  	addi	a3, a1, 1
     384: b3 b5 b6 00  	sltu	a1, a3, a1
     388: 33 05 b5 00  	add	a0, a0, a1
     38c: 93 85 06 00  	mv	a1, a3
     390: 63 02 06 02  	beqz	a2, 0x3b4 <.LBB4_5>

00000394 <.LBB4_3>:
     394: 13 96 35 00  	slli	a2, a1, 3
     398: 33 06 c4 00  	add	a2, s0, a2
     39c: 23 20 b6 00  	sw	a1, 0(a2)
     3a0: 13 66 46 00  	ori	a2, a2, 4
     3a4: 23 20 a6 00  	sw	a0, 0(a2)
     3a8: e3 1a 05 fc  	bnez	a0, 0x37c <.LBB4_1>
     3ac: 13 b6 f5 07  	sltiu	a2, a1, 127
     3b0: 6f f0 1f fd  	j	0x380 <.LBB4_2>

000003b4 <.LBB4_5>:
     3b4: 93 04 01 41  	addi	s1, sp, 1040
     3b8: 13 05 e0 06  	addi	a0, zero, 110
     3bc: 93 05 01 41  	addi	a1, sp, 1040
     3c0: 13 06 01 01  	addi	a2, sp, 16
     3c4: 13 04 01 01  	addi	s0, sp, 16
     3c8: e7 00 09 00  	jalr	s2
     3cc: 93 05 00 00  	mv	a1, zero
     3d0: 13 05 00 00  	mv	a0, zero
     3d4: 6f 00 c0 01  	j	0x3f0 <.LBB4_8>

000003d8 <.LBB4_6>:
     3d8: 13 06 00 00  	mv	a2, zero

000003dc <.LBB4_7>:
     3dc: 93 86 15 00  	addi	a3, a1, 1
     3e0: b3 b5 b6 00  	sltu	a1, a3, a1
     3e4: 33 05 b5 00  	add	a0, a0, a1
     3e8: 93 85 06 00  	mv	a1, a3
     3ec: 63 06 06 04  	beqz	a2, 0x438 <.LBB4_12>

000003f0 <.LBB4_8>:
     3f0: 13 96 35 00  	slli	a2, a1, 3
     3f4: b3 86 c4 00  	add	a3, s1, a2
     3f8: 13 e7 46 00  	ori	a4, a3, 4
     3fc: 03 27 07 00  	lw	a4, 0(a4)
     400: 83 a6 06 00  	lw	a3, 0(a3)
     404: 33 06 c4 00  	add	a2, s0, a2
     408: 93 67 46 00  	ori	a5, a2, 4
     40c: 03 26 06 00  	lw	a2, 0(a2)
     410: 83 a7 07 00  	lw	a5, 0(a5)
     414: 33 c6 c6 00  	xor	a2, a3, a2
     418: b3 46 f7 00  	xor	a3, a4, a5
     41c: 33 66 d6 00  	or	a2, a2, a3
     420: 63 18 06 00  	bnez	a2, 0x430 <.LBB4_11>
     424: e3 1a 05 fa  	bnez	a0, 0x3d8 <.LBB4_6>
     428: 13 b6 d5 06  	sltiu	a2, a1, 109
     42c: 6f f0 1f fb  	j	0x3dc <.LBB4_7>

00000430 <.LBB4_11>:
     430: 13 05 00 00  	mv	a0, zero
     434: 6f 00 80 07  	j	0x4ac <.LBB4_19>

00000438 <.LBB4_12>:
     438: 03 25 41 38  	lw	a0, 900(sp)
     43c: 83 25 01 38  	lw	a1, 896(sp)
     440: b3 e5 a5 00  	or	a1, a1, a0
     444: 13 05 00 00  	mv	a0, zero
     448: 63 92 05 06  	bnez	a1, 0x4ac <.LBB4_19>
     44c: 13 05 00 00  	mv	a0, zero
     450: 93 06 e0 06  	addi	a3, zero, 110
     454: 93 05 e0 07  	addi	a1, zero, 126
     458: 13 06 01 01  	addi	a2, sp, 16

0000045c <.LBB4_14>:
     45c: 63 0a 05 00  	beqz	a0, 0x470 <.LBB4_16>
     460: 13 07 00 00  	mv	a4, zero
     464: b3 37 a0 00  	snez	a5, a0
     468: 63 8a 07 00  	beqz	a5, 0x47c <.LBB4_17>
     46c: 6f 00 c0 03  	j	0x4a8 <.LBB4_18>

00000470 <.LBB4_16>:
     470: 13 b7 f6 07  	sltiu	a4, a3, 127
     474: b3 b7 d5 00  	sltu	a5, a1, a3
     478: 63 98 07 02  	bnez	a5, 0x4a8 <.LBB4_18>

0000047c <.LBB4_17>:
     47c: 93 87 16 00  	addi	a5, a3, 1
     480: 93 94 37 00  	slli	s1, a5, 3
     484: b3 04 96 00  	add	s1, a2, s1
     488: 03 a4 04 00  	lw	s0, 0(s1)
     48c: 93 e4 44 00  	ori	s1, s1, 4
     490: 83 a4 04 00  	lw	s1, 0(s1)
     494: b3 b6 d7 00  	sltu	a3, a5, a3
     498: b3 64 94 00  	or	s1, s0, s1
     49c: 33 05 d5 00  	add	a0, a0, a3
     4a0: 93 86 07 00  	mv	a3, a5
     4a4: e3 8c 04 fa  	beqz	s1, 0x45c <.LBB4_14>

000004a8 <.LBB4_18>:
     4a8: 13 45 17 00  	xori	a0, a4, 1

000004ac <.LBB4_19>:
     4ac: 13 01 01 03  	addi	sp, sp, 48
     4b0: 03 29 01 7e  	lw	s2, 2016(sp)
     4b4: 83 24 41 7e  	lw	s1, 2020(sp)
     4b8: 03 24 81 7e  	lw	s0, 2024(sp)
     4bc: 83 20 c1 7e  	lw	ra, 2028(sp)
     4c0: 13 01 01 7f  	addi	sp, sp, 2032
     4c4: 67 80 00 00  	ret

000004c8 <vector_memcpy_unit_stride_e8m8>:
     4c8: 6f 00 c0 00  	j	0x4d4 <.LBB5_2>

000004cc <.LBB5_1>:
     4cc: 93 b6 16 00  	seqz	a3, a3
     4d0: 63 92 06 02  	bnez	a3, 0x4f4 <.LBB5_4>

000004d4 <.LBB5_2>:
     4d4: d7 76 35 04  	<unknown>
     4d8: e3 8a 06 fe  	beqz	a3, 0x4cc <.LBB5_1>
     4dc: 07 84 05 02  	<unknown>
     4e0: 27 04 06 02  	<unknown>
     4e4: b3 85 d5 00  	add	a1, a1, a3
     4e8: 33 06 d6 00  	add	a2, a2, a3
     4ec: 33 05 d5 40  	sub	a0, a0, a3
     4f0: 6f f0 df fd  	j	0x4cc <.LBB5_1>

000004f4 <.LBB5_4>:
     4f4: 67 80 00 00  	ret

000004f8 <vector_memcpy_unit_stride_e16m8>:
     4f8: 6f 00 c0 00  	j	0x504 <.LBB6_2>

000004fc <.LBB6_1>:
     4fc: 93 b6 16 00  	seqz	a3, a3
     500: 63 94 06 02  	bnez	a3, 0x528 <.LBB6_4>

00000504 <.LBB6_2>:
     504: d7 76 b5 04  	<unknown>
     508: e3 8a 06 fe  	beqz	a3, 0x4fc <.LBB6_1>
     50c: 07 d4 05 02  	<unknown>
     510: 27 54 06 02  	<unknown>
     514: 13 97 16 00  	slli	a4, a3, 1
     518: b3 85 e5 00  	add	a1, a1, a4
     51c: 33 06 e6 00  	add	a2, a2, a4
     520: 33 05 d5 40  	sub	a0, a0, a3
     524: 6f f0 9f fd  	j	0x4fc <.LBB6_1>

00000528 <.LBB6_4>:
     528: 67 80 00 00  	ret

0000052c <vector_memcpy_unit_stride_e32m8>:
     52c: 6f 00 c0 00  	j	0x538 <.LBB7_2>

00000530 <.LBB7_1>:
     530: 93 b6 16 00  	seqz	a3, a3
     534: 63 94 06 02  	bnez	a3, 0x55c <.LBB7_4>

00000538 <.LBB7_2>:
     538: d7 76 35 05  	<unknown>
     53c: e3 8a 06 fe  	beqz	a3, 0x530 <.LBB7_1>
     540: 07 e4 05 02  	<unknown>
     544: 27 64 06 02  	<unknown>
     548: 13 97 26 00  	slli	a4, a3, 2
     54c: b3 85 e5 00  	add	a1, a1, a4
     550: 33 06 e6 00  	add	a2, a2, a4
     554: 33 05 d5 40  	sub	a0, a0, a3
     558: 6f f0 9f fd  	j	0x530 <.LBB7_1>

0000055c <.LBB7_4>:
     55c: 67 80 00 00  	ret

00000560 <vector_memcpy_unit_stride_e32mf2>:
     560: 6f 00 c0 00  	j	0x56c <.LBB8_2>

00000564 <.LBB8_1>:
     564: 93 b6 16 00  	seqz	a3, a3
     568: 63 94 06 02  	bnez	a3, 0x590 <.LBB8_4>

0000056c <.LBB8_2>:
     56c: d7 76 75 05  	<unknown>
     570: e3 8a 06 fe  	beqz	a3, 0x564 <.LBB8_1>
     574: 87 ec 05 02  	<unknown>
     578: a7 6c 06 02  	<unknown>
     57c: 13 97 26 00  	slli	a4, a3, 2
     580: b3 85 e5 00  	add	a1, a1, a4
     584: 33 06 e6 00  	add	a2, a2, a4
     588: 33 05 d5 40  	sub	a0, a0, a3
     58c: 6f f0 9f fd  	j	0x564 <.LBB8_1>

00000590 <.LBB8_4>:
     590: 67 80 00 00  	ret

00000594 <vector_memcpy_strided_e8m8>:
     594: 93 08 40 00  	addi	a7, zero, 4
     598: 6f 00 40 02  	j	0x5bc <.LBB9_4>

0000059c <.LBB9_1>:
     59c: 07 84 05 02  	<unknown>
     5a0: 27 04 06 02  	<unknown>
     5a4: 13 08 07 00  	mv	a6, a4

000005a8 <.LBB9_2>:
     5a8: 33 05 05 41  	sub	a0, a0, a6
     5ac: b3 85 05 01  	add	a1, a1, a6
     5b0: 33 06 06 01  	add	a2, a2, a6

000005b4 <.LBB9_3>:
     5b4: 93 36 17 00  	seqz	a3, a4
     5b8: 63 9c 06 02  	bnez	a3, 0x5f0 <.LBB9_8>

000005bc <.LBB9_4>:
     5bc: 57 77 35 04  	<unknown>
     5c0: e3 0a 07 fe  	beqz	a4, 0x5b4 <.LBB9_3>
     5c4: 13 18 27 00  	slli	a6, a4, 2
     5c8: e3 7a a8 fc  	bgeu	a6, a0, 0x59c <.LBB9_1>
     5cc: 93 07 00 00  	mv	a5, zero

000005d0 <.LBB9_7>:
     5d0: b3 86 f5 00  	add	a3, a1, a5
     5d4: 57 70 37 04  	<unknown>
     5d8: 07 84 16 0b  	<unknown>
     5dc: b3 06 f6 00  	add	a3, a2, a5
     5e0: 93 87 17 00  	addi	a5, a5, 1
     5e4: 27 84 16 0b  	<unknown>
     5e8: e3 94 17 ff  	bne	a5, a7, 0x5d0 <.LBB9_7>
     5ec: 6f f0 df fb  	j	0x5a8 <.LBB9_2>

000005f0 <.LBB9_8>:
     5f0: 67 80 00 00  	ret

000005f4 <vector_memcpy_strided_e16m8>:
     5f4: 93 08 80 00  	addi	a7, zero, 8
     5f8: 6f 00 80 02  	j	0x620 <.LBB10_4>

000005fc <.LBB10_1>:
     5fc: 07 d4 05 02  	<unknown>
     600: 27 54 06 02  	<unknown>
     604: 13 08 07 00  	mv	a6, a4

00000608 <.LBB10_2>:
     608: 33 05 05 41  	sub	a0, a0, a6
     60c: 93 16 18 00  	slli	a3, a6, 1
     610: b3 85 d5 00  	add	a1, a1, a3
     614: 33 06 d6 00  	add	a2, a2, a3

00000618 <.LBB10_3>:
     618: 93 36 17 00  	seqz	a3, a4
     61c: 63 9c 06 02  	bnez	a3, 0x654 <.LBB10_8>

00000620 <.LBB10_4>:
     620: 57 77 b5 04  	<unknown>
     624: e3 0a 07 fe  	beqz	a4, 0x618 <.LBB10_3>
     628: 13 18 27 00  	slli	a6, a4, 2
     62c: e3 78 a8 fc  	bgeu	a6, a0, 0x5fc <.LBB10_1>
     630: 93 07 00 00  	mv	a5, zero

00000634 <.LBB10_7>:
     634: b3 86 f5 00  	add	a3, a1, a5
     638: 57 70 b7 04  	<unknown>
     63c: 07 d4 16 0b  	<unknown>
     640: b3 06 f6 00  	add	a3, a2, a5
     644: 93 87 27 00  	addi	a5, a5, 2
     648: 27 d4 16 0b  	<unknown>
     64c: e3 94 17 ff  	bne	a5, a7, 0x634 <.LBB10_7>
     650: 6f f0 9f fb  	j	0x608 <.LBB10_2>

00000654 <.LBB10_8>:
     654: 67 80 00 00  	ret

00000658 <vector_memcpy_strided_e32m8>:
     658: 93 08 00 01  	addi	a7, zero, 16
     65c: 6f 00 80 02  	j	0x684 <.LBB11_4>

00000660 <.LBB11_1>:
     660: 07 e4 05 02  	<unknown>
     664: 27 64 06 02  	<unknown>
     668: 13 08 07 00  	mv	a6, a4

0000066c <.LBB11_2>:
     66c: 33 05 05 41  	sub	a0, a0, a6
     670: 93 16 28 00  	slli	a3, a6, 2
     674: b3 85 d5 00  	add	a1, a1, a3
     678: 33 06 d6 00  	add	a2, a2, a3

0000067c <.LBB11_3>:
     67c: 93 36 17 00  	seqz	a3, a4
     680: 63 9c 06 02  	bnez	a3, 0x6b8 <.LBB11_8>

00000684 <.LBB11_4>:
     684: 57 77 35 05  	<unknown>
     688: e3 0a 07 fe  	beqz	a4, 0x67c <.LBB11_3>
     68c: 13 18 27 00  	slli	a6, a4, 2
     690: e3 78 a8 fc  	bgeu	a6, a0, 0x660 <.LBB11_1>
     694: 93 07 00 00  	mv	a5, zero

00000698 <.LBB11_7>:
     698: b3 86 f5 00  	add	a3, a1, a5
     69c: 57 70 37 05  	<unknown>
     6a0: 07 e4 16 0b  	<unknown>
     6a4: b3 06 f6 00  	add	a3, a2, a5
     6a8: 93 87 47 00  	addi	a5, a5, 4
     6ac: 27 e4 16 0b  	<unknown>
     6b0: e3 94 17 ff  	bne	a5, a7, 0x698 <.LBB11_7>
     6b4: 6f f0 9f fb  	j	0x66c <.LBB11_2>

000006b8 <.LBB11_8>:
     6b8: 67 80 00 00  	ret

000006bc <vector_memcpy_strided_e32mf2>:
     6bc: 93 08 00 01  	addi	a7, zero, 16
     6c0: 6f 00 80 02  	j	0x6e8 <.LBB12_4>

000006c4 <.LBB12_1>:
     6c4: 87 ec 05 02  	<unknown>
     6c8: a7 6c 06 02  	<unknown>
     6cc: 13 08 07 00  	mv	a6, a4

000006d0 <.LBB12_2>:
     6d0: 33 05 05 41  	sub	a0, a0, a6
     6d4: 93 16 28 00  	slli	a3, a6, 2
     6d8: b3 85 d5 00  	add	a1, a1, a3
     6dc: 33 06 d6 00  	add	a2, a2, a3

000006e0 <.LBB12_3>:
     6e0: 93 36 17 00  	seqz	a3, a4
     6e4: 63 9c 06 02  	bnez	a3, 0x71c <.LBB12_8>

000006e8 <.LBB12_4>:
     6e8: 57 77 75 05  	<unknown>
     6ec: e3 0a 07 fe  	beqz	a4, 0x6e0 <.LBB12_3>
     6f0: 13 18 27 00  	slli	a6, a4, 2
     6f4: e3 78 a8 fc  	bgeu	a6, a0, 0x6c4 <.LBB12_1>
     6f8: 93 07 00 00  	mv	a5, zero

000006fc <.LBB12_7>:
     6fc: b3 86 f5 00  	add	a3, a1, a5
     700: 57 70 77 05  	<unknown>
     704: 87 ec 16 0b  	<unknown>
     708: b3 06 f6 00  	add	a3, a2, a5
     70c: 93 87 47 00  	addi	a5, a5, 4
     710: a7 ec 16 0b  	<unknown>
     714: e3 94 17 ff  	bne	a5, a7, 0x6fc <.LBB12_7>
     718: 6f f0 9f fb  	j	0x6d0 <.LBB12_2>

0000071c <.LBB12_8>:
     71c: 67 80 00 00  	ret

00000720 <vector_memcpy_indexed_e8m8>:
     720: 13 01 01 f6  	addi	sp, sp, -160
     724: 23 2e 11 08  	sw	ra, 156(sp)
     728: 23 2c 81 08  	sw	s0, 152(sp)
     72c: 23 2a 91 08  	sw	s1, 148(sp)
     730: 23 28 21 09  	sw	s2, 144(sp)
     734: 23 26 31 09  	sw	s3, 140(sp)
     738: 23 24 41 09  	sw	s4, 136(sp)
     73c: 13 09 06 00  	mv	s2, a2
     740: 93 84 05 00  	mv	s1, a1
     744: 13 04 05 00  	mv	s0, a0
     748: d7 79 30 04  	<unknown>
     74c: 13 05 81 00  	addi	a0, sp, 8
     750: 13 06 00 08  	addi	a2, zero, 128
     754: 13 0a 81 00  	addi	s4, sp, 8
     758: 93 05 00 00  	mv	a1, zero
     75c: 97 00 00 00  	auipc	ra, 0
     760: e7 80 80 8b  	jalr	-1864(ra)
     764: 63 8e 09 00  	beqz	s3, 0x780 <.LBB13_3>
     768: 13 05 00 00  	mv	a0, zero

0000076c <.LBB13_2>:
     76c: 93 45 15 00  	xori	a1, a0, 1
     770: 33 06 aa 00  	add	a2, s4, a0
     774: 13 05 15 00  	addi	a0, a0, 1
     778: 23 00 b6 00  	sb	a1, 0(a2)
     77c: e3 98 a9 fe  	bne	s3, a0, 0x76c <.LBB13_2>

00000780 <.LBB13_3>:
     780: 57 f0 39 04  	<unknown>
     784: 13 05 81 00  	addi	a0, sp, 8
     788: 07 04 05 02  	<unknown>
     78c: 6f 00 00 02  	j	0x7ac <.LBB13_7>

00000790 <.LBB13_4>:
     790: 07 88 04 02  	<unknown>
     794: 27 08 09 02  	<unknown>

00000798 <.LBB13_5>:
     798: b3 84 a4 00  	add	s1, s1, a0
     79c: 33 09 a9 00  	add	s2, s2, a0
     7a0: 33 04 a4 40  	sub	s0, s0, a0

000007a4 <.LBB13_6>:
     7a4: 13 35 15 00  	seqz	a0, a0
     7a8: 63 1e 05 00  	bnez	a0, 0x7c4 <.LBB13_10>

000007ac <.LBB13_7>:
     7ac: 57 75 34 04  	<unknown>
     7b0: e3 0a 05 fe  	beqz	a0, 0x7a4 <.LBB13_6>
     7b4: e3 1e 35 fd  	bne	a0, s3, 0x790 <.LBB13_4>
     7b8: 07 88 84 06  	<unknown>
     7bc: 27 08 89 06  	<unknown>
     7c0: 6f f0 9f fd  	j	0x798 <.LBB13_5>

000007c4 <.LBB13_10>:
     7c4: 03 2a 81 08  	lw	s4, 136(sp)
     7c8: 83 29 c1 08  	lw	s3, 140(sp)
     7cc: 03 29 01 09  	lw	s2, 144(sp)
     7d0: 83 24 41 09  	lw	s1, 148(sp)
     7d4: 03 24 81 09  	lw	s0, 152(sp)
     7d8: 83 20 c1 09  	lw	ra, 156(sp)
     7dc: 13 01 01 0a  	addi	sp, sp, 160
     7e0: 67 80 00 00  	ret

000007e4 <vector_memcpy_indexed_e16m8>:
     7e4: 13 01 01 ee  	addi	sp, sp, -288
     7e8: 23 2e 11 10  	sw	ra, 284(sp)
     7ec: 23 2c 81 10  	sw	s0, 280(sp)
     7f0: 23 2a 91 10  	sw	s1, 276(sp)
     7f4: 23 28 21 11  	sw	s2, 272(sp)
     7f8: 23 26 31 11  	sw	s3, 268(sp)
     7fc: 23 24 41 11  	sw	s4, 264(sp)
     800: 13 09 06 00  	mv	s2, a2
     804: 13 8a 05 00  	mv	s4, a1
     808: 13 04 05 00  	mv	s0, a0
     80c: d7 79 b0 04  	<unknown>
     810: 13 05 81 00  	addi	a0, sp, 8
     814: 13 06 00 10  	addi	a2, zero, 256
     818: 93 04 81 00  	addi	s1, sp, 8
     81c: 93 05 00 00  	mv	a1, zero
     820: 97 f0 ff ff  	auipc	ra, 1048575
     824: e7 80 40 7f  	jalr	2036(ra)
     828: 63 80 09 02  	beqz	s3, 0x848 <.LBB14_3>
     82c: 13 05 00 00  	mv	a0, zero

00000830 <.LBB14_2>:
     830: 93 15 15 00  	slli	a1, a0, 1
     834: 93 c5 25 00  	xori	a1, a1, 2
     838: 23 90 b4 00  	sh	a1, 0(s1)
     83c: 13 05 15 00  	addi	a0, a0, 1
     840: 93 84 24 00  	addi	s1, s1, 2
     844: e3 96 a9 fe  	bne	s3, a0, 0x830 <.LBB14_2>

00000848 <.LBB14_3>:
     848: 57 f0 b9 04  	<unknown>
     84c: 13 05 81 00  	addi	a0, sp, 8
     850: 07 54 05 02  	<unknown>
     854: 6f 00 40 02  	j	0x878 <.LBB14_7>

00000858 <.LBB14_4>:
     858: 07 58 0a 02  	<unknown>
     85c: 27 58 09 02  	<unknown>

00000860 <.LBB14_5>:
     860: 93 15 15 00  	slli	a1, a0, 1
     864: 33 0a ba 00  	add	s4, s4, a1
     868: 33 09 b9 00  	add	s2, s2, a1
     86c: 33 04 a4 40  	sub	s0, s0, a0

00000870 <.LBB14_6>:
     870: 13 35 15 00  	seqz	a0, a0
     874: 63 1e 05 00  	bnez	a0, 0x890 <.LBB14_10>

00000878 <.LBB14_7>:
     878: 57 75 b4 04  	<unknown>
     87c: e3 0a 05 fe  	beqz	a0, 0x870 <.LBB14_6>
     880: e3 1c 35 fd  	bne	a0, s3, 0x858 <.LBB14_4>
     884: 07 58 8a 06  	<unknown>
     888: 27 58 89 06  	<unknown>
     88c: 6f f0 5f fd  	j	0x860 <.LBB14_5>

00000890 <.LBB14_10>:
     890: 03 2a 81 10  	lw	s4, 264(sp)
     894: 83 29 c1 10  	lw	s3, 268(sp)
     898: 03 29 01 11  	lw	s2, 272(sp)
     89c: 83 24 41 11  	lw	s1, 276(sp)
     8a0: 03 24 81 11  	lw	s0, 280(sp)
     8a4: 83 20 c1 11  	lw	ra, 284(sp)
     8a8: 13 01 01 12  	addi	sp, sp, 288
     8ac: 67 80 00 00  	ret

000008b0 <vector_memcpy_indexed_e32m8>:
     8b0: 13 01 01 de  	addi	sp, sp, -544
     8b4: 23 2e 11 20  	sw	ra, 540(sp)
     8b8: 23 2c 81 20  	sw	s0, 536(sp)
     8bc: 23 2a 91 20  	sw	s1, 532(sp)
     8c0: 23 28 21 21  	sw	s2, 528(sp)
     8c4: 23 26 31 21  	sw	s3, 524(sp)
     8c8: 23 24 41 21  	sw	s4, 520(sp)
     8cc: 13 09 06 00  	mv	s2, a2
     8d0: 93 84 05 00  	mv	s1, a1
     8d4: 13 04 05 00  	mv	s0, a0
     8d8: d7 79 30 05  	<unknown>
     8dc: 13 05 81 00  	addi	a0, sp, 8
     8e0: 13 06 00 20  	addi	a2, zero, 512
     8e4: 13 0a 81 00  	addi	s4, sp, 8
     8e8: 93 05 00 00  	mv	a1, zero
     8ec: 97 f0 ff ff  	auipc	ra, 1048575
     8f0: e7 80 80 72  	jalr	1832(ra)
     8f4: 63 82 09 02  	beqz	s3, 0x918 <.LBB15_3>
     8f8: 13 05 00 00  	mv	a0, zero
     8fc: 93 85 09 00  	mv	a1, s3

00000900 <.LBB15_2>:
     900: 13 46 45 00  	xori	a2, a0, 4
     904: b3 06 aa 00  	add	a3, s4, a0
     908: 23 a0 c6 00  	sw	a2, 0(a3)
     90c: 93 85 f5 ff  	addi	a1, a1, -1
     910: 13 05 45 00  	addi	a0, a0, 4
     914: e3 96 05 fe  	bnez	a1, 0x900 <.LBB15_2>

00000918 <.LBB15_3>:
     918: 57 f0 39 05  	<unknown>
     91c: 13 05 81 00  	addi	a0, sp, 8
     920: 07 64 05 02  	<unknown>
     924: 6f 00 40 02  	j	0x948 <.LBB15_7>

00000928 <.LBB15_4>:
     928: 07 e8 04 02  	<unknown>
     92c: 27 68 09 02  	<unknown>

00000930 <.LBB15_5>:
     930: 93 15 25 00  	slli	a1, a0, 2
     934: b3 84 b4 00  	add	s1, s1, a1
     938: 33 09 b9 00  	add	s2, s2, a1
     93c: 33 04 a4 40  	sub	s0, s0, a0

00000940 <.LBB15_6>:
     940: 13 35 15 00  	seqz	a0, a0
     944: 63 1e 05 00  	bnez	a0, 0x960 <.LBB15_10>

00000948 <.LBB15_7>:
     948: 57 75 34 05  	<unknown>
     94c: e3 0a 05 fe  	beqz	a0, 0x940 <.LBB15_6>
     950: e3 1c 35 fd  	bne	a0, s3, 0x928 <.LBB15_4>
     954: 07 e8 84 06  	<unknown>
     958: 27 68 89 06  	<unknown>
     95c: 6f f0 5f fd  	j	0x930 <.LBB15_5>

00000960 <.LBB15_10>:
     960: 03 2a 81 20  	lw	s4, 520(sp)
     964: 83 29 c1 20  	lw	s3, 524(sp)
     968: 03 29 01 21  	lw	s2, 528(sp)
     96c: 83 24 41 21  	lw	s1, 532(sp)
     970: 03 24 81 21  	lw	s0, 536(sp)
     974: 83 20 c1 21  	lw	ra, 540(sp)
     978: 13 01 01 22  	addi	sp, sp, 544
     97c: 67 80 00 00  	ret

00000980 <vector_memcpy_indexed_e32mf2>:
     980: 13 01 01 de  	addi	sp, sp, -544
     984: 23 2e 11 20  	sw	ra, 540(sp)
     988: 23 2c 81 20  	sw	s0, 536(sp)
     98c: 23 2a 91 20  	sw	s1, 532(sp)
     990: 23 28 21 21  	sw	s2, 528(sp)
     994: 23 26 31 21  	sw	s3, 524(sp)
     998: 23 24 41 21  	sw	s4, 520(sp)
     99c: 13 09 06 00  	mv	s2, a2
     9a0: 93 84 05 00  	mv	s1, a1
     9a4: 13 04 05 00  	mv	s0, a0
     9a8: d7 79 70 05  	<unknown>
     9ac: 13 05 81 00  	addi	a0, sp, 8
     9b0: 13 06 00 20  	addi	a2, zero, 512
     9b4: 13 0a 81 00  	addi	s4, sp, 8
     9b8: 93 05 00 00  	mv	a1, zero
     9bc: 97 f0 ff ff  	auipc	ra, 1048575
     9c0: e7 80 80 65  	jalr	1624(ra)
     9c4: 63 82 09 02  	beqz	s3, 0x9e8 <.LBB16_3>
     9c8: 13 05 00 00  	mv	a0, zero
     9cc: 93 85 09 00  	mv	a1, s3

000009d0 <.LBB16_2>:
     9d0: 13 46 45 00  	xori	a2, a0, 4
     9d4: b3 06 aa 00  	add	a3, s4, a0
     9d8: 23 a0 c6 00  	sw	a2, 0(a3)
     9dc: 93 85 f5 ff  	addi	a1, a1, -1
     9e0: 13 05 45 00  	addi	a0, a0, 4
     9e4: e3 96 05 fe  	bnez	a1, 0x9d0 <.LBB16_2>

000009e8 <.LBB16_3>:
     9e8: 57 f0 79 05  	<unknown>
     9ec: 13 05 81 00  	addi	a0, sp, 8
     9f0: 87 6c 05 02  	<unknown>
     9f4: 6f 00 40 02  	j	0xa18 <.LBB16_7>

000009f8 <.LBB16_4>:
     9f8: 07 ed 04 02  	<unknown>
     9fc: 27 6d 09 02  	<unknown>

00000a00 <.LBB16_5>:
     a00: 93 15 25 00  	slli	a1, a0, 2
     a04: b3 84 b4 00  	add	s1, s1, a1
     a08: 33 09 b9 00  	add	s2, s2, a1
     a0c: 33 04 a4 40  	sub	s0, s0, a0

00000a10 <.LBB16_6>:
     a10: 13 35 15 00  	seqz	a0, a0
     a14: 63 1e 05 00  	bnez	a0, 0xa30 <.LBB16_10>

00000a18 <.LBB16_7>:
     a18: 57 75 74 05  	<unknown>
     a1c: e3 0a 05 fe  	beqz	a0, 0xa10 <.LBB16_6>
     a20: e3 1c 35 fd  	bne	a0, s3, 0x9f8 <.LBB16_4>
     a24: 07 ed 94 07  	<unknown>
     a28: 27 6d 99 07  	<unknown>
     a2c: 6f f0 5f fd  	j	0xa00 <.LBB16_5>

00000a30 <.LBB16_10>:
     a30: 03 2a 81 20  	lw	s4, 520(sp)
     a34: 83 29 c1 20  	lw	s3, 524(sp)
     a38: 03 29 01 21  	lw	s2, 528(sp)
     a3c: 83 24 41 21  	lw	s1, 532(sp)
     a40: 03 24 81 21  	lw	s0, 536(sp)
     a44: 83 20 c1 21  	lw	ra, 540(sp)
     a48: 13 01 01 22  	addi	sp, sp, 544
     a4c: 67 80 00 00  	ret

00000a50 <main>:
     a50: 13 01 01 ff  	addi	sp, sp, -16
     a54: 23 26 11 00  	sw	ra, 12(sp)
     a58: 23 24 81 00  	sw	s0, 8(sp)
     a5c: 37 05 00 00  	lui	a0, 0
     a60: 13 05 85 4c  	addi	a0, a0, 1224
     a64: 97 f0 ff ff  	auipc	ra, 1048575
     a68: e7 80 c0 5c  	jalr	1484(ra)
     a6c: 13 04 05 00  	mv	s0, a0
     a70: 37 05 00 00  	lui	a0, 0
     a74: 13 05 85 4f  	addi	a0, a0, 1272
     a78: 97 f0 ff ff  	auipc	ra, 1048575
     a7c: e7 80 40 6b  	jalr	1716(ra)
     a80: 13 15 15 00  	slli	a0, a0, 1
     a84: 33 64 85 00  	or	s0, a0, s0
     a88: 37 05 00 00  	lui	a0, 0
     a8c: 13 05 c5 52  	addi	a0, a0, 1324
     a90: 97 f0 ff ff  	auipc	ra, 1048575
     a94: e7 80 80 7a  	jalr	1960(ra)
     a98: 13 15 25 00  	slli	a0, a0, 2
     a9c: 33 64 a4 00  	or	s0, s0, a0
     aa0: 37 05 00 00  	lui	a0, 0
     aa4: 13 05 05 56  	addi	a0, a0, 1376
     aa8: 97 f0 ff ff  	auipc	ra, 1048575
     aac: e7 80 00 79  	jalr	1936(ra)
     ab0: 13 15 35 00  	slli	a0, a0, 3
     ab4: 33 64 a4 00  	or	s0, s0, a0
     ab8: 37 05 00 00  	lui	a0, 0
     abc: 13 05 45 59  	addi	a0, a0, 1428
     ac0: 97 f0 ff ff  	auipc	ra, 1048575
     ac4: e7 80 00 57  	jalr	1392(ra)
     ac8: 13 15 45 00  	slli	a0, a0, 4
     acc: 33 64 a4 00  	or	s0, s0, a0
     ad0: 37 05 00 00  	lui	a0, 0
     ad4: 13 05 45 5f  	addi	a0, a0, 1524
     ad8: 97 f0 ff ff  	auipc	ra, 1048575
     adc: e7 80 40 65  	jalr	1620(ra)
     ae0: 13 15 55 00  	slli	a0, a0, 5
     ae4: 33 64 a4 00  	or	s0, s0, a0
     ae8: 37 05 00 00  	lui	a0, 0
     aec: 13 05 85 65  	addi	a0, a0, 1624
     af0: 97 f0 ff ff  	auipc	ra, 1048575
     af4: e7 80 80 74  	jalr	1864(ra)
     af8: 13 15 65 00  	slli	a0, a0, 6
     afc: 33 64 a4 00  	or	s0, s0, a0
     b00: 37 05 00 00  	lui	a0, 0
     b04: 13 05 c5 6b  	addi	a0, a0, 1724
     b08: 97 f0 ff ff  	auipc	ra, 1048575
     b0c: e7 80 00 73  	jalr	1840(ra)
     b10: 13 15 75 00  	slli	a0, a0, 7
     b14: 33 64 a4 00  	or	s0, s0, a0
     b18: 37 05 00 00  	lui	a0, 0
     b1c: 13 05 05 72  	addi	a0, a0, 1824
     b20: 97 f0 ff ff  	auipc	ra, 1048575
     b24: e7 80 00 51  	jalr	1296(ra)
     b28: 13 15 85 00  	slli	a0, a0, 8
     b2c: 33 64 a4 00  	or	s0, s0, a0
     b30: 37 05 00 00  	lui	a0, 0
     b34: 13 05 45 7e  	addi	a0, a0, 2020
     b38: 97 f0 ff ff  	auipc	ra, 1048575
     b3c: e7 80 40 5f  	jalr	1524(ra)
     b40: 13 15 95 00  	slli	a0, a0, 9
     b44: 33 64 a4 00  	or	s0, s0, a0
     b48: 37 15 00 00  	lui	a0, 1
     b4c: 13 05 05 8b  	addi	a0, a0, -1872
     b50: 97 f0 ff ff  	auipc	ra, 1048575
     b54: e7 80 80 6e  	jalr	1768(ra)
     b58: 13 15 a5 00  	slli	a0, a0, 10
     b5c: 33 64 a4 00  	or	s0, s0, a0
     b60: 37 15 00 00  	lui	a0, 1
     b64: 13 05 05 98  	addi	a0, a0, -1664
     b68: 97 f0 ff ff  	auipc	ra, 1048575
     b6c: e7 80 00 6d  	jalr	1744(ra)
     b70: 13 15 b5 00  	slli	a0, a0, 11
     b74: 33 65 a4 00  	or	a0, s0, a0
     b78: b7 05 00 f0  	lui	a1, 983040
     b7c: 23 a0 a5 00  	sw	a0, 0(a1)
     b80: 03 24 81 00  	lw	s0, 8(sp)
     b84: 83 20 c1 00  	lw	ra, 12(sp)
     b88: 13 01 01 01  	addi	sp, sp, 16
     b8c: 67 80 00 00  	ret
