
/media/common/University/Edu/Year4_Masters/Project/riscv-v-lite/programs/build/llvm-13-rv64imvxcheri-int/vector_memcpy_pointers/vector_memcpy_pointers.elf:	file format elf64-littleriscv
Contents of section .text.init:
 0000 17010100 13010102 97000000 e7800053  ...............S
 0010 6f000000                             o...
Contents of section .text:
 0014 630c0600 93060500 2380b600 1306f6ff  c.......#.......
 0024 93861600 e31a06fe 67800000 63000602  ........g...c...
 0034 93060500 03870500 2380e600 93861600  ........#.......
 0044 1306f6ff 93851500 e31606fe 67800000  ............g...
 0054 93060001 6366d602 9306f000 13574600  ....cf.......WF.
 0064 57773702 07840512 27040512 13174700  Ww7.....'.....G.
 0074 b385e500 3306e640 3305e500 e3e0c6fe  ....3..@3.......
 0084 63000602 d7763604 07840502 27040502  c....v6.....'...
 0094 b385d500 3306d640 3305d500 e31406fe  ....3..@3.......
 00a4 67800000 93060001 636ed602 9306f000  g.......cn......
 00b4 13574600 57772702 07840512 93171700  .WF.Ww'.........
 00c4 57f0b701 57348002 57702002 27040512  W...W4..Wp .'...
 00d4 13174700 b385e500 3306e640 3305e500  ..G.....3..@3...
 00e4 e3e8c6fc 63000602 d7763604 07840502  ....c....v6.....
 00f4 27040502 b385d500 3306d640 3305d500  '.......3..@3...
 0104 e31406fe 67800000 13010181 2334117e  ....g.......#4.~
 0114 37250000 1b050587 3301a140 13050000  7%......3..@....
 0124 b7250000 9b850501 b305b100 23c00500  .%..........#...
 0134 b7250000 9b850502 b305b100 23c00500  .%..........#...
 0144 b7250000 9b850503 b305b100 23c00500  .%..........#...
 0154 b7250000 9b850504 b305b100 23c00500  .%..........#...
 0164 b7757400 9b8515ef 9395f500 93853595  .ut...........5.
 0174 9395d500 938595b4 9395c500 9385a575  ...............u
 0184 37260000 1b060601 3306c100 2330b600  7&......3...#0..
 0194 b74567fc 9b8535f0 9395c500 9385d521  .Eg...5........!
 01a4 9395d500 9385b562 9395c500 9385454a  .......b......EJ
 01b4 37260000 1b060602 3306c100 2330b600  7&......3...#0..
 01c4 b755ce00 9b8535f3 9395d500 9385755c  .U....5.......u\
 01d4 9395e500 9385f533 9395c500 9385e5cd  .......3........
 01e4 37260000 1b060603 3306c100 2330b600  7&......3...#0..
 01f4 b7052aff 9b8595eb 9395e500 9385b5e3  ..*.............
 0204 9395c500 9385f5d6 9395d500 93857569  ..............ui
 0214 37260000 1b060604 3306c100 2330b600  7&......3...#0..
 0224 b7150000 9b850502 b305b100 37060000  ............7...
 0234 13068658 b7260000 9b860601 3308d100  ...X.&......3...
 0244 13070020 b307c500 83a70700 93974700  ... ..........G.
 0254 b307f800 83b60700 db07f026 23b8d5fe  ...........&#...
 0264 23c0f500 13054500 93850502 e31ce5fc  #.....E.........
 0274 13050101 37160000 93050000 97000000  ....7...........
 0284 e78040d9 13050101 b7150000 9b850501  ..@.............
 0294 b305b100 37160000 97000000 e78080db  ....7...........
 02a4 13050000 93050102 37060000 13068658  ........7......X
 02b4 b7260000 9b860601 b308d100 13080020  .&............. 
 02c4 8fa70500 5b87b7fa 83b605ff 6318d702  ....[.......c...
 02d4 b306c500 83a60600 93964600 b386d800  ..........F.....
 02e4 db06d026 639cd700 13054500 93850502  ...&c.....E.....
 02f4 e31805fd 13051000 6f008000 13050000  ........o.......
 0304 b7250000 9b850587 3301b100 8330817e  .%......3....0.~
 0314 1301017f 67800000 13010181 2334117e  ....g.......#4.~
 0324 2330817e 233c917c 2338217d 37250000  #0.~#<.|#8!}7%..
 0334 1b050588 3301a140 13050000 b7250000  ....3..@.....%..
 0344 9b850501 b305b100 23c00500 b7250000  ........#....%..
 0354 9b850502 b305b100 23c00500 b7250000  ........#....%..
 0364 9b850503 b305b100 23c00500 b7250000  ........#....%..
 0374 9b850504 b305b100 23c00500 b7757400  ........#....ut.
 0384 9b8515ef 9395f500 93853595 9395d500  ..........5.....
 0394 938595b4 9395c500 9385a575 37260000  ...........u7&..
 03a4 1b060601 3306c100 2330b600 b74567fc  ....3...#0...Eg.
 03b4 9b8535f0 9395c500 9385d521 9395d500  ..5........!....
 03c4 9385b562 9395c500 9385454a 37260000  ...b......EJ7&..
 03d4 1b060602 3306c100 2330b600 b755ce00  ....3...#0...U..
 03e4 9b8535f3 9395d500 9385755c 9395e500  ..5.......u\....
 03f4 9385f533 9395c500 9385e5cd 37260000  ...3........7&..
 0404 1b060603 3306c100 2330b600 b7052aff  ....3...#0....*.
 0414 9b8595eb 9395e500 9385b5e3 9395c500  ................
 0424 9385f5d6 9395d500 93857569 37260000  ..........ui7&..
 0434 1b060604 3306c100 2330b600 b7150000  ....3...#0......
 0444 9b850502 b305b100 37060000 13068658  ........7......X
 0454 b7260000 9b860601 b306d100 13070020  .&............. 
 0464 b307c500 83a70700 93974700 b387f600  ..........G.....
 0474 83b40700 db07f026 23b895fe 23c0f500  .......&#...#...
 0484 13054500 93850502 e31ce5fc 13050101  ..E.............
 0494 37160000 93050000 97000000 e78080b7  7...............
 04a4 13050101 b7150000 9b850501 b305b100  ................
 04b4 37160000 97000000 e78000bf 0f250102  7............%..
 04c4 97000000 e780c006 93050500 13050000  ................
 04d4 639c0502 93050000 13040104 1309f007  c...............
 04e4 93840500 638e2501 0f250400 97000000  ....c.%..%......
 04f4 e7800004 93851400 13040402 e30205fe  ................
 0504 1305e007 33359500 b7250000 9b850588  ....35...%......
 0514 3301b100 0339017d 8334817d 0334017e  3....9.}.4.}.4.~
 0524 8330817e 1301017f 67800000 5b0545fe  .0.~....g...[.E.
 0534 67800000 130101ff 23341100 23308100  g.......#4..#0..
 0544 97000000 e78080bc 13040500 97000000  ................
 0554 e780c0dc 13151500 b3658500 37050001  .........e..7...
 0564 13063000 2320c500 37060001 1b850500  ..0.# ..7.......
 0574 2324b600 03340100 83308100 13010101  #$...4...0......
 0584 67800000                             g...
Contents of section .data:
 0588 01000000 01000000 01000000 01000000  ................
 0598 02000000 02000000 03000000 00000000  ................
 05a8 01000000 00000000 03000000 00000000  ................
 05b8 00000000 03000000 03000000 00000000  ................
 05c8 01000000 00000000 00000000 02000000  ................
 05d8 02000000 00000000 02000000 01000000  ................
 05e8 00000000 00000000 00000000 03000000  ................
 05f8 02000000 00000000 01000000 01000000  ................
 0608 03000000 02000000 03000000 00000000  ................
 0618 02000000 02000000 00000000 00000000  ................
 0628 00000000 01000000 01000000 03000000  ................
 0638 00000000 00000000 01000000 03000000  ................
 0648 01000000 02000000 03000000 02000000  ................
 0658 02000000 00000000 02000000 01000000  ................
 0668 00000000 03000000 01000000 01000000  ................
 0678 03000000 03000000 02000000 02000000  ................
 0688 00000000 01000000 03000000 02000000  ................
 0698 02000000 01000000 01000000 03000000  ................
 06a8 02000000 02000000 00000000 01000000  ................
 06b8 01000000 03000000 00000000 01000000  ................
 06c8 00000000 00000000 03000000 02000000  ................
 06d8 02000000 03000000 03000000 01000000  ................
 06e8 01000000 01000000 01000000 02000000  ................
 06f8 01000000 01000000 02000000 01000000  ................
 0708 02000000 02000000 01000000 01000000  ................
 0718 03000000 01000000 01000000 03000000  ................
 0728 00000000 02000000 03000000 01000000  ................
 0738 01000000 03000000 02000000 03000000  ................
 0748 02000000 01000000 02000000 00000000  ................
 0758 02000000 02000000 02000000 03000000  ................
 0768 00000000 03000000 01000000 00000000  ................
 0778 03000000 02000000 01000000 00000000  ................
Contents of section .debug_loc:
 0000 00000000 00000000 08000000 00000000  ................
 0010 01005c00 00000000 00000000 00000000  ..\.............
 0020 00000000 00000000 00000008 00000000  ................
 0030 00000003 0011009f 08000000 00000000  ................
 0040 0c000000 00000000 06007d00 7a001c9f  ..........}.z...
 0050 0c000000 00000000 14000000 00000000  ................
 0060 09007d00 7a001c11 01229f00 00000000  ..}.z...."......
 0070 00000000 00000000 0000001c 00000000  ................
 0080 00000024 00000000 00000001 005b0000  ...$.........[..
 0090 00000000 00000000 00000000 00001c00  ................
 00a0 00000000 00002400 00000000 00000100  ......$.........
 00b0 5a240000 00000000 003c0000 00000000  Z$.......<......
 00c0 0001005d 00000000 00000000 00000000  ...]............
 00d0 00000000 50000000 00000000 54000000  ....P.......T...
 00e0 00000000 01005e00 00000000 00000000  ......^.........
 00f0 00000000 00000054 00000000 00000060  .......T.......`
 0100 00000000 00000001 005e0000 00000000  .........^......
 0110 00000000 00000000 00007800 00000000  ..........x.....
 0120 00009000 00000000 00000100 5d000000  ............]...
 0130 00000000 00000000 00000000 007c0000  .............|..
 0140 00000000 00900000 00000000 00020090  ................
 0150 68000000 00000000 00000000 00000000  h...............
 0160 00a40000 00000000 00a80000 00000000  ................
 0170 0001005e 00000000 00000000 00000000  ...^............
 0180 00000000 a8000000 00000000 c4000000  ................
 0190 00000000 01005e00 00000000 00000000  ......^.........
 01a0 00000000 000000b0 00000000 000000d4  ................
 01b0 00000000 00000001 005f0000 00000000  ........._......
 01c0 00000000 00000000 0000dc00 00000000  ................
 01d0 0000f400 00000000 00000100 5d000000  ............]...
 01e0 00000000 00000000 00000000 00e00000  ................
 01f0 00000000 00f40000 00000000 00020090  ................
 0200 68000000 00000000 00000000 00000000  h...............
 0210 00100200 00000000 00340200 00000000  .........4......
 0220 00020030 9f340200 00000000 00540200  ...0.4.......T..
 0230 00000000 0006007a 0011041b 9f540200  .......z.....T..
 0240 00000000 00580200 00000000 0009007a  .....X.........z
 0250 0011041b 1101229f 00000000 00000000  ......".........
 0260 00000000 00000000 74020000 00000000  ........t.......
 0270 08030000 00000000 03007210 9f000000  ..........r.....
 0280 00000000 00000000 00000000 00740200  .............t..
 0290 00000000 00080300 00000000 00040072  ...............r
 02a0 90209f00 00000000 00000000 00000000  . ..............
 02b0 00000090 02000000 000000b0 02000000  ................
 02c0 00000002 00309fb0 02000000 000000d4  .....0..........
 02d0 02000000 00000006 007a0011 041b9fd4  .........z......
 02e0 02000000 000000dc 02000000 00000009  ................
 02f0 007a0011 041b1101 229f0000 00000000  .z......".......
 0300 00000000 00000000 00002c04 00000000  ..........,.....
 0310 00005004 00000000 00000200 309f5004  ..P.........0.P.
 0320 00000000 00007004 00000000 00000600  ......p.........
 0330 7a001104 1b9f7004 00000000 00007404  z.....p.......t.
 0340 00000000 00000900 7a001104 1b110122  ........z......"
 0350 9f000000 00000000 00000000 00000000  ................
 0360 00900400 00000000 001c0500 00000000  ................
 0370 00030072 109f0000 00000000 00000000  ...r............
 0380 00000000 00009004 00000000 00001c05  ................
 0390 00000000 00000400 7290209f 00000000  ........r. .....
 03a0 00000000 00000000 00000000 ac040000  ................
 03b0 00000000 bc040000 00000000 0200309f  ..............0.
 03c0 bc040000 00000000 d0040000 00000000  ................
 03d0 0200319f d4040000 00000000 e4040000  ..1.............
 03e0 00000000 06007900 1101229f e4040000  ......y...".....
 03f0 00000000 f0040000 00000000 06007900  ..............y.
 0400 1102229f 00000000 00000000 00000000  ..".............
 0410 00000000 1c050000 00000000 20050000  ............ ...
 0420 00000000 01005a00 00000000 00000000  ......Z.........
 0430 00000000 00000030 05000000 0000003c  .......0.......<
 0440 05000000 00000003 0011009f 3c050000  ............<...
 0450 00000000 4c050000 00000000 0100584c  ....L.........XL
 0460 05000000 00000074 05000000 00000001  .......t........
 0470 005b0000 00000000 00000000 00000000  .[..............
 0480 00003005 00000000 00003c05 00000000  ..0.......<.....
 0490 00000300 11019f3c 05000000 00000074  .......<.......t
 04a0 05000000 00000003 0011039f 00000000  ................
 04b0 00000000 00000000 00000000           ............
Contents of section .debug_abbrev:
 0000 01110125 0e130503 0e10171b 0e110112  ...%............
 0010 06000002 2400030e 3e0b0b0b 0000030f  ....$...>.......
 0020 00491300 00042600 49130000 05160049  .I....&.I......I
 0030 13030e3a 0b3b0b00 00060f00 49130b0b  ...:.;......I...
 0040 00000713 01360b03 0e0b0b3a 0b3b0b88  .....6.....:.;..
 0050 010f0000 080d0003 0e49133a 0b3b0b38  .........I.:.;.8
 0060 0b000009 2e011101 12064018 97421903  ..........@..B..
 0070 0e3a0b3b 0b49133f 1900000a 05000218  .:.;.I.?........
 0080 030e3a0b 3b0b4913 00000b05 00021703  ..:.;.I.........
 0090 0e3a0b3b 0b491300 000c3400 0218030e  .:.;.I....4.....
 00a0 3a0b3b0b 49130000 0d0b0111 01120600  :.;.I...........
 00b0 000e3400 0217030e 3a0b3b0b 49130000  ..4.....:.;.I...
 00c0 0f2e0111 01120640 18974219 6e0e030e  .......@..B.n...
 00d0 3a0b3b0b 3f190000 102e0111 01120640  :.;.?..........@
 00e0 18974219 6e0e030e 3a0b3b0b 49133f19  ..B.n...:.;.I.?.
 00f0 00001134 00021803 0e3a0b3b 05491300  ...4.....:.;.I..
 0100 00123400 0217030e 3a0b3b05 49130000  ..4.....:.;.I...
 0110 13340003 0e3a0b3b 05491300 00148982  .4...:.;.I......
 0120 01003113 11010000 152e0111 01120640  ..1............@
 0130 18974219 6e0e030e 3a0b3b05 49133f19  ..B.n...:.;.I.?.
 0140 0000160b 01551700 00172e01 11011206  .....U..........
 0150 40189742 196e0e03 0e3a0b3b 0b491300  @..B.n...:.;.I..
 0160 00182e01 11011206 40189742 19030e3a  ........@..B...:
 0170 0b3b0549 133f1900 00190f00 00001a26  .;.I.?.........&
 0180 0000001b 16004913 030e0000 1c010187  ......I.........
 0190 42194913 00001d21 00491322 0d2f1800  B.I....!.I."./..
 01a0 001e2400 030e0b0b 3e0b0000 1f010149  ..$.....>......I
 01b0 13000020 21004913 370b0000 210d0003  ... !.I.7...!...
 01c0 0e49133a 0b3b0b88 010f380b 0000220f  .I.:.;....8...".
 01d0 000b0b00 0000                        ......
Contents of section .debug_info:
 0000 a9050000 04000000 00000801 99010000  ................
 0010 21002d02 00000000 0000e700 00001400  !.-.............
 0020 00000000 00007405 0000023b 00000008  ......t....;....
 0030 01032a00 0000033b 00000004 2a000000  ..*....;....*...
 0040 054b0000 00140300 00013202 29000000  .K........2.)...
 0050 07080658 00000010 0705c103 00001003  ...X............
 0060 83100810 0000006f 00000003 84000005  .......o........
 0070 4b000000 a8020000 0262037f 00000005  K........b......
 0080 2a000000 35030000 02e2038f 00000004  *...5...........
 0090 7f000000 09140000 00000000 001c0000  ................
 00a0 00015220 03000003 08180500 000a015a  ..R ...........Z
 00b0 24000000 03081805 00000a01 5b0e0200  $...........[...
 00c0 00030819 0500000b 00000000 b3000000  ................
 00d0 03084000 00000c03 7b009f42 03000003  ..@.....{..B....
 00e0 092a0000 000c015a 6e010000 030a3100  .*.....Zn.....1.
 00f0 00000d14 00000000 00000018 0000000e  ................
 0100 23000000 57000000 030b1905 00000000  #...W...........
 0110 09300000 00000000 00240000 00015267  .0.......$....Rg
 0120 01000003 13180500 000a015a 24000000  ...........Z$...
 0130 03131805 00000b7b 00000076 01000003  .......{...v....
 0140 13270500 000a015c b3000000 03134000  .'.....\......@.
 0150 00000e9e 0000006e 01000003 14310000  .......n.....1..
 0160 000c015b 70030000 03153600 0000000f  ...[p.....6.....
 0170 54000000 00000000 54000000 0152fc02  T.......T....R..
 0180 00004900 00000399 0a015ab6 03000003  ..I.......Z.....
 0190 997a0000 000a015b 76010000 03998a00  .z.....[v.......
 01a0 00000a01 5c270300 00039940 0000000d  ....\'.....@....
 01b0 60000000 00000000 20000000 0ed40000  `....... .......
 01c0 00ce0300 00039d40 0000000e f7000000  .......@........
 01d0 53030000 039e4000 0000000d 88000000  S.....@.........
 01e0 00000000 18000000 0e1a0100 00000000  ................
 01f0 0003ad40 0000000e 3d010000 4e030000  ...@....=...N...
 0200 03af2d05 00000000 0fa80000 00000000  ..-.............
 0210 00640000 000152c4 000000b1 02000003  .d....R.........
 0220 c10a015a b6030000 03c17a00 00000a01  ...Z......z.....
 0230 5b760100 0003c18a 0000000a 015c2703  [v...........\'.
 0240 000003c1 40000000 0db40000 00000000  ....@...........
 0250 00300000 000e6101 0000ce03 000003c4  .0....a.........
 0260 40000000 0e840100 00530300 0003c540  @........S.....@
 0270 0000000e a7010000 7a010000 03d04000  ........z.....@.
 0280 0000000d ec000000 00000000 18000000  ................
 0290 0eca0100 00000000 0003e140 0000000e  ...........@....
 02a0 ed010000 4e030000 03e32d05 00000000  ....N.....-.....
 02b0 100c0100 00000000 00100200 0001527f  ..............R.
 02c0 030000ca 02000003 f3190500 000c0491  ................
 02d0 90c00048 03000003 f75d0500 00110391  ...H.....]......
 02e0 90205900 00000313 01690500 00110291  . Y......i......
 02f0 107f0000 00031c01 69050000 12680200  ........i....h..
 0300 00250200 00031f01 99050000 128d0200  .%..............
 0310 008a0000 00031e01 99050000 13770300  .............w..
 0320 00030001 9e050000 0d240200 00000000  .........$......
 0330 00500000 00121102 00005700 00000314  .P........W.....
 0340 01400000 000d4802 00000000 00002000  .@....H....... .
 0350 00001393 01000003 15011905 00000000  ................
 0360 0da80200 00000000 00500000 0012b302  .........P......
 0370 00005700 00000325 01400000 0000146f  ..W....%.@.....o
 0380 010000a4 02000000 00000000 151c0300  ................
 0390 00000000 00140200 00015266 000000d8  ..........Rf....
 03a0 02000003 33011905 00001104 9190c000  ....3...........
 03b0 48030000 0337015d 05000011 03919020  H....7.]....... 
 03c0 59000000 03530169 05000011 0291107f  Y....S.i........
 03d0 00000003 5c016905 00001261 03000025  ....\.i....a...%
 03e0 02000003 5f019905 00001286 0300008a  ...._...........
 03f0 00000003 5e019905 00001377 03000003  ....^......w....
 0400 40019e05 00000d40 04000000 00000050  @......@.......P
 0410 00000012 0a030000 57000000 03540140  ........W....T.@
 0420 0000000d 64040000 00000000 20000000  ....d....... ...
 0430 13930100 00035501 19050000 00000dc0  ......U.........
 0440 04000000 0000004c 00000012 ac030000  .......L........
 0450 57000000 03650140 00000016 00000000  W....e.@........
 0460 13310300 00036701 52000000 00001408  .1....g.R.......
 0470 020000c0 04000000 00000014 96040000  ................
 0480 cc040000 00000000 14960400 00f80400  ................
 0490 00000000 00001730 05000000 00000008  .......0........
 04a0 00000001 52920300 00160000 00045220  ....R.........R 
 04b0 0500000b 14040000 8d010000 0452aa05  .............R..
 04c0 00000018 38050000 00000000 50000000  ....8.......P...
 04d0 01523d03 00000378 01190500 00123704  .R=....x......7.
 04e0 0000ba03 0000037a 01190500 00128204  .......z........
 04f0 0000db03 0000037b 01190500 0014b002  .......{........
 0500 00004c05 00000000 0000148c 03000058  ..L............X
 0510 05000000 00000000 1902af00 00000504  ................
 0520 021b0300 00020103 2c050000 1a053805  ........,.....8.
 0530 0000b900 00000563 1b410500 00ec0200  .......c.A......
 0540 001c2a00 00001d56 05000000 0892a238  ..*....V.......8
 0550 00311b38 1e001e92 00000008 071f5800  .1.8..........X.
 0560 00002056 05000004 001f7505 00002056  .. V......u... V
 0570 05000080 000705c6 03000020 03881008  ........... ....
 0580 11020000 6f000000 038a0021 a6000000  ....o......!....
 0590 52000000 038c1010 00037505 00001f19  R.........u.....
 05a0 05000020 56050000 80002210 00        ... V....."..
Contents of section .debug_ranges:
 0000 ac040000 00000000 c4040000 00000000  ................
 0010 d8040000 00000000 f0040000 00000000  ................
 0020 00000000 00000000 00000000 00000000  ................
Contents of section .debug_str:
 0000 636f7069 65645f70 65725f69 74657200  copied_per_iter.
 0010 76616c75 65006368 6572695f 7461675f  value.cheri_tag_
 0020 67657400 64657374 006c6f6e 6720756e  get.dest.long un
 0030 7369676e 65642069 6e740075 6e736967  signed int.unsig
 0040 6e656420 63686172 00766563 746f725f  ned char.vector_
 0050 6d656d63 70790069 00736f75 7263655f  memcpy.i.source_
 0060 61727261 79005f5a 31397275 6e5f696e  array._Z19run_in
 0070 76616c69 64617465 5f746573 74760064  validate_testv.d
 0080 6573745f 61727261 79007372 635f7074  est_array.src_pt
 0090 72005f5f 41525241 595f5349 5a455f54  r.__ARRAY_SIZE_T
 00a0 5950455f 5f006261 73655f70 74720069  YPE__.base_ptr.i
 00b0 6e740063 6f756e74 00767569 6e74386d  nt.count.vuint8m
 00c0 385f7400 5f5a3234 76656374 6f725f6d  8_t._Z24vector_m
 00d0 656d6370 795f696e 76616c69 64617465  emcpy_invalidate
 00e0 5068504b 686d002f 6d656469 612f636f  PhPKhm./media/co
 00f0 6d6d6f6e 2f556e69 76657273 6974792f  mmon/University/
 0100 4564752f 59656172 345f4d61 73746572  Edu/Year4_Master
 0110 732f5072 6f6a6563 742f7269 7363762d  s/Project/riscv-
 0120 762d6c69 74652f70 726f6772 616d732f  v-lite/programs/
 0130 6275696c 642f6c6c 766d2d31 332d7276  build/llvm-13-rv
 0140 3634696d 76786368 6572692d 696e742f  64imvxcheri-int/
 0150 76656374 6f725f6d 656d6370 795f706f  vector_memcpy_po
 0160 696e7465 7273006d 656d6370 79006465  inters.memcpy.de
 0170 73745f75 63007372 63006e75 6d5f3634  st_uc.src.num_64
 0180 6269745f 656c656d 656e7473 005f5f63  bit_elements.__c
 0190 61700069 6e646578 00636c61 6e672076  ap.index.clang v
 01a0 65727369 6f6e2031 332e302e 30202873  ersion 13.0.0 (s
 01b0 73683a2f 2f676974 40676974 6875622e  sh://git@github.
 01c0 636f6d2f 74686574 7572626f 7475726e  com/theturboturn
 01d0 69702f6c 6c766d2d 70726f6a 6563742e  ip/llvm-project.
 01e0 67697420 38383231 33646366 31653962  git 88213dcf1e9b
 01f0 63343534 66343731 62396539 61386232  c454f471b9e9a8b2
 0200 65646533 32356463 35653234 29006368  ede325dc5e24).ch
 0210 00657870 65637465 645f6261 73655f76  .expected_base_v
 0220 616c7565 00647374 5f707472 002f6d65  alue.dst_ptr./me
 0230 6469612f 636f6d6d 6f6e2f55 6e697665  dia/common/Unive
 0240 72736974 792f4564 752f5965 6172345f  rsity/Edu/Year4_
 0250 4d617374 6572732f 50726f6a 6563742f  Masters/Project/
 0260 72697363 762d762d 6c697465 2f70726f  riscv-v-lite/pro
 0270 6772616d 732f7665 63746f72 5f6d656d  grams/vector_mem
 0280 6370795f 706f696e 74657273 2f766563  cpy_pointers/vec
 0290 746f725f 6d656d63 70795f70 6f696e74  tor_memcpy_point
 02a0 6572732e 63707000 75696e74 36345f74  ers.cpp.uint64_t
 02b0 00766563 746f725f 6d656d63 70795f69  .vector_memcpy_i
 02c0 6e76616c 69646174 65007275 6e5f6261  nvalidate.run_ba
 02d0 73655f74 65737400 72756e5f 696e7661  se_test.run_inva
 02e0 6c696461 74655f74 65737400 5f5f7276  lidate_test.__rv
 02f0 765f7569 6e74386d 385f7400 5f5a3133  v_uint8m8_t._Z13
 0300 76656374 6f725f6d 656d6370 79506850  vector_memcpyPhP
 0310 4b686d00 73697a65 5f740062 6f6f6c00  Khm.size_t.bool.
 0320 6d656d73 6574006e 756d5f62 79746573  memset.num_bytes
 0330 00707472 0075696e 74385f74 006d6169  .ptr.uint8_t.mai
 0340 6e006368 5f756300 62617365 73006461  n.ch_uc.bases.da
 0350 74610063 6f706965 645f3132 38626974  ta.copied_128bit
 0360 5f656c65 6d735f70 65725f69 74657200  _elems_per_iter.
 0370 7372635f 75630069 6e646963 6573005f  src_uc.indices._
 0380 5a313372 756e5f62 6173655f 74657374  Z13run_base_test
 0390 76005f5a 4c313363 68657269 5f746167  v._ZL13cheri_tag
 03a0 5f676574 5531325f 5f636170 6162696c  _getU12__capabil
 03b0 69747950 76006473 74007265 73756c74  ityPv.dst.result
 03c0 00426173 6500456c 656d656e 74006e75  .Base.Element.nu
 03d0 6d5f656c 656d656e 74730061 7474656d  m_elements.attem
 03e0 70746564 00                          pted.
Contents of section .comment:
 0000 636c616e 67207665 7273696f 6e203133  clang version 13
 0010 2e302e30 20287373 683a2f2f 67697440  .0.0 (ssh://git@
 0020 67697468 75622e63 6f6d2f74 68657475  github.com/thetu
 0030 72626f74 75726e69 702f6c6c 766d2d70  rboturnip/llvm-p
 0040 726f6a65 63742e67 69742038 38323133  roject.git 88213
 0050 64636631 65396263 34353466 34373162  dcf1e9bc454f471b
 0060 39653961 38623265 64653332 35646335  9e9a8b2ede325dc5
 0070 65323429 00004c69 6e6b6572 3a204c4c  e24)..Linker: LL
 0080 44203133 2e302e30 20287373 683a2f2f  D 13.0.0 (ssh://
 0090 67697440 67697468 75622e63 6f6d2f74  git@github.com/t
 00a0 68657475 72626f74 75726e69 702f6c6c  heturboturnip/ll
 00b0 766d2d70 726f6a65 63742e67 69742038  vm-project.git 8
 00c0 38323133 64636631 65396263 34353466  8213dcf1e9bc454f
 00d0 34373162 39653961 38623265 64653332  471b9e9a8b2ede32
 00e0 35646335 65323429 00                 5dc5e24).
Contents of section .riscv.attributes:
 0000 413c0000 00726973 63760001 32000000  A<...riscv..2...
 0010 04100572 76363469 3270305f 6d327030  ...rv64i2p0_m2p0
 0020 5f763070 31305f7a 766c7373 65673070  _v0p10_zvlsseg0p
 0030 31305f78 63686572 69307030 00        10_xcheri0p0.
Contents of section .debug_frame:
 0000 14000000 ffffffff 04000800 0178010c  .............x..
 0010 02000000 00000000 14000000 00000000  ................
 0020 14000000 00000000 1c000000 00000000  ................
 0030 14000000 00000000 30000000 00000000  ........0.......
 0040 24000000 00000000 14000000 00000000  $...............
 0050 54000000 00000000 54000000 00000000  T.......T.......
 0060 14000000 00000000 a8000000 00000000  ................
 0070 64000000 00000000 24000000 00000000  d.......$.......
 0080 0c010000 00000000 10020000 00000000  ................
 0090 440ef00f 4481014c 0ee04000 00000000  D...D..L..@.....
 00a0 2c000000 00000000 1c030000 00000000  ,...............
 00b0 14020000 00000000 440ef00f 50810188  ........D...P...
 00c0 02890392 044c0ef0 40000000 00000000  .....L..@.......
 00d0 14000000 00000000 30050000 00000000  ........0.......
 00e0 08000000 00000000 1c000000 00000000  ................
 00f0 38050000 00000000 50000000 00000000  8.......P.......
 0100 440e1048 81018802                    D..H....
Contents of section .debug_line:
 0000 ff040000 0400fe00 00000101 01fb0e0d  ................
 0010 00010101 01000000 01000001 2f686f6d  ............/hom
 0020 652f7361 6d75656c 2f636865 72692f6f  e/samuel/cheri/o
 0030 75747075 742f7364 6b2f6c69 622f636c  utput/sdk/lib/cl
 0040 616e672f 31332e30 2e302f69 6e636c75  ang/13.0.0/inclu
 0050 6465002f 6d656469 612f636f 6d6d6f6e  de./media/common
 0060 2f556e69 76657273 6974792f 4564752f  /University/Edu/
 0070 59656172 345f4d61 73746572 732f5072  Year4_Masters/Pr
 0080 6f6a6563 742f7269 7363762d 762d6c69  oject/riscv-v-li
 0090 74652f70 726f6772 616d7300 00737464  te/programs..std
 00a0 6465662e 68000100 00737464 696e742e  def.h....stdint.
 00b0 68000100 00766563 746f725f 6d656d63  h....vector_memc
 00c0 70795f70 6f696e74 6572732f 76656374  py_pointers/vect
 00d0 6f725f6d 656d6370 795f706f 696e7465  or_memcpy_pointe
 00e0 72732e63 70700002 00006368 6572692e  rs.cpp....cheri.
 00f0 68000100 00726973 63765f76 6563746f  h....riscv_vecto
 0100 722e6800 01000000 04030009 02140000  r.h.............
 0110 00000000 00190505 0a030309 00000106  ................
 0120 03750904 00010518 06030c09 04000105  .u..............
 0130 17037f09 04000105 05060300 09080001  ................
 0140 06030409 04000105 00030409 04000105  ................
 0150 050a0303 09000001 06036a09 04000105  ..........j.....
 0160 14060317 09040001 05120603 00090400  ................
 0170 01051006 03010904 0001050e 03020904  ................
 0180 0001050f 037f0904 00010505 037d0904  .............}..
 0190 00010306 09040001 050003fd 00090400  ................
 01a0 0105050a 03030904 00010603 e47e0904  .............~..
 01b0 00010529 06039d01 09040001 05090304  ...)............
 01c0 09040001 03010904 00010301 09040001  ................
 01d0 052d0302 09040001 050d0603 00090400  .-..............
 01e0 01051306 03020904 0001050d 037f0904  ................
 01f0 00010505 03760904 00010310 09040001  .....v..........
 0200 05220301 09040001 05090304 09040001  ."..............
 0210 03010904 0001050d 03060904 00010513  ................
 0220 03020904 0001050d 037f0904 00010505  ................
 0230 03730904 00010501 03100904 00010500  .s..............
 0240 03050904 00010505 0a030209 04000106  ................
 0250 03bd7e09 04000105 290603c4 01090400  ..~.....).......
 0260 01050903 05090400 01030109 04000105  ................
 0270 27030609 04000105 09030109 04000103  '...............
 0280 02090400 01030409 04000103 01090400  ................
 0290 01052d03 02090400 01050d06 03000904  ..-.............
 02a0 00010513 06030209 04000105 0d037f09  ................
 02b0 04000105 05036809 04000103 1d090400  ......h.........
 02c0 01052203 01090400 01050903 04090400  ..".............
 02d0 01030109 04000105 0d030609 04000105  ................
 02e0 13030209 04000105 0d037f09 04000105  ................
 02f0 05037309 04000105 01031009 04000105  ..s.............
 0300 00030309 04000105 0a0a0304 09180001  ................
 0310 0505031d 09000101 05150301 09240001  .............$..
 0320 05240302 09080001 05310603 00090800  .$.......1......
 0330 01051906 03010904 0001037e 09040001  ...........~....
 0340 051a037e 09080001 05050603 00090800  ...~............
 0350 01050d06 03080904 00010505 03060914  ................
 0360 00010603 de7d091c 00010603 a5020904  .....}..........
 0370 0001051b 0303091c 00010525 06030009  ...........%....
 0380 04000105 3c030009 04000105 4e060303  ....<.......N...
 0390 09080001 05480603 00090800 01052703  .....H........'.
 03a0 00090800 0103d57d 09040001 051a0603  .......}........
 03b0 a5020904 00010505 06030009 08000103  ................
 03c0 db7d0904 00010501 0603b002 090c0001  .}..............
 03d0 05000303 09180001 050a0a03 04092400  ..............$.
 03e0 01050503 1d090001 01051503 01092400  ..............$.
 03f0 01052403 02090800 01053106 03000908  ..$.......1.....
 0400 00010519 06030109 04000103 7e090400  ............~...
 0410 01051a03 7e090800 01050506 03000908  ....~...........
 0420 0001050d 06030809 04000105 05030609  ................
 0430 14000105 3b030509 1c000105 0d030109  ....;...........
 0440 04000106 03987d09 0c000105 050603e5  ......}.........
 0450 02090c00 0106039b 7d090800 0103e502  ........}.......
 0460 09040001 053b0603 02090400 01050d03  .....;..........
 0470 01090400 01060398 7d090800 01051a06  ........}.......
 0480 03e50209 10000105 01030809 04000104  ................
 0490 04050003 e57d0924 00010501 0a030009  .....}.$........
 04a0 00000104 03050003 a7020908 00010a03  ................
 04b0 877d0904 0001050f 03fe0209 08000103  .}..............
 04c0 04090c00 01052506 03000908 0001050c  ......%.........
 04d0 03000904 00010519 06030309 04000103  ................
 04e0 01090c00 01050503 01090400 01051903  ................
 04f0 7f090400 01050503 01090400 01091000  ................
 0500 000101                               ...
Contents of section .symtab:
 0000 00000000 00000000 00000000 00000000  ................
 0010 00000000 00000000 01000000 00000100  ................
 0020 00000000 00000000 00000000 00000000  ................
 0030 07000000 00000100 00000000 00000000  ................
 0040 00000000 00000000 13000000 00000100  ................
 0050 10000000 00000000 00000000 00000000  ................
 0060 17000000 0400f1ff 00000000 00000000  ................
 0070 00000000 00000000 00000000 00000200  ................
 0080 14000000 00000000 00000000 00000000  ................
 0090 00000000 00000200 14000000 00000000  ................
 00a0 00000000 00000000 00000000 00000200  ................
 00b0 14000000 00000000 00000000 00000000  ................
 00c0 00000000 00000200 14000000 00000000  ................
 00d0 00000000 00000000 00000000 00000200  ................
 00e0 18000000 00000000 00000000 00000000  ................
 00f0 00000000 00000200 1c000000 00000000  ................
 0100 00000000 00000000 00000000 00000200  ................
 0110 1c000000 00000000 00000000 00000000  ................
 0120 00000000 00000200 20000000 00000000  ........ .......
 0130 00000000 00000000 00000000 00000200  ................
 0140 20000000 00000000 00000000 00000000   ...............
 0150 00000000 00000200 28000000 00000000  ........(.......
 0160 00000000 00000000 00000000 00000200  ................
 0170 28000000 00000000 00000000 00000000  (...............
 0180 00000000 00000200 2c000000 00000000  ........,.......
 0190 00000000 00000000 00000000 00000200  ................
 01a0 2c000000 00000000 00000000 00000000  ,...............
 01b0 00000000 00000200 30000000 00000000  ........0.......
 01c0 00000000 00000000 00000000 00000200  ................
 01d0 30000000 00000000 00000000 00000000  0...............
 01e0 00000000 00000200 30000000 00000000  ........0.......
 01f0 00000000 00000000 00000000 00000200  ................
 0200 30000000 00000000 00000000 00000000  0...............
 0210 00000000 00000200 30000000 00000000  ........0.......
 0220 00000000 00000000 00000000 00000200  ................
 0230 30000000 00000000 00000000 00000000  0...............
 0240 00000000 00000200 34000000 00000000  ........4.......
 0250 00000000 00000000 00000000 00000200  ................
 0260 38000000 00000000 00000000 00000000  8...............
 0270 00000000 00000200 38000000 00000000  ........8.......
 0280 00000000 00000000 00000000 00000200  ................
 0290 3c000000 00000000 00000000 00000000  <...............
 02a0 00000000 00000200 40000000 00000000  ........@.......
 02b0 00000000 00000000 00000000 00000200  ................
 02c0 44000000 00000000 00000000 00000000  D...............
 02d0 00000000 00000200 48000000 00000000  ........H.......
 02e0 00000000 00000000 00000000 00000200  ................
 02f0 4c000000 00000000 00000000 00000000  L...............
 0300 00000000 00000200 50000000 00000000  ........P.......
 0310 00000000 00000000 00000000 00000200  ................
 0320 50000000 00000000 00000000 00000000  P...............
 0330 00000000 00000200 54000000 00000000  ........T.......
 0340 00000000 00000000 00000000 00000200  ................
 0350 54000000 00000000 00000000 00000000  T...............
 0360 00000000 00000200 54000000 00000000  ........T.......
 0370 00000000 00000000 00000000 00000200  ................
 0380 54000000 00000000 00000000 00000000  T...............
 0390 00000000 00000200 54000000 00000000  ........T.......
 03a0 00000000 00000000 00000000 00000200  ................
 03b0 58000000 00000000 00000000 00000000  X...............
 03c0 00000000 00000200 5c000000 00000000  ........\.......
 03d0 00000000 00000000 00000000 00000200  ................
 03e0 60000000 00000000 00000000 00000000  `...............
 03f0 00000000 00000200 60000000 00000000  ........`.......
 0400 00000000 00000000 00000000 00000200  ................
 0410 64000000 00000000 00000000 00000000  d...............
 0420 00000000 00000200 64000000 00000000  ........d.......
 0430 00000000 00000000 00000000 00000200  ................
 0440 68000000 00000000 00000000 00000000  h...............
 0450 00000000 00000200 68000000 00000000  ........h.......
 0460 00000000 00000000 00000000 00000200  ................
 0470 6c000000 00000000 00000000 00000000  l...............
 0480 00000000 00000200 70000000 00000000  ........p.......
 0490 00000000 00000000 00000000 00000200  ................
 04a0 74000000 00000000 00000000 00000000  t...............
 04b0 00000000 00000200 74000000 00000000  ........t.......
 04c0 00000000 00000000 00000000 00000200  ................
 04d0 78000000 00000000 00000000 00000000  x...............
 04e0 00000000 00000200 7c000000 00000000  ........|.......
 04f0 00000000 00000000 00000000 00000200  ................
 0500 80000000 00000000 00000000 00000000  ................
 0510 00000000 00000200 80000000 00000000  ................
 0520 00000000 00000000 00000000 00000200  ................
 0530 84000000 00000000 00000000 00000000  ................
 0540 00000000 00000200 88000000 00000000  ................
 0550 00000000 00000000 00000000 00000200  ................
 0560 88000000 00000000 00000000 00000000  ................
 0570 00000000 00000200 8c000000 00000000  ................
 0580 00000000 00000000 00000000 00000200  ................
 0590 8c000000 00000000 00000000 00000000  ................
 05a0 00000000 00000200 90000000 00000000  ................
 05b0 00000000 00000000 00000000 00000200  ................
 05c0 90000000 00000000 00000000 00000000  ................
 05d0 00000000 00000200 94000000 00000000  ................
 05e0 00000000 00000000 00000000 00000200  ................
 05f0 98000000 00000000 00000000 00000000  ................
 0600 00000000 00000200 9c000000 00000000  ................
 0610 00000000 00000000 00000000 00000200  ................
 0620 a0000000 00000000 00000000 00000000  ................
 0630 00000000 00000200 a0000000 00000000  ................
 0640 00000000 00000000 00000000 00000200  ................
 0650 a4000000 00000000 00000000 00000000  ................
 0660 00000000 00000200 a4000000 00000000  ................
 0670 00000000 00000000 00000000 00000200  ................
 0680 a8000000 00000000 00000000 00000000  ................
 0690 00000000 00000200 a8000000 00000000  ................
 06a0 00000000 00000000 00000000 00000200  ................
 06b0 a8000000 00000000 00000000 00000000  ................
 06c0 00000000 00000200 a8000000 00000000  ................
 06d0 00000000 00000000 00000000 00000200  ................
 06e0 a8000000 00000000 00000000 00000000  ................
 06f0 00000000 00000200 ac000000 00000000  ................
 0700 00000000 00000000 00000000 00000200  ................
 0710 b0000000 00000000 00000000 00000000  ................
 0720 00000000 00000200 b4000000 00000000  ................
 0730 00000000 00000000 00000000 00000200  ................
 0740 b4000000 00000000 00000000 00000000  ................
 0750 00000000 00000200 b8000000 00000000  ................
 0760 00000000 00000000 00000000 00000200  ................
 0770 b8000000 00000000 00000000 00000000  ................
 0780 00000000 00000200 bc000000 00000000  ................
 0790 00000000 00000000 00000000 00000200  ................
 07a0 bc000000 00000000 00000000 00000000  ................
 07b0 00000000 00000200 c0000000 00000000  ................
 07c0 00000000 00000000 00000000 00000200  ................
 07d0 c4000000 00000000 00000000 00000000  ................
 07e0 00000000 00000200 c4000000 00000000  ................
 07f0 00000000 00000000 00000000 00000200  ................
 0800 c8000000 00000000 00000000 00000000  ................
 0810 00000000 00000200 cc000000 00000000  ................
 0820 00000000 00000000 00000000 00000200  ................
 0830 d0000000 00000000 00000000 00000000  ................
 0840 00000000 00000200 d4000000 00000000  ................
 0850 00000000 00000000 00000000 00000200  ................
 0860 d8000000 00000000 00000000 00000000  ................
 0870 00000000 00000200 d8000000 00000000  ................
 0880 00000000 00000000 00000000 00000200  ................
 0890 dc000000 00000000 00000000 00000000  ................
 08a0 00000000 00000200 e0000000 00000000  ................
 08b0 00000000 00000000 00000000 00000200  ................
 08c0 e4000000 00000000 00000000 00000000  ................
 08d0 00000000 00000200 e4000000 00000000  ................
 08e0 00000000 00000000 00000000 00000200  ................
 08f0 e8000000 00000000 00000000 00000000  ................
 0900 00000000 00000200 e8000000 00000000  ................
 0910 00000000 00000000 00000000 00000200  ................
 0920 ec000000 00000000 00000000 00000000  ................
 0930 00000000 00000200 ec000000 00000000  ................
 0940 00000000 00000000 00000000 00000200  ................
 0950 f0000000 00000000 00000000 00000000  ................
 0960 00000000 00000200 f0000000 00000000  ................
 0970 00000000 00000000 00000000 00000200  ................
 0980 f4000000 00000000 00000000 00000000  ................
 0990 00000000 00000200 f4000000 00000000  ................
 09a0 00000000 00000000 00000000 00000200  ................
 09b0 f8000000 00000000 00000000 00000000  ................
 09c0 00000000 00000200 fc000000 00000000  ................
 09d0 00000000 00000000 00000000 00000200  ................
 09e0 00010000 00000000 00000000 00000000  ................
 09f0 00000000 00000200 04010000 00000000  ................
 0a00 00000000 00000000 00000000 00000200  ................
 0a10 04010000 00000000 00000000 00000000  ................
 0a20 00000000 00000200 08010000 00000000  ................
 0a30 00000000 00000000 00000000 00000200  ................
 0a40 08010000 00000000 00000000 00000000  ................
 0a50 00000000 00000200 0c010000 00000000  ................
 0a60 00000000 00000000 00000000 00000200  ................
 0a70 0c010000 00000000 00000000 00000000  ................
 0a80 00000000 00000200 0c010000 00000000  ................
 0a90 00000000 00000000 00000000 00000200  ................
 0aa0 0c010000 00000000 00000000 00000000  ................
 0ab0 00000000 00000200 0c010000 00000000  ................
 0ac0 00000000 00000000 00000000 00000200  ................
 0ad0 10010000 00000000 00000000 00000000  ................
 0ae0 00000000 00000200 14010000 00000000  ................
 0af0 00000000 00000000 00000000 00000200  ................
 0b00 20010000 00000000 00000000 00000000   ...............
 0b10 00000000 00000200 24010000 00000000  ........$.......
 0b20 00000000 00000000 00000000 00000200  ................
 0b30 24020000 00000000 00000000 00000000  $...............
 0b40 00000000 00000200 24020000 00000000  ........$.......
 0b50 00000000 00000000 32000000 01000300  ........2.......
 0b60 88050000 00000000 00020000 00000000  ................
 0b70 00000000 00000200 48020000 00000000  ........H.......
 0b80 00000000 00000000 00000000 00000200  ................
 0b90 48020000 00000000 00000000 00000000  H...............
 0ba0 00000000 00000200 50020000 00000000  ........P.......
 0bb0 00000000 00000000 00000000 00000200  ................
 0bc0 58020000 00000000 00000000 00000000  X...............
 0bd0 00000000 00000200 5c020000 00000000  ........\.......
 0be0 00000000 00000000 00000000 00000200  ................
 0bf0 60020000 00000000 00000000 00000000  `...............
 0c00 00000000 00000200 68020000 00000000  ........h.......
 0c10 00000000 00000000 00000000 00000200  ................
 0c20 68020000 00000000 00000000 00000000  h...............
 0c30 00000000 00000200 6c020000 00000000  ........l.......
 0c40 00000000 00000000 00000000 00000200  ................
 0c50 70020000 00000000 00000000 00000000  p...............
 0c60 00000000 00000200 74020000 00000000  ........t.......
 0c70 00000000 00000000 00000000 00000200  ................
 0c80 74020000 00000000 00000000 00000000  t...............
 0c90 00000000 00000200 88020000 00000000  ................
 0ca0 00000000 00000000 00000000 00000200  ................
 0cb0 88020000 00000000 00000000 00000000  ................
 0cc0 00000000 00000200 a4020000 00000000  ................
 0cd0 00000000 00000000 00000000 00000200  ................
 0ce0 a4020000 00000000 00000000 00000000  ................
 0cf0 00000000 00000200 a8020000 00000000  ................
 0d00 00000000 00000000 00000000 00000200  ................
 0d10 a8020000 00000000 00000000 00000000  ................
 0d20 00000000 00000200 c4020000 00000000  ................
 0d30 00000000 00000000 00000000 00000200  ................
 0d40 c4020000 00000000 00000000 00000000  ................
 0d50 00000000 00000200 c8020000 00000000  ................
 0d60 00000000 00000000 00000000 00000200  ................
 0d70 cc020000 00000000 00000000 00000000  ................
 0d80 00000000 00000200 d4020000 00000000  ................
 0d90 00000000 00000000 00000000 00000200  ................
 0da0 dc020000 00000000 00000000 00000000  ................
 0db0 00000000 00000200 e4020000 00000000  ................
 0dc0 00000000 00000000 00000000 00000200  ................
 0dd0 e8020000 00000000 00000000 00000000  ................
 0de0 00000000 00000200 e8020000 00000000  ................
 0df0 00000000 00000000 00000000 00000200  ................
 0e00 ec020000 00000000 00000000 00000000  ................
 0e10 00000000 00000200 f0020000 00000000  ................
 0e20 00000000 00000000 00000000 00000200  ................
 0e30 f4020000 00000000 00000000 00000000  ................
 0e40 00000000 00000200 f8020000 00000000  ................
 0e50 00000000 00000000 00000000 00000200  ................
 0e60 f8020000 00000000 00000000 00000000  ................
 0e70 00000000 00000200 04030000 00000000  ................
 0e80 00000000 00000000 00000000 00000200  ................
 0e90 1c030000 00000000 00000000 00000000  ................
 0ea0 00000000 00000200 1c030000 00000000  ................
 0eb0 00000000 00000000 00000000 00000200  ................
 0ec0 1c030000 00000000 00000000 00000000  ................
 0ed0 00000000 00000200 1c030000 00000000  ................
 0ee0 00000000 00000000 00000000 00000200  ................
 0ef0 1c030000 00000000 00000000 00000000  ................
 0f00 00000000 00000200 20030000 00000000  ........ .......
 0f10 00000000 00000000 00000000 00000200  ................
 0f20 30030000 00000000 00000000 00000000  0...............
 0f30 00000000 00000200 30030000 00000000  ........0.......
 0f40 00000000 00000000 00000000 00000200  ................
 0f50 3c030000 00000000 00000000 00000000  <...............
 0f60 00000000 00000200 40030000 00000000  ........@.......
 0f70 00000000 00000000 00000000 00000200  ................
 0f80 40040000 00000000 00000000 00000000  @...............
 0f90 00000000 00000200 40040000 00000000  ........@.......
 0fa0 00000000 00000000 00000000 00000200  ................
 0fb0 64040000 00000000 00000000 00000000  d...............
 0fc0 00000000 00000200 64040000 00000000  ........d.......
 0fd0 00000000 00000000 00000000 00000200  ................
 0fe0 6c040000 00000000 00000000 00000000  l...............
 0ff0 00000000 00000200 74040000 00000000  ........t.......
 1000 00000000 00000000 00000000 00000200  ................
 1010 78040000 00000000 00000000 00000000  x...............
 1020 00000000 00000200 7c040000 00000000  ........|.......
 1030 00000000 00000000 00000000 00000200  ................
 1040 84040000 00000000 00000000 00000000  ................
 1050 00000000 00000200 84040000 00000000  ................
 1060 00000000 00000000 00000000 00000200  ................
 1070 88040000 00000000 00000000 00000000  ................
 1080 00000000 00000200 8c040000 00000000  ................
 1090 00000000 00000000 00000000 00000200  ................
 10a0 90040000 00000000 00000000 00000000  ................
 10b0 00000000 00000200 90040000 00000000  ................
 10c0 00000000 00000000 00000000 00000200  ................
 10d0 a4040000 00000000 00000000 00000000  ................
 10e0 00000000 00000200 a4040000 00000000  ................
 10f0 00000000 00000000 00000000 00000200  ................
 1100 c0040000 00000000 00000000 00000000  ................
 1110 00000000 00000200 c0040000 00000000  ................
 1120 00000000 00000000 5d000000 02000200  ........].......
 1130 30050000 00000000 08000000 00000000  0...............
 1140 00000000 00000200 c4040000 00000000  ................
 1150 00000000 00000000 00000000 00000200  ................
 1160 cc040000 00000000 00000000 00000000  ................
 1170 00000000 00000200 d0040000 00000000  ................
 1180 00000000 00000000 00000000 00000200  ................
 1190 d0040000 00000000 00000000 00000000  ................
 11a0 00000000 00000200 d8040000 00000000  ................
 11b0 00000000 00000000 00000000 00000200  ................
 11c0 dc040000 00000000 00000000 00000000  ................
 11d0 00000000 00000200 e4040000 00000000  ................
 11e0 00000000 00000000 00000000 00000200  ................
 11f0 e4040000 00000000 00000000 00000000  ................
 1200 00000000 00000200 e8040000 00000000  ................
 1210 00000000 00000000 00000000 00000200  ................
 1220 e8040000 00000000 00000000 00000000  ................
 1230 00000000 00000200 ec040000 00000000  ................
 1240 00000000 00000000 00000000 00000200  ................
 1250 ec040000 00000000 00000000 00000000  ................
 1260 00000000 00000200 f0040000 00000000  ................
 1270 00000000 00000000 00000000 00000200  ................
 1280 f8040000 00000000 00000000 00000000  ................
 1290 00000000 00000200 f8040000 00000000  ................
 12a0 00000000 00000000 00000000 00000200  ................
 12b0 04050000 00000000 00000000 00000000  ................
 12c0 00000000 00000200 08050000 00000000  ................
 12d0 00000000 00000000 00000000 00000200  ................
 12e0 0c050000 00000000 00000000 00000000  ................
 12f0 00000000 00000200 0c050000 00000000  ................
 1300 00000000 00000000 00000000 00000200  ................
 1310 30050000 00000000 00000000 00000000  0...............
 1320 00000000 00000200 30050000 00000000  ........0.......
 1330 00000000 00000000 00000000 00000200  ................
 1340 30050000 00000000 00000000 00000000  0...............
 1350 00000000 00000200 30050000 00000000  ........0.......
 1360 00000000 00000000 00000000 00000200  ................
 1370 30050000 00000000 00000000 00000000  0...............
 1380 00000000 00000200 30050000 00000000  ........0.......
 1390 00000000 00000000 00000000 00000200  ................
 13a0 34050000 00000000 00000000 00000000  4...............
 13b0 00000000 00000200 38050000 00000000  ........8.......
 13c0 00000000 00000000 00000000 00000200  ................
 13d0 38050000 00000000 00000000 00000000  8...............
 13e0 00000000 00000200 38050000 00000000  ........8.......
 13f0 00000000 00000000 00000000 00000200  ................
 1400 38050000 00000000 00000000 00000000  8...............
 1410 00000000 00000200 38050000 00000000  ........8.......
 1420 00000000 00000000 00000000 00000200  ................
 1430 3c050000 00000000 00000000 00000000  <...............
 1440 00000000 00000200 3c050000 00000000  ........<.......
 1450 00000000 00000000 00000000 00000200  ................
 1460 44050000 00000000 00000000 00000000  D...............
 1470 00000000 00000200 44050000 00000000  ........D.......
 1480 00000000 00000000 00000000 00000200  ................
 1490 44050000 00000000 00000000 00000000  D...............
 14a0 00000000 00000200 4c050000 00000000  ........L.......
 14b0 00000000 00000000 00000000 00000200  ................
 14c0 50050000 00000000 00000000 00000000  P...............
 14d0 00000000 00000200 50050000 00000000  ........P.......
 14e0 00000000 00000000 00000000 00000200  ................
 14f0 58050000 00000000 00000000 00000000  X...............
 1500 00000000 00000200 58050000 00000000  ........X.......
 1510 00000000 00000000 00000000 00000200  ................
 1520 5c050000 00000000 00000000 00000000  \...............
 1530 00000000 00000200 60050000 00000000  ........`.......
 1540 00000000 00000000 00000000 00000200  ................
 1550 60050000 00000000 00000000 00000000  `...............
 1560 00000000 00000200 6c050000 00000000  ........l.......
 1570 00000000 00000000 00000000 00000200  ................
 1580 70050000 00000000 00000000 00000000  p...............
 1590 00000000 00000200 74050000 00000000  ........t.......
 15a0 00000000 00000000 00000000 00000200  ................
 15b0 78050000 00000000 00000000 00000000  x...............
 15c0 00000000 00000200 88050000 00000000  ................
 15d0 00000000 00000000 00000000 00000200  ................
 15e0 88050000 00000000 00000000 00000000  ................
 15f0 00000000 00000400 00000000 00000000  ................
 1600 00000000 00000000 00000000 00000400  ................
 1610 23000000 00000000 00000000 00000000  #...............
 1620 00000000 00000400 7b000000 00000000  ........{.......
 1630 00000000 00000000 00000000 00000400  ................
 1640 9e000000 00000000 00000000 00000000  ................
 1650 00000000 00000400 d4000000 00000000  ................
 1660 00000000 00000000 00000000 00000400  ................
 1670 f7000000 00000000 00000000 00000000  ................
 1680 00000000 00000400 1a010000 00000000  ................
 1690 00000000 00000000 00000000 00000400  ................
 16a0 3d010000 00000000 00000000 00000000  =...............
 16b0 00000000 00000400 61010000 00000000  ........a.......
 16c0 00000000 00000000 00000000 00000400  ................
 16d0 84010000 00000000 00000000 00000000  ................
 16e0 00000000 00000400 a7010000 00000000  ................
 16f0 00000000 00000000 00000000 00000400  ................
 1700 ca010000 00000000 00000000 00000000  ................
 1710 00000000 00000400 ed010000 00000000  ................
 1720 00000000 00000000 00000000 00000400  ................
 1730 11020000 00000000 00000000 00000000  ................
 1740 00000000 00000400 68020000 00000000  ........h.......
 1750 00000000 00000000 00000000 00000400  ................
 1760 8d020000 00000000 00000000 00000000  ................
 1770 00000000 00000400 b3020000 00000000  ................
 1780 00000000 00000000 00000000 00000400  ................
 1790 0a030000 00000000 00000000 00000000  ................
 17a0 00000000 00000400 61030000 00000000  ........a.......
 17b0 00000000 00000000 00000000 00000400  ................
 17c0 86030000 00000000 00000000 00000000  ................
 17d0 00000000 00000400 ac030000 00000000  ................
 17e0 00000000 00000000 00000000 00000400  ................
 17f0 14040000 00000000 00000000 00000000  ................
 1800 00000000 00000400 37040000 00000000  ........7.......
 1810 00000000 00000000 00000000 00000400  ................
 1820 82040000 00000000 00000000 00000000  ................
 1830 81000000 00000c00 00000000 00000000  ................
 1840 00000000 00000000 00000000 00000700  ................
 1850 00000000 00000000 00000000 00000000  ................
 1860 00000000 00000b00 00000000 00000000  ................
 1870 00000000 00000000 00000000 00000200  ................
 1880 88050000 00000000 00000000 00000000  ................
 1890 95000000 1000f1ff 00000100 00000000  ................
 18a0 00000000 00000000 9a000000 12000200  ................
 18b0 38050000 00000000 50000000 00000000  8.......P.......
 18c0 9f000000 12000200 14000000 00000000  ................
 18d0 1c000000 00000000 a6000000 12000200  ................
 18e0 30000000 00000000 24000000 00000000  0.......$.......
 18f0 ad000000 12000200 54000000 00000000  ........T.......
 1900 54000000 00000000 c5000000 12000200  T...............
 1910 a8000000 00000000 64000000 00000000  ........d.......
 1920 e8000000 12000200 0c010000 00000000  ................
 1930 10020000 00000000 fb000000 12000200  ................
 1940 1c030000 00000000 14020000 00000000  ................
 1950 14010000 1000f1ff 00000001 00000000  ................
 1960 00000000 00000000 24010000 1000f1ff  ........$.......
 1970 08000001 00000000 00000000 00000000  ................
 1980 34010000 1000f1ff 00500200 00000000  4........P......
 1990 00000000 00000000                    ........
Contents of section .shstrtab:
 0000 002e7465 78742e69 6e697400 2e746578  ..text.init..tex
 0010 74002e64 61746100 2e646562 75675f6c  t..data..debug_l
 0020 6f63002e 64656275 675f6162 62726576  oc..debug_abbrev
 0030 002e6465 6275675f 696e666f 002e6465  ..debug_info..de
 0040 6275675f 72616e67 6573002e 64656275  bug_ranges..debu
 0050 675f7374 72002e63 6f6d6d65 6e74002e  g_str..comment..
 0060 72697363 762e6174 74726962 75746573  riscv.attributes
 0070 002e6465 6275675f 6672616d 65002e64  ..debug_frame..d
 0080 65627567 5f6c696e 65002e73 796d7461  ebug_line..symta
 0090 62002e73 68737472 74616200 2e737472  b..shstrtab..str
 00a0 74616200                             tab.
Contents of section .strtab:
 0000 00656e74 7279002e 4c706372 656c5f68  .entry..Lpcrel_h
 0010 69300065 6e640076 6563746f 725f6d65  i0.end.vector_me
 0020 6d637079 5f706f69 6e746572 732e6370  mcpy_pointers.cp
 0030 70002e4c 5f5f636f 6e73742e 5f5a3139  p..L__const._Z19
 0040 72756e5f 696e7661 6c696461 74655f74  run_invalidate_t
 0050 65737476 2e696e64 69636573 005f5a4c  estv.indices._ZL
 0060 31336368 6572695f 7461675f 67657455  13cheri_tag_getU
 0070 31325f5f 63617061 62696c69 74795076  12__capabilityPv
 0080 002e4c6c 696e655f 7461626c 655f7374  ..Lline_table_st
 0090 61727430 005f5f73 70006d61 696e006d  art0.__sp.main.m
 00a0 656d7365 74006d65 6d637079 005f5a31  emset.memcpy._Z1
 00b0 33766563 746f725f 6d656d63 70795068  3vector_memcpyPh
 00c0 504b686d 005f5a32 34766563 746f725f  PKhm._Z24vector_
 00d0 6d656d63 70795f69 6e76616c 69646174  memcpy_invalidat
 00e0 65506850 4b686d00 5f5a3133 72756e5f  ePhPKhm._Z13run_
 00f0 62617365 5f746573 7476005f 5a313972  base_testv._Z19r
 0100 756e5f69 6e76616c 69646174 655f7465  un_invalidate_te
 0110 73747600 6f757470 75744174 74656d70  stv.outputAttemp
 0120 74656400 6f757470 75745375 63636565  ted.outputSuccee
 0130 64656400 72616d42 6f756e64 61727900  ded.ramBoundary.

Disassembly of section .text.init:

0000000000000000 <entry>:
       0: 17 01 01 00  	auipc	sp, 16
       4: 13 01 01 02  	addi	sp, sp, 32
       8: 97 00 00 00  	auipc	ra, 0
       c: e7 80 00 53  	jalr	1328(ra)

0000000000000010 <end>:
      10: 6f 00 00 00  	j	0x10 <.Lline_table_start0+0x10>

Disassembly of section .text:

0000000000000014 <memset>:
;     for (int i = 0; i < count; i++) {
      14: 63 0c 06 00  	beqz	a2, 0x2c <memset+0x18>
      18: 93 06 05 00  	mv	a3, a0
;         *(dest_uc + i) = ch_uc;
      1c: 23 80 b6 00  	sb	a1, 0(a3)
;     for (int i = 0; i < count; i++) {
      20: 13 06 f6 ff  	addi	a2, a2, -1
      24: 93 86 16 00  	addi	a3, a3, 1
      28: e3 1a 06 fe  	bnez	a2, 0x1c <memset+0x8>
;     return dest_uc;
      2c: 67 80 00 00  	ret

0000000000000030 <memcpy>:
;     while(count > 0) {
      30: 63 00 06 02  	beqz	a2, 0x50 <memcpy+0x20>
      34: 93 06 05 00  	mv	a3, a0
;         *dest_uc = *src_uc;
      38: 03 87 05 00  	lb	a4, 0(a1)
      3c: 23 80 e6 00  	sb	a4, 0(a3)
;         dest_uc++;
      40: 93 86 16 00  	addi	a3, a3, 1
;         count--;
      44: 13 06 f6 ff  	addi	a2, a2, -1
;         src_uc++;
      48: 93 85 15 00  	addi	a1, a1, 1
;     while(count > 0) {
      4c: e3 16 06 fe  	bnez	a2, 0x38 <memcpy+0x8>
;     return dest;
      50: 67 80 00 00  	ret

0000000000000054 <_Z13vector_memcpyPhPKhm>:
; void vector_memcpy(uint8_t __attribute__((aligned(16)))* dst, const uint8_t __attribute__((aligned(16)))* src, size_t num_bytes) {
      54: 93 06 00 01  	addi	a3, zero, 16
;     while (num_bytes >= 16) {
      58: 63 66 d6 02  	bltu	a2, a3, 0x84 <_Z13vector_memcpyPhPKhm+0x30>
      5c: 93 06 f0 00  	addi	a3, zero, 15
;         size_t num_elements = num_bytes / 16;
      60: 13 57 46 00  	srli	a4, a2, 4
;         asm volatile ("vsetvli %0, %1, e128, m8, tu, mu" : "=r"(copied_128bit_elems_per_iter) : "r"(num_elements));
      64: 57 77 37 02  	<unknown>
;         asm volatile ("vle128.v v8, (%0)" :: ASM_PREG(src));
      68: 07 84 05 12  	<unknown>
;         asm volatile ("vse128.v v8, (%0)" :: ASM_PREG(dst));
      6c: 27 04 05 12  	<unknown>
;         src += copied_128bit_elems_per_iter * 16;
      70: 13 17 47 00  	slli	a4, a4, 4
      74: b3 85 e5 00  	add	a1, a1, a4
;         num_bytes -= copied_128bit_elems_per_iter * 16;
      78: 33 06 e6 40  	sub	a2, a2, a4
;         dst += copied_128bit_elems_per_iter * 16;
      7c: 33 05 e5 00  	add	a0, a0, a4
;     while (num_bytes >= 16) {
      80: e3 e0 c6 fe  	bltu	a3, a2, 0x60 <_Z13vector_memcpyPhPKhm+0xc>
;     while (num_bytes > 0) {
      84: 63 00 06 02  	beqz	a2, 0xa4 <_Z13vector_memcpyPhPKhm+0x50>
;         size_t copied_per_iter = vsetvl_e8m8(num_bytes);
      88: d7 76 36 04  	<unknown>
;         asm volatile ("vle8.v %0, (%1)" : "=vr"(data) : ASM_PREG(src));
      8c: 07 84 05 02  	<unknown>
;         asm volatile ("vse8.v %0, (%1)" :: "vr"(data),  ASM_PREG(dst));
      90: 27 04 05 02  	<unknown>
;         src += copied_per_iter;
      94: b3 85 d5 00  	add	a1, a1, a3
;         num_bytes -= copied_per_iter;
      98: 33 06 d6 40  	sub	a2, a2, a3
;         dst += copied_per_iter;
      9c: 33 05 d5 00  	add	a0, a0, a3
;     while (num_bytes > 0) {
      a0: e3 14 06 fe  	bnez	a2, 0x88 <_Z13vector_memcpyPhPKhm+0x34>
; }
      a4: 67 80 00 00  	ret

00000000000000a8 <_Z24vector_memcpy_invalidatePhPKhm>:
; void vector_memcpy_invalidate(uint8_t __attribute__((aligned(16)))* dst, const uint8_t __attribute__((aligned(16)))* src, size_t num_bytes) {
      a8: 93 06 00 01  	addi	a3, zero, 16
;     while (num_bytes >= 16) {
      ac: 63 6e d6 02  	bltu	a2, a3, 0xe8 <_Z24vector_memcpy_invalidatePhPKhm+0x40>
      b0: 93 06 f0 00  	addi	a3, zero, 15
;         size_t num_elements = num_bytes / 16;
      b4: 13 57 46 00  	srli	a4, a2, 4
;         asm volatile ("vsetvli %0, %1, e128, m4, tu, mu" : "=r"(copied_128bit_elems_per_iter) : "r"(num_elements));
      b8: 57 77 27 02  	<unknown>
;         asm volatile ("vle128.v v8, (%0)" :: ASM_PREG(src));
      bc: 07 84 05 12  	<unknown>
;         size_t num_64bit_elements = 2 * copied_128bit_elems_per_iter;
      c0: 93 17 17 00  	slli	a5, a4, 1
;         asm volatile ("vsetvli x0, %0, e64, m8, tu, mu" :: "r"(num_64bit_elements));
      c4: 57 f0 b7 01  	<unknown>
;         asm volatile ("vadd.vi v8, v8, 0");
      c8: 57 34 80 02  	<unknown>
;         asm volatile ("vsetvli x0, x0, e128, m4, tu, mu");
      cc: 57 70 20 02  	<unknown>
;         asm volatile ("vse128.v v8, (%0)" :: ASM_PREG(dst));
      d0: 27 04 05 12  	<unknown>
;         src += copied_128bit_elems_per_iter * 16;
      d4: 13 17 47 00  	slli	a4, a4, 4
      d8: b3 85 e5 00  	add	a1, a1, a4
;         num_bytes -= copied_128bit_elems_per_iter * 16;
      dc: 33 06 e6 40  	sub	a2, a2, a4
;         dst += copied_128bit_elems_per_iter * 16;
      e0: 33 05 e5 00  	add	a0, a0, a4
;     while (num_bytes >= 16) {
      e4: e3 e8 c6 fc  	bltu	a3, a2, 0xb4 <_Z24vector_memcpy_invalidatePhPKhm+0xc>
;     while (num_bytes > 0) {
      e8: 63 00 06 02  	beqz	a2, 0x108 <_Z24vector_memcpy_invalidatePhPKhm+0x60>
;         size_t copied_per_iter = vsetvl_e8m8(num_bytes);
      ec: d7 76 36 04  	<unknown>
;         asm volatile ("vle8.v %0, (%1)" : "=vr"(data) : ASM_PREG(src));
      f0: 07 84 05 02  	<unknown>
;         asm volatile ("vse8.v %0, (%1)" :: "vr"(data),  ASM_PREG(dst));
      f4: 27 04 05 02  	<unknown>
;         src += copied_per_iter;
      f8: b3 85 d5 00  	add	a1, a1, a3
;         num_bytes -= copied_per_iter;
      fc: 33 06 d6 40  	sub	a2, a2, a3
;         dst += copied_per_iter;
     100: 33 05 d5 00  	add	a0, a0, a3
;     while (num_bytes > 0) {
     104: e3 14 06 fe  	bnez	a2, 0xec <_Z24vector_memcpy_invalidatePhPKhm+0x44>
; }
     108: 67 80 00 00  	ret

000000000000010c <_Z13run_base_testv>:
; int run_base_test(void) {
     10c: 13 01 01 81  	addi	sp, sp, -2032
     110: 23 34 11 7e  	sd	ra, 2024(sp)
     114: 37 25 00 00  	lui	a0, 2
     118: 1b 05 05 87  	addiw	a0, a0, -1936
     11c: 33 01 a1 40  	sub	sp, sp, a0
     120: 13 05 00 00  	mv	a0, zero
;     Base bases[4] = {
     124: b7 25 00 00  	lui	a1, 2
     128: 9b 85 05 01  	addiw	a1, a1, 16
     12c: b3 05 b1 00  	add	a1, sp, a1
     130: 23 c0 05 00  	sc	cnull, 0(a1)
     134: b7 25 00 00  	lui	a1, 2
     138: 9b 85 05 02  	addiw	a1, a1, 32
     13c: b3 05 b1 00  	add	a1, sp, a1
     140: 23 c0 05 00  	sc	cnull, 0(a1)
     144: b7 25 00 00  	lui	a1, 2
     148: 9b 85 05 03  	addiw	a1, a1, 48
     14c: b3 05 b1 00  	add	a1, sp, a1
     150: 23 c0 05 00  	sc	cnull, 0(a1)
     154: b7 25 00 00  	lui	a1, 2
     158: 9b 85 05 04  	addiw	a1, a1, 64
     15c: b3 05 b1 00  	add	a1, sp, a1
     160: 23 c0 05 00  	sc	cnull, 0(a1)
     164: b7 75 74 00  	lui	a1, 1863
     168: 9b 85 15 ef  	addiw	a1, a1, -271
     16c: 93 95 f5 00  	slli	a1, a1, 15
     170: 93 85 35 95  	addi	a1, a1, -1709
     174: 93 95 d5 00  	slli	a1, a1, 13
     178: 93 85 95 b4  	addi	a1, a1, -1207
     17c: 93 95 c5 00  	slli	a1, a1, 12
     180: 93 85 a5 75  	addi	a1, a1, 1882
     184: 37 26 00 00  	lui	a2, 2
     188: 1b 06 06 01  	addiw	a2, a2, 16
     18c: 33 06 c1 00  	add	a2, sp, a2
     190: 23 30 b6 00  	sd	a1, 0(a2)
     194: b7 45 67 fc  	lui	a1, 1033844
     198: 9b 85 35 f0  	addiw	a1, a1, -253
     19c: 93 95 c5 00  	slli	a1, a1, 12
     1a0: 93 85 d5 21  	addi	a1, a1, 541
     1a4: 93 95 d5 00  	slli	a1, a1, 13
     1a8: 93 85 b5 62  	addi	a1, a1, 1579
     1ac: 93 95 c5 00  	slli	a1, a1, 12
     1b0: 93 85 45 4a  	addi	a1, a1, 1188
     1b4: 37 26 00 00  	lui	a2, 2
     1b8: 1b 06 06 02  	addiw	a2, a2, 32
     1bc: 33 06 c1 00  	add	a2, sp, a2
     1c0: 23 30 b6 00  	sd	a1, 0(a2)
     1c4: b7 55 ce 00  	lui	a1, 3301
     1c8: 9b 85 35 f3  	addiw	a1, a1, -205
     1cc: 93 95 d5 00  	slli	a1, a1, 13
     1d0: 93 85 75 5c  	addi	a1, a1, 1479
     1d4: 93 95 e5 00  	slli	a1, a1, 14
     1d8: 93 85 f5 33  	addi	a1, a1, 831
     1dc: 93 95 c5 00  	slli	a1, a1, 12
     1e0: 93 85 e5 cd  	addi	a1, a1, -802
     1e4: 37 26 00 00  	lui	a2, 2
     1e8: 1b 06 06 03  	addiw	a2, a2, 48
     1ec: 33 06 c1 00  	add	a2, sp, a2
     1f0: 23 30 b6 00  	sd	a1, 0(a2)
     1f4: b7 05 2a ff  	lui	a1, 1045152
     1f8: 9b 85 95 eb  	addiw	a1, a1, -327
     1fc: 93 95 e5 00  	slli	a1, a1, 14
     200: 93 85 b5 e3  	addi	a1, a1, -453
     204: 93 95 c5 00  	slli	a1, a1, 12
     208: 93 85 f5 d6  	addi	a1, a1, -657
     20c: 93 95 d5 00  	slli	a1, a1, 13
     210: 93 85 75 69  	addi	a1, a1, 1687
     214: 37 26 00 00  	lui	a2, 2
     218: 1b 06 06 04  	addiw	a2, a2, 64
     21c: 33 06 c1 00  	add	a2, sp, a2
     220: 23 30 b6 00  	sd	a1, 0(a2)
;     for (size_t i = 0; i < 128; i++) {
     224: b7 15 00 00  	lui	a1, 1
     228: 9b 85 05 02  	addiw	a1, a1, 32
     22c: b3 05 b1 00  	add	a1, sp, a1
     230: 37 06 00 00  	lui	a2, 0
     234: 13 06 86 58  	addi	a2, a2, 1416
     238: b7 26 00 00  	lui	a3, 2
     23c: 9b 86 06 01  	addiw	a3, a3, 16
     240: 33 08 d1 00  	add	a6, sp, a3
     244: 13 07 00 20  	addi	a4, zero, 512
;         int index = indices[i];
     248: b3 07 c5 00  	add	a5, a0, a2
     24c: 83 a7 07 00  	lw	a5, 0(a5)
;             .expected_base_value = bases[index].value,
     250: 93 97 47 00  	slli	a5, a5, 4
     254: b3 07 f8 00  	add	a5, a6, a5
     258: 83 b6 07 00  	ld	a3, 0(a5)
;             .base_ptr = (Base* CAPABILITY_IF_SUPPORTED) &bases[index]
     25c: db 07 f0 26  	cfromptr	ca5, ddc, a5
;         source_array[i] = Element {
     260: 23 b8 d5 fe  	sd	a3, -16(a1)
     264: 23 c0 f5 00  	sc	ca5, 0(a1)
;     for (size_t i = 0; i < 128; i++) {
     268: 13 05 45 00  	addi	a0, a0, 4
     26c: 93 85 05 02  	addi	a1, a1, 32
     270: e3 1c e5 fc  	bne	a0, a4, 0x248 <_Z13run_base_testv+0x13c>
;     Element dest_array[128] = {0};
     274: 13 05 01 01  	addi	a0, sp, 16
     278: 37 16 00 00  	lui	a2, 1
     27c: 93 05 00 00  	mv	a1, zero
     280: 97 00 00 00  	auipc	ra, 0
     284: e7 80 40 d9  	jalr	-620(ra)
;     vector_memcpy((uint8_t*)dst_ptr, (const uint8_t*)src_ptr, sizeof(Element) * 128);
     288: 13 05 01 01  	addi	a0, sp, 16
     28c: b7 15 00 00  	lui	a1, 1
     290: 9b 85 05 01  	addiw	a1, a1, 16
     294: b3 05 b1 00  	add	a1, sp, a1
     298: 37 16 00 00  	lui	a2, 1
     29c: 97 00 00 00  	auipc	ra, 0
     2a0: e7 80 80 db  	jalr	-584(ra)
     2a4: 13 05 00 00  	mv	a0, zero
;     for (size_t i = 0; i < 128; i++) {
     2a8: 93 05 01 02  	addi	a1, sp, 32
     2ac: 37 06 00 00  	lui	a2, 0
     2b0: 13 06 86 58  	addi	a2, a2, 1416
     2b4: b7 26 00 00  	lui	a3, 2
     2b8: 9b 86 06 01  	addiw	a3, a3, 16
     2bc: b3 08 d1 00  	add	a7, sp, a3
     2c0: 13 08 00 20  	addi	a6, zero, 512
;         if (dest_array[i].base_ptr->value != dest_array[i].expected_base_value) {
     2c4: 8f a7 05 00  	lc	ca5, 0(a1)
     2c8: 5b 87 b7 fa  	ld.cap	a4, (ca5)
     2cc: 83 b6 05 ff  	ld	a3, -16(a1)
     2d0: 63 18 d7 02  	bne	a4, a3, 0x300 <_Z13run_base_testv+0x1f4>
;         if (dest_array[i].base_ptr != (Base* CAPABILITY_IF_SUPPORTED) &bases[indices[i]]) {
     2d4: b3 06 c5 00  	add	a3, a0, a2
     2d8: 83 a6 06 00  	lw	a3, 0(a3)
     2dc: 93 96 46 00  	slli	a3, a3, 4
     2e0: b3 86 d8 00  	add	a3, a7, a3
     2e4: db 06 d0 26  	cfromptr	ca3, ddc, a3
     2e8: 63 9c d7 00  	bne	a5, a3, 0x300 <_Z13run_base_testv+0x1f4>
;     for (size_t i = 0; i < 128; i++) {
     2ec: 13 05 45 00  	addi	a0, a0, 4
     2f0: 93 85 05 02  	addi	a1, a1, 32
     2f4: e3 18 05 fd  	bne	a0, a6, 0x2c4 <_Z13run_base_testv+0x1b8>
     2f8: 13 05 10 00  	addi	a0, zero, 1
     2fc: 6f 00 80 00  	j	0x304 <_Z13run_base_testv+0x1f8>
     300: 13 05 00 00  	mv	a0, zero
; }
     304: b7 25 00 00  	lui	a1, 2
     308: 9b 85 05 87  	addiw	a1, a1, -1936
     30c: 33 01 b1 00  	add	sp, sp, a1
     310: 83 30 81 7e  	ld	ra, 2024(sp)
     314: 13 01 01 7f  	addi	sp, sp, 2032
     318: 67 80 00 00  	ret

000000000000031c <_Z19run_invalidate_testv>:
; int run_invalidate_test(void) {
     31c: 13 01 01 81  	addi	sp, sp, -2032
     320: 23 34 11 7e  	sd	ra, 2024(sp)
     324: 23 30 81 7e  	sd	s0, 2016(sp)
     328: 23 3c 91 7c  	sd	s1, 2008(sp)
     32c: 23 38 21 7d  	sd	s2, 2000(sp)
     330: 37 25 00 00  	lui	a0, 2
     334: 1b 05 05 88  	addiw	a0, a0, -1920
     338: 33 01 a1 40  	sub	sp, sp, a0
     33c: 13 05 00 00  	mv	a0, zero
;     Base bases[4] = {
     340: b7 25 00 00  	lui	a1, 2
     344: 9b 85 05 01  	addiw	a1, a1, 16
     348: b3 05 b1 00  	add	a1, sp, a1
     34c: 23 c0 05 00  	sc	cnull, 0(a1)
     350: b7 25 00 00  	lui	a1, 2
     354: 9b 85 05 02  	addiw	a1, a1, 32
     358: b3 05 b1 00  	add	a1, sp, a1
     35c: 23 c0 05 00  	sc	cnull, 0(a1)
     360: b7 25 00 00  	lui	a1, 2
     364: 9b 85 05 03  	addiw	a1, a1, 48
     368: b3 05 b1 00  	add	a1, sp, a1
     36c: 23 c0 05 00  	sc	cnull, 0(a1)
     370: b7 25 00 00  	lui	a1, 2
     374: 9b 85 05 04  	addiw	a1, a1, 64
     378: b3 05 b1 00  	add	a1, sp, a1
     37c: 23 c0 05 00  	sc	cnull, 0(a1)
     380: b7 75 74 00  	lui	a1, 1863
     384: 9b 85 15 ef  	addiw	a1, a1, -271
     388: 93 95 f5 00  	slli	a1, a1, 15
     38c: 93 85 35 95  	addi	a1, a1, -1709
     390: 93 95 d5 00  	slli	a1, a1, 13
     394: 93 85 95 b4  	addi	a1, a1, -1207
     398: 93 95 c5 00  	slli	a1, a1, 12
     39c: 93 85 a5 75  	addi	a1, a1, 1882
     3a0: 37 26 00 00  	lui	a2, 2
     3a4: 1b 06 06 01  	addiw	a2, a2, 16
     3a8: 33 06 c1 00  	add	a2, sp, a2
     3ac: 23 30 b6 00  	sd	a1, 0(a2)
     3b0: b7 45 67 fc  	lui	a1, 1033844
     3b4: 9b 85 35 f0  	addiw	a1, a1, -253
     3b8: 93 95 c5 00  	slli	a1, a1, 12
     3bc: 93 85 d5 21  	addi	a1, a1, 541
     3c0: 93 95 d5 00  	slli	a1, a1, 13
     3c4: 93 85 b5 62  	addi	a1, a1, 1579
     3c8: 93 95 c5 00  	slli	a1, a1, 12
     3cc: 93 85 45 4a  	addi	a1, a1, 1188
     3d0: 37 26 00 00  	lui	a2, 2
     3d4: 1b 06 06 02  	addiw	a2, a2, 32
     3d8: 33 06 c1 00  	add	a2, sp, a2
     3dc: 23 30 b6 00  	sd	a1, 0(a2)
     3e0: b7 55 ce 00  	lui	a1, 3301
     3e4: 9b 85 35 f3  	addiw	a1, a1, -205
     3e8: 93 95 d5 00  	slli	a1, a1, 13
     3ec: 93 85 75 5c  	addi	a1, a1, 1479
     3f0: 93 95 e5 00  	slli	a1, a1, 14
     3f4: 93 85 f5 33  	addi	a1, a1, 831
     3f8: 93 95 c5 00  	slli	a1, a1, 12
     3fc: 93 85 e5 cd  	addi	a1, a1, -802
     400: 37 26 00 00  	lui	a2, 2
     404: 1b 06 06 03  	addiw	a2, a2, 48
     408: 33 06 c1 00  	add	a2, sp, a2
     40c: 23 30 b6 00  	sd	a1, 0(a2)
     410: b7 05 2a ff  	lui	a1, 1045152
     414: 9b 85 95 eb  	addiw	a1, a1, -327
     418: 93 95 e5 00  	slli	a1, a1, 14
     41c: 93 85 b5 e3  	addi	a1, a1, -453
     420: 93 95 c5 00  	slli	a1, a1, 12
     424: 93 85 f5 d6  	addi	a1, a1, -657
     428: 93 95 d5 00  	slli	a1, a1, 13
     42c: 93 85 75 69  	addi	a1, a1, 1687
     430: 37 26 00 00  	lui	a2, 2
     434: 1b 06 06 04  	addiw	a2, a2, 64
     438: 33 06 c1 00  	add	a2, sp, a2
     43c: 23 30 b6 00  	sd	a1, 0(a2)
;     for (size_t i = 0; i < 128; i++) {
     440: b7 15 00 00  	lui	a1, 1
     444: 9b 85 05 02  	addiw	a1, a1, 32
     448: b3 05 b1 00  	add	a1, sp, a1
     44c: 37 06 00 00  	lui	a2, 0
     450: 13 06 86 58  	addi	a2, a2, 1416
     454: b7 26 00 00  	lui	a3, 2
     458: 9b 86 06 01  	addiw	a3, a3, 16
     45c: b3 06 d1 00  	add	a3, sp, a3
     460: 13 07 00 20  	addi	a4, zero, 512
;         int index = indices[i];
     464: b3 07 c5 00  	add	a5, a0, a2
     468: 83 a7 07 00  	lw	a5, 0(a5)
;             .expected_base_value = bases[index].value,
     46c: 93 97 47 00  	slli	a5, a5, 4
     470: b3 87 f6 00  	add	a5, a3, a5
     474: 83 b4 07 00  	ld	s1, 0(a5)
;             .base_ptr = (Base* CAPABILITY_IF_SUPPORTED) &bases[index]
     478: db 07 f0 26  	cfromptr	ca5, ddc, a5
;         source_array[i] = Element {
     47c: 23 b8 95 fe  	sd	s1, -16(a1)
     480: 23 c0 f5 00  	sc	ca5, 0(a1)
;     for (size_t i = 0; i < 128; i++) {
     484: 13 05 45 00  	addi	a0, a0, 4
     488: 93 85 05 02  	addi	a1, a1, 32
     48c: e3 1c e5 fc  	bne	a0, a4, 0x464 <_Z19run_invalidate_testv+0x148>
;     Element dest_array[128] = {0};
     490: 13 05 01 01  	addi	a0, sp, 16
     494: 37 16 00 00  	lui	a2, 1
     498: 93 05 00 00  	mv	a1, zero
     49c: 97 00 00 00  	auipc	ra, 0
     4a0: e7 80 80 b7  	jalr	-1160(ra)
;     vector_memcpy_invalidate((uint8_t*)dst_ptr, (const uint8_t*)src_ptr, sizeof(Element) * 128);
     4a4: 13 05 01 01  	addi	a0, sp, 16
     4a8: b7 15 00 00  	lui	a1, 1
     4ac: 9b 85 05 01  	addiw	a1, a1, 16
     4b0: b3 05 b1 00  	add	a1, sp, a1
     4b4: 37 16 00 00  	lui	a2, 1
     4b8: 97 00 00 00  	auipc	ra, 0
     4bc: e7 80 00 bf  	jalr	-1040(ra)
;         Base* CAPABILITY_IF_SUPPORTED ptr = dest_array[i].base_ptr;
     4c0: 0f 25 01 02  	lc	ca0, 32(sp)
;         if (cheri_tag_get(ptr)) {
     4c4: 97 00 00 00  	auipc	ra, 0
     4c8: e7 80 c0 06  	jalr	108(ra)
     4cc: 93 05 05 00  	mv	a1, a0
     4d0: 13 05 00 00  	mv	a0, zero
     4d4: 63 9c 05 02  	bnez	a1, 0x50c <_Z19run_invalidate_testv+0x1f0>
     4d8: 93 05 00 00  	mv	a1, zero
;     for (size_t i = 0; i < 128; i++) {
     4dc: 13 04 01 04  	addi	s0, sp, 64
     4e0: 13 09 f0 07  	addi	s2, zero, 127
     4e4: 93 84 05 00  	mv	s1, a1
;     for (size_t i = 0; i < 128; i++) {
     4e8: 63 8e 25 01  	beq	a1, s2, 0x504 <_Z19run_invalidate_testv+0x1e8>
;         Base* CAPABILITY_IF_SUPPORTED ptr = dest_array[i].base_ptr;
     4ec: 0f 25 04 00  	lc	ca0, 0(s0)
;         if (cheri_tag_get(ptr)) {
     4f0: 97 00 00 00  	auipc	ra, 0
     4f4: e7 80 00 04  	jalr	64(ra)
     4f8: 93 85 14 00  	addi	a1, s1, 1
     4fc: 13 04 04 02  	addi	s0, s0, 32
     500: e3 02 05 fe  	beqz	a0, 0x4e4 <_Z19run_invalidate_testv+0x1c8>
     504: 13 05 e0 07  	addi	a0, zero, 126
;     for (size_t i = 0; i < 128; i++) {
     508: 33 35 95 00  	sltu	a0, a0, s1
; }
     50c: b7 25 00 00  	lui	a1, 2
     510: 9b 85 05 88  	addiw	a1, a1, -1920
     514: 33 01 b1 00  	add	sp, sp, a1
     518: 03 39 01 7d  	ld	s2, 2000(sp)
     51c: 83 34 81 7d  	ld	s1, 2008(sp)
     520: 03 34 01 7e  	ld	s0, 2016(sp)
     524: 83 30 81 7e  	ld	ra, 2024(sp)
     528: 13 01 01 7f  	addi	sp, sp, 2032
     52c: 67 80 00 00  	ret

0000000000000530 <_ZL13cheri_tag_getU12__capabilityPv>:
; __CHERI_GET(tag, __cheri_bool, _get, 0)
     530: 5b 05 45 fe  	cgettag	a0, ca0
     534: 67 80 00 00  	ret

0000000000000538 <main>:
; {
     538: 13 01 01 ff  	addi	sp, sp, -16
     53c: 23 34 11 00  	sd	ra, 8(sp)
     540: 23 30 81 00  	sd	s0, 0(sp)
;     result |= run_base_test() << 0;
     544: 97 00 00 00  	auipc	ra, 0
     548: e7 80 80 bc  	jalr	-1080(ra)
     54c: 13 04 05 00  	mv	s0, a0
;     result |= run_invalidate_test() << 1;
     550: 97 00 00 00  	auipc	ra, 0
     554: e7 80 c0 dc  	jalr	-564(ra)
     558: 13 15 15 00  	slli	a0, a0, 1
     55c: b3 65 85 00  	or	a1, a0, s0
;     *(&outputAttempted) = attempted;
     560: 37 05 00 01  	lui	a0, 4096
     564: 13 06 30 00  	addi	a2, zero, 3
     568: 23 20 c5 00  	sw	a2, 0(a0)
;     *(&outputSucceeded) = result;
     56c: 37 06 00 01  	lui	a2, 4096
;     return result;
     570: 1b 85 05 00  	sext.w	a0, a1
;     *(&outputSucceeded) = result;
     574: 23 24 b6 00  	sw	a1, 8(a2)
;     return result;
     578: 03 34 01 00  	ld	s0, 0(sp)
     57c: 83 30 81 00  	ld	ra, 8(sp)
     580: 13 01 01 01  	addi	sp, sp, 16
     584: 67 80 00 00  	ret
