	.text
	.attribute	4, 16
	.attribute	5, "rv64i2p0_m2p0_v0p10_zvlsseg0p10_xcheri0p0"
	.file	"vector_memcpy_pointers.cpp"
	.file	1 "/home/samuel/cheri/output/sdk/lib/clang/13.0.0/include" "stddef.h"
	.file	2 "/home/samuel/cheri/output/sdk/lib/clang/13.0.0/include" "stdint.h"
	.file	3 "/media/common/University/Edu/Year4_Masters/Project/riscv-v-lite/programs" "vector_memcpy_pointers/vector_memcpy_pointers.cpp"
	.globl	memset
	.p2align	2
	.type	memset,@function
memset:
.Lfunc_begin0:
	.loc	3 8 0
	.cfi_sections .debug_frame
	.cfi_startproc
	.loc	3 11 5 prologue_end
	beqz	a2, .LBB0_3
.Ltmp0:
	.loc	3 0 5 is_stmt 0
	mv	a3, a0
.Ltmp1:
.LBB0_2:
	.loc	3 12 24 is_stmt 1
	sb	a1, 0(a3)
.Ltmp2:
	.loc	3 11 23
	addi	a2, a2, -1
	addi	a3, a3, 1
.Ltmp3:
	.loc	3 11 5 is_stmt 0
	bnez	a2, .LBB0_2
.Ltmp4:
.LBB0_3:
	.loc	3 15 5 is_stmt 1
	ret
.Ltmp5:
.Lfunc_end0:
	.size	memset, .Lfunc_end0-memset
	.cfi_endproc

	.globl	memcpy
	.p2align	2
	.type	memcpy,@function
memcpy:
.Lfunc_begin1:
	.loc	3 19 0
	.cfi_startproc
	.loc	3 22 5 prologue_end
	beqz	a2, .LBB1_3
.Ltmp6:
	.loc	3 0 5 is_stmt 0
	mv	a3, a0
.Ltmp7:
.LBB1_2:
	.loc	3 23 20 is_stmt 1
	lb	a4, 0(a1)
	.loc	3 23 18 is_stmt 0
	sb	a4, 0(a3)
	.loc	3 24 16 is_stmt 1
	addi	a3, a3, 1
.Ltmp8:
	.loc	3 26 14
	addi	a2, a2, -1
.Ltmp9:
	.loc	3 25 15
	addi	a1, a1, 1
.Ltmp10:
	.loc	3 22 5
	bnez	a2, .LBB1_2
.Ltmp11:
.LBB1_3:
	.loc	3 28 5
	ret
.Ltmp12:
.Lfunc_end1:
	.size	memcpy, .Lfunc_end1-memcpy
	.cfi_endproc

	.globl	_Z13vector_memcpyPhPKhm
	.p2align	2
	.type	_Z13vector_memcpyPhPKhm,@function
_Z13vector_memcpyPhPKhm:
.Lfunc_begin2:
	.loc	3 156 0
	.cfi_startproc
	addi	a3, zero, 16
.Ltmp13:
	.loc	3 159 5 prologue_end
	bltu	a2, a3, .LBB2_3
.Ltmp14:
	.loc	3 0 5 is_stmt 0
	addi	a3, zero, 15
.Ltmp15:
.LBB2_2:
	.loc	3 160 41 is_stmt 1
	srli	a4, a2, 4
.Ltmp16:
	.loc	3 164 9
	#APP
	vsetvli	a4, a4, e128, m8, tu, mu
	#NO_APP
.Ltmp17:
	.loc	3 165 9
	#APP
	vle128.v	v8, (a1)
	#NO_APP
	.loc	3 166 9
	#APP
	vse128.v	v8, (a0)
	#NO_APP
	.loc	3 168 45
	slli	a4, a4, 4
.Ltmp18:
	.loc	3 168 13 is_stmt 0
	add	a1, a1, a4
.Ltmp19:
	.loc	3 170 19 is_stmt 1
	sub	a2, a2, a4
.Ltmp20:
	.loc	3 169 13
	add	a0, a0, a4
.Ltmp21:
	.loc	3 159 5
	bltu	a3, a2, .LBB2_2
.Ltmp22:
.LBB2_3:
	.loc	3 175 5
	beqz	a2, .LBB2_5
.Ltmp23:
.LBB2_4:
	.loc	3 176 34
	vsetvli	a3, a2, e8, m8, ta, mu
.Ltmp24:
	.loc	3 180 9
	#APP
	vle8.v	v8, (a1)
	#NO_APP
.Ltmp25:
	.loc	3 181 9
	#APP
	vse8.v	v8, (a0)
	#NO_APP
	.loc	3 187 13
	add	a1, a1, a3
.Ltmp26:
	.loc	3 189 19
	sub	a2, a2, a3
.Ltmp27:
	.loc	3 188 13
	add	a0, a0, a3
.Ltmp28:
	.loc	3 175 5
	bnez	a2, .LBB2_4
.Ltmp29:
.LBB2_5:
	.loc	3 191 1
	ret
.Ltmp30:
.Lfunc_end2:
	.size	_Z13vector_memcpyPhPKhm, .Lfunc_end2-_Z13vector_memcpyPhPKhm
	.cfi_endproc

	.globl	_Z24vector_memcpy_invalidatePhPKhm
	.p2align	2
	.type	_Z24vector_memcpy_invalidatePhPKhm,@function
_Z24vector_memcpy_invalidatePhPKhm:
.Lfunc_begin3:
	.loc	3 196 0
	.cfi_startproc
	addi	a3, zero, 16
.Ltmp31:
	.loc	3 198 5 prologue_end
	bltu	a2, a3, .LBB3_3
.Ltmp32:
	.loc	3 0 5 is_stmt 0
	addi	a3, zero, 15
.Ltmp33:
.LBB3_2:
	.loc	3 199 41 is_stmt 1
	srli	a4, a2, 4
.Ltmp34:
	.loc	3 204 9
	#APP
	vsetvli	a4, a4, e128, m4, tu, mu
	#NO_APP
.Ltmp35:
	.loc	3 205 9
	#APP
	vle128.v	v8, (a1)
	#NO_APP
	.loc	3 209 9
	#APP
	vadd.vi	v8, v8, 0
	#NO_APP
	.loc	3 212 9
	#APP
	vse128.v	v8, (a0)
	#NO_APP
	.loc	3 214 45
	slli	a4, a4, 4
.Ltmp36:
	.loc	3 214 13 is_stmt 0
	add	a1, a1, a4
.Ltmp37:
	.loc	3 216 19 is_stmt 1
	sub	a2, a2, a4
.Ltmp38:
	.loc	3 215 13
	add	a0, a0, a4
.Ltmp39:
	.loc	3 198 5
	bltu	a3, a2, .LBB3_2
.Ltmp40:
.LBB3_3:
	.loc	3 220 5
	beqz	a2, .LBB3_5
.Ltmp41:
.LBB3_4:
	.loc	3 221 34
	vsetvli	a3, a2, e8, m8, ta, mu
.Ltmp42:
	.loc	3 225 9
	#APP
	vle8.v	v8, (a1)
	#NO_APP
.Ltmp43:
	.loc	3 226 9
	#APP
	vse8.v	v8, (a0)
	#NO_APP
	.loc	3 232 13
	add	a1, a1, a3
.Ltmp44:
	.loc	3 234 19
	sub	a2, a2, a3
.Ltmp45:
	.loc	3 233 13
	add	a0, a0, a3
.Ltmp46:
	.loc	3 220 5
	bnez	a2, .LBB3_4
.Ltmp47:
.LBB3_5:
	.loc	3 236 1
	ret
.Ltmp48:
.Lfunc_end3:
	.size	_Z24vector_memcpy_invalidatePhPKhm, .Lfunc_end3-_Z24vector_memcpy_invalidatePhPKhm
	.cfi_endproc

	.globl	_Z13run_base_testv
	.p2align	2
	.type	_Z13run_base_testv,@function
_Z13run_base_testv:
.Lfunc_begin4:
	.loc	3 239 0
	.cfi_startproc
	addi	sp, sp, -2032
	.cfi_def_cfa_offset 2032
	sd	ra, 2024(sp)
	.cfi_offset ra, -8
	lui	a0, 2
	addiw	a0, a0, -1936
	sub	sp, sp, a0
	.cfi_def_cfa_offset 8288
	mv	a0, zero
.Ltmp49:
	.loc	3 243 10 prologue_end
	lui	a1, 2
	addiw	a1, a1, 16
	add	a1, sp, a1
	sc	cnull, 0(a1)
	lui	a1, 2
	addiw	a1, a1, 32
	add	a1, sp, a1
	sc	cnull, 0(a1)
	lui	a1, 2
	addiw	a1, a1, 48
	add	a1, sp, a1
	sc	cnull, 0(a1)
	lui	a1, 2
	addiw	a1, a1, 64
	add	a1, sp, a1
	sc	cnull, 0(a1)
	lui	a1, 1863
	addiw	a1, a1, -271
	slli	a1, a1, 15
	addi	a1, a1, -1709
	slli	a1, a1, 13
	addi	a1, a1, -1207
	slli	a1, a1, 12
	addi	a1, a1, 1882
	lui	a2, 2
	addiw	a2, a2, 16
	add	a2, sp, a2
	sd	a1, 0(a2)
	lui	a1, 1033844
	addiw	a1, a1, -253
	slli	a1, a1, 12
	addi	a1, a1, 541
	slli	a1, a1, 13
	addi	a1, a1, 1579
	slli	a1, a1, 12
	addi	a1, a1, 1188
	lui	a2, 2
	addiw	a2, a2, 32
	add	a2, sp, a2
	sd	a1, 0(a2)
	lui	a1, 3301
	addiw	a1, a1, -205
	slli	a1, a1, 13
	addi	a1, a1, 1479
	slli	a1, a1, 14
	addi	a1, a1, 831
	slli	a1, a1, 12
	addi	a1, a1, -802
	lui	a2, 2
	addiw	a2, a2, 48
	add	a2, sp, a2
	sd	a1, 0(a2)
	lui	a1, 1045152
	addiw	a1, a1, -327
	slli	a1, a1, 14
	addi	a1, a1, -453
	slli	a1, a1, 12
	addi	a1, a1, -657
	slli	a1, a1, 13
	addi	a1, a1, 1687
	lui	a2, 2
	addiw	a2, a2, 64
	add	a2, sp, a2
	sd	a1, 0(a2)
.Ltmp50:
	.loc	3 272 5
	lui	a1, 1
	addiw	a1, a1, 32
	add	a1, sp, a1
	lui	a2, %hi(.L__const._Z19run_invalidate_testv.indices)
	addi	a2, a2, %lo(.L__const._Z19run_invalidate_testv.indices)
	lui	a3, 2
	addiw	a3, a3, 16
	add	a6, sp, a3
	addi	a4, zero, 512
.Ltmp51:
.LBB4_1:
	.loc	3 273 21
	add	a5, a0, a2
	lw	a5, 0(a5)
.Ltmp52:
	.loc	3 275 36
	slli	a5, a5, 4
	add	a5, a6, a5
	.loc	3 275 49 is_stmt 0
	ld	a3, 0(a5)
	.loc	3 276 25 is_stmt 1
	cfromptr	ca5, ddc, a5
	.loc	3 274 25
	sd	a3, -16(a1)
	sc	ca5, 0(a1)
.Ltmp53:
	.loc	3 272 26
	addi	a0, a0, 4
.Ltmp54:
	addi	a1, a1, 32
.Ltmp55:
	.loc	3 272 5 is_stmt 0
	bne	a0, a4, .LBB4_1
.Ltmp56:
	.loc	3 280 13 is_stmt 1
	addi	a0, sp, 16
	lui	a2, 1
	mv	a1, zero
	call	memset@plt
.Ltmp57:
	.loc	3 286 5
	addi	a0, sp, 16
	lui	a1, 1
	addiw	a1, a1, 16
	add	a1, sp, a1
	lui	a2, 1
	call	_Z13vector_memcpyPhPKhm
.Ltmp58:
	.loc	3 0 5 is_stmt 0
	mv	a0, zero
.Ltmp59:
	.loc	3 289 5 is_stmt 1
	addi	a1, sp, 32
	lui	a2, %hi(.L__const._Z19run_invalidate_testv.indices)
	addi	a2, a2, %lo(.L__const._Z19run_invalidate_testv.indices)
	lui	a3, 2
	addiw	a3, a3, 16
	add	a7, sp, a3
	addi	a6, zero, 512
.Ltmp60:
.LBB4_3:
	.loc	3 292 27
	lc	ca5, 0(a1)
	.loc	3 292 37 is_stmt 0
	ld.cap	a4, (ca5)
	.loc	3 292 60
	ld	a3, -16(a1)
	bne	a4, a3, .LBB4_7
.Ltmp61:
	.loc	3 295 78 is_stmt 1
	add	a3, a0, a2
	lw	a3, 0(a3)
	.loc	3 295 72 is_stmt 0
	slli	a3, a3, 4
	add	a3, a7, a3
	.loc	3 295 39
	cfromptr	ca3, ddc, a3
.Ltmp62:
	.loc	3 0 39
	bne	a5, a3, .LBB4_7
.Ltmp63:
	.loc	3 289 26 is_stmt 1
	addi	a0, a0, 4
.Ltmp64:
	addi	a1, a1, 32
.Ltmp65:
	.loc	3 289 5 is_stmt 0
	bne	a0, a6, .LBB4_3
.Ltmp66:
	.loc	3 0 5
	addi	a0, zero, 1
	j	.LBB4_8
.Ltmp67:
.LBB4_7:
	mv	a0, zero
.Ltmp68:
.LBB4_8:
	.loc	3 300 1 is_stmt 1
	lui	a1, 2
	addiw	a1, a1, -1936
	add	sp, sp, a1
	ld	ra, 2024(sp)
	addi	sp, sp, 2032
	ret
.Ltmp69:
.Lfunc_end4:
	.size	_Z13run_base_testv, .Lfunc_end4-_Z13run_base_testv
	.cfi_endproc

	.globl	_Z19run_invalidate_testv
	.p2align	2
	.type	_Z19run_invalidate_testv,@function
_Z19run_invalidate_testv:
.Lfunc_begin5:
	.loc	3 303 0
	.cfi_startproc
	addi	sp, sp, -2032
	.cfi_def_cfa_offset 2032
	sd	ra, 2024(sp)
	sd	s0, 2016(sp)
	sd	s1, 2008(sp)
	sd	s2, 2000(sp)
	.cfi_offset ra, -8
	.cfi_offset s0, -16
	.cfi_offset s1, -24
	.cfi_offset s2, -32
	lui	a0, 2
	addiw	a0, a0, -1920
	sub	sp, sp, a0
	.cfi_def_cfa_offset 8304
	mv	a0, zero
.Ltmp70:
	.loc	3 307 10 prologue_end
	lui	a1, 2
	addiw	a1, a1, 16
	add	a1, sp, a1
	sc	cnull, 0(a1)
	lui	a1, 2
	addiw	a1, a1, 32
	add	a1, sp, a1
	sc	cnull, 0(a1)
	lui	a1, 2
	addiw	a1, a1, 48
	add	a1, sp, a1
	sc	cnull, 0(a1)
	lui	a1, 2
	addiw	a1, a1, 64
	add	a1, sp, a1
	sc	cnull, 0(a1)
	lui	a1, 1863
	addiw	a1, a1, -271
	slli	a1, a1, 15
	addi	a1, a1, -1709
	slli	a1, a1, 13
	addi	a1, a1, -1207
	slli	a1, a1, 12
	addi	a1, a1, 1882
	lui	a2, 2
	addiw	a2, a2, 16
	add	a2, sp, a2
	sd	a1, 0(a2)
	lui	a1, 1033844
	addiw	a1, a1, -253
	slli	a1, a1, 12
	addi	a1, a1, 541
	slli	a1, a1, 13
	addi	a1, a1, 1579
	slli	a1, a1, 12
	addi	a1, a1, 1188
	lui	a2, 2
	addiw	a2, a2, 32
	add	a2, sp, a2
	sd	a1, 0(a2)
	lui	a1, 3301
	addiw	a1, a1, -205
	slli	a1, a1, 13
	addi	a1, a1, 1479
	slli	a1, a1, 14
	addi	a1, a1, 831
	slli	a1, a1, 12
	addi	a1, a1, -802
	lui	a2, 2
	addiw	a2, a2, 48
	add	a2, sp, a2
	sd	a1, 0(a2)
	lui	a1, 1045152
	addiw	a1, a1, -327
	slli	a1, a1, 14
	addi	a1, a1, -453
	slli	a1, a1, 12
	addi	a1, a1, -657
	slli	a1, a1, 13
	addi	a1, a1, 1687
	lui	a2, 2
	addiw	a2, a2, 64
	add	a2, sp, a2
	sd	a1, 0(a2)
.Ltmp71:
	.loc	3 336 5
	lui	a1, 1
	addiw	a1, a1, 32
	add	a1, sp, a1
	lui	a2, %hi(.L__const._Z19run_invalidate_testv.indices)
	addi	a2, a2, %lo(.L__const._Z19run_invalidate_testv.indices)
	lui	a3, 2
	addiw	a3, a3, 16
	add	a3, sp, a3
	addi	a4, zero, 512
.Ltmp72:
.LBB5_1:
	.loc	3 337 21
	add	a5, a0, a2
	lw	a5, 0(a5)
.Ltmp73:
	.loc	3 339 36
	slli	a5, a5, 4
	add	a5, a3, a5
	.loc	3 339 49 is_stmt 0
	ld	s1, 0(a5)
	.loc	3 340 25 is_stmt 1
	cfromptr	ca5, ddc, a5
	.loc	3 338 25
	sd	s1, -16(a1)
	sc	ca5, 0(a1)
.Ltmp74:
	.loc	3 336 26
	addi	a0, a0, 4
.Ltmp75:
	addi	a1, a1, 32
.Ltmp76:
	.loc	3 336 5 is_stmt 0
	bne	a0, a4, .LBB5_1
.Ltmp77:
	.loc	3 344 13 is_stmt 1
	addi	a0, sp, 16
	lui	a2, 1
	mv	a1, zero
	call	memset@plt
.Ltmp78:
	.loc	3 350 5
	addi	a0, sp, 16
	lui	a1, 1
	addiw	a1, a1, 16
	add	a1, sp, a1
	lui	a2, 1
	call	_Z24vector_memcpy_invalidatePhPKhm
.Ltmp79:
	.loc	3 355 59
	lc	ca0, 32(sp)
.Ltmp80:
	.loc	3 356 13
	call	_ZL13cheri_tag_getU12__capabilityPv
.Ltmp81:
	mv	a1, a0
.Ltmp82:
	.loc	3 0 13 is_stmt 0
	mv	a0, zero
	bnez	a1, .LBB5_7
.Ltmp83:
	mv	a1, zero
	.loc	3 353 5 is_stmt 1
	addi	s0, sp, 64
	addi	s2, zero, 127
.Ltmp84:
.LBB5_4:
	.loc	3 0 5 is_stmt 0
	mv	s1, a1
.Ltmp85:
	.loc	3 353 5
	beq	a1, s2, .LBB5_6
.Ltmp86:
	.loc	3 355 59 is_stmt 1
	lc	ca0, 0(s0)
.Ltmp87:
	.loc	3 356 13
	call	_ZL13cheri_tag_getU12__capabilityPv
.Ltmp88:
	.loc	3 0 13 is_stmt 0
	addi	a1, s1, 1
	addi	s0, s0, 32
	beqz	a0, .LBB5_4
.Ltmp89:
.LBB5_6:
	addi	a0, zero, 126
	.loc	3 353 26 is_stmt 1
	sltu	a0, a0, s1
.Ltmp90:
.LBB5_7:
	.loc	3 361 1
	lui	a1, 2
	addiw	a1, a1, -1920
	add	sp, sp, a1
	ld	s2, 2000(sp)
	ld	s1, 2008(sp)
	ld	s0, 2016(sp)
	ld	ra, 2024(sp)
	addi	sp, sp, 2032
	ret
.Ltmp91:
.Lfunc_end5:
	.size	_Z19run_invalidate_testv, .Lfunc_end5-_Z19run_invalidate_testv
	.cfi_endproc

	.p2align	2
	.type	_ZL13cheri_tag_getU12__capabilityPv,@function
_ZL13cheri_tag_getU12__capabilityPv:
.Lfunc_begin6:
	.file	4 "/home/samuel/cheri/output/sdk/lib/clang/13.0.0/include" "cheri.h"
	.loc	4 82 0
	.cfi_startproc
	.loc	4 82 1 prologue_end
	cgettag	a0, ca0
.Ltmp92:
	ret
.Ltmp93:
.Lfunc_end6:
	.size	_ZL13cheri_tag_getU12__capabilityPv, .Lfunc_end6-_ZL13cheri_tag_getU12__capabilityPv
	.cfi_endproc

	.globl	main
	.p2align	2
	.type	main,@function
main:
.Lfunc_begin7:
	.loc	3 374 0
	.cfi_startproc
	addi	sp, sp, -16
	.cfi_def_cfa_offset 16
.Ltmp94:
	.loc	3 0 0 prologue_end
	sd	ra, 8(sp)
	sd	s0, 0(sp)
	.cfi_offset ra, -8
	.cfi_offset s0, -16
.Ltmp95:
	.loc	3 379 15
	call	_Z13run_base_testv
.Ltmp96:
	mv	s0, a0
.Ltmp97:
	.loc	3 383 15
	call	_Z19run_invalidate_testv
.Ltmp98:
	.loc	3 383 37 is_stmt 0
	slli	a0, a0, 1
	.loc	3 383 12
	or	a0, a0, s0
	slli	a1, a0, 32
	srli	a1, a1, 32
.Ltmp99:
	.loc	3 386 25 is_stmt 1
	lui	a2, %hi(outputAttempted)
	addi	a3, zero, 3
	sd	a3, %lo(outputAttempted)(a2)
	.loc	3 387 25
	lui	a2, %hi(outputSucceeded)
	sd	a1, %lo(outputSucceeded)(a2)
	.loc	3 388 14
	lui	a1, %hi(finished)
.Ltmp100:
	.loc	3 0 14 is_stmt 0
	addi	a2, zero, 1
	.loc	3 389 5 is_stmt 1
	sext.w	a0, a0
	.loc	3 388 14
	sb	a2, %lo(finished)(a1)
	.loc	3 389 5
	ld	s0, 0(sp)
	ld	ra, 8(sp)
	addi	sp, sp, 16
	ret
.Ltmp101:
.Lfunc_end7:
	.size	main, .Lfunc_end7-main
	.cfi_endproc

	.type	.L__const._Z19run_invalidate_testv.indices,@object
	.section	.rodata,"a",@progbits
	.p2align	2
.L__const._Z19run_invalidate_testv.indices:
	.word	1
	.word	1
	.word	1
	.word	1
	.word	2
	.word	2
	.word	3
	.word	0
	.word	1
	.word	0
	.word	3
	.word	0
	.word	0
	.word	3
	.word	3
	.word	0
	.word	1
	.word	0
	.word	0
	.word	2
	.word	2
	.word	0
	.word	2
	.word	1
	.word	0
	.word	0
	.word	0
	.word	3
	.word	2
	.word	0
	.word	1
	.word	1
	.word	3
	.word	2
	.word	3
	.word	0
	.word	2
	.word	2
	.word	0
	.word	0
	.word	0
	.word	1
	.word	1
	.word	3
	.word	0
	.word	0
	.word	1
	.word	3
	.word	1
	.word	2
	.word	3
	.word	2
	.word	2
	.word	0
	.word	2
	.word	1
	.word	0
	.word	3
	.word	1
	.word	1
	.word	3
	.word	3
	.word	2
	.word	2
	.word	0
	.word	1
	.word	3
	.word	2
	.word	2
	.word	1
	.word	1
	.word	3
	.word	2
	.word	2
	.word	0
	.word	1
	.word	1
	.word	3
	.word	0
	.word	1
	.word	0
	.word	0
	.word	3
	.word	2
	.word	2
	.word	3
	.word	3
	.word	1
	.word	1
	.word	1
	.word	1
	.word	2
	.word	1
	.word	1
	.word	2
	.word	1
	.word	2
	.word	2
	.word	1
	.word	1
	.word	3
	.word	1
	.word	1
	.word	3
	.word	0
	.word	2
	.word	3
	.word	1
	.word	1
	.word	3
	.word	2
	.word	3
	.word	2
	.word	1
	.word	2
	.word	0
	.word	2
	.word	2
	.word	2
	.word	3
	.word	0
	.word	3
	.word	1
	.word	0
	.word	3
	.word	2
	.word	1
	.word	0
	.size	.L__const._Z19run_invalidate_testv.indices, 512

	.file	5 "/home/samuel/cheri/output/sdk/lib/clang/13.0.0/include" "riscv_vector.h"
	.section	".note.GNU-stack","",@progbits
	.addrsig
	.addrsig_sym outputAttempted
	.addrsig_sym outputSucceeded
	.addrsig_sym finished