
/media/common/University/Edu/Year4_Masters/Project/riscv-v-lite/programs/build/llvm-13-rv64imvxcheri-int/vector_memcpy_pointers/vector_memcpy_pointers.elf:	file format elf64-littleriscv
Contents of section .text.init:
 0000 17010100 13010102 97000000 e7804052  ..............@R
 0010 6f000000                             o...
Contents of section .text:
 0014 630c0600 93060500 2380b600 1306f6ff  c.......#.......
 0024 93861600 e31a06fe 67800000 63000602  ........g...c...
 0034 93060500 03870500 2380e600 93861600  ........#.......
 0044 1306f6ff 93851500 e31606fe 67800000  ............g...
 0054 93060001 6366d602 9306f000 13574600  ....cf.......WF.
 0064 57773702 07840512 27040512 13174700  Ww7.....'.....G.
 0074 b385e500 3306e640 3305e500 e3e0c6fe  ....3..@3.......
 0084 63000602 d7763604 07840502 27040502  c....v6.....'...
 0094 b385d500 3306d640 3305d500 e31406fe  ....3..@3.......
 00a4 67800000 93060001 6368d602 9306f000  g.......ch......
 00b4 13574600 57772702 07840512 57348002  .WF.Ww'.....W4..
 00c4 27040512 13174700 b385e500 3306e640  '.....G.....3..@
 00d4 3305e500 e3eec6fc 63000602 d7763604  3.......c....v6.
 00e4 07840502 27040502 b385d500 3306d640  ....'.......3..@
 00f4 3305d500 e31406fe 67800000 13010181  3.......g.......
 0104 2334117e 37250000 1b050587 3301a140  #4.~7%......3..@
 0114 13050000 b7250000 9b850501 b305b100  .....%..........
 0124 23c00500 b7250000 9b850502 b305b100  #....%..........
 0134 23c00500 b7250000 9b850503 b305b100  #....%..........
 0144 23c00500 b7250000 9b850504 b305b100  #....%..........
 0154 23c00500 b7757400 9b8515ef 9395f500  #....ut.........
 0164 93853595 9395d500 938595b4 9395c500  ..5.............
 0174 9385a575 37260000 1b060601 3306c100  ...u7&......3...
 0184 2330b600 b74567fc 9b8535f0 9395c500  #0...Eg...5.....
 0194 9385d521 9395d500 9385b562 9395c500  ...!.......b....
 01a4 9385454a 37260000 1b060602 3306c100  ..EJ7&......3...
 01b4 2330b600 b755ce00 9b8535f3 9395d500  #0...U....5.....
 01c4 9385755c 9395e500 9385f533 9395c500  ..u\.......3....
 01d4 9385e5cd 37260000 1b060603 3306c100  ....7&......3...
 01e4 2330b600 b7052aff 9b8595eb 9395e500  #0....*.........
 01f4 9385b5e3 9395c500 9385f5d6 9395d500  ................
 0204 93857569 37260000 1b060604 3306c100  ..ui7&......3...
 0214 2330b600 b7150000 9b850502 b305b100  #0..............
 0224 37060000 13060659 b7260000 9b860601  7......Y.&......
 0234 3308d100 13070020 b307c500 83a70700  3...... ........
 0244 93974700 b307f800 83b60700 db07f026  ..G............&
 0254 23b8d5fe 23c0f500 13054500 93850502  #...#.....E.....
 0264 e31ce5fc 13050101 37160000 93050000  ........7.......
 0274 97000000 e78000da 13050101 b7150000  ................
 0284 9b850501 b305b100 37160000 97000000  ........7.......
 0294 e78040dc 13050000 93050102 37060000  ..@.........7...
 02a4 13060659 b7260000 9b860601 b308d100  ...Y.&..........
 02b4 13080020 8fa70500 5b87b7fa 83b605ff  ... ....[.......
 02c4 6318d702 b306c500 83a60600 93964600  c.............F.
 02d4 b386d800 db06d026 639cd700 13054500  .......&c.....E.
 02e4 93850502 e31805fd 13051000 6f008000  ............o...
 02f4 13050000 b7250000 9b850587 3301b100  .....%......3...
 0304 8330817e 1301017f 67800000 13010181  .0.~....g.......
 0314 2334117e 2330817e 233c917c 2338217d  #4.~#0.~#<.|#8!}
 0324 37250000 1b050588 3301a140 13050000  7%......3..@....
 0334 b7250000 9b850501 b305b100 23c00500  .%..........#...
 0344 b7250000 9b850502 b305b100 23c00500  .%..........#...
 0354 b7250000 9b850503 b305b100 23c00500  .%..........#...
 0364 b7250000 9b850504 b305b100 23c00500  .%..........#...
 0374 b7757400 9b8515ef 9395f500 93853595  .ut...........5.
 0384 9395d500 938595b4 9395c500 9385a575  ...............u
 0394 37260000 1b060601 3306c100 2330b600  7&......3...#0..
 03a4 b74567fc 9b8535f0 9395c500 9385d521  .Eg...5........!
 03b4 9395d500 9385b562 9395c500 9385454a  .......b......EJ
 03c4 37260000 1b060602 3306c100 2330b600  7&......3...#0..
 03d4 b755ce00 9b8535f3 9395d500 9385755c  .U....5.......u\
 03e4 9395e500 9385f533 9395c500 9385e5cd  .......3........
 03f4 37260000 1b060603 3306c100 2330b600  7&......3...#0..
 0404 b7052aff 9b8595eb 9395e500 9385b5e3  ..*.............
 0414 9395c500 9385f5d6 9395d500 93857569  ..............ui
 0424 37260000 1b060604 3306c100 2330b600  7&......3...#0..
 0434 b7150000 9b850502 b305b100 37060000  ............7...
 0444 13060659 b7260000 9b860601 b306d100  ...Y.&..........
 0454 13070020 b307c500 83a70700 93974700  ... ..........G.
 0464 b387f600 83b40700 db07f026 23b895fe  ...........&#...
 0474 23c0f500 13054500 93850502 e31ce5fc  #.....E.........
 0484 13050101 37160000 93050000 97000000  ....7...........
 0494 e78040b8 13050101 b7150000 9b850501  ..@.............
 04a4 b305b100 37160000 97000000 e780c0bf  ....7...........
 04b4 0f250102 97000000 e780c006 93050500  .%..............
 04c4 13050000 639c0502 93050000 13040104  ....c...........
 04d4 1309f007 93840500 638e2501 0f250400  ........c.%..%..
 04e4 97000000 e7800004 93851400 13040402  ................
 04f4 e30205fe 1305e007 33359500 b7250000  ........35...%..
 0504 9b850588 3301b100 0339017d 8334817d  ....3....9.}.4.}
 0514 0334017e 8330817e 1301017f 67800000  .4.~.0.~....g...
 0524 5b0545fe 67800000 130101ff 23341100  [.E.g.......#4..
 0534 23308100 97000000 e78080bc 13040500  #0..............
 0544 97000000 e780c0dc 13151500 33658500  ............3e..
 0554 93150502 93d50502 37060001 93063000  ........7.....0.
 0564 2330d600 37060001 2334b600 b7050001  #0..7...#4......
 0574 13061000 1b050500 2388c500 03340100  ........#....4..
 0584 83308100 13010101 67800000           .0......g...
Contents of section .data:
 0590 01000000 01000000 01000000 01000000  ................
 05a0 02000000 02000000 03000000 00000000  ................
 05b0 01000000 00000000 03000000 00000000  ................
 05c0 00000000 03000000 03000000 00000000  ................
 05d0 01000000 00000000 00000000 02000000  ................
 05e0 02000000 00000000 02000000 01000000  ................
 05f0 00000000 00000000 00000000 03000000  ................
 0600 02000000 00000000 01000000 01000000  ................
 0610 03000000 02000000 03000000 00000000  ................
 0620 02000000 02000000 00000000 00000000  ................
 0630 00000000 01000000 01000000 03000000  ................
 0640 00000000 00000000 01000000 03000000  ................
 0650 01000000 02000000 03000000 02000000  ................
 0660 02000000 00000000 02000000 01000000  ................
 0670 00000000 03000000 01000000 01000000  ................
 0680 03000000 03000000 02000000 02000000  ................
 0690 00000000 01000000 03000000 02000000  ................
 06a0 02000000 01000000 01000000 03000000  ................
 06b0 02000000 02000000 00000000 01000000  ................
 06c0 01000000 03000000 00000000 01000000  ................
 06d0 00000000 00000000 03000000 02000000  ................
 06e0 02000000 03000000 03000000 01000000  ................
 06f0 01000000 01000000 01000000 02000000  ................
 0700 01000000 01000000 02000000 01000000  ................
 0710 02000000 02000000 01000000 01000000  ................
 0720 03000000 01000000 01000000 03000000  ................
 0730 00000000 02000000 03000000 01000000  ................
 0740 01000000 03000000 02000000 03000000  ................
 0750 02000000 01000000 02000000 00000000  ................
 0760 02000000 02000000 02000000 03000000  ................
 0770 00000000 03000000 01000000 00000000  ................
 0780 03000000 02000000 01000000 00000000  ................
Contents of section .debug_loc:
 0000 00000000 00000000 08000000 00000000  ................
 0010 01005c00 00000000 00000000 00000000  ..\.............
 0020 00000000 00000000 00000008 00000000  ................
 0030 00000003 0011009f 08000000 00000000  ................
 0040 0c000000 00000000 06007d00 7a001c9f  ..........}.z...
 0050 0c000000 00000000 14000000 00000000  ................
 0060 09007d00 7a001c11 01229f00 00000000  ..}.z...."......
 0070 00000000 00000000 0000001c 00000000  ................
 0080 00000024 00000000 00000001 005b0000  ...$.........[..
 0090 00000000 00000000 00000000 00001c00  ................
 00a0 00000000 00002400 00000000 00000100  ......$.........
 00b0 5a240000 00000000 003c0000 00000000  Z$.......<......
 00c0 0001005d 00000000 00000000 00000000  ...]............
 00d0 00000000 50000000 00000000 54000000  ....P.......T...
 00e0 00000000 01005e00 00000000 00000000  ......^.........
 00f0 00000000 00000054 00000000 00000060  .......T.......`
 0100 00000000 00000001 005e0000 00000000  .........^......
 0110 00000000 00000000 00007800 00000000  ..........x.....
 0120 00009000 00000000 00000100 5d000000  ............]...
 0130 00000000 00000000 00000000 007c0000  .............|..
 0140 00000000 00900000 00000000 00020090  ................
 0150 68000000 00000000 00000000 00000000  h...............
 0160 00a40000 00000000 00a80000 00000000  ................
 0170 0001005e 00000000 00000000 00000000  ...^............
 0180 00000000 a8000000 00000000 b8000000  ................
 0190 00000000 01005e00 00000000 00000000  ......^.........
 01a0 00000000 000000d0 00000000 000000e8  ................
 01b0 00000000 00000001 005d0000 00000000  .........]......
 01c0 00000000 00000000 0000d400 00000000  ................
 01d0 0000e800 00000000 00000200 90680000  .............h..
 01e0 00000000 00000000 00000000 00000402  ................
 01f0 00000000 00002802 00000000 00000200  ......(.........
 0200 309f2802 00000000 00004802 00000000  0.(.......H.....
 0210 00000600 7a001104 1b9f4802 00000000  ....z.....H.....
 0220 00004c02 00000000 00000900 7a001104  ..L.........z...
 0230 1b110122 9f000000 00000000 00000000  ..."............
 0240 00000000 00680200 00000000 00fc0200  .....h..........
 0250 00000000 00030072 109f0000 00000000  .......r........
 0260 00000000 00000000 00006802 00000000  ..........h.....
 0270 0000fc02 00000000 00000400 7290209f  ............r. .
 0280 00000000 00000000 00000000 00000000  ................
 0290 84020000 00000000 a4020000 00000000  ................
 02a0 0200309f a4020000 00000000 c8020000  ..0.............
 02b0 00000000 06007a00 11041b9f c8020000  ......z.........
 02c0 00000000 d0020000 00000000 09007a00  ..............z.
 02d0 11041b11 01229f00 00000000 00000000  ....."..........
 02e0 00000000 00000020 04000000 00000044  ....... .......D
 02f0 04000000 00000002 00309f44 04000000  .........0.D....
 0300 00000064 04000000 00000006 007a0011  ...d.........z..
 0310 041b9f64 04000000 00000068 04000000  ...d.......h....
 0320 00000009 007a0011 041b1101 229f0000  .....z......"...
 0330 00000000 00000000 00000000 00008404  ................
 0340 00000000 00001005 00000000 00000300  ................
 0350 72109f00 00000000 00000000 00000000  r...............
 0360 00000084 04000000 00000010 05000000  ................
 0370 00000004 00729020 9f000000 00000000  .....r. ........
 0380 00000000 00000000 00a00400 00000000  ................
 0390 00b00400 00000000 00020030 9fb00400  ...........0....
 03a0 00000000 00c40400 00000000 00020031  ...............1
 03b0 9fc80400 00000000 00d80400 00000000  ................
 03c0 00060079 00110122 9fd80400 00000000  ...y..."........
 03d0 00e40400 00000000 00060079 00110222  ...........y..."
 03e0 9f000000 00000000 00000000 00000000  ................
 03f0 00100500 00000000 00140500 00000000  ................
 0400 0001005a 00000000 00000000 00000000  ...Z............
 0410 00000000 24050000 00000000 30050000  ....$.......0...
 0420 00000000 0200309f 30050000 00000000  ......0.0.......
 0430 48050000 00000000 0a007800 10ffffff  H.........x.....
 0440 ff0f1a9f 48050000 00000000 60050000  ....H.......`...
 0450 00000000 01005b00 00000000 00000000  ......[.........
 0460 00000000 00000024 05000000 00000030  .......$.......0
 0470 05000000 00000002 00319f30 05000000  .........1.0....
 0480 0000007c 05000000 00000002 00339f00  ...|.........3..
 0490 00000000 00000000 00000000 000000    ...............
Contents of section .debug_abbrev:
 0000 01110125 0e130503 0e10171b 0e110112  ...%............
 0010 06000002 2400030e 3e0b0b0b 0000030f  ....$...>.......
 0020 00491300 00042600 49130000 05160049  .I....&.I......I
 0030 13030e3a 0b3b0b00 00060f00 49130b0b  ...:.;......I...
 0040 00000713 01360b03 0e0b0b3a 0b3b0b88  .....6.....:.;..
 0050 010f0000 080d0003 0e49133a 0b3b0b38  .........I.:.;.8
 0060 0b000009 2e011101 12064018 97421903  ..........@..B..
 0070 0e3a0b3b 0b49133f 1900000a 05000218  .:.;.I.?........
 0080 030e3a0b 3b0b4913 00000b05 00021703  ..:.;.I.........
 0090 0e3a0b3b 0b491300 000c3400 0218030e  .:.;.I....4.....
 00a0 3a0b3b0b 49130000 0d0b0111 01120600  :.;.I...........
 00b0 000e3400 0217030e 3a0b3b0b 49130000  ..4.....:.;.I...
 00c0 0f2e0111 01120640 18974219 6e0e030e  .......@..B.n...
 00d0 3a0b3b0b 3f190000 102e0111 01120640  :.;.?..........@
 00e0 18974219 6e0e030e 3a0b3b0b 49133f19  ..B.n...:.;.I.?.
 00f0 00001134 00021803 0e3a0b3b 05491300  ...4.....:.;.I..
 0100 00123400 0217030e 3a0b3b05 49130000  ..4.....:.;.I...
 0110 13340003 0e3a0b3b 0b491300 00143400  .4...:.;.I....4.
 0120 030e3a0b 3b054913 00001589 82010031  ..:.;.I........1
 0130 13110100 00162e01 11011206 40189742  ............@..B
 0140 196e0e03 0e3a0b3b 0549133f 19000017  .n...:.;.I.?....
 0150 0b015517 0000182e 01110112 06401897  ..U..........@..
 0160 42196e0e 030e3a0b 3b0b4913 0000192e  B.n...:.;.I.....
 0170 01110112 06401897 4219030e 3a0b3b05  .....@..B...:.;.
 0180 49133f19 00001a0f 0000001b 26000000  I.?.........&...
 0190 1c160049 13030e00 001d0101 87421949  ...I.........B.I
 01a0 1300001e 21004913 220d2f18 00001f24  ....!.I."./....$
 01b0 00030e0b 0b3e0b00 00200101 49130000  .....>... ..I...
 01c0 21210049 13370b00 00220d00 030e4913  !!.I.7..."....I.
 01d0 3a0b3b0b 88010f38 0b000023 0f000b0b  :.;....8...#....
 01e0 000000                               ...
Contents of section .debug_info:
 0000 ab050000 04000000 00000801 8e010000  ................
 0010 21002202 00000000 0000ef00 00001400  !.".............
 0020 00000000 00007c05 0000023b 00000008  ......|....;....
 0030 01032a00 0000033b 00000004 2a000000  ..*....;....*...
 0040 054b0000 00090300 00013202 29000000  .K........2.)...
 0050 07080658 00000010 0705bf03 00001003  ...X............
 0060 86100810 0000006f 00000003 87000005  .......o........
 0070 4b000000 9d020000 0262037f 00000005  K........b......
 0080 2a000000 2a030000 02e2038f 00000004  *...*...........
 0090 7f000000 09140000 00000000 001c0000  ................
 00a0 00015215 03000003 08080500 000a015a  ..R............Z
 00b0 24000000 03080805 00000a01 5b030200  $...........[...
 00c0 00030809 0500000b 00000000 b3000000  ................
 00d0 03084000 00000c03 7b009f37 03000003  ..@.....{..7....
 00e0 092a0000 000c015a 76010000 030a3100  .*.....Zv.....1.
 00f0 00000d14 00000000 00000018 0000000e  ................
 0100 23000000 57000000 030b0905 00000000  #...W...........
 0110 09300000 00000000 00240000 0001526f  .0.......$....Ro
 0120 01000003 13080500 000a015a 24000000  ...........Z$...
 0130 03130805 00000b7b 0000007e 01000003  .......{...~....
 0140 13170500 000a015c b3000000 03134000  .......\......@.
 0150 00000e9e 00000076 01000003 14310000  .......v.....1..
 0160 000c015b 65030000 03153600 0000000f  ...[e.....6.....
 0170 54000000 00000000 54000000 0152f102  T.......T....R..
 0180 00004900 0000039c 0a015ab4 03000003  ..I.......Z.....
 0190 9c7a0000 000a015b 7e010000 039c8a00  .z.....[~.......
 01a0 00000a01 5c1c0300 00039c40 0000000d  ....\......@....
 01b0 60000000 00000000 20000000 0ed40000  `....... .......
 01c0 00cc0300 0003a040 0000000e f7000000  .......@........
 01d0 48030000 03a14000 0000000d 88000000  H.....@.........
 01e0 00000000 18000000 0e1a0100 00000000  ................
 01f0 0003b040 0000000e 3d010000 43030000  ...@....=...C...
 0200 03b21d05 00000000 0fa80000 00000000  ................
 0210 00580000 000152cc 000000a6 02000003  .X....R.........
 0220 c40a015a b4030000 03c47a00 00000a01  ...Z......z.....
 0230 5b7e0100 0003c48a 0000000a 015c1c03  [~...........\..
 0240 000003c4 40000000 0db40000 00000000  ....@...........
 0250 00240000 000e6101 0000cc03 000003c7  .$....a.........
 0260 40000000 0e840100 00480300 0003c840  @........H.....@
 0270 00000000 0de00000 00000000 00180000  ................
 0280 000ea701 00000000 000003db 40000000  ............@...
 0290 0eca0100 00430300 0003dd1d 05000000  .....C..........
 02a0 00100001 00000000 00001002 00000152  ...............R
 02b0 7d030000 bf020000 03ed0905 00000c04  }...............
 02c0 9190c000 3d030000 03f14d05 00001103  ....=.....M.....
 02d0 91902059 00000003 0d015905 00001102  .. Y......Y.....
 02e0 91107f00 00000316 01590500 00124502  .........Y....E.
 02f0 00001a02 00000319 01890500 00126a02  ..............j.
 0300 00008a00 00000318 01890500 00136c03  ..............l.
 0310 000003fa 8e050000 0d180200 00000000  ................
 0320 00500000 0012ee01 00005700 0000030e  .P........W.....
 0330 01400000 000d3c02 00000000 00002000  .@....<....... .
 0340 00001488 01000003 0f010905 00000000  ................
 0350 0d9c0200 00000000 00500000 00129002  .........P......
 0360 00005700 0000031f 01400000 0000156f  ..W......@.....o
 0370 01000098 02000000 00000000 16100300  ................
 0380 00000000 00140200 00015266 000000cd  ..........Rf....
 0390 02000003 2d010905 00001104 9190c000  ....-...........
 03a0 3d030000 0331014d 05000011 03919020  =....1.M....... 
 03b0 59000000 034d0159 05000011 0291107f  Y....M.Y........
 03c0 00000003 56015905 0000123e 0300001a  ....V.Y....>....
 03d0 02000003 59018905 00001263 0300008a  ....Y......c....
 03e0 00000003 58018905 0000146c 03000003  ....X......l....
 03f0 3a018e05 00000d34 04000000 00000050  :......4.......P
 0400 00000012 e7020000 57000000 034e0140  ........W....N.@
 0410 0000000d 58040000 00000000 20000000  ....X....... ...
 0420 14880100 00034f01 09050000 00000db4  ......O.........
 0430 04000000 0000004c 00000012 89030000  .......L........
 0440 57000000 035f0140 00000017 00000000  W...._.@........
 0450 14260300 00036101 52000000 00001508  .&....a.R.......
 0460 020000b4 04000000 00000015 86040000  ................
 0470 c0040000 00000000 15860400 00ec0400  ................
 0480 00000000 00001824 05000000 00000008  .......$........
 0490 00000001 52900300 00160000 00045210  ....R.........R.
 04a0 0500000b f1030000 82010000 04529a05  .............R..
 04b0 00000019 2c050000 00000000 64000000  ....,.......d...
 04c0 01523203 00000373 01090500 00121404  .R2....s........
 04d0 0000b803 00000375 019c0500 00126704  .......u......g.
 04e0 0000d903 00000376 019c0500 0015a102  .......v........
 04f0 00004005 00000000 0000157c 0300004c  ..@........|...L
 0500 05000000 00000000 1a02af00 00000504  ................
 0510 02100300 00020103 1c050000 1b052805  ..............(.
 0520 0000b900 00000563 1c310500 00e10200  .......c.1......
 0530 001d2a00 00001e46 05000000 0892a238  ..*....F.......8
 0540 00311b38 1e001f92 00000008 07205800  .1.8......... X.
 0550 00002146 05000004 00206505 00002146  ..!F..... e...!F
 0560 05000080 000705c4 03000020 038b1008  ........... ....
 0570 06020000 6f000000 038d0022 a6000000  ....o......"....
 0580 52000000 038f1010 00036505 00002009  R.........e... .
 0590 05000021 46050000 80002310 05a70500  ...!F.....#.....
 05a0 00c40000 00026002 74030000 050800    ......`.t......
Contents of section .debug_ranges:
 0000 a0040000 00000000 b8040000 00000000  ................
 0010 cc040000 00000000 e4040000 00000000  ................
 0020 00000000 00000000 00000000 00000000  ................
Contents of section .debug_str:
 0000 636f7069 65645f70 65725f69 74657200  copied_per_iter.
 0010 76616c75 65006368 6572695f 7461675f  value.cheri_tag_
 0020 67657400 64657374 006c6f6e 6720756e  get.dest.long un
 0030 7369676e 65642069 6e740075 6e736967  signed int.unsig
 0040 6e656420 63686172 00766563 746f725f  ned char.vector_
 0050 6d656d63 70790069 00736f75 7263655f  memcpy.i.source_
 0060 61727261 79005f5a 31397275 6e5f696e  array._Z19run_in
 0070 76616c69 64617465 5f746573 74760064  validate_testv.d
 0080 6573745f 61727261 79007372 635f7074  est_array.src_pt
 0090 72005f5f 41525241 595f5349 5a455f54  r.__ARRAY_SIZE_T
 00a0 5950455f 5f006261 73655f70 74720069  YPE__.base_ptr.i
 00b0 6e740063 6f756e74 00767569 6e74386d  nt.count.vuint8m
 00c0 385f7400 696e7436 345f7400 5f5a3234  8_t.int64_t._Z24
 00d0 76656374 6f725f6d 656d6370 795f696e  vector_memcpy_in
 00e0 76616c69 64617465 5068504b 686d002f  validatePhPKhm./
 00f0 6d656469 612f636f 6d6d6f6e 2f556e69  media/common/Uni
 0100 76657273 6974792f 4564752f 59656172  versity/Edu/Year
 0110 345f4d61 73746572 732f5072 6f6a6563  4_Masters/Projec
 0120 742f7269 7363762d 762d6c69 74652f70  t/riscv-v-lite/p
 0130 726f6772 616d732f 6275696c 642f6c6c  rograms/build/ll
 0140 766d2d31 332d7276 3634696d 76786368  vm-13-rv64imvxch
 0150 6572692d 696e742f 76656374 6f725f6d  eri-int/vector_m
 0160 656d6370 795f706f 696e7465 7273006d  emcpy_pointers.m
 0170 656d6370 79006465 73745f75 63007372  emcpy.dest_uc.sr
 0180 63005f5f 63617000 696e6465 7800636c  c.__cap.index.cl
 0190 616e6720 76657273 696f6e20 31332e30  ang version 13.0
 01a0 2e302028 7373683a 2f2f6769 74406769  .0 (ssh://git@gi
 01b0 74687562 2e636f6d 2f746865 74757262  thub.com/theturb
 01c0 6f747572 6e69702f 6c6c766d 2d70726f  oturnip/llvm-pro
 01d0 6a656374 2e676974 20383832 31336463  ject.git 88213dc
 01e0 66316539 62633435 34663437 31623965  f1e9bc454f471b9e
 01f0 39613862 32656465 33323564 63356532  9a8b2ede325dc5e2
 0200 34290063 68006578 70656374 65645f62  4).ch.expected_b
 0210 6173655f 76616c75 65006473 745f7074  ase_value.dst_pt
 0220 72002f6d 65646961 2f636f6d 6d6f6e2f  r./media/common/
 0230 556e6976 65727369 74792f45 64752f59  University/Edu/Y
 0240 65617234 5f4d6173 74657273 2f50726f  ear4_Masters/Pro
 0250 6a656374 2f726973 63762d76 2d6c6974  ject/riscv-v-lit
 0260 652f7072 6f677261 6d732f76 6563746f  e/programs/vecto
 0270 725f6d65 6d637079 5f706f69 6e746572  r_memcpy_pointer
 0280 732f7665 63746f72 5f6d656d 6370795f  s/vector_memcpy_
 0290 706f696e 74657273 2e637070 0075696e  pointers.cpp.uin
 02a0 7436345f 74007665 63746f72 5f6d656d  t64_t.vector_mem
 02b0 6370795f 696e7661 6c696461 74650072  cpy_invalidate.r
 02c0 756e5f62 6173655f 74657374 0072756e  un_base_test.run
 02d0 5f696e76 616c6964 6174655f 74657374  _invalidate_test
 02e0 005f5f72 76765f75 696e7438 6d385f74  .__rvv_uint8m8_t
 02f0 005f5a31 33766563 746f725f 6d656d63  ._Z13vector_memc
 0300 70795068 504b686d 0073697a 655f7400  pyPhPKhm.size_t.
 0310 626f6f6c 006d656d 73657400 6e756d5f  bool.memset.num_
 0320 62797465 73007074 72007569 6e74385f  bytes.ptr.uint8_
 0330 74006d61 696e0063 685f7563 00626173  t.main.ch_uc.bas
 0340 65730064 61746100 636f7069 65645f31  es.data.copied_1
 0350 32386269 745f656c 656d735f 7065725f  28bit_elems_per_
 0360 69746572 00737263 5f756300 696e6469  iter.src_uc.indi
 0370 63657300 6c6f6e67 20696e74 005f5a31  ces.long int._Z1
 0380 3372756e 5f626173 655f7465 73747600  3run_base_testv.
 0390 5f5a4c31 33636865 72695f74 61675f67  _ZL13cheri_tag_g
 03a0 65745531 325f5f63 61706162 696c6974  etU12__capabilit
 03b0 79507600 64737400 72657375 6c740042  yPv.dst.result.B
 03c0 61736500 456c656d 656e7400 6e756d5f  ase.Element.num_
 03d0 656c656d 656e7473 00617474 656d7074  elements.attempt
 03e0 656400                               ed.
Contents of section .comment:
 0000 636c616e 67207665 7273696f 6e203133  clang version 13
 0010 2e302e30 20287373 683a2f2f 67697440  .0.0 (ssh://git@
 0020 67697468 75622e63 6f6d2f74 68657475  github.com/thetu
 0030 72626f74 75726e69 702f6c6c 766d2d70  rboturnip/llvm-p
 0040 726f6a65 63742e67 69742038 38323133  roject.git 88213
 0050 64636631 65396263 34353466 34373162  dcf1e9bc454f471b
 0060 39653961 38623265 64653332 35646335  9e9a8b2ede325dc5
 0070 65323429 00004c69 6e6b6572 3a204c4c  e24)..Linker: LL
 0080 44203133 2e302e30 20287373 683a2f2f  D 13.0.0 (ssh://
 0090 67697440 67697468 75622e63 6f6d2f74  git@github.com/t
 00a0 68657475 72626f74 75726e69 702f6c6c  heturboturnip/ll
 00b0 766d2d70 726f6a65 63742e67 69742038  vm-project.git 8
 00c0 38323133 64636631 65396263 34353466  8213dcf1e9bc454f
 00d0 34373162 39653961 38623265 64653332  471b9e9a8b2ede32
 00e0 35646335 65323429 00                 5dc5e24).
Contents of section .riscv.attributes:
 0000 413c0000 00726973 63760001 32000000  A<...riscv..2...
 0010 04100572 76363469 3270305f 6d327030  ...rv64i2p0_m2p0
 0020 5f763070 31305f7a 766c7373 65673070  _v0p10_zvlsseg0p
 0030 31305f78 63686572 69307030 00        10_xcheri0p0.
Contents of section .debug_frame:
 0000 14000000 ffffffff 04000800 0178010c  .............x..
 0010 02000000 00000000 14000000 00000000  ................
 0020 14000000 00000000 1c000000 00000000  ................
 0030 14000000 00000000 30000000 00000000  ........0.......
 0040 24000000 00000000 14000000 00000000  $...............
 0050 54000000 00000000 54000000 00000000  T.......T.......
 0060 14000000 00000000 a8000000 00000000  ................
 0070 58000000 00000000 24000000 00000000  X.......$.......
 0080 00010000 00000000 10020000 00000000  ................
 0090 440ef00f 4481014c 0ee04000 00000000  D...D..L..@.....
 00a0 2c000000 00000000 10030000 00000000  ,...............
 00b0 14020000 00000000 440ef00f 50810188  ........D...P...
 00c0 02890392 044c0ef0 40000000 00000000  .....L..@.......
 00d0 14000000 00000000 24050000 00000000  ........$.......
 00e0 08000000 00000000 1c000000 00000000  ................
 00f0 2c050000 00000000 64000000 00000000  ,.......d.......
 0100 440e1048 81018802                    D..H....
Contents of section .debug_line:
 0000 fb040000 0400fe00 00000101 01fb0e0d  ................
 0010 00010101 01000000 01000001 2f686f6d  ............/hom
 0020 652f7361 6d75656c 2f636865 72692f6f  e/samuel/cheri/o
 0030 75747075 742f7364 6b2f6c69 622f636c  utput/sdk/lib/cl
 0040 616e672f 31332e30 2e302f69 6e636c75  ang/13.0.0/inclu
 0050 6465002f 6d656469 612f636f 6d6d6f6e  de./media/common
 0060 2f556e69 76657273 6974792f 4564752f  /University/Edu/
 0070 59656172 345f4d61 73746572 732f5072  Year4_Masters/Pr
 0080 6f6a6563 742f7269 7363762d 762d6c69  oject/riscv-v-li
 0090 74652f70 726f6772 616d7300 00737464  te/programs..std
 00a0 6465662e 68000100 00737464 696e742e  def.h....stdint.
 00b0 68000100 00766563 746f725f 6d656d63  h....vector_memc
 00c0 70795f70 6f696e74 6572732f 76656374  py_pointers/vect
 00d0 6f725f6d 656d6370 795f706f 696e7465  or_memcpy_pointe
 00e0 72732e63 70700002 00006368 6572692e  rs.cpp....cheri.
 00f0 68000100 00726973 63765f76 6563746f  h....riscv_vecto
 0100 722e6800 01000000 04030009 02140000  r.h.............
 0110 00000000 00190505 0a030309 00000106  ................
 0120 03750904 00010518 06030c09 04000105  .u..............
 0130 17037f09 04000105 05060300 09080001  ................
 0140 06030409 04000105 00030409 04000105  ................
 0150 050a0303 09000001 06036a09 04000105  ..........j.....
 0160 14060317 09040001 05120603 00090400  ................
 0170 01051006 03010904 0001050e 03020904  ................
 0180 0001050f 037f0904 00010505 037d0904  .............}..
 0190 00010306 09040001 05000380 01090400  ................
 01a0 0105050a 03030904 00010603 e17e0904  .............~..
 01b0 00010529 0603a001 09040001 05090304  ...)............
 01c0 09040001 03010904 00010301 09040001  ................
 01d0 052d0302 09040001 050d0603 00090400  .-..............
 01e0 01051306 03020904 0001050d 037f0904  ................
 01f0 00010505 03760904 00010310 09040001  .....v..........
 0200 05220301 09040001 05090304 09040001  ."..............
 0210 03010904 0001050d 03060904 00010513  ................
 0220 03020904 0001050d 037f0904 00010505  ................
 0230 03730904 00010501 03100904 00010500  .s..............
 0240 03050904 00010505 0a030209 04000106  ................
 0250 03ba7e09 04000105 290603c7 01090400  ..~.....).......
 0260 01050903 04090400 01030109 04000103  ................
 0270 03090400 01030309 04000105 2d030209  ............-...
 0280 04000105 0d060300 09040001 05130603  ................
 0290 02090400 01050d03 7f090400 01050503  ................
 02a0 71090400 01031409 04000105 22030109  q..........."...
 02b0 04000105 09030409 04000103 01090400  ................
 02c0 01050d03 06090400 01051303 02090400  ................
 02d0 01050d03 7f090400 01050503 73090400  ............s...
 02e0 01050103 10090400 01050003 03090400  ................
 02f0 01050a0a 03040918 00010505 031d0900  ................
 0300 01010515 03010924 00010524 03020908  .......$...$....
 0310 00010531 06030009 08000105 19060301  ...1............
 0320 09040001 037e0904 0001051a 037e0908  .....~.......~..
 0330 00010505 06030009 08000105 0d060308  ................
 0340 09040001 05050306 09140001 0603e47d  ...............}
 0350 091c0001 06039f02 09040001 051b0303  ................
 0360 091c0001 05250603 00090400 01053c03  .....%........<.
 0370 00090400 01054e06 03030908 00010548  ......N........H
 0380 06030009 08000105 27030009 08000103  ........'.......
 0390 db7d0904 0001051a 06039f02 09040001  .}..............
 03a0 05050603 00090800 0103e17d 09040001  ...........}....
 03b0 05010603 aa02090c 00010500 03030918  ................
 03c0 0001050a 0a030409 24000105 05031d09  ........$.......
 03d0 00010105 15030109 24000105 24030209  ........$...$...
 03e0 08000105 31060300 09080001 05190603  ....1...........
 03f0 01090400 01037e09 04000105 1a037e09  ......~.......~.
 0400 08000105 05060300 09080001 050d0603  ................
 0410 08090400 01050503 06091400 01053b03  ..............;.
 0420 05091c00 01050d03 01090400 0106039e  ................
 0430 7d090c00 01050506 03df0209 0c000106  }...............
 0440 03a17d09 08000103 df020904 0001053b  ..}............;
 0450 06030209 04000105 0d030109 04000106  ................
 0460 039e7d09 08000105 1a0603df 02091000  ..}.............
 0470 01050103 08090400 01040405 0003eb7d  ...............}
 0480 09240001 05010a03 00090000 01040305  .$..............
 0490 0003a202 09080001 0a038c7d 09040001  ...........}....
 04a0 050f03f9 02090800 01030409 0c000105  ................
 04b0 25060300 09080001 050c0300 09040001  %...............
 04c0 05190603 03090c00 01030109 0c000105  ................
 04d0 0e030109 08000106 03fe7c09 04000105  ..........|.....
 04e0 05060383 03090400 01050e03 7f090400  ................
 04f0 01050503 01090400 01091000 000101    ...............
Contents of section .symtab:
 0000 00000000 00000000 00000000 00000000  ................
 0010 00000000 00000000 01000000 00000100  ................
 0020 00000000 00000000 00000000 00000000  ................
 0030 07000000 00000100 00000000 00000000  ................
 0040 00000000 00000000 13000000 00000100  ................
 0050 10000000 00000000 00000000 00000000  ................
 0060 17000000 0400f1ff 00000000 00000000  ................
 0070 00000000 00000000 00000000 00000200  ................
 0080 14000000 00000000 00000000 00000000  ................
 0090 00000000 00000200 14000000 00000000  ................
 00a0 00000000 00000000 00000000 00000200  ................
 00b0 14000000 00000000 00000000 00000000  ................
 00c0 00000000 00000200 14000000 00000000  ................
 00d0 00000000 00000000 00000000 00000200  ................
 00e0 18000000 00000000 00000000 00000000  ................
 00f0 00000000 00000200 1c000000 00000000  ................
 0100 00000000 00000000 00000000 00000200  ................
 0110 1c000000 00000000 00000000 00000000  ................
 0120 00000000 00000200 20000000 00000000  ........ .......
 0130 00000000 00000000 00000000 00000200  ................
 0140 20000000 00000000 00000000 00000000   ...............
 0150 00000000 00000200 28000000 00000000  ........(.......
 0160 00000000 00000000 00000000 00000200  ................
 0170 28000000 00000000 00000000 00000000  (...............
 0180 00000000 00000200 2c000000 00000000  ........,.......
 0190 00000000 00000000 00000000 00000200  ................
 01a0 2c000000 00000000 00000000 00000000  ,...............
 01b0 00000000 00000200 30000000 00000000  ........0.......
 01c0 00000000 00000000 00000000 00000200  ................
 01d0 30000000 00000000 00000000 00000000  0...............
 01e0 00000000 00000200 30000000 00000000  ........0.......
 01f0 00000000 00000000 00000000 00000200  ................
 0200 30000000 00000000 00000000 00000000  0...............
 0210 00000000 00000200 30000000 00000000  ........0.......
 0220 00000000 00000000 00000000 00000200  ................
 0230 30000000 00000000 00000000 00000000  0...............
 0240 00000000 00000200 34000000 00000000  ........4.......
 0250 00000000 00000000 00000000 00000200  ................
 0260 38000000 00000000 00000000 00000000  8...............
 0270 00000000 00000200 38000000 00000000  ........8.......
 0280 00000000 00000000 00000000 00000200  ................
 0290 3c000000 00000000 00000000 00000000  <...............
 02a0 00000000 00000200 40000000 00000000  ........@.......
 02b0 00000000 00000000 00000000 00000200  ................
 02c0 44000000 00000000 00000000 00000000  D...............
 02d0 00000000 00000200 48000000 00000000  ........H.......
 02e0 00000000 00000000 00000000 00000200  ................
 02f0 4c000000 00000000 00000000 00000000  L...............
 0300 00000000 00000200 50000000 00000000  ........P.......
 0310 00000000 00000000 00000000 00000200  ................
 0320 50000000 00000000 00000000 00000000  P...............
 0330 00000000 00000200 54000000 00000000  ........T.......
 0340 00000000 00000000 00000000 00000200  ................
 0350 54000000 00000000 00000000 00000000  T...............
 0360 00000000 00000200 54000000 00000000  ........T.......
 0370 00000000 00000000 00000000 00000200  ................
 0380 54000000 00000000 00000000 00000000  T...............
 0390 00000000 00000200 54000000 00000000  ........T.......
 03a0 00000000 00000000 00000000 00000200  ................
 03b0 58000000 00000000 00000000 00000000  X...............
 03c0 00000000 00000200 5c000000 00000000  ........\.......
 03d0 00000000 00000000 00000000 00000200  ................
 03e0 60000000 00000000 00000000 00000000  `...............
 03f0 00000000 00000200 60000000 00000000  ........`.......
 0400 00000000 00000000 00000000 00000200  ................
 0410 64000000 00000000 00000000 00000000  d...............
 0420 00000000 00000200 64000000 00000000  ........d.......
 0430 00000000 00000000 00000000 00000200  ................
 0440 68000000 00000000 00000000 00000000  h...............
 0450 00000000 00000200 68000000 00000000  ........h.......
 0460 00000000 00000000 00000000 00000200  ................
 0470 6c000000 00000000 00000000 00000000  l...............
 0480 00000000 00000200 70000000 00000000  ........p.......
 0490 00000000 00000000 00000000 00000200  ................
 04a0 74000000 00000000 00000000 00000000  t...............
 04b0 00000000 00000200 74000000 00000000  ........t.......
 04c0 00000000 00000000 00000000 00000200  ................
 04d0 78000000 00000000 00000000 00000000  x...............
 04e0 00000000 00000200 7c000000 00000000  ........|.......
 04f0 00000000 00000000 00000000 00000200  ................
 0500 80000000 00000000 00000000 00000000  ................
 0510 00000000 00000200 80000000 00000000  ................
 0520 00000000 00000000 00000000 00000200  ................
 0530 84000000 00000000 00000000 00000000  ................
 0540 00000000 00000200 88000000 00000000  ................
 0550 00000000 00000000 00000000 00000200  ................
 0560 88000000 00000000 00000000 00000000  ................
 0570 00000000 00000200 8c000000 00000000  ................
 0580 00000000 00000000 00000000 00000200  ................
 0590 8c000000 00000000 00000000 00000000  ................
 05a0 00000000 00000200 90000000 00000000  ................
 05b0 00000000 00000000 00000000 00000200  ................
 05c0 90000000 00000000 00000000 00000000  ................
 05d0 00000000 00000200 94000000 00000000  ................
 05e0 00000000 00000000 00000000 00000200  ................
 05f0 98000000 00000000 00000000 00000000  ................
 0600 00000000 00000200 9c000000 00000000  ................
 0610 00000000 00000000 00000000 00000200  ................
 0620 a0000000 00000000 00000000 00000000  ................
 0630 00000000 00000200 a0000000 00000000  ................
 0640 00000000 00000000 00000000 00000200  ................
 0650 a4000000 00000000 00000000 00000000  ................
 0660 00000000 00000200 a4000000 00000000  ................
 0670 00000000 00000000 00000000 00000200  ................
 0680 a8000000 00000000 00000000 00000000  ................
 0690 00000000 00000200 a8000000 00000000  ................
 06a0 00000000 00000000 00000000 00000200  ................
 06b0 a8000000 00000000 00000000 00000000  ................
 06c0 00000000 00000200 a8000000 00000000  ................
 06d0 00000000 00000000 00000000 00000200  ................
 06e0 a8000000 00000000 00000000 00000000  ................
 06f0 00000000 00000200 ac000000 00000000  ................
 0700 00000000 00000000 00000000 00000200  ................
 0710 b0000000 00000000 00000000 00000000  ................
 0720 00000000 00000200 b4000000 00000000  ................
 0730 00000000 00000000 00000000 00000200  ................
 0740 b4000000 00000000 00000000 00000000  ................
 0750 00000000 00000200 b8000000 00000000  ................
 0760 00000000 00000000 00000000 00000200  ................
 0770 b8000000 00000000 00000000 00000000  ................
 0780 00000000 00000200 bc000000 00000000  ................
 0790 00000000 00000000 00000000 00000200  ................
 07a0 bc000000 00000000 00000000 00000000  ................
 07b0 00000000 00000200 c0000000 00000000  ................
 07c0 00000000 00000000 00000000 00000200  ................
 07d0 c4000000 00000000 00000000 00000000  ................
 07e0 00000000 00000200 c8000000 00000000  ................
 07f0 00000000 00000000 00000000 00000200  ................
 0800 cc000000 00000000 00000000 00000000  ................
 0810 00000000 00000200 cc000000 00000000  ................
 0820 00000000 00000000 00000000 00000200  ................
 0830 d0000000 00000000 00000000 00000000  ................
 0840 00000000 00000200 d4000000 00000000  ................
 0850 00000000 00000000 00000000 00000200  ................
 0860 d8000000 00000000 00000000 00000000  ................
 0870 00000000 00000200 d8000000 00000000  ................
 0880 00000000 00000000 00000000 00000200  ................
 0890 dc000000 00000000 00000000 00000000  ................
 08a0 00000000 00000200 e0000000 00000000  ................
 08b0 00000000 00000000 00000000 00000200  ................
 08c0 e0000000 00000000 00000000 00000000  ................
 08d0 00000000 00000200 e4000000 00000000  ................
 08e0 00000000 00000000 00000000 00000200  ................
 08f0 e4000000 00000000 00000000 00000000  ................
 0900 00000000 00000200 e8000000 00000000  ................
 0910 00000000 00000000 00000000 00000200  ................
 0920 e8000000 00000000 00000000 00000000  ................
 0930 00000000 00000200 ec000000 00000000  ................
 0940 00000000 00000000 00000000 00000200  ................
 0950 f0000000 00000000 00000000 00000000  ................
 0960 00000000 00000200 f4000000 00000000  ................
 0970 00000000 00000000 00000000 00000200  ................
 0980 f8000000 00000000 00000000 00000000  ................
 0990 00000000 00000200 f8000000 00000000  ................
 09a0 00000000 00000000 00000000 00000200  ................
 09b0 fc000000 00000000 00000000 00000000  ................
 09c0 00000000 00000200 fc000000 00000000  ................
 09d0 00000000 00000000 00000000 00000200  ................
 09e0 00010000 00000000 00000000 00000000  ................
 09f0 00000000 00000200 00010000 00000000  ................
 0a00 00000000 00000000 00000000 00000200  ................
 0a10 00010000 00000000 00000000 00000000  ................
 0a20 00000000 00000200 00010000 00000000  ................
 0a30 00000000 00000000 00000000 00000200  ................
 0a40 00010000 00000000 00000000 00000000  ................
 0a50 00000000 00000200 04010000 00000000  ................
 0a60 00000000 00000000 00000000 00000200  ................
 0a70 08010000 00000000 00000000 00000000  ................
 0a80 00000000 00000200 14010000 00000000  ................
 0a90 00000000 00000000 00000000 00000200  ................
 0aa0 18010000 00000000 00000000 00000000  ................
 0ab0 00000000 00000200 18020000 00000000  ................
 0ac0 00000000 00000000 00000000 00000200  ................
 0ad0 18020000 00000000 00000000 00000000  ................
 0ae0 32000000 01000300 90050000 00000000  2...............
 0af0 00020000 00000000 00000000 00000200  ................
 0b00 3c020000 00000000 00000000 00000000  <...............
 0b10 00000000 00000200 3c020000 00000000  ........<.......
 0b20 00000000 00000000 00000000 00000200  ................
 0b30 44020000 00000000 00000000 00000000  D...............
 0b40 00000000 00000200 4c020000 00000000  ........L.......
 0b50 00000000 00000000 00000000 00000200  ................
 0b60 50020000 00000000 00000000 00000000  P...............
 0b70 00000000 00000200 54020000 00000000  ........T.......
 0b80 00000000 00000000 00000000 00000200  ................
 0b90 5c020000 00000000 00000000 00000000  \...............
 0ba0 00000000 00000200 5c020000 00000000  ........\.......
 0bb0 00000000 00000000 00000000 00000200  ................
 0bc0 60020000 00000000 00000000 00000000  `...............
 0bd0 00000000 00000200 64020000 00000000  ........d.......
 0be0 00000000 00000000 00000000 00000200  ................
 0bf0 68020000 00000000 00000000 00000000  h...............
 0c00 00000000 00000200 68020000 00000000  ........h.......
 0c10 00000000 00000000 00000000 00000200  ................
 0c20 7c020000 00000000 00000000 00000000  |...............
 0c30 00000000 00000200 7c020000 00000000  ........|.......
 0c40 00000000 00000000 00000000 00000200  ................
 0c50 98020000 00000000 00000000 00000000  ................
 0c60 00000000 00000200 98020000 00000000  ................
 0c70 00000000 00000000 00000000 00000200  ................
 0c80 9c020000 00000000 00000000 00000000  ................
 0c90 00000000 00000200 9c020000 00000000  ................
 0ca0 00000000 00000000 00000000 00000200  ................
 0cb0 b8020000 00000000 00000000 00000000  ................
 0cc0 00000000 00000200 b8020000 00000000  ................
 0cd0 00000000 00000000 00000000 00000200  ................
 0ce0 bc020000 00000000 00000000 00000000  ................
 0cf0 00000000 00000200 c0020000 00000000  ................
 0d00 00000000 00000000 00000000 00000200  ................
 0d10 c8020000 00000000 00000000 00000000  ................
 0d20 00000000 00000200 d0020000 00000000  ................
 0d30 00000000 00000000 00000000 00000200  ................
 0d40 d8020000 00000000 00000000 00000000  ................
 0d50 00000000 00000200 dc020000 00000000  ................
 0d60 00000000 00000000 00000000 00000200  ................
 0d70 dc020000 00000000 00000000 00000000  ................
 0d80 00000000 00000200 e0020000 00000000  ................
 0d90 00000000 00000000 00000000 00000200  ................
 0da0 e4020000 00000000 00000000 00000000  ................
 0db0 00000000 00000200 e8020000 00000000  ................
 0dc0 00000000 00000000 00000000 00000200  ................
 0dd0 ec020000 00000000 00000000 00000000  ................
 0de0 00000000 00000200 ec020000 00000000  ................
 0df0 00000000 00000000 00000000 00000200  ................
 0e00 f8020000 00000000 00000000 00000000  ................
 0e10 00000000 00000200 10030000 00000000  ................
 0e20 00000000 00000000 00000000 00000200  ................
 0e30 10030000 00000000 00000000 00000000  ................
 0e40 00000000 00000200 10030000 00000000  ................
 0e50 00000000 00000000 00000000 00000200  ................
 0e60 10030000 00000000 00000000 00000000  ................
 0e70 00000000 00000200 10030000 00000000  ................
 0e80 00000000 00000000 00000000 00000200  ................
 0e90 14030000 00000000 00000000 00000000  ................
 0ea0 00000000 00000200 24030000 00000000  ........$.......
 0eb0 00000000 00000000 00000000 00000200  ................
 0ec0 24030000 00000000 00000000 00000000  $...............
 0ed0 00000000 00000200 30030000 00000000  ........0.......
 0ee0 00000000 00000000 00000000 00000200  ................
 0ef0 34030000 00000000 00000000 00000000  4...............
 0f00 00000000 00000200 34040000 00000000  ........4.......
 0f10 00000000 00000000 00000000 00000200  ................
 0f20 34040000 00000000 00000000 00000000  4...............
 0f30 00000000 00000200 58040000 00000000  ........X.......
 0f40 00000000 00000000 00000000 00000200  ................
 0f50 58040000 00000000 00000000 00000000  X...............
 0f60 00000000 00000200 60040000 00000000  ........`.......
 0f70 00000000 00000000 00000000 00000200  ................
 0f80 68040000 00000000 00000000 00000000  h...............
 0f90 00000000 00000200 6c040000 00000000  ........l.......
 0fa0 00000000 00000000 00000000 00000200  ................
 0fb0 70040000 00000000 00000000 00000000  p...............
 0fc0 00000000 00000200 78040000 00000000  ........x.......
 0fd0 00000000 00000000 00000000 00000200  ................
 0fe0 78040000 00000000 00000000 00000000  x...............
 0ff0 00000000 00000200 7c040000 00000000  ........|.......
 1000 00000000 00000000 00000000 00000200  ................
 1010 80040000 00000000 00000000 00000000  ................
 1020 00000000 00000200 84040000 00000000  ................
 1030 00000000 00000000 00000000 00000200  ................
 1040 84040000 00000000 00000000 00000000  ................
 1050 00000000 00000200 98040000 00000000  ................
 1060 00000000 00000000 00000000 00000200  ................
 1070 98040000 00000000 00000000 00000000  ................
 1080 00000000 00000200 b4040000 00000000  ................
 1090 00000000 00000000 00000000 00000200  ................
 10a0 b4040000 00000000 00000000 00000000  ................
 10b0 5d000000 02000200 24050000 00000000  ].......$.......
 10c0 08000000 00000000 00000000 00000200  ................
 10d0 b8040000 00000000 00000000 00000000  ................
 10e0 00000000 00000200 c0040000 00000000  ................
 10f0 00000000 00000000 00000000 00000200  ................
 1100 c4040000 00000000 00000000 00000000  ................
 1110 00000000 00000200 c4040000 00000000  ................
 1120 00000000 00000000 00000000 00000200  ................
 1130 cc040000 00000000 00000000 00000000  ................
 1140 00000000 00000200 d0040000 00000000  ................
 1150 00000000 00000000 00000000 00000200  ................
 1160 d8040000 00000000 00000000 00000000  ................
 1170 00000000 00000200 d8040000 00000000  ................
 1180 00000000 00000000 00000000 00000200  ................
 1190 dc040000 00000000 00000000 00000000  ................
 11a0 00000000 00000200 dc040000 00000000  ................
 11b0 00000000 00000000 00000000 00000200  ................
 11c0 e0040000 00000000 00000000 00000000  ................
 11d0 00000000 00000200 e0040000 00000000  ................
 11e0 00000000 00000000 00000000 00000200  ................
 11f0 e4040000 00000000 00000000 00000000  ................
 1200 00000000 00000200 ec040000 00000000  ................
 1210 00000000 00000000 00000000 00000200  ................
 1220 ec040000 00000000 00000000 00000000  ................
 1230 00000000 00000200 f8040000 00000000  ................
 1240 00000000 00000000 00000000 00000200  ................
 1250 fc040000 00000000 00000000 00000000  ................
 1260 00000000 00000200 00050000 00000000  ................
 1270 00000000 00000000 00000000 00000200  ................
 1280 00050000 00000000 00000000 00000000  ................
 1290 00000000 00000200 24050000 00000000  ........$.......
 12a0 00000000 00000000 00000000 00000200  ................
 12b0 24050000 00000000 00000000 00000000  $...............
 12c0 00000000 00000200 24050000 00000000  ........$.......
 12d0 00000000 00000000 00000000 00000200  ................
 12e0 24050000 00000000 00000000 00000000  $...............
 12f0 00000000 00000200 24050000 00000000  ........$.......
 1300 00000000 00000000 00000000 00000200  ................
 1310 24050000 00000000 00000000 00000000  $...............
 1320 00000000 00000200 28050000 00000000  ........(.......
 1330 00000000 00000000 00000000 00000200  ................
 1340 2c050000 00000000 00000000 00000000  ,...............
 1350 00000000 00000200 2c050000 00000000  ........,.......
 1360 00000000 00000000 00000000 00000200  ................
 1370 2c050000 00000000 00000000 00000000  ,...............
 1380 00000000 00000200 2c050000 00000000  ........,.......
 1390 00000000 00000000 00000000 00000200  ................
 13a0 2c050000 00000000 00000000 00000000  ,...............
 13b0 00000000 00000200 30050000 00000000  ........0.......
 13c0 00000000 00000000 00000000 00000200  ................
 13d0 30050000 00000000 00000000 00000000  0...............
 13e0 00000000 00000200 38050000 00000000  ........8.......
 13f0 00000000 00000000 00000000 00000200  ................
 1400 38050000 00000000 00000000 00000000  8...............
 1410 00000000 00000200 38050000 00000000  ........8.......
 1420 00000000 00000000 00000000 00000200  ................
 1430 40050000 00000000 00000000 00000000  @...............
 1440 00000000 00000200 44050000 00000000  ........D.......
 1450 00000000 00000000 00000000 00000200  ................
 1460 44050000 00000000 00000000 00000000  D...............
 1470 00000000 00000200 4c050000 00000000  ........L.......
 1480 00000000 00000000 00000000 00000200  ................
 1490 4c050000 00000000 00000000 00000000  L...............
 14a0 00000000 00000200 50050000 00000000  ........P.......
 14b0 00000000 00000000 00000000 00000200  ................
 14c0 5c050000 00000000 00000000 00000000  \...............
 14d0 00000000 00000200 5c050000 00000000  ........\.......
 14e0 00000000 00000000 00000000 00000200  ................
 14f0 68050000 00000000 00000000 00000000  h...............
 1500 00000000 00000200 70050000 00000000  ........p.......
 1510 00000000 00000000 00000000 00000200  ................
 1520 74050000 00000000 00000000 00000000  t...............
 1530 00000000 00000200 74050000 00000000  ........t.......
 1540 00000000 00000000 00000000 00000200  ................
 1550 78050000 00000000 00000000 00000000  x...............
 1560 00000000 00000200 7c050000 00000000  ........|.......
 1570 00000000 00000000 00000000 00000200  ................
 1580 80050000 00000000 00000000 00000000  ................
 1590 00000000 00000200 90050000 00000000  ................
 15a0 00000000 00000000 00000000 00000200  ................
 15b0 90050000 00000000 00000000 00000000  ................
 15c0 00000000 00000400 00000000 00000000  ................
 15d0 00000000 00000000 00000000 00000400  ................
 15e0 23000000 00000000 00000000 00000000  #...............
 15f0 00000000 00000400 7b000000 00000000  ........{.......
 1600 00000000 00000000 00000000 00000400  ................
 1610 9e000000 00000000 00000000 00000000  ................
 1620 00000000 00000400 d4000000 00000000  ................
 1630 00000000 00000000 00000000 00000400  ................
 1640 f7000000 00000000 00000000 00000000  ................
 1650 00000000 00000400 1a010000 00000000  ................
 1660 00000000 00000000 00000000 00000400  ................
 1670 3d010000 00000000 00000000 00000000  =...............
 1680 00000000 00000400 61010000 00000000  ........a.......
 1690 00000000 00000000 00000000 00000400  ................
 16a0 84010000 00000000 00000000 00000000  ................
 16b0 00000000 00000400 a7010000 00000000  ................
 16c0 00000000 00000000 00000000 00000400  ................
 16d0 ca010000 00000000 00000000 00000000  ................
 16e0 00000000 00000400 ee010000 00000000  ................
 16f0 00000000 00000000 00000000 00000400  ................
 1700 45020000 00000000 00000000 00000000  E...............
 1710 00000000 00000400 6a020000 00000000  ........j.......
 1720 00000000 00000000 00000000 00000400  ................
 1730 90020000 00000000 00000000 00000000  ................
 1740 00000000 00000400 e7020000 00000000  ................
 1750 00000000 00000000 00000000 00000400  ................
 1760 3e030000 00000000 00000000 00000000  >...............
 1770 00000000 00000400 63030000 00000000  ........c.......
 1780 00000000 00000000 00000000 00000400  ................
 1790 89030000 00000000 00000000 00000000  ................
 17a0 00000000 00000400 f1030000 00000000  ................
 17b0 00000000 00000000 00000000 00000400  ................
 17c0 14040000 00000000 00000000 00000000  ................
 17d0 00000000 00000400 67040000 00000000  ........g.......
 17e0 00000000 00000000 81000000 00000c00  ................
 17f0 00000000 00000000 00000000 00000000  ................
 1800 00000000 00000700 00000000 00000000  ................
 1810 00000000 00000000 00000000 00000b00  ................
 1820 00000000 00000000 00000000 00000000  ................
 1830 00000000 00000200 90050000 00000000  ................
 1840 00000000 00000000 95000000 1000f1ff  ................
 1850 00000100 00000000 00000000 00000000  ................
 1860 9a000000 12000200 2c050000 00000000  ........,.......
 1870 64000000 00000000 9f000000 12000200  d...............
 1880 14000000 00000000 1c000000 00000000  ................
 1890 a6000000 12000200 30000000 00000000  ........0.......
 18a0 24000000 00000000 ad000000 12000200  $...............
 18b0 54000000 00000000 54000000 00000000  T.......T.......
 18c0 c5000000 12000200 a8000000 00000000  ................
 18d0 58000000 00000000 e8000000 12000200  X...............
 18e0 00010000 00000000 10020000 00000000  ................
 18f0 fb000000 12000200 10030000 00000000  ................
 1900 14020000 00000000 14010000 1000f1ff  ................
 1910 00000001 00000000 00000000 00000000  ................
 1920 24010000 1000f1ff 08000001 00000000  $...............
 1930 00000000 00000000 34010000 1000f1ff  ........4.......
 1940 10000001 00000000 00000000 00000000  ................
 1950 3d010000 1000f1ff 00500200 00000000  =........P......
 1960 00000000 00000000                    ........
Contents of section .shstrtab:
 0000 002e7465 78742e69 6e697400 2e746578  ..text.init..tex
 0010 74002e64 61746100 2e646562 75675f6c  t..data..debug_l
 0020 6f63002e 64656275 675f6162 62726576  oc..debug_abbrev
 0030 002e6465 6275675f 696e666f 002e6465  ..debug_info..de
 0040 6275675f 72616e67 6573002e 64656275  bug_ranges..debu
 0050 675f7374 72002e63 6f6d6d65 6e74002e  g_str..comment..
 0060 72697363 762e6174 74726962 75746573  riscv.attributes
 0070 002e6465 6275675f 6672616d 65002e64  ..debug_frame..d
 0080 65627567 5f6c696e 65002e73 796d7461  ebug_line..symta
 0090 62002e73 68737472 74616200 2e737472  b..shstrtab..str
 00a0 74616200                             tab.
Contents of section .strtab:
 0000 00656e74 7279002e 4c706372 656c5f68  .entry..Lpcrel_h
 0010 69300065 6e640076 6563746f 725f6d65  i0.end.vector_me
 0020 6d637079 5f706f69 6e746572 732e6370  mcpy_pointers.cp
 0030 70002e4c 5f5f636f 6e73742e 5f5a3139  p..L__const._Z19
 0040 72756e5f 696e7661 6c696461 74655f74  run_invalidate_t
 0050 65737476 2e696e64 69636573 005f5a4c  estv.indices._ZL
 0060 31336368 6572695f 7461675f 67657455  13cheri_tag_getU
 0070 31325f5f 63617061 62696c69 74795076  12__capabilityPv
 0080 002e4c6c 696e655f 7461626c 655f7374  ..Lline_table_st
 0090 61727430 005f5f73 70006d61 696e006d  art0.__sp.main.m
 00a0 656d7365 74006d65 6d637079 005f5a31  emset.memcpy._Z1
 00b0 33766563 746f725f 6d656d63 70795068  3vector_memcpyPh
 00c0 504b686d 005f5a32 34766563 746f725f  PKhm._Z24vector_
 00d0 6d656d63 70795f69 6e76616c 69646174  memcpy_invalidat
 00e0 65506850 4b686d00 5f5a3133 72756e5f  ePhPKhm._Z13run_
 00f0 62617365 5f746573 7476005f 5a313972  base_testv._Z19r
 0100 756e5f69 6e76616c 69646174 655f7465  un_invalidate_te
 0110 73747600 6f757470 75744174 74656d70  stv.outputAttemp
 0120 74656400 6f757470 75745375 63636565  ted.outputSuccee
 0130 64656400 66696e69 73686564 0072616d  ded.finished.ram
 0140 426f756e 64617279 00                 Boundary.

Disassembly of section .text.init:

0000000000000000 <entry>:
       0: 17 01 01 00  	auipc	sp, 16
       4: 13 01 01 02  	addi	sp, sp, 32
       8: 97 00 00 00  	auipc	ra, 0
       c: e7 80 40 52  	jalr	1316(ra)

0000000000000010 <end>:
      10: 6f 00 00 00  	j	0x10 <.Lline_table_start0+0x10>

Disassembly of section .text:

0000000000000014 <memset>:
;     for (int i = 0; i < count; i++) {
      14: 63 0c 06 00  	beqz	a2, 0x2c <memset+0x18>
      18: 93 06 05 00  	mv	a3, a0
;         *(dest_uc + i) = ch_uc;
      1c: 23 80 b6 00  	sb	a1, 0(a3)
;     for (int i = 0; i < count; i++) {
      20: 13 06 f6 ff  	addi	a2, a2, -1
      24: 93 86 16 00  	addi	a3, a3, 1
      28: e3 1a 06 fe  	bnez	a2, 0x1c <memset+0x8>
;     return dest_uc;
      2c: 67 80 00 00  	ret

0000000000000030 <memcpy>:
;     while(count > 0) {
      30: 63 00 06 02  	beqz	a2, 0x50 <memcpy+0x20>
      34: 93 06 05 00  	mv	a3, a0
;         *dest_uc = *src_uc;
      38: 03 87 05 00  	lb	a4, 0(a1)
      3c: 23 80 e6 00  	sb	a4, 0(a3)
;         dest_uc++;
      40: 93 86 16 00  	addi	a3, a3, 1
;         count--;
      44: 13 06 f6 ff  	addi	a2, a2, -1
;         src_uc++;
      48: 93 85 15 00  	addi	a1, a1, 1
;     while(count > 0) {
      4c: e3 16 06 fe  	bnez	a2, 0x38 <memcpy+0x8>
;     return dest;
      50: 67 80 00 00  	ret

0000000000000054 <_Z13vector_memcpyPhPKhm>:
; void vector_memcpy(uint8_t* dst, const uint8_t* src, size_t num_bytes) {
      54: 93 06 00 01  	addi	a3, zero, 16
;     while (num_bytes >= 16) {
      58: 63 66 d6 02  	bltu	a2, a3, 0x84 <_Z13vector_memcpyPhPKhm+0x30>
      5c: 93 06 f0 00  	addi	a3, zero, 15
;         size_t num_elements = num_bytes / 16;
      60: 13 57 46 00  	srli	a4, a2, 4
;         asm volatile ("vsetvli %0, %1, e128, m8, tu, mu" : "=r"(copied_128bit_elems_per_iter) : "r"(num_elements));
      64: 57 77 37 02  	<unknown>
;         asm volatile ("vle128.v v8, (%0)" :: ASM_PREG(src));
      68: 07 84 05 12  	<unknown>
;         asm volatile ("vse128.v v8, (%0)" :: ASM_PREG(dst));
      6c: 27 04 05 12  	<unknown>
;         src += copied_128bit_elems_per_iter * 16;
      70: 13 17 47 00  	slli	a4, a4, 4
      74: b3 85 e5 00  	add	a1, a1, a4
;         num_bytes -= copied_128bit_elems_per_iter * 16;
      78: 33 06 e6 40  	sub	a2, a2, a4
;         dst += copied_128bit_elems_per_iter * 16;
      7c: 33 05 e5 00  	add	a0, a0, a4
;     while (num_bytes >= 16) {
      80: e3 e0 c6 fe  	bltu	a3, a2, 0x60 <_Z13vector_memcpyPhPKhm+0xc>
;     while (num_bytes > 0) {
      84: 63 00 06 02  	beqz	a2, 0xa4 <_Z13vector_memcpyPhPKhm+0x50>
;         size_t copied_per_iter = vsetvl_e8m8(num_bytes);
      88: d7 76 36 04  	<unknown>
;         asm volatile ("vle8.v %0, (%1)" : "=vr"(data) : ASM_PREG(src));
      8c: 07 84 05 02  	<unknown>
;         asm volatile ("vse8.v %0, (%1)" :: "vr"(data),  ASM_PREG(dst));
      90: 27 04 05 02  	<unknown>
;         src += copied_per_iter;
      94: b3 85 d5 00  	add	a1, a1, a3
;         num_bytes -= copied_per_iter;
      98: 33 06 d6 40  	sub	a2, a2, a3
;         dst += copied_per_iter;
      9c: 33 05 d5 00  	add	a0, a0, a3
;     while (num_bytes > 0) {
      a0: e3 14 06 fe  	bnez	a2, 0x88 <_Z13vector_memcpyPhPKhm+0x34>
; }
      a4: 67 80 00 00  	ret

00000000000000a8 <_Z24vector_memcpy_invalidatePhPKhm>:
; void vector_memcpy_invalidate(uint8_t __attribute__((aligned(16)))* dst, const uint8_t __attribute__((aligned(16)))* src, size_t num_bytes) {
      a8: 93 06 00 01  	addi	a3, zero, 16
;     while (num_bytes >= 16) {
      ac: 63 68 d6 02  	bltu	a2, a3, 0xdc <_Z24vector_memcpy_invalidatePhPKhm+0x34>
      b0: 93 06 f0 00  	addi	a3, zero, 15
;         size_t num_elements = num_bytes / 16;
      b4: 13 57 46 00  	srli	a4, a2, 4
;         asm volatile ("vsetvli %0, %1, e128, m4, tu, mu" : "=r"(copied_128bit_elems_per_iter) : "r"(num_elements));
      b8: 57 77 27 02  	<unknown>
;         asm volatile ("vle128.v v8, (%0)" :: ASM_PREG(src));
      bc: 07 84 05 12  	<unknown>
;         asm volatile ("vadd.vi v8, v8, 0");
      c0: 57 34 80 02  	<unknown>
;         asm volatile ("vse128.v v8, (%0)" :: ASM_PREG(dst));
      c4: 27 04 05 12  	<unknown>
;         src += copied_128bit_elems_per_iter * 16;
      c8: 13 17 47 00  	slli	a4, a4, 4
      cc: b3 85 e5 00  	add	a1, a1, a4
;         num_bytes -= copied_128bit_elems_per_iter * 16;
      d0: 33 06 e6 40  	sub	a2, a2, a4
;         dst += copied_128bit_elems_per_iter * 16;
      d4: 33 05 e5 00  	add	a0, a0, a4
;     while (num_bytes >= 16) {
      d8: e3 ee c6 fc  	bltu	a3, a2, 0xb4 <_Z24vector_memcpy_invalidatePhPKhm+0xc>
;     while (num_bytes > 0) {
      dc: 63 00 06 02  	beqz	a2, 0xfc <_Z24vector_memcpy_invalidatePhPKhm+0x54>
;         size_t copied_per_iter = vsetvl_e8m8(num_bytes);
      e0: d7 76 36 04  	<unknown>
;         asm volatile ("vle8.v %0, (%1)" : "=vr"(data) : ASM_PREG(src));
      e4: 07 84 05 02  	<unknown>
;         asm volatile ("vse8.v %0, (%1)" :: "vr"(data),  ASM_PREG(dst));
      e8: 27 04 05 02  	<unknown>
;         src += copied_per_iter;
      ec: b3 85 d5 00  	add	a1, a1, a3
;         num_bytes -= copied_per_iter;
      f0: 33 06 d6 40  	sub	a2, a2, a3
;         dst += copied_per_iter;
      f4: 33 05 d5 00  	add	a0, a0, a3
;     while (num_bytes > 0) {
      f8: e3 14 06 fe  	bnez	a2, 0xe0 <_Z24vector_memcpy_invalidatePhPKhm+0x38>
; }
      fc: 67 80 00 00  	ret

0000000000000100 <_Z13run_base_testv>:
; int run_base_test(void) {
     100: 13 01 01 81  	addi	sp, sp, -2032
     104: 23 34 11 7e  	sd	ra, 2024(sp)
     108: 37 25 00 00  	lui	a0, 2
     10c: 1b 05 05 87  	addiw	a0, a0, -1936
     110: 33 01 a1 40  	sub	sp, sp, a0
     114: 13 05 00 00  	mv	a0, zero
;     Base bases[4] = {
     118: b7 25 00 00  	lui	a1, 2
     11c: 9b 85 05 01  	addiw	a1, a1, 16
     120: b3 05 b1 00  	add	a1, sp, a1
     124: 23 c0 05 00  	sc	cnull, 0(a1)
     128: b7 25 00 00  	lui	a1, 2
     12c: 9b 85 05 02  	addiw	a1, a1, 32
     130: b3 05 b1 00  	add	a1, sp, a1
     134: 23 c0 05 00  	sc	cnull, 0(a1)
     138: b7 25 00 00  	lui	a1, 2
     13c: 9b 85 05 03  	addiw	a1, a1, 48
     140: b3 05 b1 00  	add	a1, sp, a1
     144: 23 c0 05 00  	sc	cnull, 0(a1)
     148: b7 25 00 00  	lui	a1, 2
     14c: 9b 85 05 04  	addiw	a1, a1, 64
     150: b3 05 b1 00  	add	a1, sp, a1
     154: 23 c0 05 00  	sc	cnull, 0(a1)
     158: b7 75 74 00  	lui	a1, 1863
     15c: 9b 85 15 ef  	addiw	a1, a1, -271
     160: 93 95 f5 00  	slli	a1, a1, 15
     164: 93 85 35 95  	addi	a1, a1, -1709
     168: 93 95 d5 00  	slli	a1, a1, 13
     16c: 93 85 95 b4  	addi	a1, a1, -1207
     170: 93 95 c5 00  	slli	a1, a1, 12
     174: 93 85 a5 75  	addi	a1, a1, 1882
     178: 37 26 00 00  	lui	a2, 2
     17c: 1b 06 06 01  	addiw	a2, a2, 16
     180: 33 06 c1 00  	add	a2, sp, a2
     184: 23 30 b6 00  	sd	a1, 0(a2)
     188: b7 45 67 fc  	lui	a1, 1033844
     18c: 9b 85 35 f0  	addiw	a1, a1, -253
     190: 93 95 c5 00  	slli	a1, a1, 12
     194: 93 85 d5 21  	addi	a1, a1, 541
     198: 93 95 d5 00  	slli	a1, a1, 13
     19c: 93 85 b5 62  	addi	a1, a1, 1579
     1a0: 93 95 c5 00  	slli	a1, a1, 12
     1a4: 93 85 45 4a  	addi	a1, a1, 1188
     1a8: 37 26 00 00  	lui	a2, 2
     1ac: 1b 06 06 02  	addiw	a2, a2, 32
     1b0: 33 06 c1 00  	add	a2, sp, a2
     1b4: 23 30 b6 00  	sd	a1, 0(a2)
     1b8: b7 55 ce 00  	lui	a1, 3301
     1bc: 9b 85 35 f3  	addiw	a1, a1, -205
     1c0: 93 95 d5 00  	slli	a1, a1, 13
     1c4: 93 85 75 5c  	addi	a1, a1, 1479
     1c8: 93 95 e5 00  	slli	a1, a1, 14
     1cc: 93 85 f5 33  	addi	a1, a1, 831
     1d0: 93 95 c5 00  	slli	a1, a1, 12
     1d4: 93 85 e5 cd  	addi	a1, a1, -802
     1d8: 37 26 00 00  	lui	a2, 2
     1dc: 1b 06 06 03  	addiw	a2, a2, 48
     1e0: 33 06 c1 00  	add	a2, sp, a2
     1e4: 23 30 b6 00  	sd	a1, 0(a2)
     1e8: b7 05 2a ff  	lui	a1, 1045152
     1ec: 9b 85 95 eb  	addiw	a1, a1, -327
     1f0: 93 95 e5 00  	slli	a1, a1, 14
     1f4: 93 85 b5 e3  	addi	a1, a1, -453
     1f8: 93 95 c5 00  	slli	a1, a1, 12
     1fc: 93 85 f5 d6  	addi	a1, a1, -657
     200: 93 95 d5 00  	slli	a1, a1, 13
     204: 93 85 75 69  	addi	a1, a1, 1687
     208: 37 26 00 00  	lui	a2, 2
     20c: 1b 06 06 04  	addiw	a2, a2, 64
     210: 33 06 c1 00  	add	a2, sp, a2
     214: 23 30 b6 00  	sd	a1, 0(a2)
;     for (size_t i = 0; i < 128; i++) {
     218: b7 15 00 00  	lui	a1, 1
     21c: 9b 85 05 02  	addiw	a1, a1, 32
     220: b3 05 b1 00  	add	a1, sp, a1
     224: 37 06 00 00  	lui	a2, 0
     228: 13 06 06 59  	addi	a2, a2, 1424
     22c: b7 26 00 00  	lui	a3, 2
     230: 9b 86 06 01  	addiw	a3, a3, 16
     234: 33 08 d1 00  	add	a6, sp, a3
     238: 13 07 00 20  	addi	a4, zero, 512
;         int index = indices[i];
     23c: b3 07 c5 00  	add	a5, a0, a2
     240: 83 a7 07 00  	lw	a5, 0(a5)
;             .expected_base_value = bases[index].value,
     244: 93 97 47 00  	slli	a5, a5, 4
     248: b3 07 f8 00  	add	a5, a6, a5
     24c: 83 b6 07 00  	ld	a3, 0(a5)
;             .base_ptr = (Base* CAPABILITY_IF_SUPPORTED) &bases[index]
     250: db 07 f0 26  	cfromptr	ca5, ddc, a5
;         source_array[i] = Element {
     254: 23 b8 d5 fe  	sd	a3, -16(a1)
     258: 23 c0 f5 00  	sc	ca5, 0(a1)
;     for (size_t i = 0; i < 128; i++) {
     25c: 13 05 45 00  	addi	a0, a0, 4
     260: 93 85 05 02  	addi	a1, a1, 32
     264: e3 1c e5 fc  	bne	a0, a4, 0x23c <_Z13run_base_testv+0x13c>
;     Element dest_array[128] = {0};
     268: 13 05 01 01  	addi	a0, sp, 16
     26c: 37 16 00 00  	lui	a2, 1
     270: 93 05 00 00  	mv	a1, zero
     274: 97 00 00 00  	auipc	ra, 0
     278: e7 80 00 da  	jalr	-608(ra)
;     vector_memcpy((uint8_t*)dst_ptr, (const uint8_t*)src_ptr, sizeof(Element) * 128);
     27c: 13 05 01 01  	addi	a0, sp, 16
     280: b7 15 00 00  	lui	a1, 1
     284: 9b 85 05 01  	addiw	a1, a1, 16
     288: b3 05 b1 00  	add	a1, sp, a1
     28c: 37 16 00 00  	lui	a2, 1
     290: 97 00 00 00  	auipc	ra, 0
     294: e7 80 40 dc  	jalr	-572(ra)
     298: 13 05 00 00  	mv	a0, zero
;     for (size_t i = 0; i < 128; i++) {
     29c: 93 05 01 02  	addi	a1, sp, 32
     2a0: 37 06 00 00  	lui	a2, 0
     2a4: 13 06 06 59  	addi	a2, a2, 1424
     2a8: b7 26 00 00  	lui	a3, 2
     2ac: 9b 86 06 01  	addiw	a3, a3, 16
     2b0: b3 08 d1 00  	add	a7, sp, a3
     2b4: 13 08 00 20  	addi	a6, zero, 512
;         if (dest_array[i].base_ptr->value != dest_array[i].expected_base_value) {
     2b8: 8f a7 05 00  	lc	ca5, 0(a1)
     2bc: 5b 87 b7 fa  	ld.cap	a4, (ca5)
     2c0: 83 b6 05 ff  	ld	a3, -16(a1)
     2c4: 63 18 d7 02  	bne	a4, a3, 0x2f4 <_Z13run_base_testv+0x1f4>
;         if (dest_array[i].base_ptr != (Base* CAPABILITY_IF_SUPPORTED) &bases[indices[i]]) {
     2c8: b3 06 c5 00  	add	a3, a0, a2
     2cc: 83 a6 06 00  	lw	a3, 0(a3)
     2d0: 93 96 46 00  	slli	a3, a3, 4
     2d4: b3 86 d8 00  	add	a3, a7, a3
     2d8: db 06 d0 26  	cfromptr	ca3, ddc, a3
     2dc: 63 9c d7 00  	bne	a5, a3, 0x2f4 <_Z13run_base_testv+0x1f4>
;     for (size_t i = 0; i < 128; i++) {
     2e0: 13 05 45 00  	addi	a0, a0, 4
     2e4: 93 85 05 02  	addi	a1, a1, 32
     2e8: e3 18 05 fd  	bne	a0, a6, 0x2b8 <_Z13run_base_testv+0x1b8>
     2ec: 13 05 10 00  	addi	a0, zero, 1
     2f0: 6f 00 80 00  	j	0x2f8 <_Z13run_base_testv+0x1f8>
     2f4: 13 05 00 00  	mv	a0, zero
; }
     2f8: b7 25 00 00  	lui	a1, 2
     2fc: 9b 85 05 87  	addiw	a1, a1, -1936
     300: 33 01 b1 00  	add	sp, sp, a1
     304: 83 30 81 7e  	ld	ra, 2024(sp)
     308: 13 01 01 7f  	addi	sp, sp, 2032
     30c: 67 80 00 00  	ret

0000000000000310 <_Z19run_invalidate_testv>:
; int run_invalidate_test(void) {
     310: 13 01 01 81  	addi	sp, sp, -2032
     314: 23 34 11 7e  	sd	ra, 2024(sp)
     318: 23 30 81 7e  	sd	s0, 2016(sp)
     31c: 23 3c 91 7c  	sd	s1, 2008(sp)
     320: 23 38 21 7d  	sd	s2, 2000(sp)
     324: 37 25 00 00  	lui	a0, 2
     328: 1b 05 05 88  	addiw	a0, a0, -1920
     32c: 33 01 a1 40  	sub	sp, sp, a0
     330: 13 05 00 00  	mv	a0, zero
;     Base bases[4] = {
     334: b7 25 00 00  	lui	a1, 2
     338: 9b 85 05 01  	addiw	a1, a1, 16
     33c: b3 05 b1 00  	add	a1, sp, a1
     340: 23 c0 05 00  	sc	cnull, 0(a1)
     344: b7 25 00 00  	lui	a1, 2
     348: 9b 85 05 02  	addiw	a1, a1, 32
     34c: b3 05 b1 00  	add	a1, sp, a1
     350: 23 c0 05 00  	sc	cnull, 0(a1)
     354: b7 25 00 00  	lui	a1, 2
     358: 9b 85 05 03  	addiw	a1, a1, 48
     35c: b3 05 b1 00  	add	a1, sp, a1
     360: 23 c0 05 00  	sc	cnull, 0(a1)
     364: b7 25 00 00  	lui	a1, 2
     368: 9b 85 05 04  	addiw	a1, a1, 64
     36c: b3 05 b1 00  	add	a1, sp, a1
     370: 23 c0 05 00  	sc	cnull, 0(a1)
     374: b7 75 74 00  	lui	a1, 1863
     378: 9b 85 15 ef  	addiw	a1, a1, -271
     37c: 93 95 f5 00  	slli	a1, a1, 15
     380: 93 85 35 95  	addi	a1, a1, -1709
     384: 93 95 d5 00  	slli	a1, a1, 13
     388: 93 85 95 b4  	addi	a1, a1, -1207
     38c: 93 95 c5 00  	slli	a1, a1, 12
     390: 93 85 a5 75  	addi	a1, a1, 1882
     394: 37 26 00 00  	lui	a2, 2
     398: 1b 06 06 01  	addiw	a2, a2, 16
     39c: 33 06 c1 00  	add	a2, sp, a2
     3a0: 23 30 b6 00  	sd	a1, 0(a2)
     3a4: b7 45 67 fc  	lui	a1, 1033844
     3a8: 9b 85 35 f0  	addiw	a1, a1, -253
     3ac: 93 95 c5 00  	slli	a1, a1, 12
     3b0: 93 85 d5 21  	addi	a1, a1, 541
     3b4: 93 95 d5 00  	slli	a1, a1, 13
     3b8: 93 85 b5 62  	addi	a1, a1, 1579
     3bc: 93 95 c5 00  	slli	a1, a1, 12
     3c0: 93 85 45 4a  	addi	a1, a1, 1188
     3c4: 37 26 00 00  	lui	a2, 2
     3c8: 1b 06 06 02  	addiw	a2, a2, 32
     3cc: 33 06 c1 00  	add	a2, sp, a2
     3d0: 23 30 b6 00  	sd	a1, 0(a2)
     3d4: b7 55 ce 00  	lui	a1, 3301
     3d8: 9b 85 35 f3  	addiw	a1, a1, -205
     3dc: 93 95 d5 00  	slli	a1, a1, 13
     3e0: 93 85 75 5c  	addi	a1, a1, 1479
     3e4: 93 95 e5 00  	slli	a1, a1, 14
     3e8: 93 85 f5 33  	addi	a1, a1, 831
     3ec: 93 95 c5 00  	slli	a1, a1, 12
     3f0: 93 85 e5 cd  	addi	a1, a1, -802
     3f4: 37 26 00 00  	lui	a2, 2
     3f8: 1b 06 06 03  	addiw	a2, a2, 48
     3fc: 33 06 c1 00  	add	a2, sp, a2
     400: 23 30 b6 00  	sd	a1, 0(a2)
     404: b7 05 2a ff  	lui	a1, 1045152
     408: 9b 85 95 eb  	addiw	a1, a1, -327
     40c: 93 95 e5 00  	slli	a1, a1, 14
     410: 93 85 b5 e3  	addi	a1, a1, -453
     414: 93 95 c5 00  	slli	a1, a1, 12
     418: 93 85 f5 d6  	addi	a1, a1, -657
     41c: 93 95 d5 00  	slli	a1, a1, 13
     420: 93 85 75 69  	addi	a1, a1, 1687
     424: 37 26 00 00  	lui	a2, 2
     428: 1b 06 06 04  	addiw	a2, a2, 64
     42c: 33 06 c1 00  	add	a2, sp, a2
     430: 23 30 b6 00  	sd	a1, 0(a2)
;     for (size_t i = 0; i < 128; i++) {
     434: b7 15 00 00  	lui	a1, 1
     438: 9b 85 05 02  	addiw	a1, a1, 32
     43c: b3 05 b1 00  	add	a1, sp, a1
     440: 37 06 00 00  	lui	a2, 0
     444: 13 06 06 59  	addi	a2, a2, 1424
     448: b7 26 00 00  	lui	a3, 2
     44c: 9b 86 06 01  	addiw	a3, a3, 16
     450: b3 06 d1 00  	add	a3, sp, a3
     454: 13 07 00 20  	addi	a4, zero, 512
;         int index = indices[i];
     458: b3 07 c5 00  	add	a5, a0, a2
     45c: 83 a7 07 00  	lw	a5, 0(a5)
;             .expected_base_value = bases[index].value,
     460: 93 97 47 00  	slli	a5, a5, 4
     464: b3 87 f6 00  	add	a5, a3, a5
     468: 83 b4 07 00  	ld	s1, 0(a5)
;             .base_ptr = (Base* CAPABILITY_IF_SUPPORTED) &bases[index]
     46c: db 07 f0 26  	cfromptr	ca5, ddc, a5
;         source_array[i] = Element {
     470: 23 b8 95 fe  	sd	s1, -16(a1)
     474: 23 c0 f5 00  	sc	ca5, 0(a1)
;     for (size_t i = 0; i < 128; i++) {
     478: 13 05 45 00  	addi	a0, a0, 4
     47c: 93 85 05 02  	addi	a1, a1, 32
     480: e3 1c e5 fc  	bne	a0, a4, 0x458 <_Z19run_invalidate_testv+0x148>
;     Element dest_array[128] = {0};
     484: 13 05 01 01  	addi	a0, sp, 16
     488: 37 16 00 00  	lui	a2, 1
     48c: 93 05 00 00  	mv	a1, zero
     490: 97 00 00 00  	auipc	ra, 0
     494: e7 80 40 b8  	jalr	-1148(ra)
;     vector_memcpy_invalidate((uint8_t*)dst_ptr, (const uint8_t*)src_ptr, sizeof(Element) * 128);
     498: 13 05 01 01  	addi	a0, sp, 16
     49c: b7 15 00 00  	lui	a1, 1
     4a0: 9b 85 05 01  	addiw	a1, a1, 16
     4a4: b3 05 b1 00  	add	a1, sp, a1
     4a8: 37 16 00 00  	lui	a2, 1
     4ac: 97 00 00 00  	auipc	ra, 0
     4b0: e7 80 c0 bf  	jalr	-1028(ra)
;         Base* CAPABILITY_IF_SUPPORTED ptr = dest_array[i].base_ptr;
     4b4: 0f 25 01 02  	lc	ca0, 32(sp)
;         if (cheri_tag_get(ptr)) {
     4b8: 97 00 00 00  	auipc	ra, 0
     4bc: e7 80 c0 06  	jalr	108(ra)
     4c0: 93 05 05 00  	mv	a1, a0
     4c4: 13 05 00 00  	mv	a0, zero
     4c8: 63 9c 05 02  	bnez	a1, 0x500 <_Z19run_invalidate_testv+0x1f0>
     4cc: 93 05 00 00  	mv	a1, zero
;     for (size_t i = 0; i < 128; i++) {
     4d0: 13 04 01 04  	addi	s0, sp, 64
     4d4: 13 09 f0 07  	addi	s2, zero, 127
     4d8: 93 84 05 00  	mv	s1, a1
;     for (size_t i = 0; i < 128; i++) {
     4dc: 63 8e 25 01  	beq	a1, s2, 0x4f8 <_Z19run_invalidate_testv+0x1e8>
;         Base* CAPABILITY_IF_SUPPORTED ptr = dest_array[i].base_ptr;
     4e0: 0f 25 04 00  	lc	ca0, 0(s0)
;         if (cheri_tag_get(ptr)) {
     4e4: 97 00 00 00  	auipc	ra, 0
     4e8: e7 80 00 04  	jalr	64(ra)
     4ec: 93 85 14 00  	addi	a1, s1, 1
     4f0: 13 04 04 02  	addi	s0, s0, 32
     4f4: e3 02 05 fe  	beqz	a0, 0x4d8 <_Z19run_invalidate_testv+0x1c8>
     4f8: 13 05 e0 07  	addi	a0, zero, 126
;     for (size_t i = 0; i < 128; i++) {
     4fc: 33 35 95 00  	sltu	a0, a0, s1
; }
     500: b7 25 00 00  	lui	a1, 2
     504: 9b 85 05 88  	addiw	a1, a1, -1920
     508: 33 01 b1 00  	add	sp, sp, a1
     50c: 03 39 01 7d  	ld	s2, 2000(sp)
     510: 83 34 81 7d  	ld	s1, 2008(sp)
     514: 03 34 01 7e  	ld	s0, 2016(sp)
     518: 83 30 81 7e  	ld	ra, 2024(sp)
     51c: 13 01 01 7f  	addi	sp, sp, 2032
     520: 67 80 00 00  	ret

0000000000000524 <_ZL13cheri_tag_getU12__capabilityPv>:
; __CHERI_GET(tag, __cheri_bool, _get, 0)
     524: 5b 05 45 fe  	cgettag	a0, ca0
     528: 67 80 00 00  	ret

000000000000052c <main>:
; {
     52c: 13 01 01 ff  	addi	sp, sp, -16
     530: 23 34 11 00  	sd	ra, 8(sp)
     534: 23 30 81 00  	sd	s0, 0(sp)
;     result |= run_base_test() << 0;
     538: 97 00 00 00  	auipc	ra, 0
     53c: e7 80 80 bc  	jalr	-1080(ra)
     540: 13 04 05 00  	mv	s0, a0
;     result |= run_invalidate_test() << 1;
     544: 97 00 00 00  	auipc	ra, 0
     548: e7 80 c0 dc  	jalr	-564(ra)
     54c: 13 15 15 00  	slli	a0, a0, 1
     550: 33 65 85 00  	or	a0, a0, s0
     554: 93 15 05 02  	slli	a1, a0, 32
     558: 93 d5 05 02  	srli	a1, a1, 32
;     *(&outputAttempted) = attempted;
     55c: 37 06 00 01  	lui	a2, 4096
     560: 93 06 30 00  	addi	a3, zero, 3
     564: 23 30 d6 00  	sd	a3, 0(a2)
;     *(&outputSucceeded) = result;
     568: 37 06 00 01  	lui	a2, 4096
     56c: 23 34 b6 00  	sd	a1, 8(a2)
;     finished = 1;
     570: b7 05 00 01  	lui	a1, 4096
     574: 13 06 10 00  	addi	a2, zero, 1
;     return result;
     578: 1b 05 05 00  	sext.w	a0, a0
;     finished = 1;
     57c: 23 88 c5 00  	sb	a2, 16(a1)
;     return result;
     580: 03 34 01 00  	ld	s0, 0(sp)
     584: 83 30 81 00  	ld	ra, 8(sp)
     588: 13 01 01 01  	addi	sp, sp, 16
     58c: 67 80 00 00  	ret
