
/media/common/University/Edu/Year4_Masters/Project/riscv-v-lite/programs/build/llvm-13-rv64imv/vector_memcpy/vector_memcpy.elf:	file format elf64-littleriscv
Contents of section .text.init:
 0000 17010100 13010102 97200000 e78040d3  ......... ....@.
 0010 6f000000                             o...
Contents of section .text:
 0014 630c0600 93060500 2380b600 1306f6ff  c.......#.......
 0024 93861600 e31a06fe 67800000 130101ee  ........g.......
 0034 233c1110 23388110 23349110 23302111  #<..#8..#4..#0!.
 0044 13090500 93040108 13050108 13060008  ................
 0054 13040008 93050000 97000000 e78080fb  ................
 0064 13050100 13060008 93050000 97000000  ................
 0074 e78040fa 13050000 b385a400 2380a500  ..@.........#...
 0084 13051500 e31a85fe 93040108 1305e006  ................
 0094 93050108 13060100 13040100 e7000900  ................
 00a4 13050000 9305d006 1376f50f b386c400  .........v......
 00b4 83c60600 3307c400 03470700 6398e604  ....3....G..c...
 00c4 13051500 e362b6fe 8345e106 13050000  .....b...E......
 00d4 63900504 9305f006 1305f0ff 13060100  c...............
 00e4 93968503 93d68643 63cc0600 13f7f50f  .......Cc.......
 00f4 3307e600 03470700 93851500 e30207fe  3....G..........
 0104 3325d500 13451500 6f008000 13050000  3%...E..o.......
 0114 03390110 83348110 03340111 83308111  .9...4...4...0..
 0124 13010112 67800000 130101de 233c1120  ....g.......#<. 
 0134 23388120 23349120 23302121 13090500  #8. #4. #0!!....
 0144 13050110 13060010 13040110 93050000  ................
 0154 97000000 e78000ec 13050100 13060010  ................
 0164 93050000 97000000 e780c0ea 13050000  ................
 0174 93050008 2310a400 13051500 13042400  ....#.........$.
 0184 e31ab5fe 93040110 1305e006 93050110  ................
 0194 13060100 13040100 e7000900 13050000  ................
 01a4 b7050100 9b85f5ff 1306d006 93160503  ................
 01b4 93d6f602 3387d400 03570700 b306d400  ....3....W......
 01c4 83d60600 631ed704 b376b500 13051500  ....c....v......
 01d4 e3eec6fc 8355c10d 13050000 63940504  .....U......c...
 01e4 1305e006 b7050100 9b85f5ff 1306e007  ................
 01f4 93060100 3377b500 636ee600 13051500  ....3w..cn......
 0204 b377b500 93971700 b387f600 83d70700  .w..............
 0214 e38207fe 1335f707 13451500 6f008000  .....5...E..o...
 0224 13050000 03390120 83348120 03340121  .....9. .4. .4.!
 0234 83308121 13010122 67800000 130101bd  .0.!..."g.......
 0244 23341142 23308142 233c9140 23382141  #4.B#0.B#<.@#8!A
 0254 13090500 13050121 13060020 93040121  .......!... ...!
 0264 93050000 97000000 e780c0da 13050101  ................
 0274 13060020 93050000 97000000 e78080d9  ... ............
 0284 13050000 93050008 23a0a400 13051500  ........#.......
 0294 93844400 e31ab5fe 93040121 1305e006  ..D........!....
 02a4 93050121 13060101 13040101 e7000900  ...!............
 02b4 93050000 1305d006 13960502 1356e601  .............V..
 02c4 b386c400 83a60600 3306c400 03260600  ........3....&..
 02d4 639ac604 1b860500 93851500 e36ea6fc  c............n..
 02e4 8325811c 13050000 63900504 1305e006  .%......c.......
 02f4 9305e007 13060101 9b060500 63eed500  ............c...
 0304 13051500 13170502 1357e701 3307e600  .........W..3...
 0314 03270700 e30207fe 13b5f607 13451500  .'...........E..
 0324 6f008000 13050000 03390141 83348141  o........9.A.4.A
 0334 03340142 83308142 13010143 67800000  .4.B.0.B...Cg...
 0344 13010181 2334117e 2330817e 233c917c  ....#4.~#0.~#<.|
 0354 2338217d 130101fc 13090500 13050141  #8!}...........A
 0364 13060040 93040141 93050000 97000000  ...@...A........
 0374 e78040ca 13050101 13060040 93050000  ..@........@....
 0384 97000000 e78000c9 13050000 93050008  ................
 0394 23b0a400 13051500 93848400 e31ab5fe  #...............
 03a4 93040141 1305e006 93050141 13060101  ...A.......A....
 03b4 13040101 e7000900 13050000 93050037  ...............7
 03c4 3386a400 03360600 b306a400 83b60600  3....6..........
 03d4 6314d604 13058500 e314b5fe 83350138  c............5.8
 03e4 13050000 639c0502 13058138 9306e006  ....c......8....
 03f4 9305f007 13860600 638ab600 03370500  ........c....7..
 0404 93061600 13058500 e30607fe 1305e007  ................
 0414 3335c500 6f008000 13050000 13010104  35..o...........
 0424 0339017d 8334817d 0334017e 8330817e  .9.}.4.}.4.~.0.~
 0434 1301017f 67800000 130101ed 23341112  ....g.......#4..
 0444 23308112 233c9110 23382111 23343111  #0..#<..#8!.#41.
 0454 13090500 93098108 13058108 13060008  ................
 0464 93040008 93050000 97000000 e78080ba  ................
 0474 13058100 13060008 13048100 93050000  ................
 0484 97000000 e78000b9 13050000 9305b00b  ................
 0494 3386a900 2300a600 3306a400 13051500  3...#...3.......
 04a4 2300b600 e31695fe 9304e006 93098108  #...............
 04b4 1305e006 93058108 13068100 13048100  ................
 04c4 e7000900 13050000 9305b00b 6f00c001  ............o...
 04d4 b386a900 83c60600 03460600 6394c606  .........F..c...
 04e4 13051500 630e9500 93761500 3306a400  ....c....v..3...
 04f4 e39006fe 03460600 e304b6fe 6f008004  .....F......o...
 0504 83456107 1305b00b 639ea502 1306f006  .Ea.....c.......
 0514 9305f0ff 93068100 13178603 13578743  .............W.C
 0524 634c0700 9377f60f b387f600 83c70700  cL...w..........
 0534 13061600 e382a7fe 33a5e500 13451500  ........3....E..
 0544 6f008000 13050000 83398110 03390111  o........9...9..
 0554 83348111 03340112 83308112 13010113  .4...4...0......
 0564 67800000 130101dd 23341122 23308122  g.......#4."#0."
 0574 233c9120 23382121 23343121 13090500  #<. #8!!#41!....
 0584 13058110 13060010 13048110 93050000  ................
 0594 97000000 e78000a8 13058100 13060010  ................
 05a4 93048100 93050000 97000000 e78080a6  ................
 05b4 13050000 9305b00b 13060008 2310a400  ............#...
 05c4 2390b400 13051500 13042400 93842400  #.........$...$.
 05d4 e316c5fe 9309e006 13048110 1305e006  ................
 05e4 93058110 13068100 93048100 e7000900  ................
 05f4 13050000 9305b00b 6f000002 03560400  ........o....V..
 0604 83d60400 631ad606 13051500 13042400  ....c.........$.
 0614 93842400 630c3501 13761500 e31006fe  ..$.c.5..v......
 0624 03d60400 e302b6fe 6f000005 8355410e  ........o....UA.
 0634 1305b00b 6392a504 9305e006 37060100  ....c.......7...
 0644 1b06f6ff 9306e007 13078100 b3f7c500  ................
 0654 63eef600 93851500 b3f4c500 93941400  c...............
 0664 b3049700 83d40400 e382a4fe 13b5f707  ................
 0674 13451500 6f008000 13050000 83398120  .E..o........9. 
 0684 03390121 83348121 03340122 83308122  .9.!.4.!.4.".0."
 0694 13010123 67800000 130101bd 23341142  ...#g.......#4.B
 06a4 23308142 233c9140 23382141 23343141  #0.B#<.@#8!A#41A
 06b4 13090500 13058120 13060020 13048120  ....... ... ... 
 06c4 93050000 97000000 e780c094 13058100  ................
 06d4 13060020 93048100 93050000 97000000  ... ............
 06e4 e7804093 13050000 9305b00b 13060008  ..@.............
 06f4 2320a400 23a0b400 13051500 13044400  # ..#.........D.
 0704 93844400 e316c5fe 9309e006 13048120  ..D............ 
 0714 1305e006 93058120 13068100 93048100  ....... ........
 0724 e7000900 13050000 9305b00b 6f000002  ............o...
 0734 03260400 83a60400 6316d606 13051500  .&......c.......
 0744 93844400 13044400 630c3501 13761500  ..D...D.c.5..v..
 0754 e31006fe 03a60400 e302b6fe 6f008004  ............o...
 0764 8325011c 1305b00b 639ea502 9305e006  .%......c.......
 0774 1306e007 93068100 1b870500 636ee600  ............cn..
 0784 93851500 93970502 93d7e701 b387f600  ................
 0794 83a70700 e382a7fe 1335f707 13451500  .........5...E..
 07a4 6f008000 13050000 83398140 03390141  o........9.@.9.A
 07b4 83348141 03340142 83308142 13010143  .4.A.4.B.0.B...C
 07c4 67800000 13010181 2334117e 2330817e  g.......#4.~#0.~
 07d4 233c917c 2338217d 2334317d 130101fc  #<.|#8!}#41}....
 07e4 13090500 13058140 13060040 13048140  .......@...@...@
 07f4 93050000 97000000 e780c081 13058100  ................
 0804 13060040 93048100 93050000 97000000  ...@............
 0814 e7804080 13050000 9305b00b 13060008  ..@.............
 0824 2330a400 23b0b400 13051500 93848400  #0..#...........
 0834 13048400 e316c5fe 9309e006 13048140  ...............@
 0844 1305e006 93058140 13068100 93048100  .......@........
 0854 e7000900 13050000 9305b00b 6f000002  ............o...
 0864 03360400 83b60400 6312d606 13051500  .6......c.......
 0874 93848400 13048400 630c3501 13761500  ........c.5..v..
 0884 e31006fe 03b60400 e302b6fe 6f000004  ............o...
 0894 83358137 1305b00b 639aa502 93050138  .5.7....c......8
 08a4 1307e006 1306f007 93060700 630ac700  ............c...
 08b4 83b70500 13871600 93858500 e386a7fe  ................
 08c4 1305e007 3335d500 6f008000 13050000  ....35..o.......
 08d4 13010104 8339817c 0339017d 8334817d  .....9.|.9.}.4.}
 08e4 0334017e 8330817e 1301017f 67800000  .4.~.0.~....g...
 08f4 130101ea 233c1114 23388114 23349114  ....#<..#8..#4..
 0904 23302115 233c3113 23384113 23345113  #0!.#<1.#8A.#4Q.
 0914 13090500 1304810a 1305810a 13060008  ................
 0924 93040008 93050000 97f0ffff e780806e  ...............n
 0934 13050000 2330010a 233c0108 23380108  ....#0..#<..#8..
 0944 23340108 23300108 233c0106 23380106  #4..#0..#<..#8..
 0954 23340106 23300106 233c0104 23380104  #4..#0..#<..#8..
 0964 23340104 23300104 233c0102 23380102  #4..#0..#<..#8..
 0974 23340102 b305a400 2380a500 13051500  #4......#.......
 0984 e31a95fe 93048108 23349100 930a8106  ........#4......
 0994 23385101 93098104 233c3101 130a8102  #8Q.....#<1.....
 09a4 23304103 1305a001 9305810a 13068100  #0A.............
 09b4 1304810a e7000900 13050000 93059001  ................
 09c4 1376f50f 93162600 3307d400 03470700  .v....&.3....G..
 09d4 b387c400 83c70700 6316f706 13e71600  ........c.......
 09e4 3307e400 03470700 b387ca00 83c70700  3....G..........
 09f4 631af704 13e72600 3307e400 03470700  c.....&.3....G..
 0a04 b387c900 83c70700 631ef702 93e63600  ........c.....6.
 0a14 b306d400 83c60600 3307ca00 03470700  ........3....G..
 0a24 6392e602 13051500 e36cb6f8 8345210a  c........l...E!.
 0a34 13051000 638c0502 1345f5ff 13751500  ....c....E...u..
 0a44 6f008000 13050000 833a8112 033a0113  o........:...:..
 0a54 83398113 03390114 83348114 03340115  .9...9...4...4..
 0a64 83308115 13010116 67800000 93052108  .0......g.....!.
 0a74 13062106 93062104 13051000 1307a001  ..!...!.........
 0a84 9307e001 93048108 03c40500 e31604fa  ................
 0a94 03440600 e31204fa 03c40600 e31e04f8  .D..............
 0aa4 1374f70f 1335f401 e3e887f8 13071700  .t...5..........
 0ab4 1374f70f 33848400 03440400 93851500  .t..3....D......
 0ac4 13061600 93861600 e30004fc 6ff0dff6  ............o...
 0ad4 130101da 233c1124 23388124 23349124  ....#<.$#8.$#4.$
 0ae4 23302125 233c3123 23384123 23345123  #0!%#<1##8A##4Q#
 0af4 23306123 13090500 13050112 13060010  #0a#............
 0b04 93040112 93050000 97f0ffff e7808050  ...............P
 0b14 13050000 233c0110 23380110 23340110  ....#<..#8..#4..
 0b24 23300110 233c010e 2338010e 2334010e  #0..#<..#8..#4..
 0b34 2330010e 233c010c 2338010c 2334010c  #0..#<..#8..#4..
 0b44 2330010c 233c010a 2338010a 2334010a  #0..#<..#8..#4..
 0b54 2330010a 233c0108 23380108 23340108  #0..#<..#8..#4..
 0b64 23300108 233c0106 23380106 23340106  #0..#<..#8..#4..
 0b74 23300106 233c0104 23380104 23340104  #0..#<..#8..#4..
 0b84 23300104 233c0102 23380102 23340102  #0..#<..#8..#4..
 0b94 23300102 93050008 2390a400 13051500  #0......#.......
 0ba4 93842400 e31ab5fe 130b010e 23306101  ..$.........#0a.
 0bb4 930a010a 23345101 93090106 23383101  ....#4Q.....#81.
 0bc4 130a0102 233c4101 1305a001 93050112  ....#<A.........
 0bd4 13060100 13040112 e7000900 13050000  ................
 0be4 b7050100 9b85f5ff 13089001 b376b500  .............v..
 0bf4 13973600 3307e400 83570700 13971600  ..6.3....W......
 0c04 3306eb00 03560600 639ac706 13962600  3....V..c.....&.
 0c14 93171600 13e62700 3306c400 03560600  ......'.3....V..
 0c24 b384ea00 83d40400 631a9604 13e64700  ........c.....G.
 0c34 3306c400 03560600 b384e900 83d40400  3....V..........
 0c44 631e9602 13e66700 3306c400 03560600  c.....g.3....V..
 0c54 3307ea00 03570700 6312e602 13051500  3....W..c.......
 0c64 e3e606f9 83554111 13051000 638e0502  .....UA.....c...
 0c74 1345f5ff 13751500 6f008000 13050000  .E...u..o.......
 0c84 033b0122 833a8122 033a0123 83398123  .;.".:.".:.#.9.#
 0c94 03390124 83348124 03340125 83308125  .9.$.4.$.4.%.0.%
 0ca4 13010126 67800000 9305410d 13064109  ...&g.....A...A.
 0cb4 93064105 13051000 1307a001 b7070100  ..A.............
 0cc4 9b87f7ff 9304e001 1308010e 03d40500  ................
 0cd4 e31004fa 03540600 e31c04f8 03d40600  .....T..........
 0ce4 e31804f8 3374f700 1335f401 e3e284f8  ....3t...5......
 0cf4 13071700 3374f700 13141400 33048800  ....3t......3...
 0d04 03540400 93852500 13062600 93862600  .T....%...&...&.
 0d14 e30e04fa 6ff0dff5 130101ba 233c1144  ....o.......#<.D
 0d24 23388144 23349144 23302145 233c3143  #8.D#4.D#0!E#<1C
 0d34 23384143 23345143 13090500 13058122  #8AC#4QC......."
 0d44 13060020 13048122 93050000 97f0ffff  ... ..."........
 0d54 e780402c 1305811a 13060008 93040008  ..@,............
 0d64 93050000 97f0ffff e780c02a 13058112  ...........*....
 0d74 13060008 93050000 97f0ffff e7808029  ...............)
 0d84 1305810a 13060008 93050000 97f0ffff  ................
 0d94 e7804028 13058102 13060008 93050000  ..@(............
 0da4 97f0ffff e7800027 13050000 2320a400  .......'....# ..
 0db4 13051500 13044400 e31a95fe 9304811a  ......D.........
 0dc4 23349100 930a8112 23385101 9309810a  #4......#8Q.....
 0dd4 233c3101 130a8102 23304103 1305a001  #<1.....#0A.....
 0de4 93058122 13068100 13048122 e7000900  ..."......."....
 0df4 13050000 93059001 13162502 1356e601  ..........%..V..
 0e04 3306c400 03260600 93160502 13d7e601  3....&..........
 0e14 3387e400 03270700 631ae608 13162500  3....'..c.....%.
 0e24 93d60602 13671600 13170702 1357e701  .....g.......W..
 0e34 3307e400 03270700 93962600 b387da00  3....'....&.....
 0e44 83a70700 6314f706 13672600 13170702  ....c....g&.....
 0e54 1357e701 3307e400 03270700 b387d900  .W..3....'......
 0e64 83a70700 6314f704 13663600 13160602  ....c....f6.....
 0e74 1356e601 3306c400 03260600 b306da00  .V..3....&......
 0e84 83a60600 6314d602 1b060500 13051500  ....c...........
 0e94 e364b6f6 83250121 13051000 638c0502  .d...%.!....c...
 0ea4 1345f5ff 13751500 6f008000 13050000  .E...u..o.......
 0eb4 833a8142 033a0143 83398143 03390144  .:.B.:.C.9.C.9.D
 0ec4 83348144 03340145 83308145 13010146  .4.D.4.E.0.E...F
 0ed4 67800000 93050119 13060111 93060109  g...............
 0ee4 13051000 1307a001 9307e001 9304811a  ................
 0ef4 03a40500 e31604fa 03240600 e31204fa  .........$......
 0f04 03a40600 e31e04f8 1b040700 1335f401  .............5..
 0f14 e3e887f8 13071700 13140702 1354e401  .............T..
 0f24 33848400 03240400 93854500 13064600  3....$....E...F.
 0f34 93864600 e30e04fa 6ff09ff6 13010181  ..F.....o.......
 0f44 2334117e 2330817e 233c917c 2338217d  #4.~#0.~#<.|#8!}
 0f54 2334317d 2330417d 130101f9 13090500  #41}#0A}........
 0f64 13050143 13060040 13040143 93050000  ...C...@...C....
 0f74 97f0ffff e780000a 13050133 13060010  ...........3....
 0f84 93050000 97f0ffff e780c008 13050123  ...............#
 0f94 13060010 93050000 97f0ffff e7808007  ................
 0fa4 13050113 13060010 93050000 97f0ffff  ................
 0fb4 e7804006 13050103 13060010 93050000  ..@.............
 0fc4 97f0ffff e7800005 13050000 93050008  ................
 0fd4 2330a400 13051500 13048400 e31ab5fe  #0..............
 0fe4 93090133 23383101 130a0123 233c4101  ...3#81....##<A.
 0ff4 93040113 23309102 13040103 23348102  ....#0......#4..
 1004 1305a001 93050143 13060101 e7000900  .......C........
 1014 13050000 93050144 1306000d 83b605ff  .......D........
 1024 3387a900 03370700 639ce604 83b685ff  3....7..c.......
 1034 3307aa00 03370700 6394e604 83b60500  3....7..c.......
 1044 3387a400 03370700 639ce602 83b68500  3....7..c.......
 1054 3307a400 03370700 6394e602 13058500  3....7..c.......
 1064 93850502 e31cc5fa 83350140 13051000  .........5.@....
 1074 638c0502 1345f5ff 13751500 6f008000  c....E...u..o...
 1084 13050000 13010107 033a017c 8339817c  .........:.|.9.|
 1094 0339017d 8334817d 0334017e 8330817e  .9.}.4.}.4.~.0.~
 10a4 1301017f 67800000 93050130 13060120  ....g......0... 
 10b4 93060110 13078140 13051000 9307a001  .......@........
 10c4 9304f001 03b40500 e31604fa 03340600  .............4..
 10d4 e31204fa 03b40600 e31e04f8 13b5f701  ................
 10e4 e38a97f8 03340700 93858500 13068600  .....4..........
 10f4 93868600 13078700 93871700 e30404fc  ................
 1104 6ff05ff7 6f00c000 93b61600 63920602  o._.o.......c...
 1114 d7763504 e38a06fe 07840502 27040602  .v5.........'...
 1124 b385d500 3306d600 3305d540 6ff0dffd  ....3...3..@o...
 1134 67800000 6f00c000 93b61600 63940602  g...o.......c...
 1144 d776b504 e38a06fe 07d40502 27540602  .v..........'T..
 1154 13971600 b385e500 3306e600 3305d540  ........3...3..@
 1164 6ff09ffd 67800000 6f00c000 93b61600  o...g...o.......
 1174 63940602 d7763505 e38a06fe 07e40502  c....v5.........
 1184 27640602 13972600 b385e500 3306e600  'd....&.....3...
 1194 3305d540 6ff09ffd 67800000 6f00c000  3..@o...g...o...
 11a4 93b61600 63940602 d7767505 e38a06fe  ....c....vu.....
 11b4 87ec0502 a76c0602 13972600 b385e500  .....l....&.....
 11c4 3306e600 3305d540 6ff09ffd 67800000  3...3..@o...g...
 11d4 6f00c000 93b61600 63940602 d7769505  o.......c....v..
 11e4 e38a06fe 07fd0502 277d0602 13973600  ........'}....6.
 11f4 b385e500 3306e600 3305d540 6ff09ffd  ....3...3..@o...
 1204 67800000 93084000 6f004002 07840502  g.....@.o.@.....
 1214 27040602 13080700 33050541 b3850501  '.......3..A....
 1224 33060601 93361700 639c0602 57773504  3....6..c...Ww5.
 1234 e30a07fe 13182700 e37aa8fc 93070000  ......'..z......
 1244 b386f500 57703704 0784160b b306f600  ....Wp7.........
 1254 93871700 2784160b e39417ff 6ff0dffb  ....'.......o...
 1264 67800000 93088000 6f008002 07d40502  g.......o.......
 1274 27540602 13080700 33050541 93161800  'T......3..A....
 1284 b385d500 3306d600 93361700 639c0602  ....3....6..c...
 1294 5777b504 e30a07fe 13182700 e378a8fc  Ww........'..x..
 12a4 93070000 b386f500 5770b704 07d4160b  ........Wp......
 12b4 b306f600 93872700 27d4160b e39417ff  ......'.'.......
 12c4 6ff09ffb 67800000 93080001 6f008002  o...g.......o...
 12d4 07e40502 27640602 13080700 33050541  ....'d......3..A
 12e4 93162800 b385d500 3306d600 93361700  ..(.....3....6..
 12f4 639c0602 57773505 e30a07fe 13182700  c...Ww5.......'.
 1304 e378a8fc 93070000 b386f500 57703705  .x..........Wp7.
 1314 07e4160b b306f600 93874700 27e4160b  ..........G.'...
 1324 e39417ff 6ff09ffb 67800000 93080001  ....o...g.......
 1334 6f008002 87ec0502 a76c0602 13080700  o........l......
 1344 33050541 93162800 b385d500 3306d600  3..A..(.....3...
 1354 93361700 639c0602 57777505 e30a07fe  .6..c...Wwu.....
 1364 13182700 e378a8fc 93070000 b386f500  ..'..x..........
 1374 57707705 87ec160b b306f600 93874700  Wpw...........G.
 1384 a7ec160b e39417ff 6ff09ffb 67800000  ........o...g...
 1394 93080002 6f008002 07fd0502 277d0602  ....o.......'}..
 13a4 13080700 33050541 93163800 b385d500  ....3..A..8.....
 13b4 3306d600 93361700 639c0602 57779505  3....6..c...Ww..
 13c4 e30a07fe 13182700 e378a8fc 93070000  ......'..x......
 13d4 b386f500 57709705 07fd160b b306f600  ....Wp..........
 13e4 93878700 27fd160b e39417ff 6ff09ffb  ....'.......o...
 13f4 67800000 130101f4 233c110a 2338810a  g.......#<..#8..
 1404 2334910a 2330210b 233c3109 23384109  #4..#0!.#<1.#8A.
 1414 13090600 93840500 13040500 d7793004  .............y0.
 1424 13050101 13060008 130a0101 93050000  ................
 1434 97f0ffff e78000be 638e0900 13050000  ........c.......
 1444 93451500 3306aa00 13051500 2300b600  .E..3.......#...
 1454 e398a9fe 57f03904 13050101 07040502  ....W.9.........
 1464 6f000002 07880402 27080902 b384a400  o.......'.......
 1474 3309a900 3304a440 13351500 631e0500  3...3..@.5..c...
 1484 57753404 e30a05fe e31e35fd 07888406  Wu4.......5.....
 1494 27088906 6ff09ffd 033a0109 83398109  '...o....:...9..
 14a4 0339010a 8334810a 0334010b 8330810b  .9...4...4...0..
 14b4 1301010c 67800000 130101ec 233c1112  ....g.......#<..
 14c4 23388112 23349112 23302113 233c3111  #8..#4..#0!.#<1.
 14d4 23384111 13090600 138a0500 13040500  #8A.............
 14e4 d779b004 13050101 13060010 93040101  .y..............
 14f4 93050000 97f0ffff e780c0b1 63800902  ............c...
 1504 13050000 93151500 93c52500 2390b400  ..........%.#...
 1514 13051500 93842400 e396a9fe 57f0b904  ......$.....W...
 1524 13050101 07540502 6f004002 07580a02  .....T..o.@..X..
 1534 27580902 93151500 330aba00 3309b900  'X......3...3...
 1544 3304a440 13351500 631e0500 5775b404  3..@.5..c...Wu..
 1554 e30a05fe e31c35fd 07588a06 27588906  ......5..X..'X..
 1564 6ff05ffd 033a0111 83398111 03390112  o._..:...9...9..
 1574 83348112 03340113 83308113 13010114  .4...4...0......
 1584 67800000 130101dc 233c1122 23388122  g.......#<."#8."
 1594 23349122 23302123 233c3121 23384121  #4."#0!##<1!#8A!
 15a4 13090600 138a0500 13040500 d7793005  .............y0.
 15b4 13050101 13060020 93040101 93050000  ....... ........
 15c4 97f0ffff e78000a5 63800902 13050000  ........c.......
 15d4 93152500 93c54500 23a0b400 13051500  ..%...E.#.......
 15e4 93844400 e396a9fe 57f03905 13050101  ..D.....W.9.....
 15f4 07640502 6f004002 07680a02 27680902  .d..o.@..h..'h..
 1604 93152500 330aba00 3309b900 3304a440  ..%.3...3...3..@
 1614 13351500 631e0500 57753405 e30a05fe  .5..c...Wu4.....
 1624 e31c35fd 07688a06 27688906 6ff05ffd  ..5..h..'h..o._.
 1634 033a0121 83398121 03390122 83348122  .:.!.9.!.9.".4."
 1644 03340123 83308123 13010124 67800000  .4.#.0.#...$g...
 1654 130101dc 233c1122 23388122 23349122  ....#<."#8."#4."
 1664 23302123 233c3121 23384121 13090600  #0!##<1!#8A!....
 1674 138a0500 13040500 d7797005 13050101  .........yp.....
 1684 13060020 93040101 93050000 97f0ffff  ... ............
 1694 e7804098 63800902 13050000 93152500  ..@.c.........%.
 16a4 93c54500 23a0b400 13051500 93844400  ..E.#.........D.
 16b4 e396a9fe 57f07905 13050101 876c0502  ....W.y......l..
 16c4 6f004002 076d0a02 276d0902 93152500  o.@..m..'m....%.
 16d4 330aba00 3309b900 3304a440 13351500  3...3...3..@.5..
 16e4 631e0500 57757405 e30a05fe e31c35fd  c...Wut.......5.
 16f4 076d9a07 276d9907 6ff05ffd 033a0121  .m..'m..o._..:.!
 1704 83398121 03390122 83348122 03340123  .9.!.9.".4.".4.#
 1714 83308123 13010124 67800000 130101bc  .0.#...$g.......
 1724 233c1142 23388142 23349142 23302143  #<.B#8.B#4.B#0!C
 1734 233c3141 23384141 13090600 93840500  #<1A#8AA........
 1744 13040500 d7799005 13050101 13060040  .....y.........@
 1754 130a0101 93050000 97f0ffff e780808b  ................
 1764 63800902 13050000 93953900 13468500  c.........9..F..
 1774 b306aa00 13058500 23b0c600 e398a5fe  ........#.......
 1784 57f09905 13050101 077d0502 6f004002  W........}..o.@.
 1794 07fe0402 277e0902 93153500 b384b400  ....'~....5.....
 17a4 3309b900 3304a440 13351500 631e0500  3...3..@.5..c...
 17b4 57759405 e30a05fe e31c35fd 07fea407  Wu........5.....
 17c4 277ea907 6ff05ffd 033a0141 83398141  '~..o._..:.A.9.A
 17d4 03390142 83348142 03340143 83308143  .9.B.4.B.4.C.0.C
 17e4 13010144 67800000 130101dd 23341122  ...Dg.......#4."
 17f4 23308122 233c9120 23382121 23343121  #0."#<. #8!!#41!
 1804 13090600 93890500 13040500 13058100  ................
 1814 13060020 93048100 93050000 97e0ffff  ... ............
 1824 e780407f 57753005 630e0500 93050000  ..@.Wu0.c.......
 1834 13f61500 23a0c400 93851500 93844400  ....#.........D.
 1844 e318b5fe 13058100 07640502 57b08062  .........d..W..b
 1854 6f00c000 13351500 63180502 57753405  o....5..c...Wu4.
 1864 e30a05fe 57703501 07e40900 57703005  ....Wp5.....Wp0.
 1874 27640900 93152500 b389b900 3309b900  'd....%.....3...
 1884 3304a440 6ff01ffd 83398120 03390121  3..@o....9. .9.!
 1894 83348121 03340122 83308122 13010123  .4.!.4.".0."...#
 18a4 67800000 93080002 6f00c000 93b61200  g.......o.......
 18b4 639e0604 d7721504 e38a02fe 07800562  c....r.........b
 18c4 83370600 27800702 83378600 27810702  .7..'....7..'...
 18d4 83370601 27820702 03388601 93070000  .7..'....8......
 18e4 27030802 13982200 b306f600 03b70600  '.....".........
 18f4 33075700 93878700 23b0e600 e39617ff  3.W.....#.......
 1904 b3850501 33055540 6ff05ffa 67800000  ....3.U@o._.g...
 1914 93080002 6f00c000 93b61200 63920606  ....o.......c...
 1924 d7729504 e38a02fe 07d00562 83370600  .r.........b.7..
 1934 27d00702 83378600 27d10702 83370601  '....7..'....7..
 1944 27d20702 03388601 93070000 27530802  '....8......'S..
 1954 13982200 b306f600 03b30600 13971200  ..".............
 1964 3307e300 93878700 23b0e600 e39417ff  3.......#.......
 1974 93171800 b385f500 33055540 6ff0dff9  ........3.U@o...
 1984 67800000 93080002 6f00c000 93361800  g.......o....6..
 1994 63900606 57781505 e30a08fe 07e00562  c...Wx.........b
 19a4 03370600 27600702 03378600 27610702  .7..'`...7..'a..
 19b4 03370601 27620702 83378601 13070000  .7..'b...7......
 19c4 27e30702 93122800 b306e600 83b70600  '.....(.........
 19d4 b3875700 13078700 23b0f600 e31617ff  ..W.....#.......
 19e4 13972200 b385e500 33050541 6ff01ffa  ..".....3..Ao...
 19f4 67800000 93080002 6f00c000 93361800  g.......o....6..
 1a04 63900606 57787505 e30a08fe 07e00562  c...Wxu........b
 1a14 03370600 27600702 03378600 a7600702  .7..'`...7...`..
 1a24 03370601 27610702 83378601 13070000  .7..'a...7......
 1a34 a7e10702 93122800 b306e600 83b70600  ......(.........
 1a44 b3875700 13078700 23b0f600 e31617ff  ..W.....#.......
 1a54 13972200 b385e500 33050541 6ff01ffa  ..".....3..Ao...
 1a64 67800000 93080002 6f00c000 93b61200  g.......o.......
 1a74 63920606 d7729505 e38a02fe 07f00562  c....r.........b
 1a84 83370600 27f00702 83378600 27f10702  .7..'....7..'...
 1a94 83370601 27f20702 03388601 93070000  .7..'....8......
 1aa4 27730802 13982200 b306f600 03b30600  's....".........
 1ab4 13973200 3307e300 93878700 23b0e600  ..2.3.......#...
 1ac4 e39417ff 93173800 b385f500 33055540  ......8.....3.U@
 1ad4 6ff0dff9 67800000 d7768005 6f004002  o...g....v..o.@.
 1ae4 87fc0502 a77c0602 93173700 b385f500  .....|....7.....
 1af4 3306f600 3305e540 13371700 631e0700  3...3..@.7..c...
 1b04 57778505 e30a07fe e31cd7fc 878c8502  Ww..............
 1b14 a70c8602 6ff05ffd 67800000 d7769005  ....o._.g....v..
 1b24 6f004002 07fd0502 277d0602 93173700  o.@.....'}....7.
 1b34 b385f500 3306f600 3305e540 13371700  ....3...3..@.7..
 1b44 631e0700 57779505 e30a07fe e31cd7fc  c...Ww..........
 1b54 078d8522 270d8622 6ff05ffd 67800000  ..."'.."o._.g...
 1b64 d776a005 6f004002 07fe0502 277e0602  .v..o.@.....'~..
 1b74 93173700 b385f500 3306f600 3305e540  ..7.....3...3..@
 1b84 13371700 631e0700 5777a505 e30a07fe  .7..c...Ww......
 1b94 e31cd7fc 078e8562 270e8662 6ff05ffd  .......b'..bo._.
 1ba4 67800000 d776b005 6f004002 07f40502  g....v..o.@.....
 1bb4 27740602 93173700 b385f500 3306f600  't....7.....3...
 1bc4 3305e540 13371700 631e0700 5777b505  3..@.7..c...Ww..
 1bd4 e30a07fe e31cd7fc 078485e2 270486e2  ............'...
 1be4 6ff05ffd 67800000 6f00c000 93060000  o._.g...o.......
 1bf4 638a0602 d7763504 e38a06fe 07840503  c....v5.........
 1c04 732700c2 e314d7fe 57f03604 27040602  s'......W.6.'...
 1c14 b385d500 3306d600 3305d540 93061000  ....3...3..@....
 1c24 e39a06fc 67800000 6f00c000 93060000  ....g...o.......
 1c34 638c0602 d776b504 e38a06fe 07d40503  c....v..........
 1c44 732700c2 e314d7fe 57f0b604 27540602  s'......W...'T..
 1c54 13971600 b385e500 3306e600 3305d540  ........3...3..@
 1c64 93061000 e39806fc 67800000 6f00c000  ........g...o...
 1c74 93060000 638c0602 d7763505 e38a06fe  ....c....v5.....
 1c84 07e40503 732700c2 e314d7fe 57f03605  ....s'......W.6.
 1c94 27640602 13972600 b385e500 3306e600  'd....&.....3...
 1ca4 3305d540 93061000 e39806fc 67800000  3..@........g...
 1cb4 6f00c000 93060000 638c0602 d7767505  o.......c....vu.
 1cc4 e38a06fe 87ec0503 732700c2 e314d7fe  ........s'......
 1cd4 57f07605 a76c0602 13972600 b385e500  W.v..l....&.....
 1ce4 3306e600 3305d540 93061000 e39806fc  3...3..@........
 1cf4 67800000 6f00c000 93060000 638c0602  g...o.......c...
 1d04 d7769505 e38a06fe 07fd0503 732700c2  .v..........s'..
 1d14 e314d7fe 57f09605 277d0602 13973600  ....W...'}....6.
 1d24 b385e500 3306e600 3305d540 93061000  ....3...3..@....
 1d34 e39806fc 67800000 130101ff 23341100  ....g.......#4..
 1d44 23308100 37150000 13058510 97e0ffff  #0..7...........
 1d54 e780002e 13040500 37150000 13058513  ........7.......
 1d64 97e0ffff e780803c 13151500 33648500  .......<....3d..
 1d74 37150000 1305c516 97e0ffff e780404c  7.............@L
 1d84 13152500 3364a400 37150000 1305051a  ..%.3d..7.......
 1d94 97e0ffff e780c04a 13153500 3364a400  .......J..5.3d..
 1da4 37150000 1305451d 97e0ffff e7808059  7.....E........Y
 1db4 13154500 3364a400 37150000 13058520  ..E.3d..7...... 
 1dc4 97e0ffff e780c026 13155500 3364a400  .......&..U.3d..
 1dd4 37150000 13058526 97e0ffff e7800035  7......&.......5
 1de4 13156500 3364a400 37150000 1305c52c  ..e.3d..7......,
 1df4 97e0ffff e780c044 13157500 3364a400  .......D..u.3d..
 1e04 37150000 13050533 97e0ffff e7804043  7......3......@C
 1e14 13158500 3364a400 37150000 13054539  ....3d..7.....E9
 1e24 97e0ffff e7800052 13159500 3364a400  .......R....3d..
 1e34 37150000 1305853f 97e0ffff e780401f  7......?......@.
 1e44 1315a500 3364a400 37150000 1305c54b  ....3d..7......K
 1e54 97e0ffff e780802d 1315b500 3364a400  .......-....3d..
 1e64 37150000 13058558 97e0ffff e780403d  7......X......@=
 1e74 1315c500 3364a400 37150000 13054565  ....3d..7.....Ee
 1e84 97e0ffff e780c03b 1315d500 3364a400  .......;....3d..
 1e94 37150000 13050572 97e0ffff e780804a  7......r.......J
 1ea4 1315e500 3364a400 37150000 1305c57e  ....3d..7......~
 1eb4 97e0ffff e780807e 1315f500 3364a400  .......~....3d..
 1ec4 37250000 1305858a 97f0ffff e78080a2  7%..............
 1ed4 13151501 3364a400 37250000 13054591  ....3d..7%....E.
 1ee4 97f0ffff e78000bf 13152501 3364a400  ..........%.3d..
 1ef4 37250000 13058598 97f0ffff e78000e2  7%..............
 1f04 13153501 3364a400 37250000 1305859f  ..5.3d..7%......
 1f14 97f0ffff e78080e0 13154501 3364a400  ..........E.3d..
 1f24 37250000 130585a6 97f0ffff e7804001  7%............@.
 1f34 13155501 3364a400 37250000 1305c5ad  ..U.3d..7%......
 1f44 97e0ffff e7800040 13156501 3364a400  .......@..e.3d..
 1f54 37250000 130505b2 97e0ffff e780803e  7%.............>
 1f64 13157501 3364a400 37250000 130545b6  ..u.3d..7%....E.
 1f74 97e0ffff e780003d 13158501 3364a400  .......=....3d..
 1f84 37250000 130585ba 97e0ffff e780803b  7%.............;
 1f94 13159501 3364a400 37250000 1305c5be  ....3d..7%......
 1fa4 97e0ffff e780c008 1315a501 3364a400  ............3d..
 1fb4 37250000 1305c5c2 97e0ffff e7800017  7%..............
 1fc4 1315b501 3364a400 37250000 130505c7  ....3d..7%......
 1fd4 97e0ffff e780c026 1315c501 3364a400  .......&....3d..
 1fe4 37250000 130545cb 97e0ffff e7804025  7%....E.......@%
 1ff4 1315d501 3364a400 37250000 130585cf  ....3d..7%......
 2004 97e0ffff e7800034 1315e501 3365a400  .......4....3e..
 2014 b7050001 3706ff7f 1b06f6ff 23b0c500  ....7.......#...
 2024 b7050001 23b4a500 13050000 03340100  ....#........4..
 2034 83308100 13010101 67800000           .0......g...
Contents of section .comment:
 0000 5562756e 74752063 6c616e67 20766572  Ubuntu clang ver
 0010 73696f6e 2031332e 302e312d 2b2b3230  sion 13.0.1-++20
 0020 32323031 32303131 30393234 2b373565  220120110924+75e
 0030 33336637 31633264 612d317e 65787031  33f71c2da-1~exp1
 0040 7e323032 32303132 30323331 3030312e  ~20220120231001.
 0050 3538004c 696e6b65 723a2055 62756e74  58.Linker: Ubunt
 0060 75204c4c 44203133 2e302e31 0000      u LLD 13.0.1..
Contents of section .riscv.attributes:
 0000 41320000 00726973 63760001 28000000  A2...riscv..(...
 0010 04100572 76363469 3270305f 6d327030  ...rv64i2p0_m2p0
 0020 5f763070 31305f7a 766c7373 65673070  _v0p10_zvlsseg0p
 0030 313000                               10.
Contents of section .symtab:
 0000 00000000 00000000 00000000 00000000  ................
 0010 00000000 00000000 01000000 00000100  ................
 0020 00000000 00000000 00000000 00000000  ................
 0030 07000000 00000100 00000000 00000000  ................
 0040 00000000 00000000 13000000 00000100  ................
 0050 10000000 00000000 00000000 00000000  ................
 0060 17000000 0400f1ff 00000000 00000000  ................
 0070 00000000 00000000 2c000000 00000200  ........,.......
 0080 2c000000 00000000 00000000 00000000  ,...............
 0090 34000000 00000200 1c000000 00000000  4...............
 00a0 00000000 00000000 3c000000 00000200  ........<.......
 00b0 7c000000 00000000 00000000 00000000  |...............
 00c0 44000000 00000200 ac000000 00000000  D...............
 00d0 00000000 00000000 4c000000 00000200  ........L.......
 00e0 10010000 00000000 00000000 00000000  ................
 00f0 55000000 00000200 14010000 00000000  U...............
 0100 00000000 00000000 5e000000 00000200  ........^.......
 0110 e4000000 00000000 00000000 00000000  ................
 0120 66000000 00000200 04010000 00000000  f...............
 0130 00000000 00000000 6e000000 00000200  ........n.......
 0140 78010000 00000000 00000000 00000000  x...............
 0150 76000000 00000200 b0010000 00000000  v...............
 0160 00000000 00000000 7e000000 00000200  ........~.......
 0170 24020000 00000000 00000000 00000000  $...............
 0180 87000000 00000200 28020000 00000000  ........(.......
 0190 00000000 00000000 90000000 00000200  ................
 01a0 f8010000 00000000 00000000 00000000  ................
 01b0 98000000 00000200 18020000 00000000  ................
 01c0 00000000 00000000 a0000000 00000200  ................
 01d0 8c020000 00000000 00000000 00000000  ................
 01e0 a8000000 00000200 bc020000 00000000  ................
 01f0 00000000 00000000 b0000000 00000200  ................
 0200 28030000 00000000 00000000 00000000  (...............
 0210 b9000000 00000200 2c030000 00000000  ........,.......
 0220 00000000 00000000 c2000000 00000200  ................
 0230 fc020000 00000000 00000000 00000000  ................
 0240 ca000000 00000200 1c030000 00000000  ................
 0250 00000000 00000000 d2000000 00000200  ................
 0260 94030000 00000000 00000000 00000000  ................
 0270 da000000 00000200 c4030000 00000000  ................
 0280 00000000 00000000 e2000000 00000200  ................
 0290 1c040000 00000000 00000000 00000000  ................
 02a0 eb000000 00000200 20040000 00000000  ........ .......
 02b0 00000000 00000000 f4000000 00000200  ................
 02c0 f8030000 00000000 00000000 00000000  ................
 02d0 fc000000 00000200 10040000 00000000  ................
 02e0 00000000 00000000 04010000 00000200  ................
 02f0 94040000 00000000 00000000 00000000  ................
 0300 0c010000 00000200 ec040000 00000000  ................
 0310 00000000 00000000 14010000 00000200  ................
 0320 d4040000 00000000 00000000 00000000  ................
 0330 1c010000 00000200 48050000 00000000  ........H.......
 0340 00000000 00000000 25010000 00000200  ........%.......
 0350 e4040000 00000000 00000000 00000000  ................
 0360 2d010000 00000200 04050000 00000000  -...............
 0370 00000000 00000000 35010000 00000200  ........5.......
 0380 1c050000 00000000 00000000 00000000  ................
 0390 3d010000 00000200 3c050000 00000000  =.......<.......
 03a0 00000000 00000000 46010000 00000200  ........F.......
 03b0 4c050000 00000000 00000000 00000000  L...............
 03c0 4f010000 00000200 c0050000 00000000  O...............
 03d0 00000000 00000000 57010000 00000200  ........W.......
 03e0 1c060000 00000000 00000000 00000000  ................
 03f0 5f010000 00000200 00060000 00000000  _...............
 0400 00000000 00000000 67010000 00000200  ........g.......
 0410 7c060000 00000000 00000000 00000000  |...............
 0420 70010000 00000200 0c060000 00000000  p...............
 0430 00000000 00000000 78010000 00000200  ........x.......
 0440 30060000 00000000 00000000 00000000  0...............
 0450 80010000 00000200 50060000 00000000  ........P.......
 0460 00000000 00000000 88010000 00000200  ................
 0470 70060000 00000000 00000000 00000000  p...............
 0480 91010000 00000200 80060000 00000000  ................
 0490 00000000 00000000 9a010000 00000200  ................
 04a0 f4060000 00000000 00000000 00000000  ................
 04b0 a2010000 00000200 50070000 00000000  ........P.......
 04c0 00000000 00000000 aa010000 00000200  ................
 04d0 34070000 00000000 00000000 00000000  4...............
 04e0 b2010000 00000200 a8070000 00000000  ................
 04f0 00000000 00000000 bb010000 00000200  ................
 0500 40070000 00000000 00000000 00000000  @...............
 0510 c3010000 00000200 64070000 00000000  ........d.......
 0520 00000000 00000000 cb010000 00000200  ................
 0530 7c070000 00000000 00000000 00000000  |...............
 0540 d3010000 00000200 9c070000 00000000  ................
 0550 00000000 00000000 dc010000 00000200  ................
 0560 ac070000 00000000 00000000 00000000  ................
 0570 e5010000 00000200 24080000 00000000  ........$.......
 0580 00000000 00000000 ed010000 00000200  ................
 0590 80080000 00000000 00000000 00000000  ................
 05a0 f5010000 00000200 64080000 00000000  ........d.......
 05b0 00000000 00000000 fd010000 00000200  ................
 05c0 d0080000 00000000 00000000 00000000  ................
 05d0 06020000 00000200 70080000 00000000  ........p.......
 05e0 00000000 00000000 0e020000 00000200  ................
 05f0 94080000 00000000 00000000 00000000  ................
 0600 16020000 00000200 ac080000 00000000  ................
 0610 00000000 00000000 1e020000 00000200  ................
 0620 c4080000 00000000 00000000 00000000  ................
 0630 27020000 00000200 d4080000 00000000  '...............
 0640 00000000 00000000 30020000 00000200  ........0.......
 0650 78090000 00000000 00000000 00000000  x...............
 0660 38020000 00000200 c4090000 00000000  8...............
 0670 00000000 00000000 40020000 00000200  ........@.......
 0680 480a0000 00000000 00000000 00000000  H...............
 0690 49020000 00000200 700a0000 00000000  I.......p.......
 06a0 00000000 00000000 52020000 00000200  ........R.......
 06b0 3c0a0000 00000000 00000000 00000000  <...............
 06c0 5a020000 00000200 4c0a0000 00000000  Z.......L.......
 06d0 00000000 00000000 63020000 00000200  ........c.......
 06e0 8c0a0000 00000000 00000000 00000000  ................
 06f0 6c020000 00000200 9c0b0000 00000000  l...............
 0700 00000000 00000000 75020000 00000200  ........u.......
 0710 f00b0000 00000000 00000000 00000000  ................
 0720 7e020000 00000200 800c0000 00000000  ~...............
 0730 00000000 00000000 88020000 00000200  ................
 0740 ac0c0000 00000000 00000000 00000000  ................
 0750 92020000 00000200 740c0000 00000000  ........t.......
 0760 00000000 00000000 9b020000 00000200  ................
 0770 840c0000 00000000 00000000 00000000  ................
 0780 a5020000 00000200 d00c0000 00000000  ................
 0790 00000000 00000000 af020000 00000200  ................
 07a0 b00d0000 00000000 00000000 00000000  ................
 07b0 b8020000 00000200 fc0d0000 00000000  ................
 07c0 00000000 00000000 c1020000 00000200  ................
 07d0 b00e0000 00000000 00000000 00000000  ................
 07e0 cb020000 00000200 d80e0000 00000000  ................
 07f0 00000000 00000000 d5020000 00000200  ................
 0800 a40e0000 00000000 00000000 00000000  ................
 0810 de020000 00000200 b40e0000 00000000  ................
 0820 00000000 00000000 e8020000 00000200  ................
 0830 f40e0000 00000000 00000000 00000000  ................
 0840 f2020000 00000200 d40f0000 00000000  ................
 0850 00000000 00000000 fb020000 00000200  ................
 0860 20100000 00000000 00000000 00000000   ...............
 0870 04030000 00000200 84100000 00000000  ................
 0880 00000000 00000000 0e030000 00000200  ................
 0890 ac100000 00000000 00000000 00000000  ................
 08a0 18030000 00000200 78100000 00000000  ........x.......
 08b0 00000000 00000000 21030000 00000200  ........!.......
 08c0 88100000 00000000 00000000 00000000  ................
 08d0 2b030000 00000200 c8100000 00000000  +...............
 08e0 00000000 00000000 35030000 00000200  ........5.......
 08f0 14110000 00000000 00000000 00000000  ................
 0900 3e030000 00000200 0c110000 00000000  >...............
 0910 00000000 00000000 47030000 00000200  ........G.......
 0920 34110000 00000000 00000000 00000000  4...............
 0930 50030000 00000200 44110000 00000000  P.......D.......
 0940 00000000 00000000 59030000 00000200  ........Y.......
 0950 3c110000 00000000 00000000 00000000  <...............
 0960 62030000 00000200 68110000 00000000  b.......h.......
 0970 00000000 00000000 6b030000 00000200  ........k.......
 0980 78110000 00000000 00000000 00000000  x...............
 0990 74030000 00000200 70110000 00000000  t.......p.......
 09a0 00000000 00000000 7d030000 00000200  ........}.......
 09b0 9c110000 00000000 00000000 00000000  ................
 09c0 86030000 00000200 ac110000 00000000  ................
 09d0 00000000 00000000 8f030000 00000200  ................
 09e0 a4110000 00000000 00000000 00000000  ................
 09f0 98030000 00000200 d0110000 00000000  ................
 0a00 00000000 00000000 a1030000 00000200  ................
 0a10 e0110000 00000000 00000000 00000000  ................
 0a20 aa030000 00000200 d8110000 00000000  ................
 0a30 00000000 00000000 b3030000 00000200  ................
 0a40 04120000 00000000 00000000 00000000  ................
 0a50 bc030000 00000200 30120000 00000000  ........0.......
 0a60 00000000 00000000 c5030000 00000200  ................
 0a70 10120000 00000000 00000000 00000000  ................
 0a80 ce030000 00000200 1c120000 00000000  ................
 0a90 00000000 00000000 d7030000 00000200  ................
 0aa0 28120000 00000000 00000000 00000000  (...............
 0ab0 e0030000 00000200 64120000 00000000  ........d.......
 0ac0 00000000 00000000 e9030000 00000200  ................
 0ad0 44120000 00000000 00000000 00000000  D...............
 0ae0 f2030000 00000200 94120000 00000000  ................
 0af0 00000000 00000000 fb030000 00000200  ................
 0b00 70120000 00000000 00000000 00000000  p...............
 0b10 04040000 00000200 7c120000 00000000  ........|.......
 0b20 00000000 00000000 0d040000 00000200  ................
 0b30 8c120000 00000000 00000000 00000000  ................
 0b40 16040000 00000200 c8120000 00000000  ................
 0b50 00000000 00000000 1f040000 00000200  ................
 0b60 a8120000 00000000 00000000 00000000  ................
 0b70 28040000 00000200 f8120000 00000000  (...............
 0b80 00000000 00000000 31040000 00000200  ........1.......
 0b90 d4120000 00000000 00000000 00000000  ................
 0ba0 3a040000 00000200 e0120000 00000000  :...............
 0bb0 00000000 00000000 43040000 00000200  ........C.......
 0bc0 f0120000 00000000 00000000 00000000  ................
 0bd0 4c040000 00000200 2c130000 00000000  L.......,.......
 0be0 00000000 00000000 55040000 00000200  ........U.......
 0bf0 0c130000 00000000 00000000 00000000  ................
 0c00 5e040000 00000200 5c130000 00000000  ^.......\.......
 0c10 00000000 00000000 67040000 00000200  ........g.......
 0c20 38130000 00000000 00000000 00000000  8...............
 0c30 70040000 00000200 44130000 00000000  p.......D.......
 0c40 00000000 00000000 79040000 00000200  ........y.......
 0c50 54130000 00000000 00000000 00000000  T...............
 0c60 82040000 00000200 90130000 00000000  ................
 0c70 00000000 00000000 8b040000 00000200  ................
 0c80 70130000 00000000 00000000 00000000  p...............
 0c90 94040000 00000200 c0130000 00000000  ................
 0ca0 00000000 00000000 9d040000 00000200  ................
 0cb0 9c130000 00000000 00000000 00000000  ................
 0cc0 a6040000 00000200 a8130000 00000000  ................
 0cd0 00000000 00000000 af040000 00000200  ................
 0ce0 b8130000 00000000 00000000 00000000  ................
 0cf0 b8040000 00000200 f4130000 00000000  ................
 0d00 00000000 00000000 c1040000 00000200  ................
 0d10 d4130000 00000000 00000000 00000000  ................
 0d20 ca040000 00000200 58140000 00000000  ........X.......
 0d30 00000000 00000000 d3040000 00000200  ................
 0d40 44140000 00000000 00000000 00000000  D...............
 0d50 dc040000 00000200 84140000 00000000  ................
 0d60 00000000 00000000 e5040000 00000200  ................
 0d70 68140000 00000000 00000000 00000000  h...............
 0d80 ee040000 00000200 70140000 00000000  ........p.......
 0d90 00000000 00000000 f7040000 00000200  ................
 0da0 7c140000 00000000 00000000 00000000  |...............
 0db0 00050000 00000200 9c140000 00000000  ................
 0dc0 00000000 00000000 0a050000 00000200  ................
 0dd0 20150000 00000000 00000000 00000000   ...............
 0de0 13050000 00000200 08150000 00000000  ................
 0df0 00000000 00000000 1c050000 00000200  ................
 0e00 50150000 00000000 00000000 00000000  P...............
 0e10 25050000 00000200 30150000 00000000  %.......0.......
 0e20 00000000 00000000 2e050000 00000200  ................
 0e30 38150000 00000000 00000000 00000000  8...............
 0e40 37050000 00000200 48150000 00000000  7.......H.......
 0e50 00000000 00000000 40050000 00000200  ........@.......
 0e60 68150000 00000000 00000000 00000000  h...............
 0e70 4a050000 00000200 ec150000 00000000  J...............
 0e80 00000000 00000000 53050000 00000200  ........S.......
 0e90 d4150000 00000000 00000000 00000000  ................
 0ea0 5c050000 00000200 1c160000 00000000  \...............
 0eb0 00000000 00000000 65050000 00000200  ........e.......
 0ec0 fc150000 00000000 00000000 00000000  ................
 0ed0 6e050000 00000200 04160000 00000000  n...............
 0ee0 00000000 00000000 77050000 00000200  ........w.......
 0ef0 14160000 00000000 00000000 00000000  ................
 0f00 80050000 00000200 34160000 00000000  ........4.......
 0f10 00000000 00000000 8a050000 00000200  ................
 0f20 b8160000 00000000 00000000 00000000  ................
 0f30 93050000 00000200 a0160000 00000000  ................
 0f40 00000000 00000000 9c050000 00000200  ................
 0f50 e8160000 00000000 00000000 00000000  ................
 0f60 a5050000 00000200 c8160000 00000000  ................
 0f70 00000000 00000000 ae050000 00000200  ................
 0f80 d0160000 00000000 00000000 00000000  ................
 0f90 b7050000 00000200 e0160000 00000000  ................
 0fa0 00000000 00000000 c0050000 00000200  ................
 0fb0 00170000 00000000 00000000 00000000  ................
 0fc0 ca050000 00000200 84170000 00000000  ................
 0fd0 00000000 00000000 d3050000 00000200  ................
 0fe0 70170000 00000000 00000000 00000000  p...............
 0ff0 dc050000 00000200 b4170000 00000000  ................
 1000 00000000 00000000 e5050000 00000200  ................
 1010 94170000 00000000 00000000 00000000  ................
 1020 ee050000 00000200 9c170000 00000000  ................
 1030 00000000 00000000 f7050000 00000200  ................
 1040 ac170000 00000000 00000000 00000000  ................
 1050 00060000 00000200 cc170000 00000000  ................
 1060 00000000 00000000 0a060000 00000200  ................
 1070 48180000 00000000 00000000 00000000  H...............
 1080 13060000 00000200 34180000 00000000  ........4.......
 1090 00000000 00000000 1c060000 00000200  ................
 10a0 60180000 00000000 00000000 00000000  `...............
 10b0 25060000 00000200 58180000 00000000  %.......X.......
 10c0 00000000 00000000 2e060000 00000200  ................
 10d0 8c180000 00000000 00000000 00000000  ................
 10e0 37060000 00000200 b8180000 00000000  7...............
 10f0 00000000 00000000 40060000 00000200  ........@.......
 1100 b0180000 00000000 00000000 00000000  ................
 1110 49060000 00000200 10190000 00000000  I...............
 1120 00000000 00000000 52060000 00000200  ........R.......
 1130 ec180000 00000000 00000000 00000000  ................
 1140 5b060000 00000200 24190000 00000000  [.......$.......
 1150 00000000 00000000 64060000 00000200  ........d.......
 1160 1c190000 00000000 00000000 00000000  ................
 1170 6d060000 00000200 84190000 00000000  m...............
 1180 00000000 00000000 76060000 00000200  ........v.......
 1190 58190000 00000000 00000000 00000000  X...............
 11a0 7f060000 00000200 98190000 00000000  ................
 11b0 00000000 00000000 88060000 00000200  ................
 11c0 90190000 00000000 00000000 00000000  ................
 11d0 91060000 00000200 f4190000 00000000  ................
 11e0 00000000 00000000 9a060000 00000200  ................
 11f0 cc190000 00000000 00000000 00000000  ................
 1200 a3060000 00000200 081a0000 00000000  ................
 1210 00000000 00000000 ac060000 00000200  ................
 1220 001a0000 00000000 00000000 00000000  ................
 1230 b5060000 00000200 641a0000 00000000  ........d.......
 1240 00000000 00000000 be060000 00000200  ................
 1250 3c1a0000 00000000 00000000 00000000  <...............
 1260 c7060000 00000200 781a0000 00000000  ........x.......
 1270 00000000 00000000 d0060000 00000200  ................
 1280 701a0000 00000000 00000000 00000000  p...............
 1290 d9060000 00000200 d81a0000 00000000  ................
 12a0 00000000 00000000 e2060000 00000200  ................
 12b0 ac1a0000 00000000 00000000 00000000  ................
 12c0 eb060000 00000200 041b0000 00000000  ................
 12d0 00000000 00000000 f4060000 00000200  ................
 12e0 e41a0000 00000000 00000000 00000000  ................
 12f0 fd060000 00000200 ec1a0000 00000000  ................
 1300 00000000 00000000 06070000 00000200  ................
 1310 fc1a0000 00000000 00000000 00000000  ................
 1320 0f070000 00000200 1c1b0000 00000000  ................
 1330 00000000 00000000 18070000 00000200  ................
 1340 481b0000 00000000 00000000 00000000  H...............
 1350 21070000 00000200 281b0000 00000000  !.......(.......
 1360 00000000 00000000 2a070000 00000200  ........*.......
 1370 301b0000 00000000 00000000 00000000  0...............
 1380 33070000 00000200 401b0000 00000000  3.......@.......
 1390 00000000 00000000 3c070000 00000200  ........<.......
 13a0 601b0000 00000000 00000000 00000000  `...............
 13b0 45070000 00000200 8c1b0000 00000000  E...............
 13c0 00000000 00000000 4e070000 00000200  ........N.......
 13d0 6c1b0000 00000000 00000000 00000000  l...............
 13e0 57070000 00000200 741b0000 00000000  W.......t.......
 13f0 00000000 00000000 60070000 00000200  ........`.......
 1400 841b0000 00000000 00000000 00000000  ................
 1410 69070000 00000200 a41b0000 00000000  i...............
 1420 00000000 00000000 72070000 00000200  ........r.......
 1430 d01b0000 00000000 00000000 00000000  ................
 1440 7b070000 00000200 b01b0000 00000000  {...............
 1450 00000000 00000000 84070000 00000200  ................
 1460 b81b0000 00000000 00000000 00000000  ................
 1470 8d070000 00000200 c81b0000 00000000  ................
 1480 00000000 00000000 96070000 00000200  ................
 1490 e81b0000 00000000 00000000 00000000  ................
 14a0 9f070000 00000200 f81b0000 00000000  ................
 14b0 00000000 00000000 a8070000 00000200  ................
 14c0 f01b0000 00000000 00000000 00000000  ................
 14d0 b1070000 00000200 281c0000 00000000  ........(.......
 14e0 00000000 00000000 ba070000 00000200  ................
 14f0 381c0000 00000000 00000000 00000000  8...............
 1500 c3070000 00000200 301c0000 00000000  ........0.......
 1510 00000000 00000000 cc070000 00000200  ................
 1520 6c1c0000 00000000 00000000 00000000  l...............
 1530 d5070000 00000200 7c1c0000 00000000  ........|.......
 1540 00000000 00000000 de070000 00000200  ................
 1550 741c0000 00000000 00000000 00000000  t...............
 1560 e7070000 00000200 b01c0000 00000000  ................
 1570 00000000 00000000 f0070000 00000200  ................
 1580 c01c0000 00000000 00000000 00000000  ................
 1590 f9070000 00000200 b81c0000 00000000  ................
 15a0 00000000 00000000 02080000 00000200  ................
 15b0 f41c0000 00000000 00000000 00000000  ................
 15c0 0b080000 00000200 041d0000 00000000  ................
 15d0 00000000 00000000 14080000 00000200  ................
 15e0 fc1c0000 00000000 00000000 00000000  ................
 15f0 1d080000 00000200 381d0000 00000000  ........8.......
 1600 00000000 00000000 26080000 1000f1ff  ........&.......
 1610 00000100 00000000 00000000 00000000  ................
 1620 2b080000 12000200 3c1d0000 00000000  +.......<.......
 1630 04030000 00000000 30080000 12000200  ........0.......
 1640 14000000 00000000 1c000000 00000000  ................
 1650 37080000 12000200 30000000 00000000  7.......0.......
 1660 fc000000 00000000 55080000 12000200  ........U.......
 1670 2c010000 00000000 14010000 00000000  ,...............
 1680 74080000 12000200 40020000 00000000  t.......@.......
 1690 04010000 00000000 93080000 12000200  ................
 16a0 44030000 00000000 f8000000 00000000  D...............
 16b0 b2080000 12000200 3c040000 00000000  ........<.......
 16c0 2c010000 00000000 d7080000 12000200  ,...............
 16d0 68050000 00000000 34010000 00000000  h.......4.......
 16e0 fd080000 12000200 9c060000 00000000  ................
 16f0 2c010000 00000000 23090000 12000200  ,.......#.......
 1700 c8070000 00000000 2c010000 00000000  ........,.......
 1710 49090000 12000200 f4080000 00000000  I...............
 1720 e0010000 00000000 71090000 12000200  ........q.......
 1730 d40a0000 00000000 48020000 00000000  ........H.......
 1740 9a090000 12000200 1c0d0000 00000000  ................
 1750 24020000 00000000 c3090000 12000200  $...............
 1760 400f0000 00000000 c8010000 00000000  @...............
 1770 ec090000 12000200 08110000 00000000  ................
 1780 30000000 00000000 0b0a0000 12000200  0...............
 1790 38110000 00000000 34000000 00000000  8.......4.......
 17a0 2b0a0000 12000200 6c110000 00000000  +.......l.......
 17b0 34000000 00000000 4b0a0000 12000200  4.......K.......
 17c0 a0110000 00000000 34000000 00000000  ........4.......
 17d0 6c0a0000 12000200 d4110000 00000000  l...............
 17e0 34000000 00000000 8c0a0000 12000200  4...............
 17f0 08120000 00000000 60000000 00000000  ........`.......
 1800 a70a0000 12000200 68120000 00000000  ........h.......
 1810 64000000 00000000 c30a0000 12000200  d...............
 1820 cc120000 00000000 64000000 00000000  ........d.......
 1830 df0a0000 12000200 30130000 00000000  ........0.......
 1840 64000000 00000000 fc0a0000 12000200  d...............
 1850 94130000 00000000 64000000 00000000  ........d.......
 1860 180b0000 12000200 f8130000 00000000  ................
 1870 c4000000 00000000 330b0000 12000200  ........3.......
 1880 bc140000 00000000 cc000000 00000000  ................
 1890 4f0b0000 12000200 88150000 00000000  O...............
 18a0 cc000000 00000000 6b0b0000 12000200  ........k.......
 18b0 54160000 00000000 cc000000 00000000  T...............
 18c0 880b0000 12000200 20170000 00000000  ........ .......
 18d0 cc000000 00000000 a40b0000 12000200  ................
 18e0 ec170000 00000000 bc000000 00000000  ................
 18f0 bf0b0000 12000200 a8180000 00000000  ................
 1900 6c000000 00000000 dc0b0000 12000200  l...............
 1910 14190000 00000000 74000000 00000000  ........t.......
 1920 fa0b0000 12000200 88190000 00000000  ................
 1930 70000000 00000000 180c0000 12000200  p...............
 1940 f8190000 00000000 70000000 00000000  ........p.......
 1950 370c0000 12000200 681a0000 00000000  7.......h.......
 1960 74000000 00000000 550c0000 12000200  t.......U.......
 1970 dc1a0000 00000000 44000000 00000000  ........D.......
 1980 720c0000 12000200 201b0000 00000000  r....... .......
 1990 44000000 00000000 8f0c0000 12000200  D...............
 19a0 641b0000 00000000 44000000 00000000  d.......D.......
 19b0 ac0c0000 12000200 a81b0000 00000000  ................
 19c0 44000000 00000000 c90c0000 12000200  D...............
 19d0 ec1b0000 00000000 40000000 00000000  ........@.......
 19e0 f70c0000 12000200 2c1c0000 00000000  ........,.......
 19f0 44000000 00000000 260d0000 12000200  D.......&.......
 1a00 701c0000 00000000 44000000 00000000  p.......D.......
 1a10 550d0000 12000200 b41c0000 00000000  U...............
 1a20 44000000 00000000 850d0000 12000200  D...............
 1a30 f81c0000 00000000 44000000 00000000  ........D.......
 1a40 b40d0000 1000f1ff 00000001 00000000  ................
 1a50 00000000 00000000 c40d0000 1000f1ff  ................
 1a60 08000001 00000000 00000000 00000000  ................
Contents of section .shstrtab:
 0000 002e7465 78742e69 6e697400 2e746578  ..text.init..tex
 0010 74002e63 6f6d6d65 6e74002e 72697363  t..comment..risc
 0020 762e6174 74726962 75746573 002e7379  v.attributes..sy
 0030 6d746162 002e7368 73747274 6162002e  mtab..shstrtab..
 0040 73747274 616200                      strtab.
Contents of section .strtab:
 0000 00656e74 7279002e 4c706372 656c5f68  .entry..Lpcrel_h
 0010 69300065 6e640074 6573745f 76656374  i0.end.test_vect
 0020 6f725f6d 656d6370 792e6300 2e4c4242  or_memcpy.c..LBB
 0030 305f3300 2e4c4242 305f3200 2e4c4242  0_3..LBB0_2..LBB
 0040 315f3100 2e4c4242 315f3300 2e4c4242  1_1..LBB1_3..LBB
 0050 315f3130 002e4c42 42315f31 31002e4c  1_10..LBB1_11..L
 0060 4242315f 37002e4c 4242315f 39002e4c  BB1_7..LBB1_9..L
 0070 4242325f 31002e4c 4242325f 33002e4c  BB2_1..LBB2_3..L
 0080 4242325f 3130002e 4c424232 5f313100  BB2_10..LBB2_11.
 0090 2e4c4242 325f3700 2e4c4242 325f3900  .LBB2_7..LBB2_9.
 00a0 2e4c4242 335f3100 2e4c4242 335f3300  .LBB3_1..LBB3_3.
 00b0 2e4c4242 335f3130 002e4c42 42335f31  .LBB3_10..LBB3_1
 00c0 31002e4c 4242335f 37002e4c 4242335f  1..LBB3_7..LBB3_
 00d0 39002e4c 4242345f 31002e4c 4242345f  9..LBB4_1..LBB4_
 00e0 33002e4c 4242345f 3130002e 4c424234  3..LBB4_10..LBB4
 00f0 5f313100 2e4c4242 345f3700 2e4c4242  _11..LBB4_7..LBB
 0100 345f3900 2e4c4242 355f3100 2e4c4242  4_9..LBB5_1..LBB
 0110 355f3500 2e4c4242 355f3300 2e4c4242  5_5..LBB5_3..LBB
 0120 355f3132 002e4c42 42355f34 002e4c42  5_12..LBB5_4..LB
 0130 42355f37 002e4c42 42355f39 002e4c42  B5_7..LBB5_9..LB
 0140 42355f31 31002e4c 4242355f 3133002e  B5_11..LBB5_13..
 0150 4c424236 5f31002e 4c424236 5f35002e  LBB6_1..LBB6_5..
 0160 4c424236 5f33002e 4c424236 5f313200  LBB6_3..LBB6_12.
 0170 2e4c4242 365f3400 2e4c4242 365f3700  .LBB6_4..LBB6_7.
 0180 2e4c4242 365f3900 2e4c4242 365f3131  .LBB6_9..LBB6_11
 0190 002e4c42 42365f31 33002e4c 4242375f  ..LBB6_13..LBB7_
 01a0 31002e4c 4242375f 35002e4c 4242375f  1..LBB7_5..LBB7_
 01b0 33002e4c 4242375f 3132002e 4c424237  3..LBB7_12..LBB7
 01c0 5f34002e 4c424237 5f37002e 4c424237  _4..LBB7_7..LBB7
 01d0 5f39002e 4c424237 5f313100 2e4c4242  _9..LBB7_11..LBB
 01e0 375f3133 002e4c42 42385f31 002e4c42  7_13..LBB8_1..LB
 01f0 42385f35 002e4c42 42385f33 002e4c42  B8_5..LBB8_3..LB
 0200 42385f31 32002e4c 4242385f 34002e4c  B8_12..LBB8_4..L
 0210 4242385f 37002e4c 4242385f 39002e4c  BB8_7..LBB8_9..L
 0220 4242385f 3131002e 4c424238 5f313300  BB8_11..LBB8_13.
 0230 2e4c4242 395f3100 2e4c4242 395f3300  .LBB9_1..LBB9_3.
 0240 2e4c4242 395f3130 002e4c42 42395f31  .LBB9_10..LBB9_1
 0250 32002e4c 4242395f 39002e4c 4242395f  2..LBB9_9..LBB9_
 0260 3131002e 4c424239 5f313300 2e4c4242  11..LBB9_13..LBB
 0270 31305f31 002e4c42 4231305f 33002e4c  10_1..LBB10_3..L
 0280 42423130 5f313000 2e4c4242 31305f31  BB10_10..LBB10_1
 0290 32002e4c 42423130 5f39002e 4c424231  2..LBB10_9..LBB1
 02a0 305f3131 002e4c42 4231305f 3133002e  0_11..LBB10_13..
 02b0 4c424231 315f3100 2e4c4242 31315f33  LBB11_1..LBB11_3
 02c0 002e4c42 4231315f 3130002e 4c424231  ..LBB11_10..LBB1
 02d0 315f3132 002e4c42 4231315f 39002e4c  1_12..LBB11_9..L
 02e0 42423131 5f313100 2e4c4242 31315f31  BB11_11..LBB11_1
 02f0 33002e4c 42423132 5f31002e 4c424231  3..LBB12_1..LBB1
 0300 325f3300 2e4c4242 31325f31 30002e4c  2_3..LBB12_10..L
 0310 42423132 5f313200 2e4c4242 31325f39  BB12_12..LBB12_9
 0320 002e4c42 4231325f 3131002e 4c424231  ..LBB12_11..LBB1
 0330 325f3133 002e4c42 4231335f 32002e4c  2_13..LBB13_2..L
 0340 42423133 5f31002e 4c424231 335f3400  BB13_1..LBB13_4.
 0350 2e4c4242 31345f32 002e4c42 4231345f  .LBB14_2..LBB14_
 0360 31002e4c 42423134 5f34002e 4c424231  1..LBB14_4..LBB1
 0370 355f3200 2e4c4242 31355f31 002e4c42  5_2..LBB15_1..LB
 0380 4231355f 34002e4c 42423136 5f32002e  B15_4..LBB16_2..
 0390 4c424231 365f3100 2e4c4242 31365f34  LBB16_1..LBB16_4
 03a0 002e4c42 4231375f 32002e4c 42423137  ..LBB17_2..LBB17
 03b0 5f31002e 4c424231 375f3400 2e4c4242  _1..LBB17_4..LBB
 03c0 31385f34 002e4c42 4231385f 31002e4c  18_4..LBB18_1..L
 03d0 42423138 5f32002e 4c424231 385f3300  BB18_2..LBB18_3.
 03e0 2e4c4242 31385f38 002e4c42 4231385f  .LBB18_8..LBB18_
 03f0 37002e4c 42423139 5f34002e 4c424231  7..LBB19_4..LBB1
 0400 395f3100 2e4c4242 31395f32 002e4c42  9_1..LBB19_2..LB
 0410 4231395f 33002e4c 42423139 5f38002e  B19_3..LBB19_8..
 0420 4c424231 395f3700 2e4c4242 32305f34  LBB19_7..LBB20_4
 0430 002e4c42 4232305f 31002e4c 42423230  ..LBB20_1..LBB20
 0440 5f32002e 4c424232 305f3300 2e4c4242  _2..LBB20_3..LBB
 0450 32305f38 002e4c42 4232305f 37002e4c  20_8..LBB20_7..L
 0460 42423231 5f34002e 4c424232 315f3100  BB21_4..LBB21_1.
 0470 2e4c4242 32315f32 002e4c42 4232315f  .LBB21_2..LBB21_
 0480 33002e4c 42423231 5f38002e 4c424232  3..LBB21_8..LBB2
 0490 315f3700 2e4c4242 32325f34 002e4c42  1_7..LBB22_4..LB
 04a0 4232325f 31002e4c 42423232 5f32002e  B22_1..LBB22_2..
 04b0 4c424232 325f3300 2e4c4242 32325f38  LBB22_3..LBB22_8
 04c0 002e4c42 4232325f 37002e4c 42423233  ..LBB22_7..LBB23
 04d0 5f33002e 4c424232 335f3200 2e4c4242  _3..LBB23_2..LBB
 04e0 32335f37 002e4c42 4232335f 34002e4c  23_7..LBB23_4..L
 04f0 42423233 5f35002e 4c424232 335f3600  BB23_5..LBB23_6.
 0500 2e4c4242 32335f31 30002e4c 42423234  .LBB23_10..LBB24
 0510 5f33002e 4c424232 345f3200 2e4c4242  _3..LBB24_2..LBB
 0520 32345f37 002e4c42 4232345f 34002e4c  24_7..LBB24_4..L
 0530 42423234 5f35002e 4c424232 345f3600  BB24_5..LBB24_6.
 0540 2e4c4242 32345f31 30002e4c 42423235  .LBB24_10..LBB25
 0550 5f33002e 4c424232 355f3200 2e4c4242  _3..LBB25_2..LBB
 0560 32355f37 002e4c42 4232355f 34002e4c  25_7..LBB25_4..L
 0570 42423235 5f35002e 4c424232 355f3600  BB25_5..LBB25_6.
 0580 2e4c4242 32355f31 30002e4c 42423236  .LBB25_10..LBB26
 0590 5f33002e 4c424232 365f3200 2e4c4242  _3..LBB26_2..LBB
 05a0 32365f37 002e4c42 4232365f 34002e4c  26_7..LBB26_4..L
 05b0 42423236 5f35002e 4c424232 365f3600  BB26_5..LBB26_6.
 05c0 2e4c4242 32365f31 30002e4c 42423237  .LBB26_10..LBB27
 05d0 5f33002e 4c424232 375f3200 2e4c4242  _3..LBB27_2..LBB
 05e0 32375f37 002e4c42 4232375f 34002e4c  27_7..LBB27_4..L
 05f0 42423237 5f35002e 4c424232 375f3600  BB27_5..LBB27_6.
 0600 2e4c4242 32375f31 30002e4c 42423238  .LBB27_10..LBB28
 0610 5f33002e 4c424232 385f3200 2e4c4242  _3..LBB28_2..LBB
 0620 32385f35 002e4c42 4232385f 34002e4c  28_5..LBB28_4..L
 0630 42423238 5f37002e 4c424232 395f3200  BB28_7..LBB29_2.
 0640 2e4c4242 32395f31 002e4c42 4232395f  .LBB29_1..LBB29_
 0650 36002e4c 42423239 5f34002e 4c424233  6..LBB29_4..LBB3
 0660 305f3200 2e4c4242 33305f31 002e4c42  0_2..LBB30_1..LB
 0670 4233305f 36002e4c 42423330 5f34002e  B30_6..LBB30_4..
 0680 4c424233 315f3200 2e4c4242 33315f31  LBB31_2..LBB31_1
 0690 002e4c42 4233315f 36002e4c 42423331  ..LBB31_6..LBB31
 06a0 5f34002e 4c424233 325f3200 2e4c4242  _4..LBB32_2..LBB
 06b0 33325f31 002e4c42 4233325f 36002e4c  32_1..LBB32_6..L
 06c0 42423332 5f34002e 4c424233 335f3200  BB32_4..LBB33_2.
 06d0 2e4c4242 33335f31 002e4c42 4233335f  .LBB33_1..LBB33_
 06e0 36002e4c 42423333 5f34002e 4c424233  6..LBB33_4..LBB3
 06f0 345f3400 2e4c4242 33345f31 002e4c42  4_4..LBB34_1..LB
 0700 4233345f 32002e4c 42423334 5f33002e  B34_2..LBB34_3..
 0710 4c424233 345f3700 2e4c4242 33355f34  LBB34_7..LBB35_4
 0720 002e4c42 4233355f 31002e4c 42423335  ..LBB35_1..LBB35
 0730 5f32002e 4c424233 355f3300 2e4c4242  _2..LBB35_3..LBB
 0740 33355f37 002e4c42 4233365f 34002e4c  35_7..LBB36_4..L
 0750 42423336 5f31002e 4c424233 365f3200  BB36_1..LBB36_2.
 0760 2e4c4242 33365f33 002e4c42 4233365f  .LBB36_3..LBB36_
 0770 37002e4c 42423337 5f34002e 4c424233  7..LBB37_4..LBB3
 0780 375f3100 2e4c4242 33375f32 002e4c42  7_1..LBB37_2..LB
 0790 4233375f 33002e4c 42423337 5f37002e  B37_3..LBB37_7..
 07a0 4c424233 385f3200 2e4c4242 33385f31  LBB38_2..LBB38_1
 07b0 002e4c42 4233385f 35002e4c 42423339  ..LBB38_5..LBB39
 07c0 5f32002e 4c424233 395f3100 2e4c4242  _2..LBB39_1..LBB
 07d0 33395f35 002e4c42 4234305f 32002e4c  39_5..LBB40_2..L
 07e0 42423430 5f31002e 4c424234 305f3500  BB40_1..LBB40_5.
 07f0 2e4c4242 34315f32 002e4c42 4234315f  .LBB41_2..LBB41_
 0800 31002e4c 42423431 5f35002e 4c424234  1..LBB41_5..LBB4
 0810 325f3200 2e4c4242 34325f31 002e4c42  2_2..LBB42_1..LB
 0820 4234325f 35005f5f 7370006d 61696e00  B42_5.__sp.main.
 0830 6d656d73 65740076 6563746f 725f6d65  memset.vector_me
 0840 6d637079 5f686172 6e657373 5f75696e  mcpy_harness_uin
 0850 74385f74 00766563 746f725f 6d656d63  t8_t.vector_memc
 0860 70795f68 61726e65 73735f75 696e7431  py_harness_uint1
 0870 365f7400 76656374 6f725f6d 656d6370  6_t.vector_memcp
 0880 795f6861 726e6573 735f7569 6e743332  y_harness_uint32
 0890 5f740076 6563746f 725f6d65 6d637079  _t.vector_memcpy
 08a0 5f686172 6e657373 5f75696e 7436345f  _harness_uint64_
 08b0 74007665 63746f72 5f6d656d 6370795f  t.vector_memcpy_
 08c0 6d61736b 65645f68 61726e65 73735f75  masked_harness_u
 08d0 696e7438 5f740076 6563746f 725f6d65  int8_t.vector_me
 08e0 6d637079 5f6d6173 6b65645f 6861726e  mcpy_masked_harn
 08f0 6573735f 75696e74 31365f74 00766563  ess_uint16_t.vec
 0900 746f725f 6d656d63 70795f6d 61736b65  tor_memcpy_maske
 0910 645f6861 726e6573 735f7569 6e743332  d_harness_uint32
 0920 5f740076 6563746f 725f6d65 6d637079  _t.vector_memcpy
 0930 5f6d6173 6b65645f 6861726e 6573735f  _masked_harness_
 0940 75696e74 36345f74 00766563 746f725f  uint64_t.vector_
 0950 6d656d63 70795f73 65676d65 6e746564  memcpy_segmented
 0960 5f686172 6e657373 5f75696e 74385f74  _harness_uint8_t
 0970 00766563 746f725f 6d656d63 70795f73  .vector_memcpy_s
 0980 65676d65 6e746564 5f686172 6e657373  egmented_harness
 0990 5f75696e 7431365f 74007665 63746f72  _uint16_t.vector
 09a0 5f6d656d 6370795f 7365676d 656e7465  _memcpy_segmente
 09b0 645f6861 726e6573 735f7569 6e743332  d_harness_uint32
 09c0 5f740076 6563746f 725f6d65 6d637079  _t.vector_memcpy
 09d0 5f736567 6d656e74 65645f68 61726e65  _segmented_harne
 09e0 73735f75 696e7436 345f7400 76656374  ss_uint64_t.vect
 09f0 6f725f6d 656d6370 795f756e 69745f73  or_memcpy_unit_s
 0a00 74726964 655f6538 6d380076 6563746f  tride_e8m8.vecto
 0a10 725f6d65 6d637079 5f756e69 745f7374  r_memcpy_unit_st
 0a20 72696465 5f653136 6d380076 6563746f  ride_e16m8.vecto
 0a30 725f6d65 6d637079 5f756e69 745f7374  r_memcpy_unit_st
 0a40 72696465 5f653332 6d380076 6563746f  ride_e32m8.vecto
 0a50 725f6d65 6d637079 5f756e69 745f7374  r_memcpy_unit_st
 0a60 72696465 5f653332 6d663200 76656374  ride_e32mf2.vect
 0a70 6f725f6d 656d6370 795f756e 69745f73  or_memcpy_unit_s
 0a80 74726964 655f6536 346d3200 76656374  tride_e64m2.vect
 0a90 6f725f6d 656d6370 795f7374 72696465  or_memcpy_stride
 0aa0 645f6538 6d380076 6563746f 725f6d65  d_e8m8.vector_me
 0ab0 6d637079 5f737472 69646564 5f653136  mcpy_strided_e16
 0ac0 6d380076 6563746f 725f6d65 6d637079  m8.vector_memcpy
 0ad0 5f737472 69646564 5f653332 6d380076  _strided_e32m8.v
 0ae0 6563746f 725f6d65 6d637079 5f737472  ector_memcpy_str
 0af0 69646564 5f653332 6d663200 76656374  ided_e32mf2.vect
 0b00 6f725f6d 656d6370 795f7374 72696465  or_memcpy_stride
 0b10 645f6536 346d3200 76656374 6f725f6d  d_e64m2.vector_m
 0b20 656d6370 795f696e 64657865 645f6538  emcpy_indexed_e8
 0b30 6d380076 6563746f 725f6d65 6d637079  m8.vector_memcpy
 0b40 5f696e64 65786564 5f653136 6d380076  _indexed_e16m8.v
 0b50 6563746f 725f6d65 6d637079 5f696e64  ector_memcpy_ind
 0b60 65786564 5f653332 6d380076 6563746f  exed_e32m8.vecto
 0b70 725f6d65 6d637079 5f696e64 65786564  r_memcpy_indexed
 0b80 5f653332 6d663200 76656374 6f725f6d  _e32mf2.vector_m
 0b90 656d6370 795f696e 64657865 645f6536  emcpy_indexed_e6
 0ba0 346d3200 76656374 6f725f6d 656d6370  4m2.vector_memcp
 0bb0 795f6d61 736b6564 5f653332 6d380076  y_masked_e32m8.v
 0bc0 6563746f 725f6d65 6d637079 5f736567  ector_memcpy_seg
 0bd0 6d656e74 65645f65 386d3200 76656374  mented_e8m2.vect
 0be0 6f725f6d 656d6370 795f7365 676d656e  or_memcpy_segmen
 0bf0 7465645f 6531366d 32007665 63746f72  ted_e16m2.vector
 0c00 5f6d656d 6370795f 7365676d 656e7465  _memcpy_segmente
 0c10 645f6533 326d3200 76656374 6f725f6d  d_e32m2.vector_m
 0c20 656d6370 795f7365 676d656e 7465645f  emcpy_segmented_
 0c30 6533326d 66320076 6563746f 725f6d65  e32mf2.vector_me
 0c40 6d637079 5f736567 6d656e74 65645f65  mcpy_segmented_e
 0c50 36346d32 00766563 746f725f 6d656d63  64m2.vector_memc
 0c60 70795f77 686f6c65 7265675f 6536346d  py_wholereg_e64m
 0c70 31007665 63746f72 5f6d656d 6370795f  1.vector_memcpy_
 0c80 77686f6c 65726567 5f653634 6d320076  wholereg_e64m2.v
 0c90 6563746f 725f6d65 6d637079 5f77686f  ector_memcpy_who
 0ca0 6c657265 675f6536 346d3400 76656374  lereg_e64m4.vect
 0cb0 6f725f6d 656d6370 795f7768 6f6c6572  or_memcpy_wholer
 0cc0 65675f65 36346d38 00766563 746f725f  eg_e64m8.vector_
 0cd0 6d656d63 70795f75 6e69745f 73747269  memcpy_unit_stri
 0ce0 64655f66 61756c74 6f6e6c79 66697273  de_faultonlyfirs
 0cf0 745f6538 6d380076 6563746f 725f6d65  t_e8m8.vector_me
 0d00 6d637079 5f756e69 745f7374 72696465  mcpy_unit_stride
 0d10 5f666175 6c746f6e 6c796669 7273745f  _faultonlyfirst_
 0d20 6531366d 38007665 63746f72 5f6d656d  e16m8.vector_mem
 0d30 6370795f 756e6974 5f737472 6964655f  cpy_unit_stride_
 0d40 6661756c 746f6e6c 79666972 73745f65  faultonlyfirst_e
 0d50 33326d38 00766563 746f725f 6d656d63  32m8.vector_memc
 0d60 70795f75 6e69745f 73747269 64655f66  py_unit_stride_f
 0d70 61756c74 6f6e6c79 66697273 745f6533  aultonlyfirst_e3
 0d80 326d6632 00766563 746f725f 6d656d63  2mf2.vector_memc
 0d90 70795f75 6e69745f 73747269 64655f66  py_unit_stride_f
 0da0 61756c74 6f6e6c79 66697273 745f6536  aultonlyfirst_e6
 0db0 346d3200 6f757470 75744174 74656d70  4m2.outputAttemp
 0dc0 74656400 6f757470 75745375 63636565  ted.outputSuccee
 0dd0 64656400                             ded.

Disassembly of section .text.init:

0000000000000000 <entry>:
       0: 17 01 01 00  	auipc	sp, 16
       4: 13 01 01 02  	addi	sp, sp, 32
       8: 97 20 00 00  	auipc	ra, 2
       c: e7 80 40 d3  	jalr	-716(ra)

0000000000000010 <end>:
      10: 6f 00 00 00  	j	0x10 <end>

Disassembly of section .text:

0000000000000014 <memset>:
      14: 63 0c 06 00  	beqz	a2, 0x2c <.LBB0_3>
      18: 93 06 05 00  	mv	a3, a0

000000000000001c <.LBB0_2>:
      1c: 23 80 b6 00  	sb	a1, 0(a3)
      20: 13 06 f6 ff  	addi	a2, a2, -1
      24: 93 86 16 00  	addi	a3, a3, 1
      28: e3 1a 06 fe  	bnez	a2, 0x1c <.LBB0_2>

000000000000002c <.LBB0_3>:
      2c: 67 80 00 00  	ret

0000000000000030 <vector_memcpy_harness_uint8_t>:
      30: 13 01 01 ee  	addi	sp, sp, -288
      34: 23 3c 11 10  	sd	ra, 280(sp)
      38: 23 38 81 10  	sd	s0, 272(sp)
      3c: 23 34 91 10  	sd	s1, 264(sp)
      40: 23 30 21 11  	sd	s2, 256(sp)
      44: 13 09 05 00  	mv	s2, a0
      48: 93 04 01 08  	addi	s1, sp, 128
      4c: 13 05 01 08  	addi	a0, sp, 128
      50: 13 06 00 08  	addi	a2, zero, 128
      54: 13 04 00 08  	addi	s0, zero, 128
      58: 93 05 00 00  	mv	a1, zero
      5c: 97 00 00 00  	auipc	ra, 0
      60: e7 80 80 fb  	jalr	-72(ra)
      64: 13 05 01 00  	mv	a0, sp
      68: 13 06 00 08  	addi	a2, zero, 128
      6c: 93 05 00 00  	mv	a1, zero
      70: 97 00 00 00  	auipc	ra, 0
      74: e7 80 40 fa  	jalr	-92(ra)
      78: 13 05 00 00  	mv	a0, zero

000000000000007c <.LBB1_1>:
      7c: b3 85 a4 00  	add	a1, s1, a0
      80: 23 80 a5 00  	sb	a0, 0(a1)
      84: 13 05 15 00  	addi	a0, a0, 1
      88: e3 1a 85 fe  	bne	a0, s0, 0x7c <.LBB1_1>
      8c: 93 04 01 08  	addi	s1, sp, 128
      90: 13 05 e0 06  	addi	a0, zero, 110
      94: 93 05 01 08  	addi	a1, sp, 128
      98: 13 06 01 00  	mv	a2, sp
      9c: 13 04 01 00  	mv	s0, sp
      a0: e7 00 09 00  	jalr	s2
      a4: 13 05 00 00  	mv	a0, zero
      a8: 93 05 d0 06  	addi	a1, zero, 109

00000000000000ac <.LBB1_3>:
      ac: 13 76 f5 0f  	andi	a2, a0, 255
      b0: b3 86 c4 00  	add	a3, s1, a2
      b4: 83 c6 06 00  	lbu	a3, 0(a3)
      b8: 33 07 c4 00  	add	a4, s0, a2
      bc: 03 47 07 00  	lbu	a4, 0(a4)
      c0: 63 98 e6 04  	bne	a3, a4, 0x110 <.LBB1_10>
      c4: 13 05 15 00  	addi	a0, a0, 1
      c8: e3 62 b6 fe  	bltu	a2, a1, 0xac <.LBB1_3>
      cc: 83 45 e1 06  	lbu	a1, 110(sp)
      d0: 13 05 00 00  	mv	a0, zero
      d4: 63 90 05 04  	bnez	a1, 0x114 <.LBB1_11>
      d8: 93 05 f0 06  	addi	a1, zero, 111
      dc: 13 05 f0 ff  	addi	a0, zero, -1
      e0: 13 06 01 00  	mv	a2, sp

00000000000000e4 <.LBB1_7>:
      e4: 93 96 85 03  	slli	a3, a1, 56
      e8: 93 d6 86 43  	srai	a3, a3, 56
      ec: 63 cc 06 00  	bltz	a3, 0x104 <.LBB1_9>
      f0: 13 f7 f5 0f  	andi	a4, a1, 255
      f4: 33 07 e6 00  	add	a4, a2, a4
      f8: 03 47 07 00  	lbu	a4, 0(a4)
      fc: 93 85 15 00  	addi	a1, a1, 1
     100: e3 02 07 fe  	beqz	a4, 0xe4 <.LBB1_7>

0000000000000104 <.LBB1_9>:
     104: 33 25 d5 00  	slt	a0, a0, a3
     108: 13 45 15 00  	xori	a0, a0, 1
     10c: 6f 00 80 00  	j	0x114 <.LBB1_11>

0000000000000110 <.LBB1_10>:
     110: 13 05 00 00  	mv	a0, zero

0000000000000114 <.LBB1_11>:
     114: 03 39 01 10  	ld	s2, 256(sp)
     118: 83 34 81 10  	ld	s1, 264(sp)
     11c: 03 34 01 11  	ld	s0, 272(sp)
     120: 83 30 81 11  	ld	ra, 280(sp)
     124: 13 01 01 12  	addi	sp, sp, 288
     128: 67 80 00 00  	ret

000000000000012c <vector_memcpy_harness_uint16_t>:
     12c: 13 01 01 de  	addi	sp, sp, -544
     130: 23 3c 11 20  	sd	ra, 536(sp)
     134: 23 38 81 20  	sd	s0, 528(sp)
     138: 23 34 91 20  	sd	s1, 520(sp)
     13c: 23 30 21 21  	sd	s2, 512(sp)
     140: 13 09 05 00  	mv	s2, a0
     144: 13 05 01 10  	addi	a0, sp, 256
     148: 13 06 00 10  	addi	a2, zero, 256
     14c: 13 04 01 10  	addi	s0, sp, 256
     150: 93 05 00 00  	mv	a1, zero
     154: 97 00 00 00  	auipc	ra, 0
     158: e7 80 00 ec  	jalr	-320(ra)
     15c: 13 05 01 00  	mv	a0, sp
     160: 13 06 00 10  	addi	a2, zero, 256
     164: 93 05 00 00  	mv	a1, zero
     168: 97 00 00 00  	auipc	ra, 0
     16c: e7 80 c0 ea  	jalr	-340(ra)
     170: 13 05 00 00  	mv	a0, zero
     174: 93 05 00 08  	addi	a1, zero, 128

0000000000000178 <.LBB2_1>:
     178: 23 10 a4 00  	sh	a0, 0(s0)
     17c: 13 05 15 00  	addi	a0, a0, 1
     180: 13 04 24 00  	addi	s0, s0, 2
     184: e3 1a b5 fe  	bne	a0, a1, 0x178 <.LBB2_1>
     188: 93 04 01 10  	addi	s1, sp, 256
     18c: 13 05 e0 06  	addi	a0, zero, 110
     190: 93 05 01 10  	addi	a1, sp, 256
     194: 13 06 01 00  	mv	a2, sp
     198: 13 04 01 00  	mv	s0, sp
     19c: e7 00 09 00  	jalr	s2
     1a0: 13 05 00 00  	mv	a0, zero
     1a4: b7 05 01 00  	lui	a1, 16
     1a8: 9b 85 f5 ff  	addiw	a1, a1, -1
     1ac: 13 06 d0 06  	addi	a2, zero, 109

00000000000001b0 <.LBB2_3>:
     1b0: 93 16 05 03  	slli	a3, a0, 48
     1b4: 93 d6 f6 02  	srli	a3, a3, 47
     1b8: 33 87 d4 00  	add	a4, s1, a3
     1bc: 03 57 07 00  	lhu	a4, 0(a4)
     1c0: b3 06 d4 00  	add	a3, s0, a3
     1c4: 83 d6 06 00  	lhu	a3, 0(a3)
     1c8: 63 1e d7 04  	bne	a4, a3, 0x224 <.LBB2_10>
     1cc: b3 76 b5 00  	and	a3, a0, a1
     1d0: 13 05 15 00  	addi	a0, a0, 1
     1d4: e3 ee c6 fc  	bltu	a3, a2, 0x1b0 <.LBB2_3>
     1d8: 83 55 c1 0d  	lhu	a1, 220(sp)
     1dc: 13 05 00 00  	mv	a0, zero
     1e0: 63 94 05 04  	bnez	a1, 0x228 <.LBB2_11>
     1e4: 13 05 e0 06  	addi	a0, zero, 110
     1e8: b7 05 01 00  	lui	a1, 16
     1ec: 9b 85 f5 ff  	addiw	a1, a1, -1
     1f0: 13 06 e0 07  	addi	a2, zero, 126
     1f4: 93 06 01 00  	mv	a3, sp

00000000000001f8 <.LBB2_7>:
     1f8: 33 77 b5 00  	and	a4, a0, a1
     1fc: 63 6e e6 00  	bltu	a2, a4, 0x218 <.LBB2_9>
     200: 13 05 15 00  	addi	a0, a0, 1
     204: b3 77 b5 00  	and	a5, a0, a1
     208: 93 97 17 00  	slli	a5, a5, 1
     20c: b3 87 f6 00  	add	a5, a3, a5
     210: 83 d7 07 00  	lhu	a5, 0(a5)
     214: e3 82 07 fe  	beqz	a5, 0x1f8 <.LBB2_7>

0000000000000218 <.LBB2_9>:
     218: 13 35 f7 07  	sltiu	a0, a4, 127
     21c: 13 45 15 00  	xori	a0, a0, 1
     220: 6f 00 80 00  	j	0x228 <.LBB2_11>

0000000000000224 <.LBB2_10>:
     224: 13 05 00 00  	mv	a0, zero

0000000000000228 <.LBB2_11>:
     228: 03 39 01 20  	ld	s2, 512(sp)
     22c: 83 34 81 20  	ld	s1, 520(sp)
     230: 03 34 01 21  	ld	s0, 528(sp)
     234: 83 30 81 21  	ld	ra, 536(sp)
     238: 13 01 01 22  	addi	sp, sp, 544
     23c: 67 80 00 00  	ret

0000000000000240 <vector_memcpy_harness_uint32_t>:
     240: 13 01 01 bd  	addi	sp, sp, -1072
     244: 23 34 11 42  	sd	ra, 1064(sp)
     248: 23 30 81 42  	sd	s0, 1056(sp)
     24c: 23 3c 91 40  	sd	s1, 1048(sp)
     250: 23 38 21 41  	sd	s2, 1040(sp)
     254: 13 09 05 00  	mv	s2, a0
     258: 13 05 01 21  	addi	a0, sp, 528
     25c: 13 06 00 20  	addi	a2, zero, 512
     260: 93 04 01 21  	addi	s1, sp, 528
     264: 93 05 00 00  	mv	a1, zero
     268: 97 00 00 00  	auipc	ra, 0
     26c: e7 80 c0 da  	jalr	-596(ra)
     270: 13 05 01 01  	addi	a0, sp, 16
     274: 13 06 00 20  	addi	a2, zero, 512
     278: 93 05 00 00  	mv	a1, zero
     27c: 97 00 00 00  	auipc	ra, 0
     280: e7 80 80 d9  	jalr	-616(ra)
     284: 13 05 00 00  	mv	a0, zero
     288: 93 05 00 08  	addi	a1, zero, 128

000000000000028c <.LBB3_1>:
     28c: 23 a0 a4 00  	sw	a0, 0(s1)
     290: 13 05 15 00  	addi	a0, a0, 1
     294: 93 84 44 00  	addi	s1, s1, 4
     298: e3 1a b5 fe  	bne	a0, a1, 0x28c <.LBB3_1>
     29c: 93 04 01 21  	addi	s1, sp, 528
     2a0: 13 05 e0 06  	addi	a0, zero, 110
     2a4: 93 05 01 21  	addi	a1, sp, 528
     2a8: 13 06 01 01  	addi	a2, sp, 16
     2ac: 13 04 01 01  	addi	s0, sp, 16
     2b0: e7 00 09 00  	jalr	s2
     2b4: 93 05 00 00  	mv	a1, zero
     2b8: 13 05 d0 06  	addi	a0, zero, 109

00000000000002bc <.LBB3_3>:
     2bc: 13 96 05 02  	slli	a2, a1, 32
     2c0: 13 56 e6 01  	srli	a2, a2, 30
     2c4: b3 86 c4 00  	add	a3, s1, a2
     2c8: 83 a6 06 00  	lw	a3, 0(a3)
     2cc: 33 06 c4 00  	add	a2, s0, a2
     2d0: 03 26 06 00  	lw	a2, 0(a2)
     2d4: 63 9a c6 04  	bne	a3, a2, 0x328 <.LBB3_10>
     2d8: 1b 86 05 00  	sext.w	a2, a1
     2dc: 93 85 15 00  	addi	a1, a1, 1
     2e0: e3 6e a6 fc  	bltu	a2, a0, 0x2bc <.LBB3_3>
     2e4: 83 25 81 1c  	lw	a1, 456(sp)
     2e8: 13 05 00 00  	mv	a0, zero
     2ec: 63 90 05 04  	bnez	a1, 0x32c <.LBB3_11>
     2f0: 13 05 e0 06  	addi	a0, zero, 110
     2f4: 93 05 e0 07  	addi	a1, zero, 126
     2f8: 13 06 01 01  	addi	a2, sp, 16

00000000000002fc <.LBB3_7>:
     2fc: 9b 06 05 00  	sext.w	a3, a0
     300: 63 ee d5 00  	bltu	a1, a3, 0x31c <.LBB3_9>
     304: 13 05 15 00  	addi	a0, a0, 1
     308: 13 17 05 02  	slli	a4, a0, 32
     30c: 13 57 e7 01  	srli	a4, a4, 30
     310: 33 07 e6 00  	add	a4, a2, a4
     314: 03 27 07 00  	lw	a4, 0(a4)
     318: e3 02 07 fe  	beqz	a4, 0x2fc <.LBB3_7>

000000000000031c <.LBB3_9>:
     31c: 13 b5 f6 07  	sltiu	a0, a3, 127
     320: 13 45 15 00  	xori	a0, a0, 1
     324: 6f 00 80 00  	j	0x32c <.LBB3_11>

0000000000000328 <.LBB3_10>:
     328: 13 05 00 00  	mv	a0, zero

000000000000032c <.LBB3_11>:
     32c: 03 39 01 41  	ld	s2, 1040(sp)
     330: 83 34 81 41  	ld	s1, 1048(sp)
     334: 03 34 01 42  	ld	s0, 1056(sp)
     338: 83 30 81 42  	ld	ra, 1064(sp)
     33c: 13 01 01 43  	addi	sp, sp, 1072
     340: 67 80 00 00  	ret

0000000000000344 <vector_memcpy_harness_uint64_t>:
     344: 13 01 01 81  	addi	sp, sp, -2032
     348: 23 34 11 7e  	sd	ra, 2024(sp)
     34c: 23 30 81 7e  	sd	s0, 2016(sp)
     350: 23 3c 91 7c  	sd	s1, 2008(sp)
     354: 23 38 21 7d  	sd	s2, 2000(sp)
     358: 13 01 01 fc  	addi	sp, sp, -64
     35c: 13 09 05 00  	mv	s2, a0
     360: 13 05 01 41  	addi	a0, sp, 1040
     364: 13 06 00 40  	addi	a2, zero, 1024
     368: 93 04 01 41  	addi	s1, sp, 1040
     36c: 93 05 00 00  	mv	a1, zero
     370: 97 00 00 00  	auipc	ra, 0
     374: e7 80 40 ca  	jalr	-860(ra)
     378: 13 05 01 01  	addi	a0, sp, 16
     37c: 13 06 00 40  	addi	a2, zero, 1024
     380: 93 05 00 00  	mv	a1, zero
     384: 97 00 00 00  	auipc	ra, 0
     388: e7 80 00 c9  	jalr	-880(ra)
     38c: 13 05 00 00  	mv	a0, zero
     390: 93 05 00 08  	addi	a1, zero, 128

0000000000000394 <.LBB4_1>:
     394: 23 b0 a4 00  	sd	a0, 0(s1)
     398: 13 05 15 00  	addi	a0, a0, 1
     39c: 93 84 84 00  	addi	s1, s1, 8
     3a0: e3 1a b5 fe  	bne	a0, a1, 0x394 <.LBB4_1>
     3a4: 93 04 01 41  	addi	s1, sp, 1040
     3a8: 13 05 e0 06  	addi	a0, zero, 110
     3ac: 93 05 01 41  	addi	a1, sp, 1040
     3b0: 13 06 01 01  	addi	a2, sp, 16
     3b4: 13 04 01 01  	addi	s0, sp, 16
     3b8: e7 00 09 00  	jalr	s2
     3bc: 13 05 00 00  	mv	a0, zero
     3c0: 93 05 00 37  	addi	a1, zero, 880

00000000000003c4 <.LBB4_3>:
     3c4: 33 86 a4 00  	add	a2, s1, a0
     3c8: 03 36 06 00  	ld	a2, 0(a2)
     3cc: b3 06 a4 00  	add	a3, s0, a0
     3d0: 83 b6 06 00  	ld	a3, 0(a3)
     3d4: 63 14 d6 04  	bne	a2, a3, 0x41c <.LBB4_10>
     3d8: 13 05 85 00  	addi	a0, a0, 8
     3dc: e3 14 b5 fe  	bne	a0, a1, 0x3c4 <.LBB4_3>
     3e0: 83 35 01 38  	ld	a1, 896(sp)
     3e4: 13 05 00 00  	mv	a0, zero
     3e8: 63 9c 05 02  	bnez	a1, 0x420 <.LBB4_11>
     3ec: 13 05 81 38  	addi	a0, sp, 904
     3f0: 93 06 e0 06  	addi	a3, zero, 110
     3f4: 93 05 f0 07  	addi	a1, zero, 127

00000000000003f8 <.LBB4_7>:
     3f8: 13 86 06 00  	mv	a2, a3
     3fc: 63 8a b6 00  	beq	a3, a1, 0x410 <.LBB4_9>
     400: 03 37 05 00  	ld	a4, 0(a0)
     404: 93 06 16 00  	addi	a3, a2, 1
     408: 13 05 85 00  	addi	a0, a0, 8
     40c: e3 06 07 fe  	beqz	a4, 0x3f8 <.LBB4_7>

0000000000000410 <.LBB4_9>:
     410: 13 05 e0 07  	addi	a0, zero, 126
     414: 33 35 c5 00  	sltu	a0, a0, a2
     418: 6f 00 80 00  	j	0x420 <.LBB4_11>

000000000000041c <.LBB4_10>:
     41c: 13 05 00 00  	mv	a0, zero

0000000000000420 <.LBB4_11>:
     420: 13 01 01 04  	addi	sp, sp, 64
     424: 03 39 01 7d  	ld	s2, 2000(sp)
     428: 83 34 81 7d  	ld	s1, 2008(sp)
     42c: 03 34 01 7e  	ld	s0, 2016(sp)
     430: 83 30 81 7e  	ld	ra, 2024(sp)
     434: 13 01 01 7f  	addi	sp, sp, 2032
     438: 67 80 00 00  	ret

000000000000043c <vector_memcpy_masked_harness_uint8_t>:
     43c: 13 01 01 ed  	addi	sp, sp, -304
     440: 23 34 11 12  	sd	ra, 296(sp)
     444: 23 30 81 12  	sd	s0, 288(sp)
     448: 23 3c 91 10  	sd	s1, 280(sp)
     44c: 23 38 21 11  	sd	s2, 272(sp)
     450: 23 34 31 11  	sd	s3, 264(sp)
     454: 13 09 05 00  	mv	s2, a0
     458: 93 09 81 08  	addi	s3, sp, 136
     45c: 13 05 81 08  	addi	a0, sp, 136
     460: 13 06 00 08  	addi	a2, zero, 128
     464: 93 04 00 08  	addi	s1, zero, 128
     468: 93 05 00 00  	mv	a1, zero
     46c: 97 00 00 00  	auipc	ra, 0
     470: e7 80 80 ba  	jalr	-1112(ra)
     474: 13 05 81 00  	addi	a0, sp, 8
     478: 13 06 00 08  	addi	a2, zero, 128
     47c: 13 04 81 00  	addi	s0, sp, 8
     480: 93 05 00 00  	mv	a1, zero
     484: 97 00 00 00  	auipc	ra, 0
     488: e7 80 00 b9  	jalr	-1136(ra)
     48c: 13 05 00 00  	mv	a0, zero
     490: 93 05 b0 0b  	addi	a1, zero, 187

0000000000000494 <.LBB5_1>:
     494: 33 86 a9 00  	add	a2, s3, a0
     498: 23 00 a6 00  	sb	a0, 0(a2)
     49c: 33 06 a4 00  	add	a2, s0, a0
     4a0: 13 05 15 00  	addi	a0, a0, 1
     4a4: 23 00 b6 00  	sb	a1, 0(a2)
     4a8: e3 16 95 fe  	bne	a0, s1, 0x494 <.LBB5_1>
     4ac: 93 04 e0 06  	addi	s1, zero, 110
     4b0: 93 09 81 08  	addi	s3, sp, 136
     4b4: 13 05 e0 06  	addi	a0, zero, 110
     4b8: 93 05 81 08  	addi	a1, sp, 136
     4bc: 13 06 81 00  	addi	a2, sp, 8
     4c0: 13 04 81 00  	addi	s0, sp, 8
     4c4: e7 00 09 00  	jalr	s2
     4c8: 13 05 00 00  	mv	a0, zero
     4cc: 93 05 b0 0b  	addi	a1, zero, 187
     4d0: 6f 00 c0 01  	j	0x4ec <.LBB5_5>

00000000000004d4 <.LBB5_3>:
     4d4: b3 86 a9 00  	add	a3, s3, a0
     4d8: 83 c6 06 00  	lbu	a3, 0(a3)
     4dc: 03 46 06 00  	lbu	a2, 0(a2)
     4e0: 63 94 c6 06  	bne	a3, a2, 0x548 <.LBB5_12>

00000000000004e4 <.LBB5_4>:
     4e4: 13 05 15 00  	addi	a0, a0, 1
     4e8: 63 0e 95 00  	beq	a0, s1, 0x504 <.LBB5_7>

00000000000004ec <.LBB5_5>:
     4ec: 93 76 15 00  	andi	a3, a0, 1
     4f0: 33 06 a4 00  	add	a2, s0, a0
     4f4: e3 90 06 fe  	bnez	a3, 0x4d4 <.LBB5_3>
     4f8: 03 46 06 00  	lbu	a2, 0(a2)
     4fc: e3 04 b6 fe  	beq	a2, a1, 0x4e4 <.LBB5_4>
     500: 6f 00 80 04  	j	0x548 <.LBB5_12>

0000000000000504 <.LBB5_7>:
     504: 83 45 61 07  	lbu	a1, 118(sp)
     508: 13 05 b0 0b  	addi	a0, zero, 187
     50c: 63 9e a5 02  	bne	a1, a0, 0x548 <.LBB5_12>
     510: 13 06 f0 06  	addi	a2, zero, 111
     514: 93 05 f0 ff  	addi	a1, zero, -1
     518: 93 06 81 00  	addi	a3, sp, 8

000000000000051c <.LBB5_9>:
     51c: 13 17 86 03  	slli	a4, a2, 56
     520: 13 57 87 43  	srai	a4, a4, 56
     524: 63 4c 07 00  	bltz	a4, 0x53c <.LBB5_11>
     528: 93 77 f6 0f  	andi	a5, a2, 255
     52c: b3 87 f6 00  	add	a5, a3, a5
     530: 83 c7 07 00  	lbu	a5, 0(a5)
     534: 13 06 16 00  	addi	a2, a2, 1
     538: e3 82 a7 fe  	beq	a5, a0, 0x51c <.LBB5_9>

000000000000053c <.LBB5_11>:
     53c: 33 a5 e5 00  	slt	a0, a1, a4
     540: 13 45 15 00  	xori	a0, a0, 1
     544: 6f 00 80 00  	j	0x54c <.LBB5_13>

0000000000000548 <.LBB5_12>:
     548: 13 05 00 00  	mv	a0, zero

000000000000054c <.LBB5_13>:
     54c: 83 39 81 10  	ld	s3, 264(sp)
     550: 03 39 01 11  	ld	s2, 272(sp)
     554: 83 34 81 11  	ld	s1, 280(sp)
     558: 03 34 01 12  	ld	s0, 288(sp)
     55c: 83 30 81 12  	ld	ra, 296(sp)
     560: 13 01 01 13  	addi	sp, sp, 304
     564: 67 80 00 00  	ret

0000000000000568 <vector_memcpy_masked_harness_uint16_t>:
     568: 13 01 01 dd  	addi	sp, sp, -560
     56c: 23 34 11 22  	sd	ra, 552(sp)
     570: 23 30 81 22  	sd	s0, 544(sp)
     574: 23 3c 91 20  	sd	s1, 536(sp)
     578: 23 38 21 21  	sd	s2, 528(sp)
     57c: 23 34 31 21  	sd	s3, 520(sp)
     580: 13 09 05 00  	mv	s2, a0
     584: 13 05 81 10  	addi	a0, sp, 264
     588: 13 06 00 10  	addi	a2, zero, 256
     58c: 13 04 81 10  	addi	s0, sp, 264
     590: 93 05 00 00  	mv	a1, zero
     594: 97 00 00 00  	auipc	ra, 0
     598: e7 80 00 a8  	jalr	-1408(ra)
     59c: 13 05 81 00  	addi	a0, sp, 8
     5a0: 13 06 00 10  	addi	a2, zero, 256
     5a4: 93 04 81 00  	addi	s1, sp, 8
     5a8: 93 05 00 00  	mv	a1, zero
     5ac: 97 00 00 00  	auipc	ra, 0
     5b0: e7 80 80 a6  	jalr	-1432(ra)
     5b4: 13 05 00 00  	mv	a0, zero
     5b8: 93 05 b0 0b  	addi	a1, zero, 187
     5bc: 13 06 00 08  	addi	a2, zero, 128

00000000000005c0 <.LBB6_1>:
     5c0: 23 10 a4 00  	sh	a0, 0(s0)
     5c4: 23 90 b4 00  	sh	a1, 0(s1)
     5c8: 13 05 15 00  	addi	a0, a0, 1
     5cc: 13 04 24 00  	addi	s0, s0, 2
     5d0: 93 84 24 00  	addi	s1, s1, 2
     5d4: e3 16 c5 fe  	bne	a0, a2, 0x5c0 <.LBB6_1>
     5d8: 93 09 e0 06  	addi	s3, zero, 110
     5dc: 13 04 81 10  	addi	s0, sp, 264
     5e0: 13 05 e0 06  	addi	a0, zero, 110
     5e4: 93 05 81 10  	addi	a1, sp, 264
     5e8: 13 06 81 00  	addi	a2, sp, 8
     5ec: 93 04 81 00  	addi	s1, sp, 8
     5f0: e7 00 09 00  	jalr	s2
     5f4: 13 05 00 00  	mv	a0, zero
     5f8: 93 05 b0 0b  	addi	a1, zero, 187
     5fc: 6f 00 00 02  	j	0x61c <.LBB6_5>

0000000000000600 <.LBB6_3>:
     600: 03 56 04 00  	lhu	a2, 0(s0)
     604: 83 d6 04 00  	lhu	a3, 0(s1)
     608: 63 1a d6 06  	bne	a2, a3, 0x67c <.LBB6_12>

000000000000060c <.LBB6_4>:
     60c: 13 05 15 00  	addi	a0, a0, 1
     610: 13 04 24 00  	addi	s0, s0, 2
     614: 93 84 24 00  	addi	s1, s1, 2
     618: 63 0c 35 01  	beq	a0, s3, 0x630 <.LBB6_7>

000000000000061c <.LBB6_5>:
     61c: 13 76 15 00  	andi	a2, a0, 1
     620: e3 10 06 fe  	bnez	a2, 0x600 <.LBB6_3>
     624: 03 d6 04 00  	lhu	a2, 0(s1)
     628: e3 02 b6 fe  	beq	a2, a1, 0x60c <.LBB6_4>
     62c: 6f 00 00 05  	j	0x67c <.LBB6_12>

0000000000000630 <.LBB6_7>:
     630: 83 55 41 0e  	lhu	a1, 228(sp)
     634: 13 05 b0 0b  	addi	a0, zero, 187
     638: 63 92 a5 04  	bne	a1, a0, 0x67c <.LBB6_12>
     63c: 93 05 e0 06  	addi	a1, zero, 110
     640: 37 06 01 00  	lui	a2, 16
     644: 1b 06 f6 ff  	addiw	a2, a2, -1
     648: 93 06 e0 07  	addi	a3, zero, 126
     64c: 13 07 81 00  	addi	a4, sp, 8

0000000000000650 <.LBB6_9>:
     650: b3 f7 c5 00  	and	a5, a1, a2
     654: 63 ee f6 00  	bltu	a3, a5, 0x670 <.LBB6_11>
     658: 93 85 15 00  	addi	a1, a1, 1
     65c: b3 f4 c5 00  	and	s1, a1, a2
     660: 93 94 14 00  	slli	s1, s1, 1
     664: b3 04 97 00  	add	s1, a4, s1
     668: 83 d4 04 00  	lhu	s1, 0(s1)
     66c: e3 82 a4 fe  	beq	s1, a0, 0x650 <.LBB6_9>

0000000000000670 <.LBB6_11>:
     670: 13 b5 f7 07  	sltiu	a0, a5, 127
     674: 13 45 15 00  	xori	a0, a0, 1
     678: 6f 00 80 00  	j	0x680 <.LBB6_13>

000000000000067c <.LBB6_12>:
     67c: 13 05 00 00  	mv	a0, zero

0000000000000680 <.LBB6_13>:
     680: 83 39 81 20  	ld	s3, 520(sp)
     684: 03 39 01 21  	ld	s2, 528(sp)
     688: 83 34 81 21  	ld	s1, 536(sp)
     68c: 03 34 01 22  	ld	s0, 544(sp)
     690: 83 30 81 22  	ld	ra, 552(sp)
     694: 13 01 01 23  	addi	sp, sp, 560
     698: 67 80 00 00  	ret

000000000000069c <vector_memcpy_masked_harness_uint32_t>:
     69c: 13 01 01 bd  	addi	sp, sp, -1072
     6a0: 23 34 11 42  	sd	ra, 1064(sp)
     6a4: 23 30 81 42  	sd	s0, 1056(sp)
     6a8: 23 3c 91 40  	sd	s1, 1048(sp)
     6ac: 23 38 21 41  	sd	s2, 1040(sp)
     6b0: 23 34 31 41  	sd	s3, 1032(sp)
     6b4: 13 09 05 00  	mv	s2, a0
     6b8: 13 05 81 20  	addi	a0, sp, 520
     6bc: 13 06 00 20  	addi	a2, zero, 512
     6c0: 13 04 81 20  	addi	s0, sp, 520
     6c4: 93 05 00 00  	mv	a1, zero
     6c8: 97 00 00 00  	auipc	ra, 0
     6cc: e7 80 c0 94  	jalr	-1716(ra)
     6d0: 13 05 81 00  	addi	a0, sp, 8
     6d4: 13 06 00 20  	addi	a2, zero, 512
     6d8: 93 04 81 00  	addi	s1, sp, 8
     6dc: 93 05 00 00  	mv	a1, zero
     6e0: 97 00 00 00  	auipc	ra, 0
     6e4: e7 80 40 93  	jalr	-1740(ra)
     6e8: 13 05 00 00  	mv	a0, zero
     6ec: 93 05 b0 0b  	addi	a1, zero, 187
     6f0: 13 06 00 08  	addi	a2, zero, 128

00000000000006f4 <.LBB7_1>:
     6f4: 23 20 a4 00  	sw	a0, 0(s0)
     6f8: 23 a0 b4 00  	sw	a1, 0(s1)
     6fc: 13 05 15 00  	addi	a0, a0, 1
     700: 13 04 44 00  	addi	s0, s0, 4
     704: 93 84 44 00  	addi	s1, s1, 4
     708: e3 16 c5 fe  	bne	a0, a2, 0x6f4 <.LBB7_1>
     70c: 93 09 e0 06  	addi	s3, zero, 110
     710: 13 04 81 20  	addi	s0, sp, 520
     714: 13 05 e0 06  	addi	a0, zero, 110
     718: 93 05 81 20  	addi	a1, sp, 520
     71c: 13 06 81 00  	addi	a2, sp, 8
     720: 93 04 81 00  	addi	s1, sp, 8
     724: e7 00 09 00  	jalr	s2
     728: 13 05 00 00  	mv	a0, zero
     72c: 93 05 b0 0b  	addi	a1, zero, 187
     730: 6f 00 00 02  	j	0x750 <.LBB7_5>

0000000000000734 <.LBB7_3>:
     734: 03 26 04 00  	lw	a2, 0(s0)
     738: 83 a6 04 00  	lw	a3, 0(s1)
     73c: 63 16 d6 06  	bne	a2, a3, 0x7a8 <.LBB7_12>

0000000000000740 <.LBB7_4>:
     740: 13 05 15 00  	addi	a0, a0, 1
     744: 93 84 44 00  	addi	s1, s1, 4
     748: 13 04 44 00  	addi	s0, s0, 4
     74c: 63 0c 35 01  	beq	a0, s3, 0x764 <.LBB7_7>

0000000000000750 <.LBB7_5>:
     750: 13 76 15 00  	andi	a2, a0, 1
     754: e3 10 06 fe  	bnez	a2, 0x734 <.LBB7_3>
     758: 03 a6 04 00  	lw	a2, 0(s1)
     75c: e3 02 b6 fe  	beq	a2, a1, 0x740 <.LBB7_4>
     760: 6f 00 80 04  	j	0x7a8 <.LBB7_12>

0000000000000764 <.LBB7_7>:
     764: 83 25 01 1c  	lw	a1, 448(sp)
     768: 13 05 b0 0b  	addi	a0, zero, 187
     76c: 63 9e a5 02  	bne	a1, a0, 0x7a8 <.LBB7_12>
     770: 93 05 e0 06  	addi	a1, zero, 110
     774: 13 06 e0 07  	addi	a2, zero, 126
     778: 93 06 81 00  	addi	a3, sp, 8

000000000000077c <.LBB7_9>:
     77c: 1b 87 05 00  	sext.w	a4, a1
     780: 63 6e e6 00  	bltu	a2, a4, 0x79c <.LBB7_11>
     784: 93 85 15 00  	addi	a1, a1, 1
     788: 93 97 05 02  	slli	a5, a1, 32
     78c: 93 d7 e7 01  	srli	a5, a5, 30
     790: b3 87 f6 00  	add	a5, a3, a5
     794: 83 a7 07 00  	lw	a5, 0(a5)
     798: e3 82 a7 fe  	beq	a5, a0, 0x77c <.LBB7_9>

000000000000079c <.LBB7_11>:
     79c: 13 35 f7 07  	sltiu	a0, a4, 127
     7a0: 13 45 15 00  	xori	a0, a0, 1
     7a4: 6f 00 80 00  	j	0x7ac <.LBB7_13>

00000000000007a8 <.LBB7_12>:
     7a8: 13 05 00 00  	mv	a0, zero

00000000000007ac <.LBB7_13>:
     7ac: 83 39 81 40  	ld	s3, 1032(sp)
     7b0: 03 39 01 41  	ld	s2, 1040(sp)
     7b4: 83 34 81 41  	ld	s1, 1048(sp)
     7b8: 03 34 01 42  	ld	s0, 1056(sp)
     7bc: 83 30 81 42  	ld	ra, 1064(sp)
     7c0: 13 01 01 43  	addi	sp, sp, 1072
     7c4: 67 80 00 00  	ret

00000000000007c8 <vector_memcpy_masked_harness_uint64_t>:
     7c8: 13 01 01 81  	addi	sp, sp, -2032
     7cc: 23 34 11 7e  	sd	ra, 2024(sp)
     7d0: 23 30 81 7e  	sd	s0, 2016(sp)
     7d4: 23 3c 91 7c  	sd	s1, 2008(sp)
     7d8: 23 38 21 7d  	sd	s2, 2000(sp)
     7dc: 23 34 31 7d  	sd	s3, 1992(sp)
     7e0: 13 01 01 fc  	addi	sp, sp, -64
     7e4: 13 09 05 00  	mv	s2, a0
     7e8: 13 05 81 40  	addi	a0, sp, 1032
     7ec: 13 06 00 40  	addi	a2, zero, 1024
     7f0: 13 04 81 40  	addi	s0, sp, 1032
     7f4: 93 05 00 00  	mv	a1, zero
     7f8: 97 00 00 00  	auipc	ra, 0
     7fc: e7 80 c0 81  	jalr	-2020(ra)
     800: 13 05 81 00  	addi	a0, sp, 8
     804: 13 06 00 40  	addi	a2, zero, 1024
     808: 93 04 81 00  	addi	s1, sp, 8
     80c: 93 05 00 00  	mv	a1, zero
     810: 97 00 00 00  	auipc	ra, 0
     814: e7 80 40 80  	jalr	-2044(ra)
     818: 13 05 00 00  	mv	a0, zero
     81c: 93 05 b0 0b  	addi	a1, zero, 187
     820: 13 06 00 08  	addi	a2, zero, 128

0000000000000824 <.LBB8_1>:
     824: 23 30 a4 00  	sd	a0, 0(s0)
     828: 23 b0 b4 00  	sd	a1, 0(s1)
     82c: 13 05 15 00  	addi	a0, a0, 1
     830: 93 84 84 00  	addi	s1, s1, 8
     834: 13 04 84 00  	addi	s0, s0, 8
     838: e3 16 c5 fe  	bne	a0, a2, 0x824 <.LBB8_1>
     83c: 93 09 e0 06  	addi	s3, zero, 110
     840: 13 04 81 40  	addi	s0, sp, 1032
     844: 13 05 e0 06  	addi	a0, zero, 110
     848: 93 05 81 40  	addi	a1, sp, 1032
     84c: 13 06 81 00  	addi	a2, sp, 8
     850: 93 04 81 00  	addi	s1, sp, 8
     854: e7 00 09 00  	jalr	s2
     858: 13 05 00 00  	mv	a0, zero
     85c: 93 05 b0 0b  	addi	a1, zero, 187
     860: 6f 00 00 02  	j	0x880 <.LBB8_5>

0000000000000864 <.LBB8_3>:
     864: 03 36 04 00  	ld	a2, 0(s0)
     868: 83 b6 04 00  	ld	a3, 0(s1)
     86c: 63 12 d6 06  	bne	a2, a3, 0x8d0 <.LBB8_12>

0000000000000870 <.LBB8_4>:
     870: 13 05 15 00  	addi	a0, a0, 1
     874: 93 84 84 00  	addi	s1, s1, 8
     878: 13 04 84 00  	addi	s0, s0, 8
     87c: 63 0c 35 01  	beq	a0, s3, 0x894 <.LBB8_7>

0000000000000880 <.LBB8_5>:
     880: 13 76 15 00  	andi	a2, a0, 1
     884: e3 10 06 fe  	bnez	a2, 0x864 <.LBB8_3>
     888: 03 b6 04 00  	ld	a2, 0(s1)
     88c: e3 02 b6 fe  	beq	a2, a1, 0x870 <.LBB8_4>
     890: 6f 00 00 04  	j	0x8d0 <.LBB8_12>

0000000000000894 <.LBB8_7>:
     894: 83 35 81 37  	ld	a1, 888(sp)
     898: 13 05 b0 0b  	addi	a0, zero, 187
     89c: 63 9a a5 02  	bne	a1, a0, 0x8d0 <.LBB8_12>
     8a0: 93 05 01 38  	addi	a1, sp, 896
     8a4: 13 07 e0 06  	addi	a4, zero, 110
     8a8: 13 06 f0 07  	addi	a2, zero, 127

00000000000008ac <.LBB8_9>:
     8ac: 93 06 07 00  	mv	a3, a4
     8b0: 63 0a c7 00  	beq	a4, a2, 0x8c4 <.LBB8_11>
     8b4: 83 b7 05 00  	ld	a5, 0(a1)
     8b8: 13 87 16 00  	addi	a4, a3, 1
     8bc: 93 85 85 00  	addi	a1, a1, 8
     8c0: e3 86 a7 fe  	beq	a5, a0, 0x8ac <.LBB8_9>

00000000000008c4 <.LBB8_11>:
     8c4: 13 05 e0 07  	addi	a0, zero, 126
     8c8: 33 35 d5 00  	sltu	a0, a0, a3
     8cc: 6f 00 80 00  	j	0x8d4 <.LBB8_13>

00000000000008d0 <.LBB8_12>:
     8d0: 13 05 00 00  	mv	a0, zero

00000000000008d4 <.LBB8_13>:
     8d4: 13 01 01 04  	addi	sp, sp, 64
     8d8: 83 39 81 7c  	ld	s3, 1992(sp)
     8dc: 03 39 01 7d  	ld	s2, 2000(sp)
     8e0: 83 34 81 7d  	ld	s1, 2008(sp)
     8e4: 03 34 01 7e  	ld	s0, 2016(sp)
     8e8: 83 30 81 7e  	ld	ra, 2024(sp)
     8ec: 13 01 01 7f  	addi	sp, sp, 2032
     8f0: 67 80 00 00  	ret

00000000000008f4 <vector_memcpy_segmented_harness_uint8_t>:
     8f4: 13 01 01 ea  	addi	sp, sp, -352
     8f8: 23 3c 11 14  	sd	ra, 344(sp)
     8fc: 23 38 81 14  	sd	s0, 336(sp)
     900: 23 34 91 14  	sd	s1, 328(sp)
     904: 23 30 21 15  	sd	s2, 320(sp)
     908: 23 3c 31 13  	sd	s3, 312(sp)
     90c: 23 38 41 13  	sd	s4, 304(sp)
     910: 23 34 51 13  	sd	s5, 296(sp)
     914: 13 09 05 00  	mv	s2, a0
     918: 13 04 81 0a  	addi	s0, sp, 168
     91c: 13 05 81 0a  	addi	a0, sp, 168
     920: 13 06 00 08  	addi	a2, zero, 128
     924: 93 04 00 08  	addi	s1, zero, 128
     928: 93 05 00 00  	mv	a1, zero
     92c: 97 f0 ff ff  	auipc	ra, 1048575
     930: e7 80 80 6e  	jalr	1768(ra)
     934: 13 05 00 00  	mv	a0, zero
     938: 23 30 01 0a  	sd	zero, 160(sp)
     93c: 23 3c 01 08  	sd	zero, 152(sp)
     940: 23 38 01 08  	sd	zero, 144(sp)
     944: 23 34 01 08  	sd	zero, 136(sp)
     948: 23 30 01 08  	sd	zero, 128(sp)
     94c: 23 3c 01 06  	sd	zero, 120(sp)
     950: 23 38 01 06  	sd	zero, 112(sp)
     954: 23 34 01 06  	sd	zero, 104(sp)
     958: 23 30 01 06  	sd	zero, 96(sp)
     95c: 23 3c 01 04  	sd	zero, 88(sp)
     960: 23 38 01 04  	sd	zero, 80(sp)
     964: 23 34 01 04  	sd	zero, 72(sp)
     968: 23 30 01 04  	sd	zero, 64(sp)
     96c: 23 3c 01 02  	sd	zero, 56(sp)
     970: 23 38 01 02  	sd	zero, 48(sp)
     974: 23 34 01 02  	sd	zero, 40(sp)

0000000000000978 <.LBB9_1>:
     978: b3 05 a4 00  	add	a1, s0, a0
     97c: 23 80 a5 00  	sb	a0, 0(a1)
     980: 13 05 15 00  	addi	a0, a0, 1
     984: e3 1a 95 fe  	bne	a0, s1, 0x978 <.LBB9_1>
     988: 93 04 81 08  	addi	s1, sp, 136
     98c: 23 34 91 00  	sd	s1, 8(sp)
     990: 93 0a 81 06  	addi	s5, sp, 104
     994: 23 38 51 01  	sd	s5, 16(sp)
     998: 93 09 81 04  	addi	s3, sp, 72
     99c: 23 3c 31 01  	sd	s3, 24(sp)
     9a0: 13 0a 81 02  	addi	s4, sp, 40
     9a4: 23 30 41 03  	sd	s4, 32(sp)
     9a8: 13 05 a0 01  	addi	a0, zero, 26
     9ac: 93 05 81 0a  	addi	a1, sp, 168
     9b0: 13 06 81 00  	addi	a2, sp, 8
     9b4: 13 04 81 0a  	addi	s0, sp, 168
     9b8: e7 00 09 00  	jalr	s2
     9bc: 13 05 00 00  	mv	a0, zero
     9c0: 93 05 90 01  	addi	a1, zero, 25

00000000000009c4 <.LBB9_3>:
     9c4: 13 76 f5 0f  	andi	a2, a0, 255
     9c8: 93 16 26 00  	slli	a3, a2, 2
     9cc: 33 07 d4 00  	add	a4, s0, a3
     9d0: 03 47 07 00  	lbu	a4, 0(a4)
     9d4: b3 87 c4 00  	add	a5, s1, a2
     9d8: 83 c7 07 00  	lbu	a5, 0(a5)
     9dc: 63 16 f7 06  	bne	a4, a5, 0xa48 <.LBB9_10>
     9e0: 13 e7 16 00  	ori	a4, a3, 1
     9e4: 33 07 e4 00  	add	a4, s0, a4
     9e8: 03 47 07 00  	lbu	a4, 0(a4)
     9ec: b3 87 ca 00  	add	a5, s5, a2
     9f0: 83 c7 07 00  	lbu	a5, 0(a5)
     9f4: 63 1a f7 04  	bne	a4, a5, 0xa48 <.LBB9_10>
     9f8: 13 e7 26 00  	ori	a4, a3, 2
     9fc: 33 07 e4 00  	add	a4, s0, a4
     a00: 03 47 07 00  	lbu	a4, 0(a4)
     a04: b3 87 c9 00  	add	a5, s3, a2
     a08: 83 c7 07 00  	lbu	a5, 0(a5)
     a0c: 63 1e f7 02  	bne	a4, a5, 0xa48 <.LBB9_10>
     a10: 93 e6 36 00  	ori	a3, a3, 3
     a14: b3 06 d4 00  	add	a3, s0, a3
     a18: 83 c6 06 00  	lbu	a3, 0(a3)
     a1c: 33 07 ca 00  	add	a4, s4, a2
     a20: 03 47 07 00  	lbu	a4, 0(a4)
     a24: 63 92 e6 02  	bne	a3, a4, 0xa48 <.LBB9_10>
     a28: 13 05 15 00  	addi	a0, a0, 1
     a2c: e3 6c b6 f8  	bltu	a2, a1, 0x9c4 <.LBB9_3>
     a30: 83 45 21 0a  	lbu	a1, 162(sp)
     a34: 13 05 10 00  	addi	a0, zero, 1
     a38: 63 8c 05 02  	beqz	a1, 0xa70 <.LBB9_12>

0000000000000a3c <.LBB9_9>:
     a3c: 13 45 f5 ff  	not	a0, a0
     a40: 13 75 15 00  	andi	a0, a0, 1
     a44: 6f 00 80 00  	j	0xa4c <.LBB9_11>

0000000000000a48 <.LBB9_10>:
     a48: 13 05 00 00  	mv	a0, zero

0000000000000a4c <.LBB9_11>:
     a4c: 83 3a 81 12  	ld	s5, 296(sp)
     a50: 03 3a 01 13  	ld	s4, 304(sp)
     a54: 83 39 81 13  	ld	s3, 312(sp)
     a58: 03 39 01 14  	ld	s2, 320(sp)
     a5c: 83 34 81 14  	ld	s1, 328(sp)
     a60: 03 34 01 15  	ld	s0, 336(sp)
     a64: 83 30 81 15  	ld	ra, 344(sp)
     a68: 13 01 01 16  	addi	sp, sp, 352
     a6c: 67 80 00 00  	ret

0000000000000a70 <.LBB9_12>:
     a70: 93 05 21 08  	addi	a1, sp, 130
     a74: 13 06 21 06  	addi	a2, sp, 98
     a78: 93 06 21 04  	addi	a3, sp, 66
     a7c: 13 05 10 00  	addi	a0, zero, 1
     a80: 13 07 a0 01  	addi	a4, zero, 26
     a84: 93 07 e0 01  	addi	a5, zero, 30
     a88: 93 04 81 08  	addi	s1, sp, 136

0000000000000a8c <.LBB9_13>:
     a8c: 03 c4 05 00  	lbu	s0, 0(a1)
     a90: e3 16 04 fa  	bnez	s0, 0xa3c <.LBB9_9>
     a94: 03 44 06 00  	lbu	s0, 0(a2)
     a98: e3 12 04 fa  	bnez	s0, 0xa3c <.LBB9_9>
     a9c: 03 c4 06 00  	lbu	s0, 0(a3)
     aa0: e3 1e 04 f8  	bnez	s0, 0xa3c <.LBB9_9>
     aa4: 13 74 f7 0f  	andi	s0, a4, 255
     aa8: 13 35 f4 01  	sltiu	a0, s0, 31
     aac: e3 e8 87 f8  	bltu	a5, s0, 0xa3c <.LBB9_9>
     ab0: 13 07 17 00  	addi	a4, a4, 1
     ab4: 13 74 f7 0f  	andi	s0, a4, 255
     ab8: 33 84 84 00  	add	s0, s1, s0
     abc: 03 44 04 00  	lbu	s0, 0(s0)
     ac0: 93 85 15 00  	addi	a1, a1, 1
     ac4: 13 06 16 00  	addi	a2, a2, 1
     ac8: 93 86 16 00  	addi	a3, a3, 1
     acc: e3 00 04 fc  	beqz	s0, 0xa8c <.LBB9_13>
     ad0: 6f f0 df f6  	j	0xa3c <.LBB9_9>

0000000000000ad4 <vector_memcpy_segmented_harness_uint16_t>:
     ad4: 13 01 01 da  	addi	sp, sp, -608
     ad8: 23 3c 11 24  	sd	ra, 600(sp)
     adc: 23 38 81 24  	sd	s0, 592(sp)
     ae0: 23 34 91 24  	sd	s1, 584(sp)
     ae4: 23 30 21 25  	sd	s2, 576(sp)
     ae8: 23 3c 31 23  	sd	s3, 568(sp)
     aec: 23 38 41 23  	sd	s4, 560(sp)
     af0: 23 34 51 23  	sd	s5, 552(sp)
     af4: 23 30 61 23  	sd	s6, 544(sp)
     af8: 13 09 05 00  	mv	s2, a0
     afc: 13 05 01 12  	addi	a0, sp, 288
     b00: 13 06 00 10  	addi	a2, zero, 256
     b04: 93 04 01 12  	addi	s1, sp, 288
     b08: 93 05 00 00  	mv	a1, zero
     b0c: 97 f0 ff ff  	auipc	ra, 1048575
     b10: e7 80 80 50  	jalr	1288(ra)
     b14: 13 05 00 00  	mv	a0, zero
     b18: 23 3c 01 10  	sd	zero, 280(sp)
     b1c: 23 38 01 10  	sd	zero, 272(sp)
     b20: 23 34 01 10  	sd	zero, 264(sp)
     b24: 23 30 01 10  	sd	zero, 256(sp)
     b28: 23 3c 01 0e  	sd	zero, 248(sp)
     b2c: 23 38 01 0e  	sd	zero, 240(sp)
     b30: 23 34 01 0e  	sd	zero, 232(sp)
     b34: 23 30 01 0e  	sd	zero, 224(sp)
     b38: 23 3c 01 0c  	sd	zero, 216(sp)
     b3c: 23 38 01 0c  	sd	zero, 208(sp)
     b40: 23 34 01 0c  	sd	zero, 200(sp)
     b44: 23 30 01 0c  	sd	zero, 192(sp)
     b48: 23 3c 01 0a  	sd	zero, 184(sp)
     b4c: 23 38 01 0a  	sd	zero, 176(sp)
     b50: 23 34 01 0a  	sd	zero, 168(sp)
     b54: 23 30 01 0a  	sd	zero, 160(sp)
     b58: 23 3c 01 08  	sd	zero, 152(sp)
     b5c: 23 38 01 08  	sd	zero, 144(sp)
     b60: 23 34 01 08  	sd	zero, 136(sp)
     b64: 23 30 01 08  	sd	zero, 128(sp)
     b68: 23 3c 01 06  	sd	zero, 120(sp)
     b6c: 23 38 01 06  	sd	zero, 112(sp)
     b70: 23 34 01 06  	sd	zero, 104(sp)
     b74: 23 30 01 06  	sd	zero, 96(sp)
     b78: 23 3c 01 04  	sd	zero, 88(sp)
     b7c: 23 38 01 04  	sd	zero, 80(sp)
     b80: 23 34 01 04  	sd	zero, 72(sp)
     b84: 23 30 01 04  	sd	zero, 64(sp)
     b88: 23 3c 01 02  	sd	zero, 56(sp)
     b8c: 23 38 01 02  	sd	zero, 48(sp)
     b90: 23 34 01 02  	sd	zero, 40(sp)
     b94: 23 30 01 02  	sd	zero, 32(sp)
     b98: 93 05 00 08  	addi	a1, zero, 128

0000000000000b9c <.LBB10_1>:
     b9c: 23 90 a4 00  	sh	a0, 0(s1)
     ba0: 13 05 15 00  	addi	a0, a0, 1
     ba4: 93 84 24 00  	addi	s1, s1, 2
     ba8: e3 1a b5 fe  	bne	a0, a1, 0xb9c <.LBB10_1>
     bac: 13 0b 01 0e  	addi	s6, sp, 224
     bb0: 23 30 61 01  	sd	s6, 0(sp)
     bb4: 93 0a 01 0a  	addi	s5, sp, 160
     bb8: 23 34 51 01  	sd	s5, 8(sp)
     bbc: 93 09 01 06  	addi	s3, sp, 96
     bc0: 23 38 31 01  	sd	s3, 16(sp)
     bc4: 13 0a 01 02  	addi	s4, sp, 32
     bc8: 23 3c 41 01  	sd	s4, 24(sp)
     bcc: 13 05 a0 01  	addi	a0, zero, 26
     bd0: 93 05 01 12  	addi	a1, sp, 288
     bd4: 13 06 01 00  	mv	a2, sp
     bd8: 13 04 01 12  	addi	s0, sp, 288
     bdc: e7 00 09 00  	jalr	s2
     be0: 13 05 00 00  	mv	a0, zero
     be4: b7 05 01 00  	lui	a1, 16
     be8: 9b 85 f5 ff  	addiw	a1, a1, -1
     bec: 13 08 90 01  	addi	a6, zero, 25

0000000000000bf0 <.LBB10_3>:
     bf0: b3 76 b5 00  	and	a3, a0, a1
     bf4: 13 97 36 00  	slli	a4, a3, 3
     bf8: 33 07 e4 00  	add	a4, s0, a4
     bfc: 83 57 07 00  	lhu	a5, 0(a4)
     c00: 13 97 16 00  	slli	a4, a3, 1
     c04: 33 06 eb 00  	add	a2, s6, a4
     c08: 03 56 06 00  	lhu	a2, 0(a2)
     c0c: 63 9a c7 06  	bne	a5, a2, 0xc80 <.LBB10_10>
     c10: 13 96 26 00  	slli	a2, a3, 2
     c14: 93 17 16 00  	slli	a5, a2, 1
     c18: 13 e6 27 00  	ori	a2, a5, 2
     c1c: 33 06 c4 00  	add	a2, s0, a2
     c20: 03 56 06 00  	lhu	a2, 0(a2)
     c24: b3 84 ea 00  	add	s1, s5, a4
     c28: 83 d4 04 00  	lhu	s1, 0(s1)
     c2c: 63 1a 96 04  	bne	a2, s1, 0xc80 <.LBB10_10>
     c30: 13 e6 47 00  	ori	a2, a5, 4
     c34: 33 06 c4 00  	add	a2, s0, a2
     c38: 03 56 06 00  	lhu	a2, 0(a2)
     c3c: b3 84 e9 00  	add	s1, s3, a4
     c40: 83 d4 04 00  	lhu	s1, 0(s1)
     c44: 63 1e 96 02  	bne	a2, s1, 0xc80 <.LBB10_10>
     c48: 13 e6 67 00  	ori	a2, a5, 6
     c4c: 33 06 c4 00  	add	a2, s0, a2
     c50: 03 56 06 00  	lhu	a2, 0(a2)
     c54: 33 07 ea 00  	add	a4, s4, a4
     c58: 03 57 07 00  	lhu	a4, 0(a4)
     c5c: 63 12 e6 02  	bne	a2, a4, 0xc80 <.LBB10_10>
     c60: 13 05 15 00  	addi	a0, a0, 1
     c64: e3 e6 06 f9  	bltu	a3, a6, 0xbf0 <.LBB10_3>
     c68: 83 55 41 11  	lhu	a1, 276(sp)
     c6c: 13 05 10 00  	addi	a0, zero, 1
     c70: 63 8e 05 02  	beqz	a1, 0xcac <.LBB10_12>

0000000000000c74 <.LBB10_9>:
     c74: 13 45 f5 ff  	not	a0, a0
     c78: 13 75 15 00  	andi	a0, a0, 1
     c7c: 6f 00 80 00  	j	0xc84 <.LBB10_11>

0000000000000c80 <.LBB10_10>:
     c80: 13 05 00 00  	mv	a0, zero

0000000000000c84 <.LBB10_11>:
     c84: 03 3b 01 22  	ld	s6, 544(sp)
     c88: 83 3a 81 22  	ld	s5, 552(sp)
     c8c: 03 3a 01 23  	ld	s4, 560(sp)
     c90: 83 39 81 23  	ld	s3, 568(sp)
     c94: 03 39 01 24  	ld	s2, 576(sp)
     c98: 83 34 81 24  	ld	s1, 584(sp)
     c9c: 03 34 01 25  	ld	s0, 592(sp)
     ca0: 83 30 81 25  	ld	ra, 600(sp)
     ca4: 13 01 01 26  	addi	sp, sp, 608
     ca8: 67 80 00 00  	ret

0000000000000cac <.LBB10_12>:
     cac: 93 05 41 0d  	addi	a1, sp, 212
     cb0: 13 06 41 09  	addi	a2, sp, 148
     cb4: 93 06 41 05  	addi	a3, sp, 84
     cb8: 13 05 10 00  	addi	a0, zero, 1
     cbc: 13 07 a0 01  	addi	a4, zero, 26
     cc0: b7 07 01 00  	lui	a5, 16
     cc4: 9b 87 f7 ff  	addiw	a5, a5, -1
     cc8: 93 04 e0 01  	addi	s1, zero, 30
     ccc: 13 08 01 0e  	addi	a6, sp, 224

0000000000000cd0 <.LBB10_13>:
     cd0: 03 d4 05 00  	lhu	s0, 0(a1)
     cd4: e3 10 04 fa  	bnez	s0, 0xc74 <.LBB10_9>
     cd8: 03 54 06 00  	lhu	s0, 0(a2)
     cdc: e3 1c 04 f8  	bnez	s0, 0xc74 <.LBB10_9>
     ce0: 03 d4 06 00  	lhu	s0, 0(a3)
     ce4: e3 18 04 f8  	bnez	s0, 0xc74 <.LBB10_9>
     ce8: 33 74 f7 00  	and	s0, a4, a5
     cec: 13 35 f4 01  	sltiu	a0, s0, 31
     cf0: e3 e2 84 f8  	bltu	s1, s0, 0xc74 <.LBB10_9>
     cf4: 13 07 17 00  	addi	a4, a4, 1
     cf8: 33 74 f7 00  	and	s0, a4, a5
     cfc: 13 14 14 00  	slli	s0, s0, 1
     d00: 33 04 88 00  	add	s0, a6, s0
     d04: 03 54 04 00  	lhu	s0, 0(s0)
     d08: 93 85 25 00  	addi	a1, a1, 2
     d0c: 13 06 26 00  	addi	a2, a2, 2
     d10: 93 86 26 00  	addi	a3, a3, 2
     d14: e3 0e 04 fa  	beqz	s0, 0xcd0 <.LBB10_13>
     d18: 6f f0 df f5  	j	0xc74 <.LBB10_9>

0000000000000d1c <vector_memcpy_segmented_harness_uint32_t>:
     d1c: 13 01 01 ba  	addi	sp, sp, -1120
     d20: 23 3c 11 44  	sd	ra, 1112(sp)
     d24: 23 38 81 44  	sd	s0, 1104(sp)
     d28: 23 34 91 44  	sd	s1, 1096(sp)
     d2c: 23 30 21 45  	sd	s2, 1088(sp)
     d30: 23 3c 31 43  	sd	s3, 1080(sp)
     d34: 23 38 41 43  	sd	s4, 1072(sp)
     d38: 23 34 51 43  	sd	s5, 1064(sp)
     d3c: 13 09 05 00  	mv	s2, a0
     d40: 13 05 81 22  	addi	a0, sp, 552
     d44: 13 06 00 20  	addi	a2, zero, 512
     d48: 13 04 81 22  	addi	s0, sp, 552
     d4c: 93 05 00 00  	mv	a1, zero
     d50: 97 f0 ff ff  	auipc	ra, 1048575
     d54: e7 80 40 2c  	jalr	708(ra)
     d58: 13 05 81 1a  	addi	a0, sp, 424
     d5c: 13 06 00 08  	addi	a2, zero, 128
     d60: 93 04 00 08  	addi	s1, zero, 128
     d64: 93 05 00 00  	mv	a1, zero
     d68: 97 f0 ff ff  	auipc	ra, 1048575
     d6c: e7 80 c0 2a  	jalr	684(ra)
     d70: 13 05 81 12  	addi	a0, sp, 296
     d74: 13 06 00 08  	addi	a2, zero, 128
     d78: 93 05 00 00  	mv	a1, zero
     d7c: 97 f0 ff ff  	auipc	ra, 1048575
     d80: e7 80 80 29  	jalr	664(ra)
     d84: 13 05 81 0a  	addi	a0, sp, 168
     d88: 13 06 00 08  	addi	a2, zero, 128
     d8c: 93 05 00 00  	mv	a1, zero
     d90: 97 f0 ff ff  	auipc	ra, 1048575
     d94: e7 80 40 28  	jalr	644(ra)
     d98: 13 05 81 02  	addi	a0, sp, 40
     d9c: 13 06 00 08  	addi	a2, zero, 128
     da0: 93 05 00 00  	mv	a1, zero
     da4: 97 f0 ff ff  	auipc	ra, 1048575
     da8: e7 80 00 27  	jalr	624(ra)
     dac: 13 05 00 00  	mv	a0, zero

0000000000000db0 <.LBB11_1>:
     db0: 23 20 a4 00  	sw	a0, 0(s0)
     db4: 13 05 15 00  	addi	a0, a0, 1
     db8: 13 04 44 00  	addi	s0, s0, 4
     dbc: e3 1a 95 fe  	bne	a0, s1, 0xdb0 <.LBB11_1>
     dc0: 93 04 81 1a  	addi	s1, sp, 424
     dc4: 23 34 91 00  	sd	s1, 8(sp)
     dc8: 93 0a 81 12  	addi	s5, sp, 296
     dcc: 23 38 51 01  	sd	s5, 16(sp)
     dd0: 93 09 81 0a  	addi	s3, sp, 168
     dd4: 23 3c 31 01  	sd	s3, 24(sp)
     dd8: 13 0a 81 02  	addi	s4, sp, 40
     ddc: 23 30 41 03  	sd	s4, 32(sp)
     de0: 13 05 a0 01  	addi	a0, zero, 26
     de4: 93 05 81 22  	addi	a1, sp, 552
     de8: 13 06 81 00  	addi	a2, sp, 8
     dec: 13 04 81 22  	addi	s0, sp, 552
     df0: e7 00 09 00  	jalr	s2
     df4: 13 05 00 00  	mv	a0, zero
     df8: 93 05 90 01  	addi	a1, zero, 25

0000000000000dfc <.LBB11_3>:
     dfc: 13 16 25 02  	slli	a2, a0, 34
     e00: 13 56 e6 01  	srli	a2, a2, 30
     e04: 33 06 c4 00  	add	a2, s0, a2
     e08: 03 26 06 00  	lw	a2, 0(a2)
     e0c: 93 16 05 02  	slli	a3, a0, 32
     e10: 13 d7 e6 01  	srli	a4, a3, 30
     e14: 33 87 e4 00  	add	a4, s1, a4
     e18: 03 27 07 00  	lw	a4, 0(a4)
     e1c: 63 1a e6 08  	bne	a2, a4, 0xeb0 <.LBB11_10>
     e20: 13 16 25 00  	slli	a2, a0, 2
     e24: 93 d6 06 02  	srli	a3, a3, 32
     e28: 13 67 16 00  	ori	a4, a2, 1
     e2c: 13 17 07 02  	slli	a4, a4, 32
     e30: 13 57 e7 01  	srli	a4, a4, 30
     e34: 33 07 e4 00  	add	a4, s0, a4
     e38: 03 27 07 00  	lw	a4, 0(a4)
     e3c: 93 96 26 00  	slli	a3, a3, 2
     e40: b3 87 da 00  	add	a5, s5, a3
     e44: 83 a7 07 00  	lw	a5, 0(a5)
     e48: 63 14 f7 06  	bne	a4, a5, 0xeb0 <.LBB11_10>
     e4c: 13 67 26 00  	ori	a4, a2, 2
     e50: 13 17 07 02  	slli	a4, a4, 32
     e54: 13 57 e7 01  	srli	a4, a4, 30
     e58: 33 07 e4 00  	add	a4, s0, a4
     e5c: 03 27 07 00  	lw	a4, 0(a4)
     e60: b3 87 d9 00  	add	a5, s3, a3
     e64: 83 a7 07 00  	lw	a5, 0(a5)
     e68: 63 14 f7 04  	bne	a4, a5, 0xeb0 <.LBB11_10>
     e6c: 13 66 36 00  	ori	a2, a2, 3
     e70: 13 16 06 02  	slli	a2, a2, 32
     e74: 13 56 e6 01  	srli	a2, a2, 30
     e78: 33 06 c4 00  	add	a2, s0, a2
     e7c: 03 26 06 00  	lw	a2, 0(a2)
     e80: b3 06 da 00  	add	a3, s4, a3
     e84: 83 a6 06 00  	lw	a3, 0(a3)
     e88: 63 14 d6 02  	bne	a2, a3, 0xeb0 <.LBB11_10>
     e8c: 1b 06 05 00  	sext.w	a2, a0
     e90: 13 05 15 00  	addi	a0, a0, 1
     e94: e3 64 b6 f6  	bltu	a2, a1, 0xdfc <.LBB11_3>
     e98: 83 25 01 21  	lw	a1, 528(sp)
     e9c: 13 05 10 00  	addi	a0, zero, 1
     ea0: 63 8c 05 02  	beqz	a1, 0xed8 <.LBB11_12>

0000000000000ea4 <.LBB11_9>:
     ea4: 13 45 f5 ff  	not	a0, a0
     ea8: 13 75 15 00  	andi	a0, a0, 1
     eac: 6f 00 80 00  	j	0xeb4 <.LBB11_11>

0000000000000eb0 <.LBB11_10>:
     eb0: 13 05 00 00  	mv	a0, zero

0000000000000eb4 <.LBB11_11>:
     eb4: 83 3a 81 42  	ld	s5, 1064(sp)
     eb8: 03 3a 01 43  	ld	s4, 1072(sp)
     ebc: 83 39 81 43  	ld	s3, 1080(sp)
     ec0: 03 39 01 44  	ld	s2, 1088(sp)
     ec4: 83 34 81 44  	ld	s1, 1096(sp)
     ec8: 03 34 01 45  	ld	s0, 1104(sp)
     ecc: 83 30 81 45  	ld	ra, 1112(sp)
     ed0: 13 01 01 46  	addi	sp, sp, 1120
     ed4: 67 80 00 00  	ret

0000000000000ed8 <.LBB11_12>:
     ed8: 93 05 01 19  	addi	a1, sp, 400
     edc: 13 06 01 11  	addi	a2, sp, 272
     ee0: 93 06 01 09  	addi	a3, sp, 144
     ee4: 13 05 10 00  	addi	a0, zero, 1
     ee8: 13 07 a0 01  	addi	a4, zero, 26
     eec: 93 07 e0 01  	addi	a5, zero, 30
     ef0: 93 04 81 1a  	addi	s1, sp, 424

0000000000000ef4 <.LBB11_13>:
     ef4: 03 a4 05 00  	lw	s0, 0(a1)
     ef8: e3 16 04 fa  	bnez	s0, 0xea4 <.LBB11_9>
     efc: 03 24 06 00  	lw	s0, 0(a2)
     f00: e3 12 04 fa  	bnez	s0, 0xea4 <.LBB11_9>
     f04: 03 a4 06 00  	lw	s0, 0(a3)
     f08: e3 1e 04 f8  	bnez	s0, 0xea4 <.LBB11_9>
     f0c: 1b 04 07 00  	sext.w	s0, a4
     f10: 13 35 f4 01  	sltiu	a0, s0, 31
     f14: e3 e8 87 f8  	bltu	a5, s0, 0xea4 <.LBB11_9>
     f18: 13 07 17 00  	addi	a4, a4, 1
     f1c: 13 14 07 02  	slli	s0, a4, 32
     f20: 13 54 e4 01  	srli	s0, s0, 30
     f24: 33 84 84 00  	add	s0, s1, s0
     f28: 03 24 04 00  	lw	s0, 0(s0)
     f2c: 93 85 45 00  	addi	a1, a1, 4
     f30: 13 06 46 00  	addi	a2, a2, 4
     f34: 93 86 46 00  	addi	a3, a3, 4
     f38: e3 0e 04 fa  	beqz	s0, 0xef4 <.LBB11_13>
     f3c: 6f f0 9f f6  	j	0xea4 <.LBB11_9>

0000000000000f40 <vector_memcpy_segmented_harness_uint64_t>:
     f40: 13 01 01 81  	addi	sp, sp, -2032
     f44: 23 34 11 7e  	sd	ra, 2024(sp)
     f48: 23 30 81 7e  	sd	s0, 2016(sp)
     f4c: 23 3c 91 7c  	sd	s1, 2008(sp)
     f50: 23 38 21 7d  	sd	s2, 2000(sp)
     f54: 23 34 31 7d  	sd	s3, 1992(sp)
     f58: 23 30 41 7d  	sd	s4, 1984(sp)
     f5c: 13 01 01 f9  	addi	sp, sp, -112
     f60: 13 09 05 00  	mv	s2, a0
     f64: 13 05 01 43  	addi	a0, sp, 1072
     f68: 13 06 00 40  	addi	a2, zero, 1024
     f6c: 13 04 01 43  	addi	s0, sp, 1072
     f70: 93 05 00 00  	mv	a1, zero
     f74: 97 f0 ff ff  	auipc	ra, 1048575
     f78: e7 80 00 0a  	jalr	160(ra)
     f7c: 13 05 01 33  	addi	a0, sp, 816
     f80: 13 06 00 10  	addi	a2, zero, 256
     f84: 93 05 00 00  	mv	a1, zero
     f88: 97 f0 ff ff  	auipc	ra, 1048575
     f8c: e7 80 c0 08  	jalr	140(ra)
     f90: 13 05 01 23  	addi	a0, sp, 560
     f94: 13 06 00 10  	addi	a2, zero, 256
     f98: 93 05 00 00  	mv	a1, zero
     f9c: 97 f0 ff ff  	auipc	ra, 1048575
     fa0: e7 80 80 07  	jalr	120(ra)
     fa4: 13 05 01 13  	addi	a0, sp, 304
     fa8: 13 06 00 10  	addi	a2, zero, 256
     fac: 93 05 00 00  	mv	a1, zero
     fb0: 97 f0 ff ff  	auipc	ra, 1048575
     fb4: e7 80 40 06  	jalr	100(ra)
     fb8: 13 05 01 03  	addi	a0, sp, 48
     fbc: 13 06 00 10  	addi	a2, zero, 256
     fc0: 93 05 00 00  	mv	a1, zero
     fc4: 97 f0 ff ff  	auipc	ra, 1048575
     fc8: e7 80 00 05  	jalr	80(ra)
     fcc: 13 05 00 00  	mv	a0, zero
     fd0: 93 05 00 08  	addi	a1, zero, 128

0000000000000fd4 <.LBB12_1>:
     fd4: 23 30 a4 00  	sd	a0, 0(s0)
     fd8: 13 05 15 00  	addi	a0, a0, 1
     fdc: 13 04 84 00  	addi	s0, s0, 8
     fe0: e3 1a b5 fe  	bne	a0, a1, 0xfd4 <.LBB12_1>
     fe4: 93 09 01 33  	addi	s3, sp, 816
     fe8: 23 38 31 01  	sd	s3, 16(sp)
     fec: 13 0a 01 23  	addi	s4, sp, 560
     ff0: 23 3c 41 01  	sd	s4, 24(sp)
     ff4: 93 04 01 13  	addi	s1, sp, 304
     ff8: 23 30 91 02  	sd	s1, 32(sp)
     ffc: 13 04 01 03  	addi	s0, sp, 48
    1000: 23 34 81 02  	sd	s0, 40(sp)
    1004: 13 05 a0 01  	addi	a0, zero, 26
    1008: 93 05 01 43  	addi	a1, sp, 1072
    100c: 13 06 01 01  	addi	a2, sp, 16
    1010: e7 00 09 00  	jalr	s2
    1014: 13 05 00 00  	mv	a0, zero
    1018: 93 05 01 44  	addi	a1, sp, 1088
    101c: 13 06 00 0d  	addi	a2, zero, 208

0000000000001020 <.LBB12_3>:
    1020: 83 b6 05 ff  	ld	a3, -16(a1)
    1024: 33 87 a9 00  	add	a4, s3, a0
    1028: 03 37 07 00  	ld	a4, 0(a4)
    102c: 63 9c e6 04  	bne	a3, a4, 0x1084 <.LBB12_10>
    1030: 83 b6 85 ff  	ld	a3, -8(a1)
    1034: 33 07 aa 00  	add	a4, s4, a0
    1038: 03 37 07 00  	ld	a4, 0(a4)
    103c: 63 94 e6 04  	bne	a3, a4, 0x1084 <.LBB12_10>
    1040: 83 b6 05 00  	ld	a3, 0(a1)
    1044: 33 87 a4 00  	add	a4, s1, a0
    1048: 03 37 07 00  	ld	a4, 0(a4)
    104c: 63 9c e6 02  	bne	a3, a4, 0x1084 <.LBB12_10>
    1050: 83 b6 85 00  	ld	a3, 8(a1)
    1054: 33 07 a4 00  	add	a4, s0, a0
    1058: 03 37 07 00  	ld	a4, 0(a4)
    105c: 63 94 e6 02  	bne	a3, a4, 0x1084 <.LBB12_10>
    1060: 13 05 85 00  	addi	a0, a0, 8
    1064: 93 85 05 02  	addi	a1, a1, 32
    1068: e3 1c c5 fa  	bne	a0, a2, 0x1020 <.LBB12_3>
    106c: 83 35 01 40  	ld	a1, 1024(sp)
    1070: 13 05 10 00  	addi	a0, zero, 1
    1074: 63 8c 05 02  	beqz	a1, 0x10ac <.LBB12_12>

0000000000001078 <.LBB12_9>:
    1078: 13 45 f5 ff  	not	a0, a0
    107c: 13 75 15 00  	andi	a0, a0, 1
    1080: 6f 00 80 00  	j	0x1088 <.LBB12_11>

0000000000001084 <.LBB12_10>:
    1084: 13 05 00 00  	mv	a0, zero

0000000000001088 <.LBB12_11>:
    1088: 13 01 01 07  	addi	sp, sp, 112
    108c: 03 3a 01 7c  	ld	s4, 1984(sp)
    1090: 83 39 81 7c  	ld	s3, 1992(sp)
    1094: 03 39 01 7d  	ld	s2, 2000(sp)
    1098: 83 34 81 7d  	ld	s1, 2008(sp)
    109c: 03 34 01 7e  	ld	s0, 2016(sp)
    10a0: 83 30 81 7e  	ld	ra, 2024(sp)
    10a4: 13 01 01 7f  	addi	sp, sp, 2032
    10a8: 67 80 00 00  	ret

00000000000010ac <.LBB12_12>:
    10ac: 93 05 01 30  	addi	a1, sp, 768
    10b0: 13 06 01 20  	addi	a2, sp, 512
    10b4: 93 06 01 10  	addi	a3, sp, 256
    10b8: 13 07 81 40  	addi	a4, sp, 1032
    10bc: 13 05 10 00  	addi	a0, zero, 1
    10c0: 93 07 a0 01  	addi	a5, zero, 26
    10c4: 93 04 f0 01  	addi	s1, zero, 31

00000000000010c8 <.LBB12_13>:
    10c8: 03 b4 05 00  	ld	s0, 0(a1)
    10cc: e3 16 04 fa  	bnez	s0, 0x1078 <.LBB12_9>
    10d0: 03 34 06 00  	ld	s0, 0(a2)
    10d4: e3 12 04 fa  	bnez	s0, 0x1078 <.LBB12_9>
    10d8: 03 b4 06 00  	ld	s0, 0(a3)
    10dc: e3 1e 04 f8  	bnez	s0, 0x1078 <.LBB12_9>
    10e0: 13 b5 f7 01  	sltiu	a0, a5, 31
    10e4: e3 8a 97 f8  	beq	a5, s1, 0x1078 <.LBB12_9>
    10e8: 03 34 07 00  	ld	s0, 0(a4)
    10ec: 93 85 85 00  	addi	a1, a1, 8
    10f0: 13 06 86 00  	addi	a2, a2, 8
    10f4: 93 86 86 00  	addi	a3, a3, 8
    10f8: 13 07 87 00  	addi	a4, a4, 8
    10fc: 93 87 17 00  	addi	a5, a5, 1
    1100: e3 04 04 fc  	beqz	s0, 0x10c8 <.LBB12_13>
    1104: 6f f0 5f f7  	j	0x1078 <.LBB12_9>

0000000000001108 <vector_memcpy_unit_stride_e8m8>:
    1108: 6f 00 c0 00  	j	0x1114 <.LBB13_2>

000000000000110c <.LBB13_1>:
    110c: 93 b6 16 00  	seqz	a3, a3
    1110: 63 92 06 02  	bnez	a3, 0x1134 <.LBB13_4>

0000000000001114 <.LBB13_2>:
    1114: d7 76 35 04  	<unknown>
    1118: e3 8a 06 fe  	beqz	a3, 0x110c <.LBB13_1>
    111c: 07 84 05 02  	<unknown>
    1120: 27 04 06 02  	<unknown>
    1124: b3 85 d5 00  	add	a1, a1, a3
    1128: 33 06 d6 00  	add	a2, a2, a3
    112c: 33 05 d5 40  	sub	a0, a0, a3
    1130: 6f f0 df fd  	j	0x110c <.LBB13_1>

0000000000001134 <.LBB13_4>:
    1134: 67 80 00 00  	ret

0000000000001138 <vector_memcpy_unit_stride_e16m8>:
    1138: 6f 00 c0 00  	j	0x1144 <.LBB14_2>

000000000000113c <.LBB14_1>:
    113c: 93 b6 16 00  	seqz	a3, a3
    1140: 63 94 06 02  	bnez	a3, 0x1168 <.LBB14_4>

0000000000001144 <.LBB14_2>:
    1144: d7 76 b5 04  	<unknown>
    1148: e3 8a 06 fe  	beqz	a3, 0x113c <.LBB14_1>
    114c: 07 d4 05 02  	<unknown>
    1150: 27 54 06 02  	<unknown>
    1154: 13 97 16 00  	slli	a4, a3, 1
    1158: b3 85 e5 00  	add	a1, a1, a4
    115c: 33 06 e6 00  	add	a2, a2, a4
    1160: 33 05 d5 40  	sub	a0, a0, a3
    1164: 6f f0 9f fd  	j	0x113c <.LBB14_1>

0000000000001168 <.LBB14_4>:
    1168: 67 80 00 00  	ret

000000000000116c <vector_memcpy_unit_stride_e32m8>:
    116c: 6f 00 c0 00  	j	0x1178 <.LBB15_2>

0000000000001170 <.LBB15_1>:
    1170: 93 b6 16 00  	seqz	a3, a3
    1174: 63 94 06 02  	bnez	a3, 0x119c <.LBB15_4>

0000000000001178 <.LBB15_2>:
    1178: d7 76 35 05  	<unknown>
    117c: e3 8a 06 fe  	beqz	a3, 0x1170 <.LBB15_1>
    1180: 07 e4 05 02  	<unknown>
    1184: 27 64 06 02  	<unknown>
    1188: 13 97 26 00  	slli	a4, a3, 2
    118c: b3 85 e5 00  	add	a1, a1, a4
    1190: 33 06 e6 00  	add	a2, a2, a4
    1194: 33 05 d5 40  	sub	a0, a0, a3
    1198: 6f f0 9f fd  	j	0x1170 <.LBB15_1>

000000000000119c <.LBB15_4>:
    119c: 67 80 00 00  	ret

00000000000011a0 <vector_memcpy_unit_stride_e32mf2>:
    11a0: 6f 00 c0 00  	j	0x11ac <.LBB16_2>

00000000000011a4 <.LBB16_1>:
    11a4: 93 b6 16 00  	seqz	a3, a3
    11a8: 63 94 06 02  	bnez	a3, 0x11d0 <.LBB16_4>

00000000000011ac <.LBB16_2>:
    11ac: d7 76 75 05  	<unknown>
    11b0: e3 8a 06 fe  	beqz	a3, 0x11a4 <.LBB16_1>
    11b4: 87 ec 05 02  	<unknown>
    11b8: a7 6c 06 02  	<unknown>
    11bc: 13 97 26 00  	slli	a4, a3, 2
    11c0: b3 85 e5 00  	add	a1, a1, a4
    11c4: 33 06 e6 00  	add	a2, a2, a4
    11c8: 33 05 d5 40  	sub	a0, a0, a3
    11cc: 6f f0 9f fd  	j	0x11a4 <.LBB16_1>

00000000000011d0 <.LBB16_4>:
    11d0: 67 80 00 00  	ret

00000000000011d4 <vector_memcpy_unit_stride_e64m2>:
    11d4: 6f 00 c0 00  	j	0x11e0 <.LBB17_2>

00000000000011d8 <.LBB17_1>:
    11d8: 93 b6 16 00  	seqz	a3, a3
    11dc: 63 94 06 02  	bnez	a3, 0x1204 <.LBB17_4>

00000000000011e0 <.LBB17_2>:
    11e0: d7 76 95 05  	<unknown>
    11e4: e3 8a 06 fe  	beqz	a3, 0x11d8 <.LBB17_1>
    11e8: 07 fd 05 02  	<unknown>
    11ec: 27 7d 06 02  	<unknown>
    11f0: 13 97 36 00  	slli	a4, a3, 3
    11f4: b3 85 e5 00  	add	a1, a1, a4
    11f8: 33 06 e6 00  	add	a2, a2, a4
    11fc: 33 05 d5 40  	sub	a0, a0, a3
    1200: 6f f0 9f fd  	j	0x11d8 <.LBB17_1>

0000000000001204 <.LBB17_4>:
    1204: 67 80 00 00  	ret

0000000000001208 <vector_memcpy_strided_e8m8>:
    1208: 93 08 40 00  	addi	a7, zero, 4
    120c: 6f 00 40 02  	j	0x1230 <.LBB18_4>

0000000000001210 <.LBB18_1>:
    1210: 07 84 05 02  	<unknown>
    1214: 27 04 06 02  	<unknown>
    1218: 13 08 07 00  	mv	a6, a4

000000000000121c <.LBB18_2>:
    121c: 33 05 05 41  	sub	a0, a0, a6
    1220: b3 85 05 01  	add	a1, a1, a6
    1224: 33 06 06 01  	add	a2, a2, a6

0000000000001228 <.LBB18_3>:
    1228: 93 36 17 00  	seqz	a3, a4
    122c: 63 9c 06 02  	bnez	a3, 0x1264 <.LBB18_8>

0000000000001230 <.LBB18_4>:
    1230: 57 77 35 04  	<unknown>
    1234: e3 0a 07 fe  	beqz	a4, 0x1228 <.LBB18_3>
    1238: 13 18 27 00  	slli	a6, a4, 2
    123c: e3 7a a8 fc  	bgeu	a6, a0, 0x1210 <.LBB18_1>
    1240: 93 07 00 00  	mv	a5, zero

0000000000001244 <.LBB18_7>:
    1244: b3 86 f5 00  	add	a3, a1, a5
    1248: 57 70 37 04  	<unknown>
    124c: 07 84 16 0b  	<unknown>
    1250: b3 06 f6 00  	add	a3, a2, a5
    1254: 93 87 17 00  	addi	a5, a5, 1
    1258: 27 84 16 0b  	<unknown>
    125c: e3 94 17 ff  	bne	a5, a7, 0x1244 <.LBB18_7>
    1260: 6f f0 df fb  	j	0x121c <.LBB18_2>

0000000000001264 <.LBB18_8>:
    1264: 67 80 00 00  	ret

0000000000001268 <vector_memcpy_strided_e16m8>:
    1268: 93 08 80 00  	addi	a7, zero, 8
    126c: 6f 00 80 02  	j	0x1294 <.LBB19_4>

0000000000001270 <.LBB19_1>:
    1270: 07 d4 05 02  	<unknown>
    1274: 27 54 06 02  	<unknown>
    1278: 13 08 07 00  	mv	a6, a4

000000000000127c <.LBB19_2>:
    127c: 33 05 05 41  	sub	a0, a0, a6
    1280: 93 16 18 00  	slli	a3, a6, 1
    1284: b3 85 d5 00  	add	a1, a1, a3
    1288: 33 06 d6 00  	add	a2, a2, a3

000000000000128c <.LBB19_3>:
    128c: 93 36 17 00  	seqz	a3, a4
    1290: 63 9c 06 02  	bnez	a3, 0x12c8 <.LBB19_8>

0000000000001294 <.LBB19_4>:
    1294: 57 77 b5 04  	<unknown>
    1298: e3 0a 07 fe  	beqz	a4, 0x128c <.LBB19_3>
    129c: 13 18 27 00  	slli	a6, a4, 2
    12a0: e3 78 a8 fc  	bgeu	a6, a0, 0x1270 <.LBB19_1>
    12a4: 93 07 00 00  	mv	a5, zero

00000000000012a8 <.LBB19_7>:
    12a8: b3 86 f5 00  	add	a3, a1, a5
    12ac: 57 70 b7 04  	<unknown>
    12b0: 07 d4 16 0b  	<unknown>
    12b4: b3 06 f6 00  	add	a3, a2, a5
    12b8: 93 87 27 00  	addi	a5, a5, 2
    12bc: 27 d4 16 0b  	<unknown>
    12c0: e3 94 17 ff  	bne	a5, a7, 0x12a8 <.LBB19_7>
    12c4: 6f f0 9f fb  	j	0x127c <.LBB19_2>

00000000000012c8 <.LBB19_8>:
    12c8: 67 80 00 00  	ret

00000000000012cc <vector_memcpy_strided_e32m8>:
    12cc: 93 08 00 01  	addi	a7, zero, 16
    12d0: 6f 00 80 02  	j	0x12f8 <.LBB20_4>

00000000000012d4 <.LBB20_1>:
    12d4: 07 e4 05 02  	<unknown>
    12d8: 27 64 06 02  	<unknown>
    12dc: 13 08 07 00  	mv	a6, a4

00000000000012e0 <.LBB20_2>:
    12e0: 33 05 05 41  	sub	a0, a0, a6
    12e4: 93 16 28 00  	slli	a3, a6, 2
    12e8: b3 85 d5 00  	add	a1, a1, a3
    12ec: 33 06 d6 00  	add	a2, a2, a3

00000000000012f0 <.LBB20_3>:
    12f0: 93 36 17 00  	seqz	a3, a4
    12f4: 63 9c 06 02  	bnez	a3, 0x132c <.LBB20_8>

00000000000012f8 <.LBB20_4>:
    12f8: 57 77 35 05  	<unknown>
    12fc: e3 0a 07 fe  	beqz	a4, 0x12f0 <.LBB20_3>
    1300: 13 18 27 00  	slli	a6, a4, 2
    1304: e3 78 a8 fc  	bgeu	a6, a0, 0x12d4 <.LBB20_1>
    1308: 93 07 00 00  	mv	a5, zero

000000000000130c <.LBB20_7>:
    130c: b3 86 f5 00  	add	a3, a1, a5
    1310: 57 70 37 05  	<unknown>
    1314: 07 e4 16 0b  	<unknown>
    1318: b3 06 f6 00  	add	a3, a2, a5
    131c: 93 87 47 00  	addi	a5, a5, 4
    1320: 27 e4 16 0b  	<unknown>
    1324: e3 94 17 ff  	bne	a5, a7, 0x130c <.LBB20_7>
    1328: 6f f0 9f fb  	j	0x12e0 <.LBB20_2>

000000000000132c <.LBB20_8>:
    132c: 67 80 00 00  	ret

0000000000001330 <vector_memcpy_strided_e32mf2>:
    1330: 93 08 00 01  	addi	a7, zero, 16
    1334: 6f 00 80 02  	j	0x135c <.LBB21_4>

0000000000001338 <.LBB21_1>:
    1338: 87 ec 05 02  	<unknown>
    133c: a7 6c 06 02  	<unknown>
    1340: 13 08 07 00  	mv	a6, a4

0000000000001344 <.LBB21_2>:
    1344: 33 05 05 41  	sub	a0, a0, a6
    1348: 93 16 28 00  	slli	a3, a6, 2
    134c: b3 85 d5 00  	add	a1, a1, a3
    1350: 33 06 d6 00  	add	a2, a2, a3

0000000000001354 <.LBB21_3>:
    1354: 93 36 17 00  	seqz	a3, a4
    1358: 63 9c 06 02  	bnez	a3, 0x1390 <.LBB21_8>

000000000000135c <.LBB21_4>:
    135c: 57 77 75 05  	<unknown>
    1360: e3 0a 07 fe  	beqz	a4, 0x1354 <.LBB21_3>
    1364: 13 18 27 00  	slli	a6, a4, 2
    1368: e3 78 a8 fc  	bgeu	a6, a0, 0x1338 <.LBB21_1>
    136c: 93 07 00 00  	mv	a5, zero

0000000000001370 <.LBB21_7>:
    1370: b3 86 f5 00  	add	a3, a1, a5
    1374: 57 70 77 05  	<unknown>
    1378: 87 ec 16 0b  	<unknown>
    137c: b3 06 f6 00  	add	a3, a2, a5
    1380: 93 87 47 00  	addi	a5, a5, 4
    1384: a7 ec 16 0b  	<unknown>
    1388: e3 94 17 ff  	bne	a5, a7, 0x1370 <.LBB21_7>
    138c: 6f f0 9f fb  	j	0x1344 <.LBB21_2>

0000000000001390 <.LBB21_8>:
    1390: 67 80 00 00  	ret

0000000000001394 <vector_memcpy_strided_e64m2>:
    1394: 93 08 00 02  	addi	a7, zero, 32
    1398: 6f 00 80 02  	j	0x13c0 <.LBB22_4>

000000000000139c <.LBB22_1>:
    139c: 07 fd 05 02  	<unknown>
    13a0: 27 7d 06 02  	<unknown>
    13a4: 13 08 07 00  	mv	a6, a4

00000000000013a8 <.LBB22_2>:
    13a8: 33 05 05 41  	sub	a0, a0, a6
    13ac: 93 16 38 00  	slli	a3, a6, 3
    13b0: b3 85 d5 00  	add	a1, a1, a3
    13b4: 33 06 d6 00  	add	a2, a2, a3

00000000000013b8 <.LBB22_3>:
    13b8: 93 36 17 00  	seqz	a3, a4
    13bc: 63 9c 06 02  	bnez	a3, 0x13f4 <.LBB22_8>

00000000000013c0 <.LBB22_4>:
    13c0: 57 77 95 05  	<unknown>
    13c4: e3 0a 07 fe  	beqz	a4, 0x13b8 <.LBB22_3>
    13c8: 13 18 27 00  	slli	a6, a4, 2
    13cc: e3 78 a8 fc  	bgeu	a6, a0, 0x139c <.LBB22_1>
    13d0: 93 07 00 00  	mv	a5, zero

00000000000013d4 <.LBB22_7>:
    13d4: b3 86 f5 00  	add	a3, a1, a5
    13d8: 57 70 97 05  	<unknown>
    13dc: 07 fd 16 0b  	<unknown>
    13e0: b3 06 f6 00  	add	a3, a2, a5
    13e4: 93 87 87 00  	addi	a5, a5, 8
    13e8: 27 fd 16 0b  	<unknown>
    13ec: e3 94 17 ff  	bne	a5, a7, 0x13d4 <.LBB22_7>
    13f0: 6f f0 9f fb  	j	0x13a8 <.LBB22_2>

00000000000013f4 <.LBB22_8>:
    13f4: 67 80 00 00  	ret

00000000000013f8 <vector_memcpy_indexed_e8m8>:
    13f8: 13 01 01 f4  	addi	sp, sp, -192
    13fc: 23 3c 11 0a  	sd	ra, 184(sp)
    1400: 23 38 81 0a  	sd	s0, 176(sp)
    1404: 23 34 91 0a  	sd	s1, 168(sp)
    1408: 23 30 21 0b  	sd	s2, 160(sp)
    140c: 23 3c 31 09  	sd	s3, 152(sp)
    1410: 23 38 41 09  	sd	s4, 144(sp)
    1414: 13 09 06 00  	mv	s2, a2
    1418: 93 84 05 00  	mv	s1, a1
    141c: 13 04 05 00  	mv	s0, a0
    1420: d7 79 30 04  	<unknown>
    1424: 13 05 01 01  	addi	a0, sp, 16
    1428: 13 06 00 08  	addi	a2, zero, 128
    142c: 13 0a 01 01  	addi	s4, sp, 16
    1430: 93 05 00 00  	mv	a1, zero
    1434: 97 f0 ff ff  	auipc	ra, 1048575
    1438: e7 80 00 be  	jalr	-1056(ra)
    143c: 63 8e 09 00  	beqz	s3, 0x1458 <.LBB23_3>
    1440: 13 05 00 00  	mv	a0, zero

0000000000001444 <.LBB23_2>:
    1444: 93 45 15 00  	xori	a1, a0, 1
    1448: 33 06 aa 00  	add	a2, s4, a0
    144c: 13 05 15 00  	addi	a0, a0, 1
    1450: 23 00 b6 00  	sb	a1, 0(a2)
    1454: e3 98 a9 fe  	bne	s3, a0, 0x1444 <.LBB23_2>

0000000000001458 <.LBB23_3>:
    1458: 57 f0 39 04  	<unknown>
    145c: 13 05 01 01  	addi	a0, sp, 16
    1460: 07 04 05 02  	<unknown>
    1464: 6f 00 00 02  	j	0x1484 <.LBB23_7>

0000000000001468 <.LBB23_4>:
    1468: 07 88 04 02  	<unknown>
    146c: 27 08 09 02  	<unknown>

0000000000001470 <.LBB23_5>:
    1470: b3 84 a4 00  	add	s1, s1, a0
    1474: 33 09 a9 00  	add	s2, s2, a0
    1478: 33 04 a4 40  	sub	s0, s0, a0

000000000000147c <.LBB23_6>:
    147c: 13 35 15 00  	seqz	a0, a0
    1480: 63 1e 05 00  	bnez	a0, 0x149c <.LBB23_10>

0000000000001484 <.LBB23_7>:
    1484: 57 75 34 04  	<unknown>
    1488: e3 0a 05 fe  	beqz	a0, 0x147c <.LBB23_6>
    148c: e3 1e 35 fd  	bne	a0, s3, 0x1468 <.LBB23_4>
    1490: 07 88 84 06  	<unknown>
    1494: 27 08 89 06  	<unknown>
    1498: 6f f0 9f fd  	j	0x1470 <.LBB23_5>

000000000000149c <.LBB23_10>:
    149c: 03 3a 01 09  	ld	s4, 144(sp)
    14a0: 83 39 81 09  	ld	s3, 152(sp)
    14a4: 03 39 01 0a  	ld	s2, 160(sp)
    14a8: 83 34 81 0a  	ld	s1, 168(sp)
    14ac: 03 34 01 0b  	ld	s0, 176(sp)
    14b0: 83 30 81 0b  	ld	ra, 184(sp)
    14b4: 13 01 01 0c  	addi	sp, sp, 192
    14b8: 67 80 00 00  	ret

00000000000014bc <vector_memcpy_indexed_e16m8>:
    14bc: 13 01 01 ec  	addi	sp, sp, -320
    14c0: 23 3c 11 12  	sd	ra, 312(sp)
    14c4: 23 38 81 12  	sd	s0, 304(sp)
    14c8: 23 34 91 12  	sd	s1, 296(sp)
    14cc: 23 30 21 13  	sd	s2, 288(sp)
    14d0: 23 3c 31 11  	sd	s3, 280(sp)
    14d4: 23 38 41 11  	sd	s4, 272(sp)
    14d8: 13 09 06 00  	mv	s2, a2
    14dc: 13 8a 05 00  	mv	s4, a1
    14e0: 13 04 05 00  	mv	s0, a0
    14e4: d7 79 b0 04  	<unknown>
    14e8: 13 05 01 01  	addi	a0, sp, 16
    14ec: 13 06 00 10  	addi	a2, zero, 256
    14f0: 93 04 01 01  	addi	s1, sp, 16
    14f4: 93 05 00 00  	mv	a1, zero
    14f8: 97 f0 ff ff  	auipc	ra, 1048575
    14fc: e7 80 c0 b1  	jalr	-1252(ra)
    1500: 63 80 09 02  	beqz	s3, 0x1520 <.LBB24_3>
    1504: 13 05 00 00  	mv	a0, zero

0000000000001508 <.LBB24_2>:
    1508: 93 15 15 00  	slli	a1, a0, 1
    150c: 93 c5 25 00  	xori	a1, a1, 2
    1510: 23 90 b4 00  	sh	a1, 0(s1)
    1514: 13 05 15 00  	addi	a0, a0, 1
    1518: 93 84 24 00  	addi	s1, s1, 2
    151c: e3 96 a9 fe  	bne	s3, a0, 0x1508 <.LBB24_2>

0000000000001520 <.LBB24_3>:
    1520: 57 f0 b9 04  	<unknown>
    1524: 13 05 01 01  	addi	a0, sp, 16
    1528: 07 54 05 02  	<unknown>
    152c: 6f 00 40 02  	j	0x1550 <.LBB24_7>

0000000000001530 <.LBB24_4>:
    1530: 07 58 0a 02  	<unknown>
    1534: 27 58 09 02  	<unknown>

0000000000001538 <.LBB24_5>:
    1538: 93 15 15 00  	slli	a1, a0, 1
    153c: 33 0a ba 00  	add	s4, s4, a1
    1540: 33 09 b9 00  	add	s2, s2, a1
    1544: 33 04 a4 40  	sub	s0, s0, a0

0000000000001548 <.LBB24_6>:
    1548: 13 35 15 00  	seqz	a0, a0
    154c: 63 1e 05 00  	bnez	a0, 0x1568 <.LBB24_10>

0000000000001550 <.LBB24_7>:
    1550: 57 75 b4 04  	<unknown>
    1554: e3 0a 05 fe  	beqz	a0, 0x1548 <.LBB24_6>
    1558: e3 1c 35 fd  	bne	a0, s3, 0x1530 <.LBB24_4>
    155c: 07 58 8a 06  	<unknown>
    1560: 27 58 89 06  	<unknown>
    1564: 6f f0 5f fd  	j	0x1538 <.LBB24_5>

0000000000001568 <.LBB24_10>:
    1568: 03 3a 01 11  	ld	s4, 272(sp)
    156c: 83 39 81 11  	ld	s3, 280(sp)
    1570: 03 39 01 12  	ld	s2, 288(sp)
    1574: 83 34 81 12  	ld	s1, 296(sp)
    1578: 03 34 01 13  	ld	s0, 304(sp)
    157c: 83 30 81 13  	ld	ra, 312(sp)
    1580: 13 01 01 14  	addi	sp, sp, 320
    1584: 67 80 00 00  	ret

0000000000001588 <vector_memcpy_indexed_e32m8>:
    1588: 13 01 01 dc  	addi	sp, sp, -576
    158c: 23 3c 11 22  	sd	ra, 568(sp)
    1590: 23 38 81 22  	sd	s0, 560(sp)
    1594: 23 34 91 22  	sd	s1, 552(sp)
    1598: 23 30 21 23  	sd	s2, 544(sp)
    159c: 23 3c 31 21  	sd	s3, 536(sp)
    15a0: 23 38 41 21  	sd	s4, 528(sp)
    15a4: 13 09 06 00  	mv	s2, a2
    15a8: 13 8a 05 00  	mv	s4, a1
    15ac: 13 04 05 00  	mv	s0, a0
    15b0: d7 79 30 05  	<unknown>
    15b4: 13 05 01 01  	addi	a0, sp, 16
    15b8: 13 06 00 20  	addi	a2, zero, 512
    15bc: 93 04 01 01  	addi	s1, sp, 16
    15c0: 93 05 00 00  	mv	a1, zero
    15c4: 97 f0 ff ff  	auipc	ra, 1048575
    15c8: e7 80 00 a5  	jalr	-1456(ra)
    15cc: 63 80 09 02  	beqz	s3, 0x15ec <.LBB25_3>
    15d0: 13 05 00 00  	mv	a0, zero

00000000000015d4 <.LBB25_2>:
    15d4: 93 15 25 00  	slli	a1, a0, 2
    15d8: 93 c5 45 00  	xori	a1, a1, 4
    15dc: 23 a0 b4 00  	sw	a1, 0(s1)
    15e0: 13 05 15 00  	addi	a0, a0, 1
    15e4: 93 84 44 00  	addi	s1, s1, 4
    15e8: e3 96 a9 fe  	bne	s3, a0, 0x15d4 <.LBB25_2>

00000000000015ec <.LBB25_3>:
    15ec: 57 f0 39 05  	<unknown>
    15f0: 13 05 01 01  	addi	a0, sp, 16
    15f4: 07 64 05 02  	<unknown>
    15f8: 6f 00 40 02  	j	0x161c <.LBB25_7>

00000000000015fc <.LBB25_4>:
    15fc: 07 68 0a 02  	<unknown>
    1600: 27 68 09 02  	<unknown>

0000000000001604 <.LBB25_5>:
    1604: 93 15 25 00  	slli	a1, a0, 2
    1608: 33 0a ba 00  	add	s4, s4, a1
    160c: 33 09 b9 00  	add	s2, s2, a1
    1610: 33 04 a4 40  	sub	s0, s0, a0

0000000000001614 <.LBB25_6>:
    1614: 13 35 15 00  	seqz	a0, a0
    1618: 63 1e 05 00  	bnez	a0, 0x1634 <.LBB25_10>

000000000000161c <.LBB25_7>:
    161c: 57 75 34 05  	<unknown>
    1620: e3 0a 05 fe  	beqz	a0, 0x1614 <.LBB25_6>
    1624: e3 1c 35 fd  	bne	a0, s3, 0x15fc <.LBB25_4>
    1628: 07 68 8a 06  	<unknown>
    162c: 27 68 89 06  	<unknown>
    1630: 6f f0 5f fd  	j	0x1604 <.LBB25_5>

0000000000001634 <.LBB25_10>:
    1634: 03 3a 01 21  	ld	s4, 528(sp)
    1638: 83 39 81 21  	ld	s3, 536(sp)
    163c: 03 39 01 22  	ld	s2, 544(sp)
    1640: 83 34 81 22  	ld	s1, 552(sp)
    1644: 03 34 01 23  	ld	s0, 560(sp)
    1648: 83 30 81 23  	ld	ra, 568(sp)
    164c: 13 01 01 24  	addi	sp, sp, 576
    1650: 67 80 00 00  	ret

0000000000001654 <vector_memcpy_indexed_e32mf2>:
    1654: 13 01 01 dc  	addi	sp, sp, -576
    1658: 23 3c 11 22  	sd	ra, 568(sp)
    165c: 23 38 81 22  	sd	s0, 560(sp)
    1660: 23 34 91 22  	sd	s1, 552(sp)
    1664: 23 30 21 23  	sd	s2, 544(sp)
    1668: 23 3c 31 21  	sd	s3, 536(sp)
    166c: 23 38 41 21  	sd	s4, 528(sp)
    1670: 13 09 06 00  	mv	s2, a2
    1674: 13 8a 05 00  	mv	s4, a1
    1678: 13 04 05 00  	mv	s0, a0
    167c: d7 79 70 05  	<unknown>
    1680: 13 05 01 01  	addi	a0, sp, 16
    1684: 13 06 00 20  	addi	a2, zero, 512
    1688: 93 04 01 01  	addi	s1, sp, 16
    168c: 93 05 00 00  	mv	a1, zero
    1690: 97 f0 ff ff  	auipc	ra, 1048575
    1694: e7 80 40 98  	jalr	-1660(ra)
    1698: 63 80 09 02  	beqz	s3, 0x16b8 <.LBB26_3>
    169c: 13 05 00 00  	mv	a0, zero

00000000000016a0 <.LBB26_2>:
    16a0: 93 15 25 00  	slli	a1, a0, 2
    16a4: 93 c5 45 00  	xori	a1, a1, 4
    16a8: 23 a0 b4 00  	sw	a1, 0(s1)
    16ac: 13 05 15 00  	addi	a0, a0, 1
    16b0: 93 84 44 00  	addi	s1, s1, 4
    16b4: e3 96 a9 fe  	bne	s3, a0, 0x16a0 <.LBB26_2>

00000000000016b8 <.LBB26_3>:
    16b8: 57 f0 79 05  	<unknown>
    16bc: 13 05 01 01  	addi	a0, sp, 16
    16c0: 87 6c 05 02  	<unknown>
    16c4: 6f 00 40 02  	j	0x16e8 <.LBB26_7>

00000000000016c8 <.LBB26_4>:
    16c8: 07 6d 0a 02  	<unknown>
    16cc: 27 6d 09 02  	<unknown>

00000000000016d0 <.LBB26_5>:
    16d0: 93 15 25 00  	slli	a1, a0, 2
    16d4: 33 0a ba 00  	add	s4, s4, a1
    16d8: 33 09 b9 00  	add	s2, s2, a1
    16dc: 33 04 a4 40  	sub	s0, s0, a0

00000000000016e0 <.LBB26_6>:
    16e0: 13 35 15 00  	seqz	a0, a0
    16e4: 63 1e 05 00  	bnez	a0, 0x1700 <.LBB26_10>

00000000000016e8 <.LBB26_7>:
    16e8: 57 75 74 05  	<unknown>
    16ec: e3 0a 05 fe  	beqz	a0, 0x16e0 <.LBB26_6>
    16f0: e3 1c 35 fd  	bne	a0, s3, 0x16c8 <.LBB26_4>
    16f4: 07 6d 9a 07  	<unknown>
    16f8: 27 6d 99 07  	<unknown>
    16fc: 6f f0 5f fd  	j	0x16d0 <.LBB26_5>

0000000000001700 <.LBB26_10>:
    1700: 03 3a 01 21  	ld	s4, 528(sp)
    1704: 83 39 81 21  	ld	s3, 536(sp)
    1708: 03 39 01 22  	ld	s2, 544(sp)
    170c: 83 34 81 22  	ld	s1, 552(sp)
    1710: 03 34 01 23  	ld	s0, 560(sp)
    1714: 83 30 81 23  	ld	ra, 568(sp)
    1718: 13 01 01 24  	addi	sp, sp, 576
    171c: 67 80 00 00  	ret

0000000000001720 <vector_memcpy_indexed_e64m2>:
    1720: 13 01 01 bc  	addi	sp, sp, -1088
    1724: 23 3c 11 42  	sd	ra, 1080(sp)
    1728: 23 38 81 42  	sd	s0, 1072(sp)
    172c: 23 34 91 42  	sd	s1, 1064(sp)
    1730: 23 30 21 43  	sd	s2, 1056(sp)
    1734: 23 3c 31 41  	sd	s3, 1048(sp)
    1738: 23 38 41 41  	sd	s4, 1040(sp)
    173c: 13 09 06 00  	mv	s2, a2
    1740: 93 84 05 00  	mv	s1, a1
    1744: 13 04 05 00  	mv	s0, a0
    1748: d7 79 90 05  	<unknown>
    174c: 13 05 01 01  	addi	a0, sp, 16
    1750: 13 06 00 40  	addi	a2, zero, 1024
    1754: 13 0a 01 01  	addi	s4, sp, 16
    1758: 93 05 00 00  	mv	a1, zero
    175c: 97 f0 ff ff  	auipc	ra, 1048575
    1760: e7 80 80 8b  	jalr	-1864(ra)
    1764: 63 80 09 02  	beqz	s3, 0x1784 <.LBB27_3>
    1768: 13 05 00 00  	mv	a0, zero
    176c: 93 95 39 00  	slli	a1, s3, 3

0000000000001770 <.LBB27_2>:
    1770: 13 46 85 00  	xori	a2, a0, 8
    1774: b3 06 aa 00  	add	a3, s4, a0
    1778: 13 05 85 00  	addi	a0, a0, 8
    177c: 23 b0 c6 00  	sd	a2, 0(a3)
    1780: e3 98 a5 fe  	bne	a1, a0, 0x1770 <.LBB27_2>

0000000000001784 <.LBB27_3>:
    1784: 57 f0 99 05  	<unknown>
    1788: 13 05 01 01  	addi	a0, sp, 16
    178c: 07 7d 05 02  	<unknown>
    1790: 6f 00 40 02  	j	0x17b4 <.LBB27_7>

0000000000001794 <.LBB27_4>:
    1794: 07 fe 04 02  	<unknown>
    1798: 27 7e 09 02  	<unknown>

000000000000179c <.LBB27_5>:
    179c: 93 15 35 00  	slli	a1, a0, 3
    17a0: b3 84 b4 00  	add	s1, s1, a1
    17a4: 33 09 b9 00  	add	s2, s2, a1
    17a8: 33 04 a4 40  	sub	s0, s0, a0

00000000000017ac <.LBB27_6>:
    17ac: 13 35 15 00  	seqz	a0, a0
    17b0: 63 1e 05 00  	bnez	a0, 0x17cc <.LBB27_10>

00000000000017b4 <.LBB27_7>:
    17b4: 57 75 94 05  	<unknown>
    17b8: e3 0a 05 fe  	beqz	a0, 0x17ac <.LBB27_6>
    17bc: e3 1c 35 fd  	bne	a0, s3, 0x1794 <.LBB27_4>
    17c0: 07 fe a4 07  	<unknown>
    17c4: 27 7e a9 07  	<unknown>
    17c8: 6f f0 5f fd  	j	0x179c <.LBB27_5>

00000000000017cc <.LBB27_10>:
    17cc: 03 3a 01 41  	ld	s4, 1040(sp)
    17d0: 83 39 81 41  	ld	s3, 1048(sp)
    17d4: 03 39 01 42  	ld	s2, 1056(sp)
    17d8: 83 34 81 42  	ld	s1, 1064(sp)
    17dc: 03 34 01 43  	ld	s0, 1072(sp)
    17e0: 83 30 81 43  	ld	ra, 1080(sp)
    17e4: 13 01 01 44  	addi	sp, sp, 1088
    17e8: 67 80 00 00  	ret

00000000000017ec <vector_memcpy_masked_e32m8>:
    17ec: 13 01 01 dd  	addi	sp, sp, -560
    17f0: 23 34 11 22  	sd	ra, 552(sp)
    17f4: 23 30 81 22  	sd	s0, 544(sp)
    17f8: 23 3c 91 20  	sd	s1, 536(sp)
    17fc: 23 38 21 21  	sd	s2, 528(sp)
    1800: 23 34 31 21  	sd	s3, 520(sp)
    1804: 13 09 06 00  	mv	s2, a2
    1808: 93 89 05 00  	mv	s3, a1
    180c: 13 04 05 00  	mv	s0, a0
    1810: 13 05 81 00  	addi	a0, sp, 8
    1814: 13 06 00 20  	addi	a2, zero, 512
    1818: 93 04 81 00  	addi	s1, sp, 8
    181c: 93 05 00 00  	mv	a1, zero
    1820: 97 e0 ff ff  	auipc	ra, 1048574
    1824: e7 80 40 7f  	jalr	2036(ra)
    1828: 57 75 30 05  	<unknown>
    182c: 63 0e 05 00  	beqz	a0, 0x1848 <.LBB28_3>
    1830: 93 05 00 00  	mv	a1, zero

0000000000001834 <.LBB28_2>:
    1834: 13 f6 15 00  	andi	a2, a1, 1
    1838: 23 a0 c4 00  	sw	a2, 0(s1)
    183c: 93 85 15 00  	addi	a1, a1, 1
    1840: 93 84 44 00  	addi	s1, s1, 4
    1844: e3 18 b5 fe  	bne	a0, a1, 0x1834 <.LBB28_2>

0000000000001848 <.LBB28_3>:
    1848: 13 05 81 00  	addi	a0, sp, 8
    184c: 07 64 05 02  	<unknown>
    1850: 57 b0 80 62  	<unknown>
    1854: 6f 00 c0 00  	j	0x1860 <.LBB28_5>

0000000000001858 <.LBB28_4>:
    1858: 13 35 15 00  	seqz	a0, a0
    185c: 63 18 05 02  	bnez	a0, 0x188c <.LBB28_7>

0000000000001860 <.LBB28_5>:
    1860: 57 75 34 05  	<unknown>
    1864: e3 0a 05 fe  	beqz	a0, 0x1858 <.LBB28_4>
    1868: 57 70 35 01  	<unknown>
    186c: 07 e4 09 00  	<unknown>
    1870: 57 70 30 05  	<unknown>
    1874: 27 64 09 00  	<unknown>
    1878: 93 15 25 00  	slli	a1, a0, 2
    187c: b3 89 b9 00  	add	s3, s3, a1
    1880: 33 09 b9 00  	add	s2, s2, a1
    1884: 33 04 a4 40  	sub	s0, s0, a0
    1888: 6f f0 1f fd  	j	0x1858 <.LBB28_4>

000000000000188c <.LBB28_7>:
    188c: 83 39 81 20  	ld	s3, 520(sp)
    1890: 03 39 01 21  	ld	s2, 528(sp)
    1894: 83 34 81 21  	ld	s1, 536(sp)
    1898: 03 34 01 22  	ld	s0, 544(sp)
    189c: 83 30 81 22  	ld	ra, 552(sp)
    18a0: 13 01 01 23  	addi	sp, sp, 560
    18a4: 67 80 00 00  	ret

00000000000018a8 <vector_memcpy_segmented_e8m2>:
    18a8: 93 08 00 02  	addi	a7, zero, 32
    18ac: 6f 00 c0 00  	j	0x18b8 <.LBB29_2>

00000000000018b0 <.LBB29_1>:
    18b0: 93 b6 12 00  	seqz	a3, t0
    18b4: 63 9e 06 04  	bnez	a3, 0x1910 <.LBB29_6>

00000000000018b8 <.LBB29_2>:
    18b8: d7 72 15 04  	<unknown>
    18bc: e3 8a 02 fe  	beqz	t0, 0x18b0 <.LBB29_1>
    18c0: 07 80 05 62  	<unknown>
    18c4: 83 37 06 00  	ld	a5, 0(a2)
    18c8: 27 80 07 02  	<unknown>
    18cc: 83 37 86 00  	ld	a5, 8(a2)
    18d0: 27 81 07 02  	<unknown>
    18d4: 83 37 06 01  	ld	a5, 16(a2)
    18d8: 27 82 07 02  	<unknown>
    18dc: 03 38 86 01  	ld	a6, 24(a2)
    18e0: 93 07 00 00  	mv	a5, zero
    18e4: 27 03 08 02  	<unknown>
    18e8: 13 98 22 00  	slli	a6, t0, 2

00000000000018ec <.LBB29_4>:
    18ec: b3 06 f6 00  	add	a3, a2, a5
    18f0: 03 b7 06 00  	ld	a4, 0(a3)
    18f4: 33 07 57 00  	add	a4, a4, t0
    18f8: 93 87 87 00  	addi	a5, a5, 8
    18fc: 23 b0 e6 00  	sd	a4, 0(a3)
    1900: e3 96 17 ff  	bne	a5, a7, 0x18ec <.LBB29_4>
    1904: b3 85 05 01  	add	a1, a1, a6
    1908: 33 05 55 40  	sub	a0, a0, t0
    190c: 6f f0 5f fa  	j	0x18b0 <.LBB29_1>

0000000000001910 <.LBB29_6>:
    1910: 67 80 00 00  	ret

0000000000001914 <vector_memcpy_segmented_e16m2>:
    1914: 93 08 00 02  	addi	a7, zero, 32
    1918: 6f 00 c0 00  	j	0x1924 <.LBB30_2>

000000000000191c <.LBB30_1>:
    191c: 93 b6 12 00  	seqz	a3, t0
    1920: 63 92 06 06  	bnez	a3, 0x1984 <.LBB30_6>

0000000000001924 <.LBB30_2>:
    1924: d7 72 95 04  	<unknown>
    1928: e3 8a 02 fe  	beqz	t0, 0x191c <.LBB30_1>
    192c: 07 d0 05 62  	<unknown>
    1930: 83 37 06 00  	ld	a5, 0(a2)
    1934: 27 d0 07 02  	<unknown>
    1938: 83 37 86 00  	ld	a5, 8(a2)
    193c: 27 d1 07 02  	<unknown>
    1940: 83 37 06 01  	ld	a5, 16(a2)
    1944: 27 d2 07 02  	<unknown>
    1948: 03 38 86 01  	ld	a6, 24(a2)
    194c: 93 07 00 00  	mv	a5, zero
    1950: 27 53 08 02  	<unknown>
    1954: 13 98 22 00  	slli	a6, t0, 2

0000000000001958 <.LBB30_4>:
    1958: b3 06 f6 00  	add	a3, a2, a5
    195c: 03 b3 06 00  	ld	t1, 0(a3)
    1960: 13 97 12 00  	slli	a4, t0, 1
    1964: 33 07 e3 00  	add	a4, t1, a4
    1968: 93 87 87 00  	addi	a5, a5, 8
    196c: 23 b0 e6 00  	sd	a4, 0(a3)
    1970: e3 94 17 ff  	bne	a5, a7, 0x1958 <.LBB30_4>
    1974: 93 17 18 00  	slli	a5, a6, 1
    1978: b3 85 f5 00  	add	a1, a1, a5
    197c: 33 05 55 40  	sub	a0, a0, t0
    1980: 6f f0 df f9  	j	0x191c <.LBB30_1>

0000000000001984 <.LBB30_6>:
    1984: 67 80 00 00  	ret

0000000000001988 <vector_memcpy_segmented_e32m2>:
    1988: 93 08 00 02  	addi	a7, zero, 32
    198c: 6f 00 c0 00  	j	0x1998 <.LBB31_2>

0000000000001990 <.LBB31_1>:
    1990: 93 36 18 00  	seqz	a3, a6
    1994: 63 90 06 06  	bnez	a3, 0x19f4 <.LBB31_6>

0000000000001998 <.LBB31_2>:
    1998: 57 78 15 05  	<unknown>
    199c: e3 0a 08 fe  	beqz	a6, 0x1990 <.LBB31_1>
    19a0: 07 e0 05 62  	<unknown>
    19a4: 03 37 06 00  	ld	a4, 0(a2)
    19a8: 27 60 07 02  	<unknown>
    19ac: 03 37 86 00  	ld	a4, 8(a2)
    19b0: 27 61 07 02  	<unknown>
    19b4: 03 37 06 01  	ld	a4, 16(a2)
    19b8: 27 62 07 02  	<unknown>
    19bc: 83 37 86 01  	ld	a5, 24(a2)
    19c0: 13 07 00 00  	mv	a4, zero
    19c4: 27 e3 07 02  	<unknown>
    19c8: 93 12 28 00  	slli	t0, a6, 2

00000000000019cc <.LBB31_4>:
    19cc: b3 06 e6 00  	add	a3, a2, a4
    19d0: 83 b7 06 00  	ld	a5, 0(a3)
    19d4: b3 87 57 00  	add	a5, a5, t0
    19d8: 13 07 87 00  	addi	a4, a4, 8
    19dc: 23 b0 f6 00  	sd	a5, 0(a3)
    19e0: e3 16 17 ff  	bne	a4, a7, 0x19cc <.LBB31_4>
    19e4: 13 97 22 00  	slli	a4, t0, 2
    19e8: b3 85 e5 00  	add	a1, a1, a4
    19ec: 33 05 05 41  	sub	a0, a0, a6
    19f0: 6f f0 1f fa  	j	0x1990 <.LBB31_1>

00000000000019f4 <.LBB31_6>:
    19f4: 67 80 00 00  	ret

00000000000019f8 <vector_memcpy_segmented_e32mf2>:
    19f8: 93 08 00 02  	addi	a7, zero, 32
    19fc: 6f 00 c0 00  	j	0x1a08 <.LBB32_2>

0000000000001a00 <.LBB32_1>:
    1a00: 93 36 18 00  	seqz	a3, a6
    1a04: 63 90 06 06  	bnez	a3, 0x1a64 <.LBB32_6>

0000000000001a08 <.LBB32_2>:
    1a08: 57 78 75 05  	<unknown>
    1a0c: e3 0a 08 fe  	beqz	a6, 0x1a00 <.LBB32_1>
    1a10: 07 e0 05 62  	<unknown>
    1a14: 03 37 06 00  	ld	a4, 0(a2)
    1a18: 27 60 07 02  	<unknown>
    1a1c: 03 37 86 00  	ld	a4, 8(a2)
    1a20: a7 60 07 02  	<unknown>
    1a24: 03 37 06 01  	ld	a4, 16(a2)
    1a28: 27 61 07 02  	<unknown>
    1a2c: 83 37 86 01  	ld	a5, 24(a2)
    1a30: 13 07 00 00  	mv	a4, zero
    1a34: a7 e1 07 02  	<unknown>
    1a38: 93 12 28 00  	slli	t0, a6, 2

0000000000001a3c <.LBB32_4>:
    1a3c: b3 06 e6 00  	add	a3, a2, a4
    1a40: 83 b7 06 00  	ld	a5, 0(a3)
    1a44: b3 87 57 00  	add	a5, a5, t0
    1a48: 13 07 87 00  	addi	a4, a4, 8
    1a4c: 23 b0 f6 00  	sd	a5, 0(a3)
    1a50: e3 16 17 ff  	bne	a4, a7, 0x1a3c <.LBB32_4>
    1a54: 13 97 22 00  	slli	a4, t0, 2
    1a58: b3 85 e5 00  	add	a1, a1, a4
    1a5c: 33 05 05 41  	sub	a0, a0, a6
    1a60: 6f f0 1f fa  	j	0x1a00 <.LBB32_1>

0000000000001a64 <.LBB32_6>:
    1a64: 67 80 00 00  	ret

0000000000001a68 <vector_memcpy_segmented_e64m2>:
    1a68: 93 08 00 02  	addi	a7, zero, 32
    1a6c: 6f 00 c0 00  	j	0x1a78 <.LBB33_2>

0000000000001a70 <.LBB33_1>:
    1a70: 93 b6 12 00  	seqz	a3, t0
    1a74: 63 92 06 06  	bnez	a3, 0x1ad8 <.LBB33_6>

0000000000001a78 <.LBB33_2>:
    1a78: d7 72 95 05  	<unknown>
    1a7c: e3 8a 02 fe  	beqz	t0, 0x1a70 <.LBB33_1>
    1a80: 07 f0 05 62  	<unknown>
    1a84: 83 37 06 00  	ld	a5, 0(a2)
    1a88: 27 f0 07 02  	<unknown>
    1a8c: 83 37 86 00  	ld	a5, 8(a2)
    1a90: 27 f1 07 02  	<unknown>
    1a94: 83 37 06 01  	ld	a5, 16(a2)
    1a98: 27 f2 07 02  	<unknown>
    1a9c: 03 38 86 01  	ld	a6, 24(a2)
    1aa0: 93 07 00 00  	mv	a5, zero
    1aa4: 27 73 08 02  	<unknown>
    1aa8: 13 98 22 00  	slli	a6, t0, 2

0000000000001aac <.LBB33_4>:
    1aac: b3 06 f6 00  	add	a3, a2, a5
    1ab0: 03 b3 06 00  	ld	t1, 0(a3)
    1ab4: 13 97 32 00  	slli	a4, t0, 3
    1ab8: 33 07 e3 00  	add	a4, t1, a4
    1abc: 93 87 87 00  	addi	a5, a5, 8
    1ac0: 23 b0 e6 00  	sd	a4, 0(a3)
    1ac4: e3 94 17 ff  	bne	a5, a7, 0x1aac <.LBB33_4>
    1ac8: 93 17 38 00  	slli	a5, a6, 3
    1acc: b3 85 f5 00  	add	a1, a1, a5
    1ad0: 33 05 55 40  	sub	a0, a0, t0
    1ad4: 6f f0 df f9  	j	0x1a70 <.LBB33_1>

0000000000001ad8 <.LBB33_6>:
    1ad8: 67 80 00 00  	ret

0000000000001adc <vector_memcpy_wholereg_e64m1>:
    1adc: d7 76 80 05  	<unknown>
    1ae0: 6f 00 40 02  	j	0x1b04 <.LBB34_4>

0000000000001ae4 <.LBB34_1>:
    1ae4: 87 fc 05 02  	<unknown>
    1ae8: a7 7c 06 02  	<unknown>

0000000000001aec <.LBB34_2>:
    1aec: 93 17 37 00  	slli	a5, a4, 3
    1af0: b3 85 f5 00  	add	a1, a1, a5
    1af4: 33 06 f6 00  	add	a2, a2, a5
    1af8: 33 05 e5 40  	sub	a0, a0, a4

0000000000001afc <.LBB34_3>:
    1afc: 13 37 17 00  	seqz	a4, a4
    1b00: 63 1e 07 00  	bnez	a4, 0x1b1c <.LBB34_7>

0000000000001b04 <.LBB34_4>:
    1b04: 57 77 85 05  	<unknown>
    1b08: e3 0a 07 fe  	beqz	a4, 0x1afc <.LBB34_3>
    1b0c: e3 1c d7 fc  	bne	a4, a3, 0x1ae4 <.LBB34_1>
    1b10: 87 8c 85 02  	<unknown>
    1b14: a7 0c 86 02  	<unknown>
    1b18: 6f f0 5f fd  	j	0x1aec <.LBB34_2>

0000000000001b1c <.LBB34_7>:
    1b1c: 67 80 00 00  	ret

0000000000001b20 <vector_memcpy_wholereg_e64m2>:
    1b20: d7 76 90 05  	<unknown>
    1b24: 6f 00 40 02  	j	0x1b48 <.LBB35_4>

0000000000001b28 <.LBB35_1>:
    1b28: 07 fd 05 02  	<unknown>
    1b2c: 27 7d 06 02  	<unknown>

0000000000001b30 <.LBB35_2>:
    1b30: 93 17 37 00  	slli	a5, a4, 3
    1b34: b3 85 f5 00  	add	a1, a1, a5
    1b38: 33 06 f6 00  	add	a2, a2, a5
    1b3c: 33 05 e5 40  	sub	a0, a0, a4

0000000000001b40 <.LBB35_3>:
    1b40: 13 37 17 00  	seqz	a4, a4
    1b44: 63 1e 07 00  	bnez	a4, 0x1b60 <.LBB35_7>

0000000000001b48 <.LBB35_4>:
    1b48: 57 77 95 05  	<unknown>
    1b4c: e3 0a 07 fe  	beqz	a4, 0x1b40 <.LBB35_3>
    1b50: e3 1c d7 fc  	bne	a4, a3, 0x1b28 <.LBB35_1>
    1b54: 07 8d 85 22  	<unknown>
    1b58: 27 0d 86 22  	<unknown>
    1b5c: 6f f0 5f fd  	j	0x1b30 <.LBB35_2>

0000000000001b60 <.LBB35_7>:
    1b60: 67 80 00 00  	ret

0000000000001b64 <vector_memcpy_wholereg_e64m4>:
    1b64: d7 76 a0 05  	<unknown>
    1b68: 6f 00 40 02  	j	0x1b8c <.LBB36_4>

0000000000001b6c <.LBB36_1>:
    1b6c: 07 fe 05 02  	<unknown>
    1b70: 27 7e 06 02  	<unknown>

0000000000001b74 <.LBB36_2>:
    1b74: 93 17 37 00  	slli	a5, a4, 3
    1b78: b3 85 f5 00  	add	a1, a1, a5
    1b7c: 33 06 f6 00  	add	a2, a2, a5
    1b80: 33 05 e5 40  	sub	a0, a0, a4

0000000000001b84 <.LBB36_3>:
    1b84: 13 37 17 00  	seqz	a4, a4
    1b88: 63 1e 07 00  	bnez	a4, 0x1ba4 <.LBB36_7>

0000000000001b8c <.LBB36_4>:
    1b8c: 57 77 a5 05  	<unknown>
    1b90: e3 0a 07 fe  	beqz	a4, 0x1b84 <.LBB36_3>
    1b94: e3 1c d7 fc  	bne	a4, a3, 0x1b6c <.LBB36_1>
    1b98: 07 8e 85 62  	<unknown>
    1b9c: 27 0e 86 62  	<unknown>
    1ba0: 6f f0 5f fd  	j	0x1b74 <.LBB36_2>

0000000000001ba4 <.LBB36_7>:
    1ba4: 67 80 00 00  	ret

0000000000001ba8 <vector_memcpy_wholereg_e64m8>:
    1ba8: d7 76 b0 05  	<unknown>
    1bac: 6f 00 40 02  	j	0x1bd0 <.LBB37_4>

0000000000001bb0 <.LBB37_1>:
    1bb0: 07 f4 05 02  	<unknown>
    1bb4: 27 74 06 02  	<unknown>

0000000000001bb8 <.LBB37_2>:
    1bb8: 93 17 37 00  	slli	a5, a4, 3
    1bbc: b3 85 f5 00  	add	a1, a1, a5
    1bc0: 33 06 f6 00  	add	a2, a2, a5
    1bc4: 33 05 e5 40  	sub	a0, a0, a4

0000000000001bc8 <.LBB37_3>:
    1bc8: 13 37 17 00  	seqz	a4, a4
    1bcc: 63 1e 07 00  	bnez	a4, 0x1be8 <.LBB37_7>

0000000000001bd0 <.LBB37_4>:
    1bd0: 57 77 b5 05  	<unknown>
    1bd4: e3 0a 07 fe  	beqz	a4, 0x1bc8 <.LBB37_3>
    1bd8: e3 1c d7 fc  	bne	a4, a3, 0x1bb0 <.LBB37_1>
    1bdc: 07 84 85 e2  	<unknown>
    1be0: 27 04 86 e2  	<unknown>
    1be4: 6f f0 5f fd  	j	0x1bb8 <.LBB37_2>

0000000000001be8 <.LBB37_7>:
    1be8: 67 80 00 00  	ret

0000000000001bec <vector_memcpy_unit_stride_faultonlyfirst_e8m8>:
    1bec: 6f 00 c0 00  	j	0x1bf8 <.LBB38_2>

0000000000001bf0 <.LBB38_1>:
    1bf0: 93 06 00 00  	mv	a3, zero
    1bf4: 63 8a 06 02  	beqz	a3, 0x1c28 <.LBB38_5>

0000000000001bf8 <.LBB38_2>:
    1bf8: d7 76 35 04  	<unknown>
    1bfc: e3 8a 06 fe  	beqz	a3, 0x1bf0 <.LBB38_1>
    1c00: 07 84 05 03  	<unknown>
    1c04: 73 27 00 c2  	csrr	a4, vl
    1c08: e3 14 d7 fe  	bne	a4, a3, 0x1bf0 <.LBB38_1>
    1c0c: 57 f0 36 04  	<unknown>
    1c10: 27 04 06 02  	<unknown>
    1c14: b3 85 d5 00  	add	a1, a1, a3
    1c18: 33 06 d6 00  	add	a2, a2, a3
    1c1c: 33 05 d5 40  	sub	a0, a0, a3
    1c20: 93 06 10 00  	addi	a3, zero, 1
    1c24: e3 9a 06 fc  	bnez	a3, 0x1bf8 <.LBB38_2>

0000000000001c28 <.LBB38_5>:
    1c28: 67 80 00 00  	ret

0000000000001c2c <vector_memcpy_unit_stride_faultonlyfirst_e16m8>:
    1c2c: 6f 00 c0 00  	j	0x1c38 <.LBB39_2>

0000000000001c30 <.LBB39_1>:
    1c30: 93 06 00 00  	mv	a3, zero
    1c34: 63 8c 06 02  	beqz	a3, 0x1c6c <.LBB39_5>

0000000000001c38 <.LBB39_2>:
    1c38: d7 76 b5 04  	<unknown>
    1c3c: e3 8a 06 fe  	beqz	a3, 0x1c30 <.LBB39_1>
    1c40: 07 d4 05 03  	<unknown>
    1c44: 73 27 00 c2  	csrr	a4, vl
    1c48: e3 14 d7 fe  	bne	a4, a3, 0x1c30 <.LBB39_1>
    1c4c: 57 f0 b6 04  	<unknown>
    1c50: 27 54 06 02  	<unknown>
    1c54: 13 97 16 00  	slli	a4, a3, 1
    1c58: b3 85 e5 00  	add	a1, a1, a4
    1c5c: 33 06 e6 00  	add	a2, a2, a4
    1c60: 33 05 d5 40  	sub	a0, a0, a3
    1c64: 93 06 10 00  	addi	a3, zero, 1
    1c68: e3 98 06 fc  	bnez	a3, 0x1c38 <.LBB39_2>

0000000000001c6c <.LBB39_5>:
    1c6c: 67 80 00 00  	ret

0000000000001c70 <vector_memcpy_unit_stride_faultonlyfirst_e32m8>:
    1c70: 6f 00 c0 00  	j	0x1c7c <.LBB40_2>

0000000000001c74 <.LBB40_1>:
    1c74: 93 06 00 00  	mv	a3, zero
    1c78: 63 8c 06 02  	beqz	a3, 0x1cb0 <.LBB40_5>

0000000000001c7c <.LBB40_2>:
    1c7c: d7 76 35 05  	<unknown>
    1c80: e3 8a 06 fe  	beqz	a3, 0x1c74 <.LBB40_1>
    1c84: 07 e4 05 03  	<unknown>
    1c88: 73 27 00 c2  	csrr	a4, vl
    1c8c: e3 14 d7 fe  	bne	a4, a3, 0x1c74 <.LBB40_1>
    1c90: 57 f0 36 05  	<unknown>
    1c94: 27 64 06 02  	<unknown>
    1c98: 13 97 26 00  	slli	a4, a3, 2
    1c9c: b3 85 e5 00  	add	a1, a1, a4
    1ca0: 33 06 e6 00  	add	a2, a2, a4
    1ca4: 33 05 d5 40  	sub	a0, a0, a3
    1ca8: 93 06 10 00  	addi	a3, zero, 1
    1cac: e3 98 06 fc  	bnez	a3, 0x1c7c <.LBB40_2>

0000000000001cb0 <.LBB40_5>:
    1cb0: 67 80 00 00  	ret

0000000000001cb4 <vector_memcpy_unit_stride_faultonlyfirst_e32mf2>:
    1cb4: 6f 00 c0 00  	j	0x1cc0 <.LBB41_2>

0000000000001cb8 <.LBB41_1>:
    1cb8: 93 06 00 00  	mv	a3, zero
    1cbc: 63 8c 06 02  	beqz	a3, 0x1cf4 <.LBB41_5>

0000000000001cc0 <.LBB41_2>:
    1cc0: d7 76 75 05  	<unknown>
    1cc4: e3 8a 06 fe  	beqz	a3, 0x1cb8 <.LBB41_1>
    1cc8: 87 ec 05 03  	<unknown>
    1ccc: 73 27 00 c2  	csrr	a4, vl
    1cd0: e3 14 d7 fe  	bne	a4, a3, 0x1cb8 <.LBB41_1>
    1cd4: 57 f0 76 05  	<unknown>
    1cd8: a7 6c 06 02  	<unknown>
    1cdc: 13 97 26 00  	slli	a4, a3, 2
    1ce0: b3 85 e5 00  	add	a1, a1, a4
    1ce4: 33 06 e6 00  	add	a2, a2, a4
    1ce8: 33 05 d5 40  	sub	a0, a0, a3
    1cec: 93 06 10 00  	addi	a3, zero, 1
    1cf0: e3 98 06 fc  	bnez	a3, 0x1cc0 <.LBB41_2>

0000000000001cf4 <.LBB41_5>:
    1cf4: 67 80 00 00  	ret

0000000000001cf8 <vector_memcpy_unit_stride_faultonlyfirst_e64m2>:
    1cf8: 6f 00 c0 00  	j	0x1d04 <.LBB42_2>

0000000000001cfc <.LBB42_1>:
    1cfc: 93 06 00 00  	mv	a3, zero
    1d00: 63 8c 06 02  	beqz	a3, 0x1d38 <.LBB42_5>

0000000000001d04 <.LBB42_2>:
    1d04: d7 76 95 05  	<unknown>
    1d08: e3 8a 06 fe  	beqz	a3, 0x1cfc <.LBB42_1>
    1d0c: 07 fd 05 03  	<unknown>
    1d10: 73 27 00 c2  	csrr	a4, vl
    1d14: e3 14 d7 fe  	bne	a4, a3, 0x1cfc <.LBB42_1>
    1d18: 57 f0 96 05  	<unknown>
    1d1c: 27 7d 06 02  	<unknown>
    1d20: 13 97 36 00  	slli	a4, a3, 3
    1d24: b3 85 e5 00  	add	a1, a1, a4
    1d28: 33 06 e6 00  	add	a2, a2, a4
    1d2c: 33 05 d5 40  	sub	a0, a0, a3
    1d30: 93 06 10 00  	addi	a3, zero, 1
    1d34: e3 98 06 fc  	bnez	a3, 0x1d04 <.LBB42_2>

0000000000001d38 <.LBB42_5>:
    1d38: 67 80 00 00  	ret

0000000000001d3c <main>:
    1d3c: 13 01 01 ff  	addi	sp, sp, -16
    1d40: 23 34 11 00  	sd	ra, 8(sp)
    1d44: 23 30 81 00  	sd	s0, 0(sp)
    1d48: 37 15 00 00  	lui	a0, 1
    1d4c: 13 05 85 10  	addi	a0, a0, 264
    1d50: 97 e0 ff ff  	auipc	ra, 1048574
    1d54: e7 80 00 2e  	jalr	736(ra)
    1d58: 13 04 05 00  	mv	s0, a0
    1d5c: 37 15 00 00  	lui	a0, 1
    1d60: 13 05 85 13  	addi	a0, a0, 312
    1d64: 97 e0 ff ff  	auipc	ra, 1048574
    1d68: e7 80 80 3c  	jalr	968(ra)
    1d6c: 13 15 15 00  	slli	a0, a0, 1
    1d70: 33 64 85 00  	or	s0, a0, s0
    1d74: 37 15 00 00  	lui	a0, 1
    1d78: 13 05 c5 16  	addi	a0, a0, 364
    1d7c: 97 e0 ff ff  	auipc	ra, 1048574
    1d80: e7 80 40 4c  	jalr	1220(ra)
    1d84: 13 15 25 00  	slli	a0, a0, 2
    1d88: 33 64 a4 00  	or	s0, s0, a0
    1d8c: 37 15 00 00  	lui	a0, 1
    1d90: 13 05 05 1a  	addi	a0, a0, 416
    1d94: 97 e0 ff ff  	auipc	ra, 1048574
    1d98: e7 80 c0 4a  	jalr	1196(ra)
    1d9c: 13 15 35 00  	slli	a0, a0, 3
    1da0: 33 64 a4 00  	or	s0, s0, a0
    1da4: 37 15 00 00  	lui	a0, 1
    1da8: 13 05 45 1d  	addi	a0, a0, 468
    1dac: 97 e0 ff ff  	auipc	ra, 1048574
    1db0: e7 80 80 59  	jalr	1432(ra)
    1db4: 13 15 45 00  	slli	a0, a0, 4
    1db8: 33 64 a4 00  	or	s0, s0, a0
    1dbc: 37 15 00 00  	lui	a0, 1
    1dc0: 13 05 85 20  	addi	a0, a0, 520
    1dc4: 97 e0 ff ff  	auipc	ra, 1048574
    1dc8: e7 80 c0 26  	jalr	620(ra)
    1dcc: 13 15 55 00  	slli	a0, a0, 5
    1dd0: 33 64 a4 00  	or	s0, s0, a0
    1dd4: 37 15 00 00  	lui	a0, 1
    1dd8: 13 05 85 26  	addi	a0, a0, 616
    1ddc: 97 e0 ff ff  	auipc	ra, 1048574
    1de0: e7 80 00 35  	jalr	848(ra)
    1de4: 13 15 65 00  	slli	a0, a0, 6
    1de8: 33 64 a4 00  	or	s0, s0, a0
    1dec: 37 15 00 00  	lui	a0, 1
    1df0: 13 05 c5 2c  	addi	a0, a0, 716
    1df4: 97 e0 ff ff  	auipc	ra, 1048574
    1df8: e7 80 c0 44  	jalr	1100(ra)
    1dfc: 13 15 75 00  	slli	a0, a0, 7
    1e00: 33 64 a4 00  	or	s0, s0, a0
    1e04: 37 15 00 00  	lui	a0, 1
    1e08: 13 05 05 33  	addi	a0, a0, 816
    1e0c: 97 e0 ff ff  	auipc	ra, 1048574
    1e10: e7 80 40 43  	jalr	1076(ra)
    1e14: 13 15 85 00  	slli	a0, a0, 8
    1e18: 33 64 a4 00  	or	s0, s0, a0
    1e1c: 37 15 00 00  	lui	a0, 1
    1e20: 13 05 45 39  	addi	a0, a0, 916
    1e24: 97 e0 ff ff  	auipc	ra, 1048574
    1e28: e7 80 00 52  	jalr	1312(ra)
    1e2c: 13 15 95 00  	slli	a0, a0, 9
    1e30: 33 64 a4 00  	or	s0, s0, a0
    1e34: 37 15 00 00  	lui	a0, 1
    1e38: 13 05 85 3f  	addi	a0, a0, 1016
    1e3c: 97 e0 ff ff  	auipc	ra, 1048574
    1e40: e7 80 40 1f  	jalr	500(ra)
    1e44: 13 15 a5 00  	slli	a0, a0, 10
    1e48: 33 64 a4 00  	or	s0, s0, a0
    1e4c: 37 15 00 00  	lui	a0, 1
    1e50: 13 05 c5 4b  	addi	a0, a0, 1212
    1e54: 97 e0 ff ff  	auipc	ra, 1048574
    1e58: e7 80 80 2d  	jalr	728(ra)
    1e5c: 13 15 b5 00  	slli	a0, a0, 11
    1e60: 33 64 a4 00  	or	s0, s0, a0
    1e64: 37 15 00 00  	lui	a0, 1
    1e68: 13 05 85 58  	addi	a0, a0, 1416
    1e6c: 97 e0 ff ff  	auipc	ra, 1048574
    1e70: e7 80 40 3d  	jalr	980(ra)
    1e74: 13 15 c5 00  	slli	a0, a0, 12
    1e78: 33 64 a4 00  	or	s0, s0, a0
    1e7c: 37 15 00 00  	lui	a0, 1
    1e80: 13 05 45 65  	addi	a0, a0, 1620
    1e84: 97 e0 ff ff  	auipc	ra, 1048574
    1e88: e7 80 c0 3b  	jalr	956(ra)
    1e8c: 13 15 d5 00  	slli	a0, a0, 13
    1e90: 33 64 a4 00  	or	s0, s0, a0
    1e94: 37 15 00 00  	lui	a0, 1
    1e98: 13 05 05 72  	addi	a0, a0, 1824
    1e9c: 97 e0 ff ff  	auipc	ra, 1048574
    1ea0: e7 80 80 4a  	jalr	1192(ra)
    1ea4: 13 15 e5 00  	slli	a0, a0, 14
    1ea8: 33 64 a4 00  	or	s0, s0, a0
    1eac: 37 15 00 00  	lui	a0, 1
    1eb0: 13 05 c5 7e  	addi	a0, a0, 2028
    1eb4: 97 e0 ff ff  	auipc	ra, 1048574
    1eb8: e7 80 80 7e  	jalr	2024(ra)
    1ebc: 13 15 f5 00  	slli	a0, a0, 15
    1ec0: 33 64 a4 00  	or	s0, s0, a0
    1ec4: 37 25 00 00  	lui	a0, 2
    1ec8: 13 05 85 8a  	addi	a0, a0, -1880
    1ecc: 97 f0 ff ff  	auipc	ra, 1048575
    1ed0: e7 80 80 a2  	jalr	-1496(ra)
    1ed4: 13 15 15 01  	slli	a0, a0, 17
    1ed8: 33 64 a4 00  	or	s0, s0, a0
    1edc: 37 25 00 00  	lui	a0, 2
    1ee0: 13 05 45 91  	addi	a0, a0, -1772
    1ee4: 97 f0 ff ff  	auipc	ra, 1048575
    1ee8: e7 80 00 bf  	jalr	-1040(ra)
    1eec: 13 15 25 01  	slli	a0, a0, 18
    1ef0: 33 64 a4 00  	or	s0, s0, a0
    1ef4: 37 25 00 00  	lui	a0, 2
    1ef8: 13 05 85 98  	addi	a0, a0, -1656
    1efc: 97 f0 ff ff  	auipc	ra, 1048575
    1f00: e7 80 00 e2  	jalr	-480(ra)
    1f04: 13 15 35 01  	slli	a0, a0, 19
    1f08: 33 64 a4 00  	or	s0, s0, a0
    1f0c: 37 25 00 00  	lui	a0, 2
    1f10: 13 05 85 9f  	addi	a0, a0, -1544
    1f14: 97 f0 ff ff  	auipc	ra, 1048575
    1f18: e7 80 80 e0  	jalr	-504(ra)
    1f1c: 13 15 45 01  	slli	a0, a0, 20
    1f20: 33 64 a4 00  	or	s0, s0, a0
    1f24: 37 25 00 00  	lui	a0, 2
    1f28: 13 05 85 a6  	addi	a0, a0, -1432
    1f2c: 97 f0 ff ff  	auipc	ra, 1048575
    1f30: e7 80 40 01  	jalr	20(ra)
    1f34: 13 15 55 01  	slli	a0, a0, 21
    1f38: 33 64 a4 00  	or	s0, s0, a0
    1f3c: 37 25 00 00  	lui	a0, 2
    1f40: 13 05 c5 ad  	addi	a0, a0, -1316
    1f44: 97 e0 ff ff  	auipc	ra, 1048574
    1f48: e7 80 00 40  	jalr	1024(ra)
    1f4c: 13 15 65 01  	slli	a0, a0, 22
    1f50: 33 64 a4 00  	or	s0, s0, a0
    1f54: 37 25 00 00  	lui	a0, 2
    1f58: 13 05 05 b2  	addi	a0, a0, -1248
    1f5c: 97 e0 ff ff  	auipc	ra, 1048574
    1f60: e7 80 80 3e  	jalr	1000(ra)
    1f64: 13 15 75 01  	slli	a0, a0, 23
    1f68: 33 64 a4 00  	or	s0, s0, a0
    1f6c: 37 25 00 00  	lui	a0, 2
    1f70: 13 05 45 b6  	addi	a0, a0, -1180
    1f74: 97 e0 ff ff  	auipc	ra, 1048574
    1f78: e7 80 00 3d  	jalr	976(ra)
    1f7c: 13 15 85 01  	slli	a0, a0, 24
    1f80: 33 64 a4 00  	or	s0, s0, a0
    1f84: 37 25 00 00  	lui	a0, 2
    1f88: 13 05 85 ba  	addi	a0, a0, -1112
    1f8c: 97 e0 ff ff  	auipc	ra, 1048574
    1f90: e7 80 80 3b  	jalr	952(ra)
    1f94: 13 15 95 01  	slli	a0, a0, 25
    1f98: 33 64 a4 00  	or	s0, s0, a0
    1f9c: 37 25 00 00  	lui	a0, 2
    1fa0: 13 05 c5 be  	addi	a0, a0, -1044
    1fa4: 97 e0 ff ff  	auipc	ra, 1048574
    1fa8: e7 80 c0 08  	jalr	140(ra)
    1fac: 13 15 a5 01  	slli	a0, a0, 26
    1fb0: 33 64 a4 00  	or	s0, s0, a0
    1fb4: 37 25 00 00  	lui	a0, 2
    1fb8: 13 05 c5 c2  	addi	a0, a0, -980
    1fbc: 97 e0 ff ff  	auipc	ra, 1048574
    1fc0: e7 80 00 17  	jalr	368(ra)
    1fc4: 13 15 b5 01  	slli	a0, a0, 27
    1fc8: 33 64 a4 00  	or	s0, s0, a0
    1fcc: 37 25 00 00  	lui	a0, 2
    1fd0: 13 05 05 c7  	addi	a0, a0, -912
    1fd4: 97 e0 ff ff  	auipc	ra, 1048574
    1fd8: e7 80 c0 26  	jalr	620(ra)
    1fdc: 13 15 c5 01  	slli	a0, a0, 28
    1fe0: 33 64 a4 00  	or	s0, s0, a0
    1fe4: 37 25 00 00  	lui	a0, 2
    1fe8: 13 05 45 cb  	addi	a0, a0, -844
    1fec: 97 e0 ff ff  	auipc	ra, 1048574
    1ff0: e7 80 40 25  	jalr	596(ra)
    1ff4: 13 15 d5 01  	slli	a0, a0, 29
    1ff8: 33 64 a4 00  	or	s0, s0, a0
    1ffc: 37 25 00 00  	lui	a0, 2
    2000: 13 05 85 cf  	addi	a0, a0, -776
    2004: 97 e0 ff ff  	auipc	ra, 1048574
    2008: e7 80 00 34  	jalr	832(ra)
    200c: 13 15 e5 01  	slli	a0, a0, 30
    2010: 33 65 a4 00  	or	a0, s0, a0
    2014: b7 05 00 01  	lui	a1, 4096
    2018: 37 06 ff 7f  	lui	a2, 524272
    201c: 1b 06 f6 ff  	addiw	a2, a2, -1
    2020: 23 b0 c5 00  	sd	a2, 0(a1)
    2024: b7 05 00 01  	lui	a1, 4096
    2028: 23 b4 a5 00  	sd	a0, 8(a1)
    202c: 13 05 00 00  	mv	a0, zero
    2030: 03 34 01 00  	ld	s0, 0(sp)
    2034: 83 30 81 00  	ld	ra, 8(sp)
    2038: 13 01 01 01  	addi	sp, sp, 16
    203c: 67 80 00 00  	ret
