
/media/common/University/Edu/Year4_Masters/Project/riscv-v-lite/programs/build/llvm-13-rv64imv/vector_memcpy/vector_memcpy.elf:	file format elf64-littleriscv
Contents of section .text.init:
 0000 17010100 13010102 97100000 e78080f8  ................
 0010 6f000000                             o...
Contents of section .text:
 0014 630c0600 93060500 2380b600 1306f6ff  c.......#.......
 0024 93861600 e31a06fe 67800000 130101ee  ........g.......
 0034 233c1110 23388110 23349110 23302111  #<..#8..#4..#0!.
 0044 13090500 93040108 13050108 13060008  ................
 0054 13040008 93050000 97000000 e78080fb  ................
 0064 13050100 13060008 93050000 97000000  ................
 0074 e78040fa 13050000 b385a400 2380a500  ..@.........#...
 0084 13051500 e31a85fe 93040108 1305e006  ................
 0094 93050108 13060100 13040100 e7000900  ................
 00a4 13050000 9305d006 1376f50f b386c400  .........v......
 00b4 83c60600 3307c400 03470700 6398e604  ....3....G..c...
 00c4 13051500 e362b6fe 8345e106 13050000  .....b...E......
 00d4 63900504 9305f006 1305f0ff 13060100  c...............
 00e4 93968503 93d68643 63cc0600 13f7f50f  .......Cc.......
 00f4 3307e600 03470700 93851500 e30207fe  3....G..........
 0104 3325d500 13451500 6f008000 13050000  3%...E..o.......
 0114 03390110 83348110 03340111 83308111  .9...4...4...0..
 0124 13010112 67800000 130101de 233c1120  ....g.......#<. 
 0134 23388120 23349120 23302121 13090500  #8. #4. #0!!....
 0144 13050110 13060010 13040110 93050000  ................
 0154 97000000 e78000ec 13050100 13060010  ................
 0164 93050000 97000000 e780c0ea 13050000  ................
 0174 93050008 2310a400 13051500 13042400  ....#.........$.
 0184 e31ab5fe 93040110 1305e006 93050110  ................
 0194 13060100 13040100 e7000900 13050000  ................
 01a4 b7050100 9b85f5ff 1306d006 93160503  ................
 01b4 93d6f602 3387d400 03570700 b306d400  ....3....W......
 01c4 83d60600 631ed704 b376b500 13051500  ....c....v......
 01d4 e3eec6fc 8355c10d 13050000 63940504  .....U......c...
 01e4 1305e006 b7050100 9b85f5ff 1306e007  ................
 01f4 93060100 3377b500 636ee600 13051500  ....3w..cn......
 0204 b377b500 93971700 b387f600 83d70700  .w..............
 0214 e38207fe 1335f707 13451500 6f008000  .....5...E..o...
 0224 13050000 03390120 83348120 03340121  .....9. .4. .4.!
 0234 83308121 13010122 67800000 130101bd  .0.!..."g.......
 0244 23341142 23308142 233c9140 23382141  #4.B#0.B#<.@#8!A
 0254 13090500 13050121 13060020 93040121  .......!... ...!
 0264 93050000 97000000 e780c0da 13050101  ................
 0274 13060020 93050000 97000000 e78080d9  ... ............
 0284 13050000 93050008 23a0a400 13051500  ........#.......
 0294 93844400 e31ab5fe 93040121 1305e006  ..D........!....
 02a4 93050121 13060101 13040101 e7000900  ...!............
 02b4 93050000 1305d006 13960502 1356e601  .............V..
 02c4 b386c400 83a60600 3306c400 03260600  ........3....&..
 02d4 639ac604 1b860500 93851500 e36ea6fc  c............n..
 02e4 8325811c 13050000 63900504 1305e006  .%......c.......
 02f4 9305e007 13060101 9b060500 63eed500  ............c...
 0304 13051500 13170502 1357e701 3307e600  .........W..3...
 0314 03270700 e30207fe 13b5f607 13451500  .'...........E..
 0324 6f008000 13050000 03390141 83348141  o........9.A.4.A
 0334 03340142 83308142 13010143 67800000  .4.B.0.B...Cg...
 0344 13010181 2334117e 2330817e 233c917c  ....#4.~#0.~#<.|
 0354 2338217d 130101fc 13090500 13050141  #8!}...........A
 0364 13060040 93040141 93050000 97000000  ...@...A........
 0374 e78040ca 13050101 13060040 93050000  ..@........@....
 0384 97000000 e78000c9 13050000 93050008  ................
 0394 23b0a400 13051500 93848400 e31ab5fe  #...............
 03a4 93040141 1305e006 93050141 13060101  ...A.......A....
 03b4 13040101 e7000900 13050000 93050037  ...............7
 03c4 3386a400 03360600 b306a400 83b60600  3....6..........
 03d4 6314d604 13058500 e314b5fe 83350138  c............5.8
 03e4 13050000 639c0502 13058138 9306e006  ....c......8....
 03f4 9305f007 13860600 638ab600 03370500  ........c....7..
 0404 93061600 13058500 e30607fe 1305e007  ................
 0414 3335c500 6f008000 13050000 13010104  35..o...........
 0424 0339017d 8334817d 0334017e 8330817e  .9.}.4.}.4.~.0.~
 0434 1301017f 67800000 130101ed 23341112  ....g.......#4..
 0444 23308112 233c9110 23382111 23343111  #0..#<..#8!.#41.
 0454 13090500 93098108 13058108 13060008  ................
 0464 93040008 93050000 97000000 e78080ba  ................
 0474 13058100 13060008 13048100 93050000  ................
 0484 97000000 e78000b9 13050000 9305b00b  ................
 0494 3386a900 2300a600 3306a400 13051500  3...#...3.......
 04a4 2300b600 e31695fe 9304e006 93098108  #...............
 04b4 1305e006 93058108 13068100 13048100  ................
 04c4 e7000900 13050000 9305b00b 6f00c001  ............o...
 04d4 b386a900 83c60600 03460600 6394c606  .........F..c...
 04e4 13051500 630e9500 93761500 3306a400  ....c....v..3...
 04f4 e39006fe 03460600 e304b6fe 6f008004  .....F......o...
 0504 83456107 1305b00b 639ea502 1306f006  .Ea.....c.......
 0514 9305f0ff 93068100 13178603 13578743  .............W.C
 0524 634c0700 9377f60f b387f600 83c70700  cL...w..........
 0534 13061600 e382a7fe 33a5e500 13451500  ........3....E..
 0544 6f008000 13050000 83398110 03390111  o........9...9..
 0554 83348111 03340112 83308112 13010113  .4...4...0......
 0564 67800000 130101dd 23341122 23308122  g.......#4."#0."
 0574 233c9120 23382121 23343121 13090500  #<. #8!!#41!....
 0584 13058110 13060010 13048110 93050000  ................
 0594 97000000 e78000a8 13058100 13060010  ................
 05a4 93048100 93050000 97000000 e78080a6  ................
 05b4 13050000 9305b00b 13060008 2310a400  ............#...
 05c4 2390b400 13051500 13042400 93842400  #.........$...$.
 05d4 e316c5fe 9309e006 13048110 1305e006  ................
 05e4 93058110 13068100 93048100 e7000900  ................
 05f4 13050000 9305b00b 6f000002 03560400  ........o....V..
 0604 83d60400 631ad606 13051500 13042400  ....c.........$.
 0614 93842400 630c3501 13761500 e31006fe  ..$.c.5..v......
 0624 03d60400 e302b6fe 6f000005 8355410e  ........o....UA.
 0634 1305b00b 6392a504 9305e006 37060100  ....c.......7...
 0644 1b06f6ff 9306e007 13078100 b3f7c500  ................
 0654 63eef600 93851500 b3f4c500 93941400  c...............
 0664 b3049700 83d40400 e382a4fe 13b5f707  ................
 0674 13451500 6f008000 13050000 83398120  .E..o........9. 
 0684 03390121 83348121 03340122 83308122  .9.!.4.!.4.".0."
 0694 13010123 67800000 130101bd 23341142  ...#g.......#4.B
 06a4 23308142 233c9140 23382141 23343141  #0.B#<.@#8!A#41A
 06b4 13090500 13058120 13060020 13048120  ....... ... ... 
 06c4 93050000 97000000 e780c094 13058100  ................
 06d4 13060020 93048100 93050000 97000000  ... ............
 06e4 e7804093 13050000 9305b00b 13060008  ..@.............
 06f4 2320a400 23a0b400 13051500 13044400  # ..#.........D.
 0704 93844400 e316c5fe 9309e006 13048120  ..D............ 
 0714 1305e006 93058120 13068100 93048100  ....... ........
 0724 e7000900 13050000 9305b00b 6f000002  ............o...
 0734 03260400 83a60400 6316d606 13051500  .&......c.......
 0744 93844400 13044400 630c3501 13761500  ..D...D.c.5..v..
 0754 e31006fe 03a60400 e302b6fe 6f008004  ............o...
 0764 8325011c 1305b00b 639ea502 9305e006  .%......c.......
 0774 1306e007 93068100 1b870500 636ee600  ............cn..
 0784 93851500 93970502 93d7e701 b387f600  ................
 0794 83a70700 e382a7fe 1335f707 13451500  .........5...E..
 07a4 6f008000 13050000 83398140 03390141  o........9.@.9.A
 07b4 83348141 03340142 83308142 13010143  .4.A.4.B.0.B...C
 07c4 67800000 13010181 2334117e 2330817e  g.......#4.~#0.~
 07d4 233c917c 2338217d 2334317d 130101fc  #<.|#8!}#41}....
 07e4 13090500 13058140 13060040 13048140  .......@...@...@
 07f4 93050000 97000000 e780c081 13058100  ................
 0804 13060040 93048100 93050000 97000000  ...@............
 0814 e7804080 13050000 9305b00b 13060008  ..@.............
 0824 2330a400 23b0b400 13051500 93848400  #0..#...........
 0834 13048400 e316c5fe 9309e006 13048140  ...............@
 0844 1305e006 93058140 13068100 93048100  .......@........
 0854 e7000900 13050000 9305b00b 6f000002  ............o...
 0864 03360400 83b60400 6312d606 13051500  .6......c.......
 0874 93848400 13048400 630c3501 13761500  ........c.5..v..
 0884 e31006fe 03b60400 e302b6fe 6f000004  ............o...
 0894 83358137 1305b00b 639aa502 93050138  .5.7....c......8
 08a4 1307e006 1306f007 93060700 630ac700  ............c...
 08b4 83b70500 13871600 93858500 e386a7fe  ................
 08c4 1305e007 3335d500 6f008000 13050000  ....35..o.......
 08d4 13010104 8339817c 0339017d 8334817d  .....9.|.9.}.4.}
 08e4 0334017e 8330817e 1301017f 67800000  .4.~.0.~....g...
 08f4 6f00c000 93b61600 63920602 d7763504  o.......c....v5.
 0904 e38a06fe 07840502 27040602 b385d500  ........'.......
 0914 3306d600 3305d540 6ff0dffd 67800000  3...3..@o...g...
 0924 6f00c000 93b61600 63940602 d776b504  o.......c....v..
 0934 e38a06fe 07d40502 27540602 13971600  ........'T......
 0944 b385e500 3306e600 3305d540 6ff09ffd  ....3...3..@o...
 0954 67800000 6f00c000 93b61600 63940602  g...o.......c...
 0964 d7763505 e38a06fe 07e40502 27640602  .v5.........'d..
 0974 13972600 b385e500 3306e600 3305d540  ..&.....3...3..@
 0984 6ff09ffd 67800000 6f00c000 93b61600  o...g...o.......
 0994 63940602 d7767505 e38a06fe 87ec0502  c....vu.........
 09a4 a76c0602 13972600 b385e500 3306e600  .l....&.....3...
 09b4 3305d540 6ff09ffd 67800000 93084000  3..@o...g.....@.
 09c4 6f004002 07840502 27040602 13080700  o.@.....'.......
 09d4 33050541 b3850501 33060601 93361700  3..A....3....6..
 09e4 639c0602 57773504 e30a07fe 13182700  c...Ww5.......'.
 09f4 e37aa8fc 93070000 b386f500 57703704  .z..........Wp7.
 0a04 0784160b b306f600 93871700 2784160b  ............'...
 0a14 e39417ff 6ff0dffb 67800000 93088000  ....o...g.......
 0a24 6f008002 07d40502 27540602 13080700  o.......'T......
 0a34 33050541 93161800 b385d500 3306d600  3..A........3...
 0a44 93361700 639c0602 5777b504 e30a07fe  .6..c...Ww......
 0a54 13182700 e378a8fc 93070000 b386f500  ..'..x..........
 0a64 5770b704 07d4160b b306f600 93872700  Wp............'.
 0a74 27d4160b e39417ff 6ff09ffb 67800000  '.......o...g...
 0a84 93080001 6f008002 07e40502 27640602  ....o.......'d..
 0a94 13080700 33050541 93162800 b385d500  ....3..A..(.....
 0aa4 3306d600 93361700 639c0602 57773505  3....6..c...Ww5.
 0ab4 e30a07fe 13182700 e378a8fc 93070000  ......'..x......
 0ac4 b386f500 57703705 07e4160b b306f600  ....Wp7.........
 0ad4 93874700 27e4160b e39417ff 6ff09ffb  ..G.'.......o...
 0ae4 67800000 93080001 6f008002 87ec0502  g.......o.......
 0af4 a76c0602 13080700 33050541 93162800  .l......3..A..(.
 0b04 b385d500 3306d600 93361700 639c0602  ....3....6..c...
 0b14 57777505 e30a07fe 13182700 e378a8fc  Wwu.......'..x..
 0b24 93070000 b386f500 57707705 87ec160b  ........Wpw.....
 0b34 b306f600 93874700 a7ec160b e39417ff  ......G.........
 0b44 6ff09ffb 67800000 130101f4 233c110a  o...g.......#<..
 0b54 2338810a 2334910a 2330210b 233c3109  #8..#4..#0!.#<1.
 0b64 23384109 13090600 93840500 13040500  #8A.............
 0b74 d7793004 13050101 13060008 130a0101  .y0.............
 0b84 93050000 97f0ffff e780c048 638e0900  ...........Hc...
 0b94 13050000 93451500 3306aa00 13051500  .....E..3.......
 0ba4 2300b600 e398a9fe 57f03904 13050101  #.......W.9.....
 0bb4 07040502 6f000002 07880402 27080902  ....o.......'...
 0bc4 b384a400 3309a900 3304a440 13351500  ....3...3..@.5..
 0bd4 631e0500 57753404 e30a05fe e31e35fd  c...Wu4.......5.
 0be4 07888406 27088906 6ff09ffd 033a0109  ....'...o....:..
 0bf4 83398109 0339010a 8334810a 0334010b  .9...9...4...4..
 0c04 8330810b 1301010c 67800000 130101ec  .0......g.......
 0c14 233c1112 23388112 23349112 23302113  #<..#8..#4..#0!.
 0c24 233c3111 23384111 13090600 138a0500  #<1.#8A.........
 0c34 13040500 d779b004 13050101 13060010  .....y..........
 0c44 93040101 93050000 97f0ffff e780803c  ...............<
 0c54 63800902 13050000 93151500 93c52500  c.............%.
 0c64 2390b400 13051500 93842400 e396a9fe  #.........$.....
 0c74 57f0b904 13050101 07540502 6f004002  W........T..o.@.
 0c84 07580a02 27580902 93151500 330aba00  .X..'X......3...
 0c94 3309b900 3304a440 13351500 631e0500  3...3..@.5..c...
 0ca4 5775b404 e30a05fe e31c35fd 07588a06  Wu........5..X..
 0cb4 27588906 6ff05ffd 033a0111 83398111  'X..o._..:...9..
 0cc4 03390112 83348112 03340113 83308113  .9...4...4...0..
 0cd4 13010114 67800000 130101dc 233c1122  ....g.......#<."
 0ce4 23388122 23349122 23302123 233c3121  #8."#4."#0!##<1!
 0cf4 23384121 13090600 138a0500 13040500  #8A!............
 0d04 d7793005 13050101 13060020 93040101  .y0........ ....
 0d14 93050000 97f0ffff e780c02f 63800902  .........../c...
 0d24 13050000 93152500 93c54500 23a0b400  ......%...E.#...
 0d34 13051500 93844400 e396a9fe 57f03905  ......D.....W.9.
 0d44 13050101 07640502 6f004002 07680a02  .....d..o.@..h..
 0d54 27680902 93152500 330aba00 3309b900  'h....%.3...3...
 0d64 3304a440 13351500 631e0500 57753405  3..@.5..c...Wu4.
 0d74 e30a05fe e31c35fd 07688a06 27688906  ......5..h..'h..
 0d84 6ff05ffd 033a0121 83398121 03390122  o._..:.!.9.!.9."
 0d94 83348122 03340123 83308123 13010124  .4.".4.#.0.#...$
 0da4 67800000 130101dc 233c1122 23388122  g.......#<."#8."
 0db4 23349122 23302123 233c3121 23384121  #4."#0!##<1!#8A!
 0dc4 13090600 138a0500 13040500 d7797005  .............yp.
 0dd4 13050101 13060020 93040101 93050000  ....... ........
 0de4 97f0ffff e7800023 63800902 13050000  .......#c.......
 0df4 93152500 93c54500 23a0b400 13051500  ..%...E.#.......
 0e04 93844400 e396a9fe 57f07905 13050101  ..D.....W.y.....
 0e14 876c0502 6f004002 076d0a02 276d0902  .l..o.@..m..'m..
 0e24 93152500 330aba00 3309b900 3304a440  ..%.3...3...3..@
 0e34 13351500 631e0500 57757405 e30a05fe  .5..c...Wut.....
 0e44 e31c35fd 076d9a07 276d9907 6ff05ffd  ..5..m..'m..o._.
 0e54 033a0121 83398121 03390122 83348122  .:.!.9.!.9.".4."
 0e64 03340123 83308123 13010124 67800000  .4.#.0.#...$g...
 0e74 d7763004 07840502 57b08062 6f00c000  .v0.....W..bo...
 0e84 93b61600 63960602 d7763504 e38a06fe  ....c....v5.....
 0e94 57f03600 07840500 57703004 27040600  W.6.....Wp0.'...
 0ea4 b385d500 3306d600 3305d540 6ff05ffd  ....3...3..@o._.
 0eb4 67800000 d776b004 07d40502 57b08062  g....v......W..b
 0ec4 6f00c000 93b61600 63980602 d776b504  o.......c....v..
 0ed4 e38a06fe 57f0b600 07d40500 5770b004  ....W.......Wp..
 0ee4 27540600 13971600 b385e500 3306e600  'T..........3...
 0ef4 3305d540 6ff01ffd 67800000 d7763005  3..@o...g....v0.
 0f04 07e40502 57b08062 6f00c000 93b61600  ....W..bo.......
 0f14 63980602 d7763505 e38a06fe 57f03601  c....v5.....W.6.
 0f24 07e40500 57703005 27640600 13972600  ....Wp0.'d....&.
 0f34 b385e500 3306e600 3305d540 6ff01ffd  ....3...3..@o...
 0f44 67800000 d7767005 87ec0502 57b09063  g....vp.....W..c
 0f54 6f00c000 93b61600 63980602 d7767505  o.......c....vu.
 0f64 e38a06fe 57f07601 87ec0500 57707005  ....W.v.....Wpp.
 0f74 a76c0600 13972600 b385e500 3306e600  .l....&.....3...
 0f84 3305d540 6ff01ffd 67800000 130101ff  3..@o...g.......
 0f94 23341100 23308100 37150000 1305458f  #4..#0..7.....E.
 0fa4 97f0ffff e780c008 13040500 37150000  ............7...
 0fb4 13054592 97f0ffff e7804017 13151500  ..E.......@.....
 0fc4 33648500 37150000 13058595 97f0ffff  3d..7...........
 0fd4 e7800027 13152500 3364a400 37150000  ...'..%.3d..7...
 0fe4 1305c598 97f0ffff e7808025 13153500  ...........%..5.
 0ff4 3364a400 37150000 1305059c 97f0ffff  3d..7...........
 1004 e7800003 13154500 3364a400 37150000  ......E.3d..7...
 1014 130505a2 97f0ffff e7804011 13155500  ..........@...U.
 1024 3364a400 37150000 130545a8 97f0ffff  3d..7.....E.....
 1034 e7800021 13156500 3364a400 37150000  ...!..e.3d..7...
 1044 130585ae 97f0ffff e780801f 13157500  ..............u.
 1054 3364a400 37150000 1305c5b4 97f0ffff  3d..7...........
 1064 e78000fd 13158500 3364a400 37150000  ........3d..7...
 1074 130505c1 97f0ffff e780400b 13159500  ..........@.....
 1084 3364a400 37150000 1305c5cd 97f0ffff  3d..7...........
 1094 e780001b 1315a500 3364a400 37150000  ........3d..7...
 10a4 130585da 97f0ffff e7808019 1315b500  ................
 10b4 3364a400 37150000 130545e7 97f0ffff  3d..7.....E.....
 10c4 e78000f7 1315c500 3364a400 37150000  ........3d..7...
 10d4 130585eb 97f0ffff e7804005 1315d500  ..........@.....
 10e4 3364a400 37150000 130505f0 97f0ffff  3d..7...........
 10f4 e7800015 1315e500 3364a400 37150000  ........3d..7...
 1104 130585f4 97f0ffff e7808013 1315f500  ................
 1114 b365a400 1305f000 1316c501 1b850500  .e..............
 1124 2320b600 03340100 83308100 13010101  # ...4...0......
 1134 67800000                             g...
Contents of section .comment:
 0000 5562756e 74752063 6c616e67 20766572  Ubuntu clang ver
 0010 73696f6e 2031332e 302e312d 2b2b3230  sion 13.0.1-++20
 0020 32323031 32303131 30393234 2b373565  220120110924+75e
 0030 33336637 31633264 612d317e 65787031  33f71c2da-1~exp1
 0040 7e323032 32303132 30323331 3030312e  ~20220120231001.
 0050 3538004c 696e6b65 723a2055 62756e74  58.Linker: Ubunt
 0060 75204c4c 44203133 2e302e31 0000      u LLD 13.0.1..
Contents of section .riscv.attributes:
 0000 41320000 00726973 63760001 28000000  A2...riscv..(...
 0010 04100572 76363469 3270305f 6d327030  ...rv64i2p0_m2p0
 0020 5f763070 31305f7a 766c7373 65673070  _v0p10_zvlsseg0p
 0030 313000                               10.
Contents of section .symtab:
 0000 00000000 00000000 00000000 00000000  ................
 0010 00000000 00000000 01000000 00000100  ................
 0020 00000000 00000000 00000000 00000000  ................
 0030 07000000 00000100 00000000 00000000  ................
 0040 00000000 00000000 13000000 00000100  ................
 0050 10000000 00000000 00000000 00000000  ................
 0060 17000000 0400f1ff 00000000 00000000  ................
 0070 00000000 00000000 2c000000 00000200  ........,.......
 0080 2c000000 00000000 00000000 00000000  ,...............
 0090 34000000 00000200 1c000000 00000000  4...............
 00a0 00000000 00000000 3c000000 00000200  ........<.......
 00b0 7c000000 00000000 00000000 00000000  |...............
 00c0 44000000 00000200 ac000000 00000000  D...............
 00d0 00000000 00000000 4c000000 00000200  ........L.......
 00e0 10010000 00000000 00000000 00000000  ................
 00f0 55000000 00000200 14010000 00000000  U...............
 0100 00000000 00000000 5e000000 00000200  ........^.......
 0110 e4000000 00000000 00000000 00000000  ................
 0120 66000000 00000200 04010000 00000000  f...............
 0130 00000000 00000000 6e000000 00000200  ........n.......
 0140 78010000 00000000 00000000 00000000  x...............
 0150 76000000 00000200 b0010000 00000000  v...............
 0160 00000000 00000000 7e000000 00000200  ........~.......
 0170 24020000 00000000 00000000 00000000  $...............
 0180 87000000 00000200 28020000 00000000  ........(.......
 0190 00000000 00000000 90000000 00000200  ................
 01a0 f8010000 00000000 00000000 00000000  ................
 01b0 98000000 00000200 18020000 00000000  ................
 01c0 00000000 00000000 a0000000 00000200  ................
 01d0 8c020000 00000000 00000000 00000000  ................
 01e0 a8000000 00000200 bc020000 00000000  ................
 01f0 00000000 00000000 b0000000 00000200  ................
 0200 28030000 00000000 00000000 00000000  (...............
 0210 b9000000 00000200 2c030000 00000000  ........,.......
 0220 00000000 00000000 c2000000 00000200  ................
 0230 fc020000 00000000 00000000 00000000  ................
 0240 ca000000 00000200 1c030000 00000000  ................
 0250 00000000 00000000 d2000000 00000200  ................
 0260 94030000 00000000 00000000 00000000  ................
 0270 da000000 00000200 c4030000 00000000  ................
 0280 00000000 00000000 e2000000 00000200  ................
 0290 1c040000 00000000 00000000 00000000  ................
 02a0 eb000000 00000200 20040000 00000000  ........ .......
 02b0 00000000 00000000 f4000000 00000200  ................
 02c0 f8030000 00000000 00000000 00000000  ................
 02d0 fc000000 00000200 10040000 00000000  ................
 02e0 00000000 00000000 04010000 00000200  ................
 02f0 94040000 00000000 00000000 00000000  ................
 0300 0c010000 00000200 ec040000 00000000  ................
 0310 00000000 00000000 14010000 00000200  ................
 0320 d4040000 00000000 00000000 00000000  ................
 0330 1c010000 00000200 48050000 00000000  ........H.......
 0340 00000000 00000000 25010000 00000200  ........%.......
 0350 e4040000 00000000 00000000 00000000  ................
 0360 2d010000 00000200 04050000 00000000  -...............
 0370 00000000 00000000 35010000 00000200  ........5.......
 0380 1c050000 00000000 00000000 00000000  ................
 0390 3d010000 00000200 3c050000 00000000  =.......<.......
 03a0 00000000 00000000 46010000 00000200  ........F.......
 03b0 4c050000 00000000 00000000 00000000  L...............
 03c0 4f010000 00000200 c0050000 00000000  O...............
 03d0 00000000 00000000 57010000 00000200  ........W.......
 03e0 1c060000 00000000 00000000 00000000  ................
 03f0 5f010000 00000200 00060000 00000000  _...............
 0400 00000000 00000000 67010000 00000200  ........g.......
 0410 7c060000 00000000 00000000 00000000  |...............
 0420 70010000 00000200 0c060000 00000000  p...............
 0430 00000000 00000000 78010000 00000200  ........x.......
 0440 30060000 00000000 00000000 00000000  0...............
 0450 80010000 00000200 50060000 00000000  ........P.......
 0460 00000000 00000000 88010000 00000200  ................
 0470 70060000 00000000 00000000 00000000  p...............
 0480 91010000 00000200 80060000 00000000  ................
 0490 00000000 00000000 9a010000 00000200  ................
 04a0 f4060000 00000000 00000000 00000000  ................
 04b0 a2010000 00000200 50070000 00000000  ........P.......
 04c0 00000000 00000000 aa010000 00000200  ................
 04d0 34070000 00000000 00000000 00000000  4...............
 04e0 b2010000 00000200 a8070000 00000000  ................
 04f0 00000000 00000000 bb010000 00000200  ................
 0500 40070000 00000000 00000000 00000000  @...............
 0510 c3010000 00000200 64070000 00000000  ........d.......
 0520 00000000 00000000 cb010000 00000200  ................
 0530 7c070000 00000000 00000000 00000000  |...............
 0540 d3010000 00000200 9c070000 00000000  ................
 0550 00000000 00000000 dc010000 00000200  ................
 0560 ac070000 00000000 00000000 00000000  ................
 0570 e5010000 00000200 24080000 00000000  ........$.......
 0580 00000000 00000000 ed010000 00000200  ................
 0590 80080000 00000000 00000000 00000000  ................
 05a0 f5010000 00000200 64080000 00000000  ........d.......
 05b0 00000000 00000000 fd010000 00000200  ................
 05c0 d0080000 00000000 00000000 00000000  ................
 05d0 06020000 00000200 70080000 00000000  ........p.......
 05e0 00000000 00000000 0e020000 00000200  ................
 05f0 94080000 00000000 00000000 00000000  ................
 0600 16020000 00000200 ac080000 00000000  ................
 0610 00000000 00000000 1e020000 00000200  ................
 0620 c4080000 00000000 00000000 00000000  ................
 0630 27020000 00000200 d4080000 00000000  '...............
 0640 00000000 00000000 30020000 00000200  ........0.......
 0650 00090000 00000000 00000000 00000000  ................
 0660 38020000 00000200 f8080000 00000000  8...............
 0670 00000000 00000000 40020000 00000200  ........@.......
 0680 20090000 00000000 00000000 00000000   ...............
 0690 48020000 00000200 30090000 00000000  H.......0.......
 06a0 00000000 00000000 51020000 00000200  ........Q.......
 06b0 28090000 00000000 00000000 00000000  (...............
 06c0 5a020000 00000200 54090000 00000000  Z.......T.......
 06d0 00000000 00000000 63020000 00000200  ........c.......
 06e0 64090000 00000000 00000000 00000000  d...............
 06f0 6c020000 00000200 5c090000 00000000  l.......\.......
 0700 00000000 00000000 75020000 00000200  ........u.......
 0710 88090000 00000000 00000000 00000000  ................
 0720 7e020000 00000200 98090000 00000000  ~...............
 0730 00000000 00000000 87020000 00000200  ................
 0740 90090000 00000000 00000000 00000000  ................
 0750 90020000 00000200 bc090000 00000000  ................
 0760 00000000 00000000 99020000 00000200  ................
 0770 e8090000 00000000 00000000 00000000  ................
 0780 a2020000 00000200 c8090000 00000000  ................
 0790 00000000 00000000 ab020000 00000200  ................
 07a0 d4090000 00000000 00000000 00000000  ................
 07b0 b4020000 00000200 e0090000 00000000  ................
 07c0 00000000 00000000 bd020000 00000200  ................
 07d0 1c0a0000 00000000 00000000 00000000  ................
 07e0 c6020000 00000200 fc090000 00000000  ................
 07f0 00000000 00000000 cf020000 00000200  ................
 0800 4c0a0000 00000000 00000000 00000000  L...............
 0810 d8020000 00000200 280a0000 00000000  ........(.......
 0820 00000000 00000000 e1020000 00000200  ................
 0830 340a0000 00000000 00000000 00000000  4...............
 0840 ea020000 00000200 440a0000 00000000  ........D.......
 0850 00000000 00000000 f3020000 00000200  ................
 0860 800a0000 00000000 00000000 00000000  ................
 0870 fc020000 00000200 600a0000 00000000  ........`.......
 0880 00000000 00000000 05030000 00000200  ................
 0890 b00a0000 00000000 00000000 00000000  ................
 08a0 0e030000 00000200 8c0a0000 00000000  ................
 08b0 00000000 00000000 17030000 00000200  ................
 08c0 980a0000 00000000 00000000 00000000  ................
 08d0 20030000 00000200 a80a0000 00000000   ...............
 08e0 00000000 00000000 29030000 00000200  ........).......
 08f0 e40a0000 00000000 00000000 00000000  ................
 0900 32030000 00000200 c40a0000 00000000  2...............
 0910 00000000 00000000 3b030000 00000200  ........;.......
 0920 140b0000 00000000 00000000 00000000  ................
 0930 44030000 00000200 f00a0000 00000000  D...............
 0940 00000000 00000000 4d030000 00000200  ........M.......
 0950 fc0a0000 00000000 00000000 00000000  ................
 0960 56030000 00000200 0c0b0000 00000000  V...............
 0970 00000000 00000000 5f030000 00000200  ........_.......
 0980 480b0000 00000000 00000000 00000000  H...............
 0990 68030000 00000200 280b0000 00000000  h.......(.......
 09a0 00000000 00000000 71030000 00000200  ........q.......
 09b0 ac0b0000 00000000 00000000 00000000  ................
 09c0 7a030000 00000200 980b0000 00000000  z...............
 09d0 00000000 00000000 83030000 00000200  ................
 09e0 d80b0000 00000000 00000000 00000000  ................
 09f0 8c030000 00000200 bc0b0000 00000000  ................
 0a00 00000000 00000000 95030000 00000200  ................
 0a10 c40b0000 00000000 00000000 00000000  ................
 0a20 9e030000 00000200 d00b0000 00000000  ................
 0a30 00000000 00000000 a7030000 00000200  ................
 0a40 f00b0000 00000000 00000000 00000000  ................
 0a50 b1030000 00000200 740c0000 00000000  ........t.......
 0a60 00000000 00000000 ba030000 00000200  ................
 0a70 5c0c0000 00000000 00000000 00000000  \...............
 0a80 c3030000 00000200 a40c0000 00000000  ................
 0a90 00000000 00000000 cc030000 00000200  ................
 0aa0 840c0000 00000000 00000000 00000000  ................
 0ab0 d5030000 00000200 8c0c0000 00000000  ................
 0ac0 00000000 00000000 de030000 00000200  ................
 0ad0 9c0c0000 00000000 00000000 00000000  ................
 0ae0 e7030000 00000200 bc0c0000 00000000  ................
 0af0 00000000 00000000 f1030000 00000200  ................
 0b00 400d0000 00000000 00000000 00000000  @...............
 0b10 fa030000 00000200 280d0000 00000000  ........(.......
 0b20 00000000 00000000 03040000 00000200  ................
 0b30 700d0000 00000000 00000000 00000000  p...............
 0b40 0c040000 00000200 500d0000 00000000  ........P.......
 0b50 00000000 00000000 15040000 00000200  ................
 0b60 580d0000 00000000 00000000 00000000  X...............
 0b70 1e040000 00000200 680d0000 00000000  ........h.......
 0b80 00000000 00000000 27040000 00000200  ........'.......
 0b90 880d0000 00000000 00000000 00000000  ................
 0ba0 31040000 00000200 0c0e0000 00000000  1...............
 0bb0 00000000 00000000 3a040000 00000200  ........:.......
 0bc0 f40d0000 00000000 00000000 00000000  ................
 0bd0 43040000 00000200 3c0e0000 00000000  C.......<.......
 0be0 00000000 00000000 4c040000 00000200  ........L.......
 0bf0 1c0e0000 00000000 00000000 00000000  ................
 0c00 55040000 00000200 240e0000 00000000  U.......$.......
 0c10 00000000 00000000 5e040000 00000200  ........^.......
 0c20 340e0000 00000000 00000000 00000000  4...............
 0c30 67040000 00000200 540e0000 00000000  g.......T.......
 0c40 00000000 00000000 71040000 00000200  ........q.......
 0c50 8c0e0000 00000000 00000000 00000000  ................
 0c60 7a040000 00000200 840e0000 00000000  z...............
 0c70 00000000 00000000 83040000 00000200  ................
 0c80 b40e0000 00000000 00000000 00000000  ................
 0c90 8c040000 00000200 d00e0000 00000000  ................
 0ca0 00000000 00000000 95040000 00000200  ................
 0cb0 c80e0000 00000000 00000000 00000000  ................
 0cc0 9e040000 00000200 fc0e0000 00000000  ................
 0cd0 00000000 00000000 a7040000 00000200  ................
 0ce0 180f0000 00000000 00000000 00000000  ................
 0cf0 b0040000 00000200 100f0000 00000000  ................
 0d00 00000000 00000000 b9040000 00000200  ................
 0d10 440f0000 00000000 00000000 00000000  D...............
 0d20 c2040000 00000200 600f0000 00000000  ........`.......
 0d30 00000000 00000000 cb040000 00000200  ................
 0d40 580f0000 00000000 00000000 00000000  X...............
 0d50 d4040000 00000200 8c0f0000 00000000  ................
 0d60 00000000 00000000 dd040000 1000f1ff  ................
 0d70 00000100 00000000 00000000 00000000  ................
 0d80 e2040000 12000200 900f0000 00000000  ................
 0d90 a8010000 00000000 e7040000 12000200  ................
 0da0 14000000 00000000 1c000000 00000000  ................
 0db0 ee040000 12000200 30000000 00000000  ........0.......
 0dc0 fc000000 00000000 0c050000 12000200  ................
 0dd0 2c010000 00000000 14010000 00000000  ,...............
 0de0 2b050000 12000200 40020000 00000000  +.......@.......
 0df0 04010000 00000000 4a050000 12000200  ........J.......
 0e00 44030000 00000000 f8000000 00000000  D...............
 0e10 69050000 12000200 3c040000 00000000  i.......<.......
 0e20 2c010000 00000000 8e050000 12000200  ,...............
 0e30 68050000 00000000 34010000 00000000  h.......4.......
 0e40 b4050000 12000200 9c060000 00000000  ................
 0e50 2c010000 00000000 da050000 12000200  ,...............
 0e60 c8070000 00000000 2c010000 00000000  ........,.......
 0e70 00060000 12000200 f4080000 00000000  ................
 0e80 30000000 00000000 1f060000 12000200  0...............
 0e90 24090000 00000000 34000000 00000000  $.......4.......
 0ea0 3f060000 12000200 58090000 00000000  ?.......X.......
 0eb0 34000000 00000000 5f060000 12000200  4......._.......
 0ec0 8c090000 00000000 34000000 00000000  ........4.......
 0ed0 80060000 12000200 c0090000 00000000  ................
 0ee0 60000000 00000000 9b060000 12000200  `...............
 0ef0 200a0000 00000000 64000000 00000000   .......d.......
 0f00 b7060000 12000200 840a0000 00000000  ................
 0f10 64000000 00000000 d3060000 12000200  d...............
 0f20 e80a0000 00000000 64000000 00000000  ........d.......
 0f30 f0060000 12000200 4c0b0000 00000000  ........L.......
 0f40 c4000000 00000000 0b070000 12000200  ................
 0f50 100c0000 00000000 cc000000 00000000  ................
 0f60 27070000 12000200 dc0c0000 00000000  '...............
 0f70 cc000000 00000000 43070000 12000200  ........C.......
 0f80 a80d0000 00000000 cc000000 00000000  ................
 0f90 60070000 12000200 740e0000 00000000  `.......t.......
 0fa0 44000000 00000000 81070000 12000200  D...............
 0fb0 b80e0000 00000000 48000000 00000000  ........H.......
 0fc0 a3070000 12000200 000f0000 00000000  ................
 0fd0 48000000 00000000 c5070000 12000200  H...............
 0fe0 480f0000 00000000 48000000 00000000  H.......H.......
Contents of section .shstrtab:
 0000 002e7465 78742e69 6e697400 2e746578  ..text.init..tex
 0010 74002e63 6f6d6d65 6e74002e 72697363  t..comment..risc
 0020 762e6174 74726962 75746573 002e7379  v.attributes..sy
 0030 6d746162 002e7368 73747274 6162002e  mtab..shstrtab..
 0040 73747274 616200                      strtab.
Contents of section .strtab:
 0000 00656e74 7279002e 4c706372 656c5f68  .entry..Lpcrel_h
 0010 69300065 6e640074 6573745f 76656374  i0.end.test_vect
 0020 6f725f6d 656d6370 792e6300 2e4c4242  or_memcpy.c..LBB
 0030 305f3300 2e4c4242 305f3200 2e4c4242  0_3..LBB0_2..LBB
 0040 315f3100 2e4c4242 315f3300 2e4c4242  1_1..LBB1_3..LBB
 0050 315f3130 002e4c42 42315f31 31002e4c  1_10..LBB1_11..L
 0060 4242315f 37002e4c 4242315f 39002e4c  BB1_7..LBB1_9..L
 0070 4242325f 31002e4c 4242325f 33002e4c  BB2_1..LBB2_3..L
 0080 4242325f 3130002e 4c424232 5f313100  BB2_10..LBB2_11.
 0090 2e4c4242 325f3700 2e4c4242 325f3900  .LBB2_7..LBB2_9.
 00a0 2e4c4242 335f3100 2e4c4242 335f3300  .LBB3_1..LBB3_3.
 00b0 2e4c4242 335f3130 002e4c42 42335f31  .LBB3_10..LBB3_1
 00c0 31002e4c 4242335f 37002e4c 4242335f  1..LBB3_7..LBB3_
 00d0 39002e4c 4242345f 31002e4c 4242345f  9..LBB4_1..LBB4_
 00e0 33002e4c 4242345f 3130002e 4c424234  3..LBB4_10..LBB4
 00f0 5f313100 2e4c4242 345f3700 2e4c4242  _11..LBB4_7..LBB
 0100 345f3900 2e4c4242 355f3100 2e4c4242  4_9..LBB5_1..LBB
 0110 355f3500 2e4c4242 355f3300 2e4c4242  5_5..LBB5_3..LBB
 0120 355f3132 002e4c42 42355f34 002e4c42  5_12..LBB5_4..LB
 0130 42355f37 002e4c42 42355f39 002e4c42  B5_7..LBB5_9..LB
 0140 42355f31 31002e4c 4242355f 3133002e  B5_11..LBB5_13..
 0150 4c424236 5f31002e 4c424236 5f35002e  LBB6_1..LBB6_5..
 0160 4c424236 5f33002e 4c424236 5f313200  LBB6_3..LBB6_12.
 0170 2e4c4242 365f3400 2e4c4242 365f3700  .LBB6_4..LBB6_7.
 0180 2e4c4242 365f3900 2e4c4242 365f3131  .LBB6_9..LBB6_11
 0190 002e4c42 42365f31 33002e4c 4242375f  ..LBB6_13..LBB7_
 01a0 31002e4c 4242375f 35002e4c 4242375f  1..LBB7_5..LBB7_
 01b0 33002e4c 4242375f 3132002e 4c424237  3..LBB7_12..LBB7
 01c0 5f34002e 4c424237 5f37002e 4c424237  _4..LBB7_7..LBB7
 01d0 5f39002e 4c424237 5f313100 2e4c4242  _9..LBB7_11..LBB
 01e0 375f3133 002e4c42 42385f31 002e4c42  7_13..LBB8_1..LB
 01f0 42385f35 002e4c42 42385f33 002e4c42  B8_5..LBB8_3..LB
 0200 42385f31 32002e4c 4242385f 34002e4c  B8_12..LBB8_4..L
 0210 4242385f 37002e4c 4242385f 39002e4c  BB8_7..LBB8_9..L
 0220 4242385f 3131002e 4c424238 5f313300  BB8_11..LBB8_13.
 0230 2e4c4242 395f3200 2e4c4242 395f3100  .LBB9_2..LBB9_1.
 0240 2e4c4242 395f3400 2e4c4242 31305f32  .LBB9_4..LBB10_2
 0250 002e4c42 4231305f 31002e4c 42423130  ..LBB10_1..LBB10
 0260 5f34002e 4c424231 315f3200 2e4c4242  _4..LBB11_2..LBB
 0270 31315f31 002e4c42 4231315f 34002e4c  11_1..LBB11_4..L
 0280 42423132 5f32002e 4c424231 325f3100  BB12_2..LBB12_1.
 0290 2e4c4242 31325f34 002e4c42 4231335f  .LBB12_4..LBB13_
 02a0 34002e4c 42423133 5f31002e 4c424231  4..LBB13_1..LBB1
 02b0 335f3200 2e4c4242 31335f33 002e4c42  3_2..LBB13_3..LB
 02c0 4231335f 38002e4c 42423133 5f37002e  B13_8..LBB13_7..
 02d0 4c424231 345f3400 2e4c4242 31345f31  LBB14_4..LBB14_1
 02e0 002e4c42 4231345f 32002e4c 42423134  ..LBB14_2..LBB14
 02f0 5f33002e 4c424231 345f3800 2e4c4242  _3..LBB14_8..LBB
 0300 31345f37 002e4c42 4231355f 34002e4c  14_7..LBB15_4..L
 0310 42423135 5f31002e 4c424231 355f3200  BB15_1..LBB15_2.
 0320 2e4c4242 31355f33 002e4c42 4231355f  .LBB15_3..LBB15_
 0330 38002e4c 42423135 5f37002e 4c424231  8..LBB15_7..LBB1
 0340 365f3400 2e4c4242 31365f31 002e4c42  6_4..LBB16_1..LB
 0350 4231365f 32002e4c 42423136 5f33002e  B16_2..LBB16_3..
 0360 4c424231 365f3800 2e4c4242 31365f37  LBB16_8..LBB16_7
 0370 002e4c42 4231375f 33002e4c 42423137  ..LBB17_3..LBB17
 0380 5f32002e 4c424231 375f3700 2e4c4242  _2..LBB17_7..LBB
 0390 31375f34 002e4c42 4231375f 35002e4c  17_4..LBB17_5..L
 03a0 42423137 5f36002e 4c424231 375f3130  BB17_6..LBB17_10
 03b0 002e4c42 4231385f 33002e4c 42423138  ..LBB18_3..LBB18
 03c0 5f32002e 4c424231 385f3700 2e4c4242  _2..LBB18_7..LBB
 03d0 31385f34 002e4c42 4231385f 35002e4c  18_4..LBB18_5..L
 03e0 42423138 5f36002e 4c424231 385f3130  BB18_6..LBB18_10
 03f0 002e4c42 4231395f 33002e4c 42423139  ..LBB19_3..LBB19
 0400 5f32002e 4c424231 395f3700 2e4c4242  _2..LBB19_7..LBB
 0410 31395f34 002e4c42 4231395f 35002e4c  19_4..LBB19_5..L
 0420 42423139 5f36002e 4c424231 395f3130  BB19_6..LBB19_10
 0430 002e4c42 4232305f 33002e4c 42423230  ..LBB20_3..LBB20
 0440 5f32002e 4c424232 305f3700 2e4c4242  _2..LBB20_7..LBB
 0450 32305f34 002e4c42 4232305f 35002e4c  20_4..LBB20_5..L
 0460 42423230 5f36002e 4c424232 305f3130  BB20_6..LBB20_10
 0470 002e4c42 4232315f 32002e4c 42423231  ..LBB21_2..LBB21
 0480 5f31002e 4c424232 315f3400 2e4c4242  _1..LBB21_4..LBB
 0490 32325f32 002e4c42 4232325f 31002e4c  22_2..LBB22_1..L
 04a0 42423232 5f34002e 4c424232 335f3200  BB22_4..LBB23_2.
 04b0 2e4c4242 32335f31 002e4c42 4232335f  .LBB23_1..LBB23_
 04c0 34002e4c 42423234 5f32002e 4c424232  4..LBB24_2..LBB2
 04d0 345f3100 2e4c4242 32345f34 005f5f73  4_1..LBB24_4.__s
 04e0 70006d61 696e006d 656d7365 74007665  p.main.memset.ve
 04f0 63746f72 5f6d656d 6370795f 6861726e  ctor_memcpy_harn
 0500 6573735f 75696e74 385f7400 76656374  ess_uint8_t.vect
 0510 6f725f6d 656d6370 795f6861 726e6573  or_memcpy_harnes
 0520 735f7569 6e743136 5f740076 6563746f  s_uint16_t.vecto
 0530 725f6d65 6d637079 5f686172 6e657373  r_memcpy_harness
 0540 5f75696e 7433325f 74007665 63746f72  _uint32_t.vector
 0550 5f6d656d 6370795f 6861726e 6573735f  _memcpy_harness_
 0560 75696e74 36345f74 00766563 746f725f  uint64_t.vector_
 0570 6d656d63 70795f6d 61736b65 645f6861  memcpy_masked_ha
 0580 726e6573 735f7569 6e74385f 74007665  rness_uint8_t.ve
 0590 63746f72 5f6d656d 6370795f 6d61736b  ctor_memcpy_mask
 05a0 65645f68 61726e65 73735f75 696e7431  ed_harness_uint1
 05b0 365f7400 76656374 6f725f6d 656d6370  6_t.vector_memcp
 05c0 795f6d61 736b6564 5f686172 6e657373  y_masked_harness
 05d0 5f75696e 7433325f 74007665 63746f72  _uint32_t.vector
 05e0 5f6d656d 6370795f 6d61736b 65645f68  _memcpy_masked_h
 05f0 61726e65 73735f75 696e7436 345f7400  arness_uint64_t.
 0600 76656374 6f725f6d 656d6370 795f756e  vector_memcpy_un
 0610 69745f73 74726964 655f6538 6d380076  it_stride_e8m8.v
 0620 6563746f 725f6d65 6d637079 5f756e69  ector_memcpy_uni
 0630 745f7374 72696465 5f653136 6d380076  t_stride_e16m8.v
 0640 6563746f 725f6d65 6d637079 5f756e69  ector_memcpy_uni
 0650 745f7374 72696465 5f653332 6d380076  t_stride_e32m8.v
 0660 6563746f 725f6d65 6d637079 5f756e69  ector_memcpy_uni
 0670 745f7374 72696465 5f653332 6d663200  t_stride_e32mf2.
 0680 76656374 6f725f6d 656d6370 795f7374  vector_memcpy_st
 0690 72696465 645f6538 6d380076 6563746f  rided_e8m8.vecto
 06a0 725f6d65 6d637079 5f737472 69646564  r_memcpy_strided
 06b0 5f653136 6d380076 6563746f 725f6d65  _e16m8.vector_me
 06c0 6d637079 5f737472 69646564 5f653332  mcpy_strided_e32
 06d0 6d380076 6563746f 725f6d65 6d637079  m8.vector_memcpy
 06e0 5f737472 69646564 5f653332 6d663200  _strided_e32mf2.
 06f0 76656374 6f725f6d 656d6370 795f696e  vector_memcpy_in
 0700 64657865 645f6538 6d380076 6563746f  dexed_e8m8.vecto
 0710 725f6d65 6d637079 5f696e64 65786564  r_memcpy_indexed
 0720 5f653136 6d380076 6563746f 725f6d65  _e16m8.vector_me
 0730 6d637079 5f696e64 65786564 5f653332  mcpy_indexed_e32
 0740 6d380076 6563746f 725f6d65 6d637079  m8.vector_memcpy
 0750 5f696e64 65786564 5f653332 6d663200  _indexed_e32mf2.
 0760 76656374 6f725f6d 656d6370 795f6d61  vector_memcpy_ma
 0770 736b6564 5f737472 6964655f 65386d38  sked_stride_e8m8
 0780 00766563 746f725f 6d656d63 70795f6d  .vector_memcpy_m
 0790 61736b65 645f7374 72696465 5f653136  asked_stride_e16
 07a0 6d380076 6563746f 725f6d65 6d637079  m8.vector_memcpy
 07b0 5f6d6173 6b65645f 73747269 64655f65  _masked_stride_e
 07c0 33326d38 00766563 746f725f 6d656d63  32m8.vector_memc
 07d0 70795f6d 61736b65 645f7374 72696465  py_masked_stride
 07e0 5f653332 6d663200                    _e32mf2.

Disassembly of section .text.init:

0000000000000000 <entry>:
       0: 17 01 01 00  	auipc	sp, 16
       4: 13 01 01 02  	addi	sp, sp, 32
       8: 97 10 00 00  	auipc	ra, 1
       c: e7 80 80 f8  	jalr	-120(ra)

0000000000000010 <end>:
      10: 6f 00 00 00  	j	0x10 <end>

Disassembly of section .text:

0000000000000014 <memset>:
      14: 63 0c 06 00  	beqz	a2, 0x2c <.LBB0_3>
      18: 93 06 05 00  	mv	a3, a0

000000000000001c <.LBB0_2>:
      1c: 23 80 b6 00  	sb	a1, 0(a3)
      20: 13 06 f6 ff  	addi	a2, a2, -1
      24: 93 86 16 00  	addi	a3, a3, 1
      28: e3 1a 06 fe  	bnez	a2, 0x1c <.LBB0_2>

000000000000002c <.LBB0_3>:
      2c: 67 80 00 00  	ret

0000000000000030 <vector_memcpy_harness_uint8_t>:
      30: 13 01 01 ee  	addi	sp, sp, -288
      34: 23 3c 11 10  	sd	ra, 280(sp)
      38: 23 38 81 10  	sd	s0, 272(sp)
      3c: 23 34 91 10  	sd	s1, 264(sp)
      40: 23 30 21 11  	sd	s2, 256(sp)
      44: 13 09 05 00  	mv	s2, a0
      48: 93 04 01 08  	addi	s1, sp, 128
      4c: 13 05 01 08  	addi	a0, sp, 128
      50: 13 06 00 08  	addi	a2, zero, 128
      54: 13 04 00 08  	addi	s0, zero, 128
      58: 93 05 00 00  	mv	a1, zero
      5c: 97 00 00 00  	auipc	ra, 0
      60: e7 80 80 fb  	jalr	-72(ra)
      64: 13 05 01 00  	mv	a0, sp
      68: 13 06 00 08  	addi	a2, zero, 128
      6c: 93 05 00 00  	mv	a1, zero
      70: 97 00 00 00  	auipc	ra, 0
      74: e7 80 40 fa  	jalr	-92(ra)
      78: 13 05 00 00  	mv	a0, zero

000000000000007c <.LBB1_1>:
      7c: b3 85 a4 00  	add	a1, s1, a0
      80: 23 80 a5 00  	sb	a0, 0(a1)
      84: 13 05 15 00  	addi	a0, a0, 1
      88: e3 1a 85 fe  	bne	a0, s0, 0x7c <.LBB1_1>
      8c: 93 04 01 08  	addi	s1, sp, 128
      90: 13 05 e0 06  	addi	a0, zero, 110
      94: 93 05 01 08  	addi	a1, sp, 128
      98: 13 06 01 00  	mv	a2, sp
      9c: 13 04 01 00  	mv	s0, sp
      a0: e7 00 09 00  	jalr	s2
      a4: 13 05 00 00  	mv	a0, zero
      a8: 93 05 d0 06  	addi	a1, zero, 109

00000000000000ac <.LBB1_3>:
      ac: 13 76 f5 0f  	andi	a2, a0, 255
      b0: b3 86 c4 00  	add	a3, s1, a2
      b4: 83 c6 06 00  	lbu	a3, 0(a3)
      b8: 33 07 c4 00  	add	a4, s0, a2
      bc: 03 47 07 00  	lbu	a4, 0(a4)
      c0: 63 98 e6 04  	bne	a3, a4, 0x110 <.LBB1_10>
      c4: 13 05 15 00  	addi	a0, a0, 1
      c8: e3 62 b6 fe  	bltu	a2, a1, 0xac <.LBB1_3>
      cc: 83 45 e1 06  	lbu	a1, 110(sp)
      d0: 13 05 00 00  	mv	a0, zero
      d4: 63 90 05 04  	bnez	a1, 0x114 <.LBB1_11>
      d8: 93 05 f0 06  	addi	a1, zero, 111
      dc: 13 05 f0 ff  	addi	a0, zero, -1
      e0: 13 06 01 00  	mv	a2, sp

00000000000000e4 <.LBB1_7>:
      e4: 93 96 85 03  	slli	a3, a1, 56
      e8: 93 d6 86 43  	srai	a3, a3, 56
      ec: 63 cc 06 00  	bltz	a3, 0x104 <.LBB1_9>
      f0: 13 f7 f5 0f  	andi	a4, a1, 255
      f4: 33 07 e6 00  	add	a4, a2, a4
      f8: 03 47 07 00  	lbu	a4, 0(a4)
      fc: 93 85 15 00  	addi	a1, a1, 1
     100: e3 02 07 fe  	beqz	a4, 0xe4 <.LBB1_7>

0000000000000104 <.LBB1_9>:
     104: 33 25 d5 00  	slt	a0, a0, a3
     108: 13 45 15 00  	xori	a0, a0, 1
     10c: 6f 00 80 00  	j	0x114 <.LBB1_11>

0000000000000110 <.LBB1_10>:
     110: 13 05 00 00  	mv	a0, zero

0000000000000114 <.LBB1_11>:
     114: 03 39 01 10  	ld	s2, 256(sp)
     118: 83 34 81 10  	ld	s1, 264(sp)
     11c: 03 34 01 11  	ld	s0, 272(sp)
     120: 83 30 81 11  	ld	ra, 280(sp)
     124: 13 01 01 12  	addi	sp, sp, 288
     128: 67 80 00 00  	ret

000000000000012c <vector_memcpy_harness_uint16_t>:
     12c: 13 01 01 de  	addi	sp, sp, -544
     130: 23 3c 11 20  	sd	ra, 536(sp)
     134: 23 38 81 20  	sd	s0, 528(sp)
     138: 23 34 91 20  	sd	s1, 520(sp)
     13c: 23 30 21 21  	sd	s2, 512(sp)
     140: 13 09 05 00  	mv	s2, a0
     144: 13 05 01 10  	addi	a0, sp, 256
     148: 13 06 00 10  	addi	a2, zero, 256
     14c: 13 04 01 10  	addi	s0, sp, 256
     150: 93 05 00 00  	mv	a1, zero
     154: 97 00 00 00  	auipc	ra, 0
     158: e7 80 00 ec  	jalr	-320(ra)
     15c: 13 05 01 00  	mv	a0, sp
     160: 13 06 00 10  	addi	a2, zero, 256
     164: 93 05 00 00  	mv	a1, zero
     168: 97 00 00 00  	auipc	ra, 0
     16c: e7 80 c0 ea  	jalr	-340(ra)
     170: 13 05 00 00  	mv	a0, zero
     174: 93 05 00 08  	addi	a1, zero, 128

0000000000000178 <.LBB2_1>:
     178: 23 10 a4 00  	sh	a0, 0(s0)
     17c: 13 05 15 00  	addi	a0, a0, 1
     180: 13 04 24 00  	addi	s0, s0, 2
     184: e3 1a b5 fe  	bne	a0, a1, 0x178 <.LBB2_1>
     188: 93 04 01 10  	addi	s1, sp, 256
     18c: 13 05 e0 06  	addi	a0, zero, 110
     190: 93 05 01 10  	addi	a1, sp, 256
     194: 13 06 01 00  	mv	a2, sp
     198: 13 04 01 00  	mv	s0, sp
     19c: e7 00 09 00  	jalr	s2
     1a0: 13 05 00 00  	mv	a0, zero
     1a4: b7 05 01 00  	lui	a1, 16
     1a8: 9b 85 f5 ff  	addiw	a1, a1, -1
     1ac: 13 06 d0 06  	addi	a2, zero, 109

00000000000001b0 <.LBB2_3>:
     1b0: 93 16 05 03  	slli	a3, a0, 48
     1b4: 93 d6 f6 02  	srli	a3, a3, 47
     1b8: 33 87 d4 00  	add	a4, s1, a3
     1bc: 03 57 07 00  	lhu	a4, 0(a4)
     1c0: b3 06 d4 00  	add	a3, s0, a3
     1c4: 83 d6 06 00  	lhu	a3, 0(a3)
     1c8: 63 1e d7 04  	bne	a4, a3, 0x224 <.LBB2_10>
     1cc: b3 76 b5 00  	and	a3, a0, a1
     1d0: 13 05 15 00  	addi	a0, a0, 1
     1d4: e3 ee c6 fc  	bltu	a3, a2, 0x1b0 <.LBB2_3>
     1d8: 83 55 c1 0d  	lhu	a1, 220(sp)
     1dc: 13 05 00 00  	mv	a0, zero
     1e0: 63 94 05 04  	bnez	a1, 0x228 <.LBB2_11>
     1e4: 13 05 e0 06  	addi	a0, zero, 110
     1e8: b7 05 01 00  	lui	a1, 16
     1ec: 9b 85 f5 ff  	addiw	a1, a1, -1
     1f0: 13 06 e0 07  	addi	a2, zero, 126
     1f4: 93 06 01 00  	mv	a3, sp

00000000000001f8 <.LBB2_7>:
     1f8: 33 77 b5 00  	and	a4, a0, a1
     1fc: 63 6e e6 00  	bltu	a2, a4, 0x218 <.LBB2_9>
     200: 13 05 15 00  	addi	a0, a0, 1
     204: b3 77 b5 00  	and	a5, a0, a1
     208: 93 97 17 00  	slli	a5, a5, 1
     20c: b3 87 f6 00  	add	a5, a3, a5
     210: 83 d7 07 00  	lhu	a5, 0(a5)
     214: e3 82 07 fe  	beqz	a5, 0x1f8 <.LBB2_7>

0000000000000218 <.LBB2_9>:
     218: 13 35 f7 07  	sltiu	a0, a4, 127
     21c: 13 45 15 00  	xori	a0, a0, 1
     220: 6f 00 80 00  	j	0x228 <.LBB2_11>

0000000000000224 <.LBB2_10>:
     224: 13 05 00 00  	mv	a0, zero

0000000000000228 <.LBB2_11>:
     228: 03 39 01 20  	ld	s2, 512(sp)
     22c: 83 34 81 20  	ld	s1, 520(sp)
     230: 03 34 01 21  	ld	s0, 528(sp)
     234: 83 30 81 21  	ld	ra, 536(sp)
     238: 13 01 01 22  	addi	sp, sp, 544
     23c: 67 80 00 00  	ret

0000000000000240 <vector_memcpy_harness_uint32_t>:
     240: 13 01 01 bd  	addi	sp, sp, -1072
     244: 23 34 11 42  	sd	ra, 1064(sp)
     248: 23 30 81 42  	sd	s0, 1056(sp)
     24c: 23 3c 91 40  	sd	s1, 1048(sp)
     250: 23 38 21 41  	sd	s2, 1040(sp)
     254: 13 09 05 00  	mv	s2, a0
     258: 13 05 01 21  	addi	a0, sp, 528
     25c: 13 06 00 20  	addi	a2, zero, 512
     260: 93 04 01 21  	addi	s1, sp, 528
     264: 93 05 00 00  	mv	a1, zero
     268: 97 00 00 00  	auipc	ra, 0
     26c: e7 80 c0 da  	jalr	-596(ra)
     270: 13 05 01 01  	addi	a0, sp, 16
     274: 13 06 00 20  	addi	a2, zero, 512
     278: 93 05 00 00  	mv	a1, zero
     27c: 97 00 00 00  	auipc	ra, 0
     280: e7 80 80 d9  	jalr	-616(ra)
     284: 13 05 00 00  	mv	a0, zero
     288: 93 05 00 08  	addi	a1, zero, 128

000000000000028c <.LBB3_1>:
     28c: 23 a0 a4 00  	sw	a0, 0(s1)
     290: 13 05 15 00  	addi	a0, a0, 1
     294: 93 84 44 00  	addi	s1, s1, 4
     298: e3 1a b5 fe  	bne	a0, a1, 0x28c <.LBB3_1>
     29c: 93 04 01 21  	addi	s1, sp, 528
     2a0: 13 05 e0 06  	addi	a0, zero, 110
     2a4: 93 05 01 21  	addi	a1, sp, 528
     2a8: 13 06 01 01  	addi	a2, sp, 16
     2ac: 13 04 01 01  	addi	s0, sp, 16
     2b0: e7 00 09 00  	jalr	s2
     2b4: 93 05 00 00  	mv	a1, zero
     2b8: 13 05 d0 06  	addi	a0, zero, 109

00000000000002bc <.LBB3_3>:
     2bc: 13 96 05 02  	slli	a2, a1, 32
     2c0: 13 56 e6 01  	srli	a2, a2, 30
     2c4: b3 86 c4 00  	add	a3, s1, a2
     2c8: 83 a6 06 00  	lw	a3, 0(a3)
     2cc: 33 06 c4 00  	add	a2, s0, a2
     2d0: 03 26 06 00  	lw	a2, 0(a2)
     2d4: 63 9a c6 04  	bne	a3, a2, 0x328 <.LBB3_10>
     2d8: 1b 86 05 00  	sext.w	a2, a1
     2dc: 93 85 15 00  	addi	a1, a1, 1
     2e0: e3 6e a6 fc  	bltu	a2, a0, 0x2bc <.LBB3_3>
     2e4: 83 25 81 1c  	lw	a1, 456(sp)
     2e8: 13 05 00 00  	mv	a0, zero
     2ec: 63 90 05 04  	bnez	a1, 0x32c <.LBB3_11>
     2f0: 13 05 e0 06  	addi	a0, zero, 110
     2f4: 93 05 e0 07  	addi	a1, zero, 126
     2f8: 13 06 01 01  	addi	a2, sp, 16

00000000000002fc <.LBB3_7>:
     2fc: 9b 06 05 00  	sext.w	a3, a0
     300: 63 ee d5 00  	bltu	a1, a3, 0x31c <.LBB3_9>
     304: 13 05 15 00  	addi	a0, a0, 1
     308: 13 17 05 02  	slli	a4, a0, 32
     30c: 13 57 e7 01  	srli	a4, a4, 30
     310: 33 07 e6 00  	add	a4, a2, a4
     314: 03 27 07 00  	lw	a4, 0(a4)
     318: e3 02 07 fe  	beqz	a4, 0x2fc <.LBB3_7>

000000000000031c <.LBB3_9>:
     31c: 13 b5 f6 07  	sltiu	a0, a3, 127
     320: 13 45 15 00  	xori	a0, a0, 1
     324: 6f 00 80 00  	j	0x32c <.LBB3_11>

0000000000000328 <.LBB3_10>:
     328: 13 05 00 00  	mv	a0, zero

000000000000032c <.LBB3_11>:
     32c: 03 39 01 41  	ld	s2, 1040(sp)
     330: 83 34 81 41  	ld	s1, 1048(sp)
     334: 03 34 01 42  	ld	s0, 1056(sp)
     338: 83 30 81 42  	ld	ra, 1064(sp)
     33c: 13 01 01 43  	addi	sp, sp, 1072
     340: 67 80 00 00  	ret

0000000000000344 <vector_memcpy_harness_uint64_t>:
     344: 13 01 01 81  	addi	sp, sp, -2032
     348: 23 34 11 7e  	sd	ra, 2024(sp)
     34c: 23 30 81 7e  	sd	s0, 2016(sp)
     350: 23 3c 91 7c  	sd	s1, 2008(sp)
     354: 23 38 21 7d  	sd	s2, 2000(sp)
     358: 13 01 01 fc  	addi	sp, sp, -64
     35c: 13 09 05 00  	mv	s2, a0
     360: 13 05 01 41  	addi	a0, sp, 1040
     364: 13 06 00 40  	addi	a2, zero, 1024
     368: 93 04 01 41  	addi	s1, sp, 1040
     36c: 93 05 00 00  	mv	a1, zero
     370: 97 00 00 00  	auipc	ra, 0
     374: e7 80 40 ca  	jalr	-860(ra)
     378: 13 05 01 01  	addi	a0, sp, 16
     37c: 13 06 00 40  	addi	a2, zero, 1024
     380: 93 05 00 00  	mv	a1, zero
     384: 97 00 00 00  	auipc	ra, 0
     388: e7 80 00 c9  	jalr	-880(ra)
     38c: 13 05 00 00  	mv	a0, zero
     390: 93 05 00 08  	addi	a1, zero, 128

0000000000000394 <.LBB4_1>:
     394: 23 b0 a4 00  	sd	a0, 0(s1)
     398: 13 05 15 00  	addi	a0, a0, 1
     39c: 93 84 84 00  	addi	s1, s1, 8
     3a0: e3 1a b5 fe  	bne	a0, a1, 0x394 <.LBB4_1>
     3a4: 93 04 01 41  	addi	s1, sp, 1040
     3a8: 13 05 e0 06  	addi	a0, zero, 110
     3ac: 93 05 01 41  	addi	a1, sp, 1040
     3b0: 13 06 01 01  	addi	a2, sp, 16
     3b4: 13 04 01 01  	addi	s0, sp, 16
     3b8: e7 00 09 00  	jalr	s2
     3bc: 13 05 00 00  	mv	a0, zero
     3c0: 93 05 00 37  	addi	a1, zero, 880

00000000000003c4 <.LBB4_3>:
     3c4: 33 86 a4 00  	add	a2, s1, a0
     3c8: 03 36 06 00  	ld	a2, 0(a2)
     3cc: b3 06 a4 00  	add	a3, s0, a0
     3d0: 83 b6 06 00  	ld	a3, 0(a3)
     3d4: 63 14 d6 04  	bne	a2, a3, 0x41c <.LBB4_10>
     3d8: 13 05 85 00  	addi	a0, a0, 8
     3dc: e3 14 b5 fe  	bne	a0, a1, 0x3c4 <.LBB4_3>
     3e0: 83 35 01 38  	ld	a1, 896(sp)
     3e4: 13 05 00 00  	mv	a0, zero
     3e8: 63 9c 05 02  	bnez	a1, 0x420 <.LBB4_11>
     3ec: 13 05 81 38  	addi	a0, sp, 904
     3f0: 93 06 e0 06  	addi	a3, zero, 110
     3f4: 93 05 f0 07  	addi	a1, zero, 127

00000000000003f8 <.LBB4_7>:
     3f8: 13 86 06 00  	mv	a2, a3
     3fc: 63 8a b6 00  	beq	a3, a1, 0x410 <.LBB4_9>
     400: 03 37 05 00  	ld	a4, 0(a0)
     404: 93 06 16 00  	addi	a3, a2, 1
     408: 13 05 85 00  	addi	a0, a0, 8
     40c: e3 06 07 fe  	beqz	a4, 0x3f8 <.LBB4_7>

0000000000000410 <.LBB4_9>:
     410: 13 05 e0 07  	addi	a0, zero, 126
     414: 33 35 c5 00  	sltu	a0, a0, a2
     418: 6f 00 80 00  	j	0x420 <.LBB4_11>

000000000000041c <.LBB4_10>:
     41c: 13 05 00 00  	mv	a0, zero

0000000000000420 <.LBB4_11>:
     420: 13 01 01 04  	addi	sp, sp, 64
     424: 03 39 01 7d  	ld	s2, 2000(sp)
     428: 83 34 81 7d  	ld	s1, 2008(sp)
     42c: 03 34 01 7e  	ld	s0, 2016(sp)
     430: 83 30 81 7e  	ld	ra, 2024(sp)
     434: 13 01 01 7f  	addi	sp, sp, 2032
     438: 67 80 00 00  	ret

000000000000043c <vector_memcpy_masked_harness_uint8_t>:
     43c: 13 01 01 ed  	addi	sp, sp, -304
     440: 23 34 11 12  	sd	ra, 296(sp)
     444: 23 30 81 12  	sd	s0, 288(sp)
     448: 23 3c 91 10  	sd	s1, 280(sp)
     44c: 23 38 21 11  	sd	s2, 272(sp)
     450: 23 34 31 11  	sd	s3, 264(sp)
     454: 13 09 05 00  	mv	s2, a0
     458: 93 09 81 08  	addi	s3, sp, 136
     45c: 13 05 81 08  	addi	a0, sp, 136
     460: 13 06 00 08  	addi	a2, zero, 128
     464: 93 04 00 08  	addi	s1, zero, 128
     468: 93 05 00 00  	mv	a1, zero
     46c: 97 00 00 00  	auipc	ra, 0
     470: e7 80 80 ba  	jalr	-1112(ra)
     474: 13 05 81 00  	addi	a0, sp, 8
     478: 13 06 00 08  	addi	a2, zero, 128
     47c: 13 04 81 00  	addi	s0, sp, 8
     480: 93 05 00 00  	mv	a1, zero
     484: 97 00 00 00  	auipc	ra, 0
     488: e7 80 00 b9  	jalr	-1136(ra)
     48c: 13 05 00 00  	mv	a0, zero
     490: 93 05 b0 0b  	addi	a1, zero, 187

0000000000000494 <.LBB5_1>:
     494: 33 86 a9 00  	add	a2, s3, a0
     498: 23 00 a6 00  	sb	a0, 0(a2)
     49c: 33 06 a4 00  	add	a2, s0, a0
     4a0: 13 05 15 00  	addi	a0, a0, 1
     4a4: 23 00 b6 00  	sb	a1, 0(a2)
     4a8: e3 16 95 fe  	bne	a0, s1, 0x494 <.LBB5_1>
     4ac: 93 04 e0 06  	addi	s1, zero, 110
     4b0: 93 09 81 08  	addi	s3, sp, 136
     4b4: 13 05 e0 06  	addi	a0, zero, 110
     4b8: 93 05 81 08  	addi	a1, sp, 136
     4bc: 13 06 81 00  	addi	a2, sp, 8
     4c0: 13 04 81 00  	addi	s0, sp, 8
     4c4: e7 00 09 00  	jalr	s2
     4c8: 13 05 00 00  	mv	a0, zero
     4cc: 93 05 b0 0b  	addi	a1, zero, 187
     4d0: 6f 00 c0 01  	j	0x4ec <.LBB5_5>

00000000000004d4 <.LBB5_3>:
     4d4: b3 86 a9 00  	add	a3, s3, a0
     4d8: 83 c6 06 00  	lbu	a3, 0(a3)
     4dc: 03 46 06 00  	lbu	a2, 0(a2)
     4e0: 63 94 c6 06  	bne	a3, a2, 0x548 <.LBB5_12>

00000000000004e4 <.LBB5_4>:
     4e4: 13 05 15 00  	addi	a0, a0, 1
     4e8: 63 0e 95 00  	beq	a0, s1, 0x504 <.LBB5_7>

00000000000004ec <.LBB5_5>:
     4ec: 93 76 15 00  	andi	a3, a0, 1
     4f0: 33 06 a4 00  	add	a2, s0, a0
     4f4: e3 90 06 fe  	bnez	a3, 0x4d4 <.LBB5_3>
     4f8: 03 46 06 00  	lbu	a2, 0(a2)
     4fc: e3 04 b6 fe  	beq	a2, a1, 0x4e4 <.LBB5_4>
     500: 6f 00 80 04  	j	0x548 <.LBB5_12>

0000000000000504 <.LBB5_7>:
     504: 83 45 61 07  	lbu	a1, 118(sp)
     508: 13 05 b0 0b  	addi	a0, zero, 187
     50c: 63 9e a5 02  	bne	a1, a0, 0x548 <.LBB5_12>
     510: 13 06 f0 06  	addi	a2, zero, 111
     514: 93 05 f0 ff  	addi	a1, zero, -1
     518: 93 06 81 00  	addi	a3, sp, 8

000000000000051c <.LBB5_9>:
     51c: 13 17 86 03  	slli	a4, a2, 56
     520: 13 57 87 43  	srai	a4, a4, 56
     524: 63 4c 07 00  	bltz	a4, 0x53c <.LBB5_11>
     528: 93 77 f6 0f  	andi	a5, a2, 255
     52c: b3 87 f6 00  	add	a5, a3, a5
     530: 83 c7 07 00  	lbu	a5, 0(a5)
     534: 13 06 16 00  	addi	a2, a2, 1
     538: e3 82 a7 fe  	beq	a5, a0, 0x51c <.LBB5_9>

000000000000053c <.LBB5_11>:
     53c: 33 a5 e5 00  	slt	a0, a1, a4
     540: 13 45 15 00  	xori	a0, a0, 1
     544: 6f 00 80 00  	j	0x54c <.LBB5_13>

0000000000000548 <.LBB5_12>:
     548: 13 05 00 00  	mv	a0, zero

000000000000054c <.LBB5_13>:
     54c: 83 39 81 10  	ld	s3, 264(sp)
     550: 03 39 01 11  	ld	s2, 272(sp)
     554: 83 34 81 11  	ld	s1, 280(sp)
     558: 03 34 01 12  	ld	s0, 288(sp)
     55c: 83 30 81 12  	ld	ra, 296(sp)
     560: 13 01 01 13  	addi	sp, sp, 304
     564: 67 80 00 00  	ret

0000000000000568 <vector_memcpy_masked_harness_uint16_t>:
     568: 13 01 01 dd  	addi	sp, sp, -560
     56c: 23 34 11 22  	sd	ra, 552(sp)
     570: 23 30 81 22  	sd	s0, 544(sp)
     574: 23 3c 91 20  	sd	s1, 536(sp)
     578: 23 38 21 21  	sd	s2, 528(sp)
     57c: 23 34 31 21  	sd	s3, 520(sp)
     580: 13 09 05 00  	mv	s2, a0
     584: 13 05 81 10  	addi	a0, sp, 264
     588: 13 06 00 10  	addi	a2, zero, 256
     58c: 13 04 81 10  	addi	s0, sp, 264
     590: 93 05 00 00  	mv	a1, zero
     594: 97 00 00 00  	auipc	ra, 0
     598: e7 80 00 a8  	jalr	-1408(ra)
     59c: 13 05 81 00  	addi	a0, sp, 8
     5a0: 13 06 00 10  	addi	a2, zero, 256
     5a4: 93 04 81 00  	addi	s1, sp, 8
     5a8: 93 05 00 00  	mv	a1, zero
     5ac: 97 00 00 00  	auipc	ra, 0
     5b0: e7 80 80 a6  	jalr	-1432(ra)
     5b4: 13 05 00 00  	mv	a0, zero
     5b8: 93 05 b0 0b  	addi	a1, zero, 187
     5bc: 13 06 00 08  	addi	a2, zero, 128

00000000000005c0 <.LBB6_1>:
     5c0: 23 10 a4 00  	sh	a0, 0(s0)
     5c4: 23 90 b4 00  	sh	a1, 0(s1)
     5c8: 13 05 15 00  	addi	a0, a0, 1
     5cc: 13 04 24 00  	addi	s0, s0, 2
     5d0: 93 84 24 00  	addi	s1, s1, 2
     5d4: e3 16 c5 fe  	bne	a0, a2, 0x5c0 <.LBB6_1>
     5d8: 93 09 e0 06  	addi	s3, zero, 110
     5dc: 13 04 81 10  	addi	s0, sp, 264
     5e0: 13 05 e0 06  	addi	a0, zero, 110
     5e4: 93 05 81 10  	addi	a1, sp, 264
     5e8: 13 06 81 00  	addi	a2, sp, 8
     5ec: 93 04 81 00  	addi	s1, sp, 8
     5f0: e7 00 09 00  	jalr	s2
     5f4: 13 05 00 00  	mv	a0, zero
     5f8: 93 05 b0 0b  	addi	a1, zero, 187
     5fc: 6f 00 00 02  	j	0x61c <.LBB6_5>

0000000000000600 <.LBB6_3>:
     600: 03 56 04 00  	lhu	a2, 0(s0)
     604: 83 d6 04 00  	lhu	a3, 0(s1)
     608: 63 1a d6 06  	bne	a2, a3, 0x67c <.LBB6_12>

000000000000060c <.LBB6_4>:
     60c: 13 05 15 00  	addi	a0, a0, 1
     610: 13 04 24 00  	addi	s0, s0, 2
     614: 93 84 24 00  	addi	s1, s1, 2
     618: 63 0c 35 01  	beq	a0, s3, 0x630 <.LBB6_7>

000000000000061c <.LBB6_5>:
     61c: 13 76 15 00  	andi	a2, a0, 1
     620: e3 10 06 fe  	bnez	a2, 0x600 <.LBB6_3>
     624: 03 d6 04 00  	lhu	a2, 0(s1)
     628: e3 02 b6 fe  	beq	a2, a1, 0x60c <.LBB6_4>
     62c: 6f 00 00 05  	j	0x67c <.LBB6_12>

0000000000000630 <.LBB6_7>:
     630: 83 55 41 0e  	lhu	a1, 228(sp)
     634: 13 05 b0 0b  	addi	a0, zero, 187
     638: 63 92 a5 04  	bne	a1, a0, 0x67c <.LBB6_12>
     63c: 93 05 e0 06  	addi	a1, zero, 110
     640: 37 06 01 00  	lui	a2, 16
     644: 1b 06 f6 ff  	addiw	a2, a2, -1
     648: 93 06 e0 07  	addi	a3, zero, 126
     64c: 13 07 81 00  	addi	a4, sp, 8

0000000000000650 <.LBB6_9>:
     650: b3 f7 c5 00  	and	a5, a1, a2
     654: 63 ee f6 00  	bltu	a3, a5, 0x670 <.LBB6_11>
     658: 93 85 15 00  	addi	a1, a1, 1
     65c: b3 f4 c5 00  	and	s1, a1, a2
     660: 93 94 14 00  	slli	s1, s1, 1
     664: b3 04 97 00  	add	s1, a4, s1
     668: 83 d4 04 00  	lhu	s1, 0(s1)
     66c: e3 82 a4 fe  	beq	s1, a0, 0x650 <.LBB6_9>

0000000000000670 <.LBB6_11>:
     670: 13 b5 f7 07  	sltiu	a0, a5, 127
     674: 13 45 15 00  	xori	a0, a0, 1
     678: 6f 00 80 00  	j	0x680 <.LBB6_13>

000000000000067c <.LBB6_12>:
     67c: 13 05 00 00  	mv	a0, zero

0000000000000680 <.LBB6_13>:
     680: 83 39 81 20  	ld	s3, 520(sp)
     684: 03 39 01 21  	ld	s2, 528(sp)
     688: 83 34 81 21  	ld	s1, 536(sp)
     68c: 03 34 01 22  	ld	s0, 544(sp)
     690: 83 30 81 22  	ld	ra, 552(sp)
     694: 13 01 01 23  	addi	sp, sp, 560
     698: 67 80 00 00  	ret

000000000000069c <vector_memcpy_masked_harness_uint32_t>:
     69c: 13 01 01 bd  	addi	sp, sp, -1072
     6a0: 23 34 11 42  	sd	ra, 1064(sp)
     6a4: 23 30 81 42  	sd	s0, 1056(sp)
     6a8: 23 3c 91 40  	sd	s1, 1048(sp)
     6ac: 23 38 21 41  	sd	s2, 1040(sp)
     6b0: 23 34 31 41  	sd	s3, 1032(sp)
     6b4: 13 09 05 00  	mv	s2, a0
     6b8: 13 05 81 20  	addi	a0, sp, 520
     6bc: 13 06 00 20  	addi	a2, zero, 512
     6c0: 13 04 81 20  	addi	s0, sp, 520
     6c4: 93 05 00 00  	mv	a1, zero
     6c8: 97 00 00 00  	auipc	ra, 0
     6cc: e7 80 c0 94  	jalr	-1716(ra)
     6d0: 13 05 81 00  	addi	a0, sp, 8
     6d4: 13 06 00 20  	addi	a2, zero, 512
     6d8: 93 04 81 00  	addi	s1, sp, 8
     6dc: 93 05 00 00  	mv	a1, zero
     6e0: 97 00 00 00  	auipc	ra, 0
     6e4: e7 80 40 93  	jalr	-1740(ra)
     6e8: 13 05 00 00  	mv	a0, zero
     6ec: 93 05 b0 0b  	addi	a1, zero, 187
     6f0: 13 06 00 08  	addi	a2, zero, 128

00000000000006f4 <.LBB7_1>:
     6f4: 23 20 a4 00  	sw	a0, 0(s0)
     6f8: 23 a0 b4 00  	sw	a1, 0(s1)
     6fc: 13 05 15 00  	addi	a0, a0, 1
     700: 13 04 44 00  	addi	s0, s0, 4
     704: 93 84 44 00  	addi	s1, s1, 4
     708: e3 16 c5 fe  	bne	a0, a2, 0x6f4 <.LBB7_1>
     70c: 93 09 e0 06  	addi	s3, zero, 110
     710: 13 04 81 20  	addi	s0, sp, 520
     714: 13 05 e0 06  	addi	a0, zero, 110
     718: 93 05 81 20  	addi	a1, sp, 520
     71c: 13 06 81 00  	addi	a2, sp, 8
     720: 93 04 81 00  	addi	s1, sp, 8
     724: e7 00 09 00  	jalr	s2
     728: 13 05 00 00  	mv	a0, zero
     72c: 93 05 b0 0b  	addi	a1, zero, 187
     730: 6f 00 00 02  	j	0x750 <.LBB7_5>

0000000000000734 <.LBB7_3>:
     734: 03 26 04 00  	lw	a2, 0(s0)
     738: 83 a6 04 00  	lw	a3, 0(s1)
     73c: 63 16 d6 06  	bne	a2, a3, 0x7a8 <.LBB7_12>

0000000000000740 <.LBB7_4>:
     740: 13 05 15 00  	addi	a0, a0, 1
     744: 93 84 44 00  	addi	s1, s1, 4
     748: 13 04 44 00  	addi	s0, s0, 4
     74c: 63 0c 35 01  	beq	a0, s3, 0x764 <.LBB7_7>

0000000000000750 <.LBB7_5>:
     750: 13 76 15 00  	andi	a2, a0, 1
     754: e3 10 06 fe  	bnez	a2, 0x734 <.LBB7_3>
     758: 03 a6 04 00  	lw	a2, 0(s1)
     75c: e3 02 b6 fe  	beq	a2, a1, 0x740 <.LBB7_4>
     760: 6f 00 80 04  	j	0x7a8 <.LBB7_12>

0000000000000764 <.LBB7_7>:
     764: 83 25 01 1c  	lw	a1, 448(sp)
     768: 13 05 b0 0b  	addi	a0, zero, 187
     76c: 63 9e a5 02  	bne	a1, a0, 0x7a8 <.LBB7_12>
     770: 93 05 e0 06  	addi	a1, zero, 110
     774: 13 06 e0 07  	addi	a2, zero, 126
     778: 93 06 81 00  	addi	a3, sp, 8

000000000000077c <.LBB7_9>:
     77c: 1b 87 05 00  	sext.w	a4, a1
     780: 63 6e e6 00  	bltu	a2, a4, 0x79c <.LBB7_11>
     784: 93 85 15 00  	addi	a1, a1, 1
     788: 93 97 05 02  	slli	a5, a1, 32
     78c: 93 d7 e7 01  	srli	a5, a5, 30
     790: b3 87 f6 00  	add	a5, a3, a5
     794: 83 a7 07 00  	lw	a5, 0(a5)
     798: e3 82 a7 fe  	beq	a5, a0, 0x77c <.LBB7_9>

000000000000079c <.LBB7_11>:
     79c: 13 35 f7 07  	sltiu	a0, a4, 127
     7a0: 13 45 15 00  	xori	a0, a0, 1
     7a4: 6f 00 80 00  	j	0x7ac <.LBB7_13>

00000000000007a8 <.LBB7_12>:
     7a8: 13 05 00 00  	mv	a0, zero

00000000000007ac <.LBB7_13>:
     7ac: 83 39 81 40  	ld	s3, 1032(sp)
     7b0: 03 39 01 41  	ld	s2, 1040(sp)
     7b4: 83 34 81 41  	ld	s1, 1048(sp)
     7b8: 03 34 01 42  	ld	s0, 1056(sp)
     7bc: 83 30 81 42  	ld	ra, 1064(sp)
     7c0: 13 01 01 43  	addi	sp, sp, 1072
     7c4: 67 80 00 00  	ret

00000000000007c8 <vector_memcpy_masked_harness_uint64_t>:
     7c8: 13 01 01 81  	addi	sp, sp, -2032
     7cc: 23 34 11 7e  	sd	ra, 2024(sp)
     7d0: 23 30 81 7e  	sd	s0, 2016(sp)
     7d4: 23 3c 91 7c  	sd	s1, 2008(sp)
     7d8: 23 38 21 7d  	sd	s2, 2000(sp)
     7dc: 23 34 31 7d  	sd	s3, 1992(sp)
     7e0: 13 01 01 fc  	addi	sp, sp, -64
     7e4: 13 09 05 00  	mv	s2, a0
     7e8: 13 05 81 40  	addi	a0, sp, 1032
     7ec: 13 06 00 40  	addi	a2, zero, 1024
     7f0: 13 04 81 40  	addi	s0, sp, 1032
     7f4: 93 05 00 00  	mv	a1, zero
     7f8: 97 00 00 00  	auipc	ra, 0
     7fc: e7 80 c0 81  	jalr	-2020(ra)
     800: 13 05 81 00  	addi	a0, sp, 8
     804: 13 06 00 40  	addi	a2, zero, 1024
     808: 93 04 81 00  	addi	s1, sp, 8
     80c: 93 05 00 00  	mv	a1, zero
     810: 97 00 00 00  	auipc	ra, 0
     814: e7 80 40 80  	jalr	-2044(ra)
     818: 13 05 00 00  	mv	a0, zero
     81c: 93 05 b0 0b  	addi	a1, zero, 187
     820: 13 06 00 08  	addi	a2, zero, 128

0000000000000824 <.LBB8_1>:
     824: 23 30 a4 00  	sd	a0, 0(s0)
     828: 23 b0 b4 00  	sd	a1, 0(s1)
     82c: 13 05 15 00  	addi	a0, a0, 1
     830: 93 84 84 00  	addi	s1, s1, 8
     834: 13 04 84 00  	addi	s0, s0, 8
     838: e3 16 c5 fe  	bne	a0, a2, 0x824 <.LBB8_1>
     83c: 93 09 e0 06  	addi	s3, zero, 110
     840: 13 04 81 40  	addi	s0, sp, 1032
     844: 13 05 e0 06  	addi	a0, zero, 110
     848: 93 05 81 40  	addi	a1, sp, 1032
     84c: 13 06 81 00  	addi	a2, sp, 8
     850: 93 04 81 00  	addi	s1, sp, 8
     854: e7 00 09 00  	jalr	s2
     858: 13 05 00 00  	mv	a0, zero
     85c: 93 05 b0 0b  	addi	a1, zero, 187
     860: 6f 00 00 02  	j	0x880 <.LBB8_5>

0000000000000864 <.LBB8_3>:
     864: 03 36 04 00  	ld	a2, 0(s0)
     868: 83 b6 04 00  	ld	a3, 0(s1)
     86c: 63 12 d6 06  	bne	a2, a3, 0x8d0 <.LBB8_12>

0000000000000870 <.LBB8_4>:
     870: 13 05 15 00  	addi	a0, a0, 1
     874: 93 84 84 00  	addi	s1, s1, 8
     878: 13 04 84 00  	addi	s0, s0, 8
     87c: 63 0c 35 01  	beq	a0, s3, 0x894 <.LBB8_7>

0000000000000880 <.LBB8_5>:
     880: 13 76 15 00  	andi	a2, a0, 1
     884: e3 10 06 fe  	bnez	a2, 0x864 <.LBB8_3>
     888: 03 b6 04 00  	ld	a2, 0(s1)
     88c: e3 02 b6 fe  	beq	a2, a1, 0x870 <.LBB8_4>
     890: 6f 00 00 04  	j	0x8d0 <.LBB8_12>

0000000000000894 <.LBB8_7>:
     894: 83 35 81 37  	ld	a1, 888(sp)
     898: 13 05 b0 0b  	addi	a0, zero, 187
     89c: 63 9a a5 02  	bne	a1, a0, 0x8d0 <.LBB8_12>
     8a0: 93 05 01 38  	addi	a1, sp, 896
     8a4: 13 07 e0 06  	addi	a4, zero, 110
     8a8: 13 06 f0 07  	addi	a2, zero, 127

00000000000008ac <.LBB8_9>:
     8ac: 93 06 07 00  	mv	a3, a4
     8b0: 63 0a c7 00  	beq	a4, a2, 0x8c4 <.LBB8_11>
     8b4: 83 b7 05 00  	ld	a5, 0(a1)
     8b8: 13 87 16 00  	addi	a4, a3, 1
     8bc: 93 85 85 00  	addi	a1, a1, 8
     8c0: e3 86 a7 fe  	beq	a5, a0, 0x8ac <.LBB8_9>

00000000000008c4 <.LBB8_11>:
     8c4: 13 05 e0 07  	addi	a0, zero, 126
     8c8: 33 35 d5 00  	sltu	a0, a0, a3
     8cc: 6f 00 80 00  	j	0x8d4 <.LBB8_13>

00000000000008d0 <.LBB8_12>:
     8d0: 13 05 00 00  	mv	a0, zero

00000000000008d4 <.LBB8_13>:
     8d4: 13 01 01 04  	addi	sp, sp, 64
     8d8: 83 39 81 7c  	ld	s3, 1992(sp)
     8dc: 03 39 01 7d  	ld	s2, 2000(sp)
     8e0: 83 34 81 7d  	ld	s1, 2008(sp)
     8e4: 03 34 01 7e  	ld	s0, 2016(sp)
     8e8: 83 30 81 7e  	ld	ra, 2024(sp)
     8ec: 13 01 01 7f  	addi	sp, sp, 2032
     8f0: 67 80 00 00  	ret

00000000000008f4 <vector_memcpy_unit_stride_e8m8>:
     8f4: 6f 00 c0 00  	j	0x900 <.LBB9_2>

00000000000008f8 <.LBB9_1>:
     8f8: 93 b6 16 00  	seqz	a3, a3
     8fc: 63 92 06 02  	bnez	a3, 0x920 <.LBB9_4>

0000000000000900 <.LBB9_2>:
     900: d7 76 35 04  	<unknown>
     904: e3 8a 06 fe  	beqz	a3, 0x8f8 <.LBB9_1>
     908: 07 84 05 02  	<unknown>
     90c: 27 04 06 02  	<unknown>
     910: b3 85 d5 00  	add	a1, a1, a3
     914: 33 06 d6 00  	add	a2, a2, a3
     918: 33 05 d5 40  	sub	a0, a0, a3
     91c: 6f f0 df fd  	j	0x8f8 <.LBB9_1>

0000000000000920 <.LBB9_4>:
     920: 67 80 00 00  	ret

0000000000000924 <vector_memcpy_unit_stride_e16m8>:
     924: 6f 00 c0 00  	j	0x930 <.LBB10_2>

0000000000000928 <.LBB10_1>:
     928: 93 b6 16 00  	seqz	a3, a3
     92c: 63 94 06 02  	bnez	a3, 0x954 <.LBB10_4>

0000000000000930 <.LBB10_2>:
     930: d7 76 b5 04  	<unknown>
     934: e3 8a 06 fe  	beqz	a3, 0x928 <.LBB10_1>
     938: 07 d4 05 02  	<unknown>
     93c: 27 54 06 02  	<unknown>
     940: 13 97 16 00  	slli	a4, a3, 1
     944: b3 85 e5 00  	add	a1, a1, a4
     948: 33 06 e6 00  	add	a2, a2, a4
     94c: 33 05 d5 40  	sub	a0, a0, a3
     950: 6f f0 9f fd  	j	0x928 <.LBB10_1>

0000000000000954 <.LBB10_4>:
     954: 67 80 00 00  	ret

0000000000000958 <vector_memcpy_unit_stride_e32m8>:
     958: 6f 00 c0 00  	j	0x964 <.LBB11_2>

000000000000095c <.LBB11_1>:
     95c: 93 b6 16 00  	seqz	a3, a3
     960: 63 94 06 02  	bnez	a3, 0x988 <.LBB11_4>

0000000000000964 <.LBB11_2>:
     964: d7 76 35 05  	<unknown>
     968: e3 8a 06 fe  	beqz	a3, 0x95c <.LBB11_1>
     96c: 07 e4 05 02  	<unknown>
     970: 27 64 06 02  	<unknown>
     974: 13 97 26 00  	slli	a4, a3, 2
     978: b3 85 e5 00  	add	a1, a1, a4
     97c: 33 06 e6 00  	add	a2, a2, a4
     980: 33 05 d5 40  	sub	a0, a0, a3
     984: 6f f0 9f fd  	j	0x95c <.LBB11_1>

0000000000000988 <.LBB11_4>:
     988: 67 80 00 00  	ret

000000000000098c <vector_memcpy_unit_stride_e32mf2>:
     98c: 6f 00 c0 00  	j	0x998 <.LBB12_2>

0000000000000990 <.LBB12_1>:
     990: 93 b6 16 00  	seqz	a3, a3
     994: 63 94 06 02  	bnez	a3, 0x9bc <.LBB12_4>

0000000000000998 <.LBB12_2>:
     998: d7 76 75 05  	<unknown>
     99c: e3 8a 06 fe  	beqz	a3, 0x990 <.LBB12_1>
     9a0: 87 ec 05 02  	<unknown>
     9a4: a7 6c 06 02  	<unknown>
     9a8: 13 97 26 00  	slli	a4, a3, 2
     9ac: b3 85 e5 00  	add	a1, a1, a4
     9b0: 33 06 e6 00  	add	a2, a2, a4
     9b4: 33 05 d5 40  	sub	a0, a0, a3
     9b8: 6f f0 9f fd  	j	0x990 <.LBB12_1>

00000000000009bc <.LBB12_4>:
     9bc: 67 80 00 00  	ret

00000000000009c0 <vector_memcpy_strided_e8m8>:
     9c0: 93 08 40 00  	addi	a7, zero, 4
     9c4: 6f 00 40 02  	j	0x9e8 <.LBB13_4>

00000000000009c8 <.LBB13_1>:
     9c8: 07 84 05 02  	<unknown>
     9cc: 27 04 06 02  	<unknown>
     9d0: 13 08 07 00  	mv	a6, a4

00000000000009d4 <.LBB13_2>:
     9d4: 33 05 05 41  	sub	a0, a0, a6
     9d8: b3 85 05 01  	add	a1, a1, a6
     9dc: 33 06 06 01  	add	a2, a2, a6

00000000000009e0 <.LBB13_3>:
     9e0: 93 36 17 00  	seqz	a3, a4
     9e4: 63 9c 06 02  	bnez	a3, 0xa1c <.LBB13_8>

00000000000009e8 <.LBB13_4>:
     9e8: 57 77 35 04  	<unknown>
     9ec: e3 0a 07 fe  	beqz	a4, 0x9e0 <.LBB13_3>
     9f0: 13 18 27 00  	slli	a6, a4, 2
     9f4: e3 7a a8 fc  	bgeu	a6, a0, 0x9c8 <.LBB13_1>
     9f8: 93 07 00 00  	mv	a5, zero

00000000000009fc <.LBB13_7>:
     9fc: b3 86 f5 00  	add	a3, a1, a5
     a00: 57 70 37 04  	<unknown>
     a04: 07 84 16 0b  	<unknown>
     a08: b3 06 f6 00  	add	a3, a2, a5
     a0c: 93 87 17 00  	addi	a5, a5, 1
     a10: 27 84 16 0b  	<unknown>
     a14: e3 94 17 ff  	bne	a5, a7, 0x9fc <.LBB13_7>
     a18: 6f f0 df fb  	j	0x9d4 <.LBB13_2>

0000000000000a1c <.LBB13_8>:
     a1c: 67 80 00 00  	ret

0000000000000a20 <vector_memcpy_strided_e16m8>:
     a20: 93 08 80 00  	addi	a7, zero, 8
     a24: 6f 00 80 02  	j	0xa4c <.LBB14_4>

0000000000000a28 <.LBB14_1>:
     a28: 07 d4 05 02  	<unknown>
     a2c: 27 54 06 02  	<unknown>
     a30: 13 08 07 00  	mv	a6, a4

0000000000000a34 <.LBB14_2>:
     a34: 33 05 05 41  	sub	a0, a0, a6
     a38: 93 16 18 00  	slli	a3, a6, 1
     a3c: b3 85 d5 00  	add	a1, a1, a3
     a40: 33 06 d6 00  	add	a2, a2, a3

0000000000000a44 <.LBB14_3>:
     a44: 93 36 17 00  	seqz	a3, a4
     a48: 63 9c 06 02  	bnez	a3, 0xa80 <.LBB14_8>

0000000000000a4c <.LBB14_4>:
     a4c: 57 77 b5 04  	<unknown>
     a50: e3 0a 07 fe  	beqz	a4, 0xa44 <.LBB14_3>
     a54: 13 18 27 00  	slli	a6, a4, 2
     a58: e3 78 a8 fc  	bgeu	a6, a0, 0xa28 <.LBB14_1>
     a5c: 93 07 00 00  	mv	a5, zero

0000000000000a60 <.LBB14_7>:
     a60: b3 86 f5 00  	add	a3, a1, a5
     a64: 57 70 b7 04  	<unknown>
     a68: 07 d4 16 0b  	<unknown>
     a6c: b3 06 f6 00  	add	a3, a2, a5
     a70: 93 87 27 00  	addi	a5, a5, 2
     a74: 27 d4 16 0b  	<unknown>
     a78: e3 94 17 ff  	bne	a5, a7, 0xa60 <.LBB14_7>
     a7c: 6f f0 9f fb  	j	0xa34 <.LBB14_2>

0000000000000a80 <.LBB14_8>:
     a80: 67 80 00 00  	ret

0000000000000a84 <vector_memcpy_strided_e32m8>:
     a84: 93 08 00 01  	addi	a7, zero, 16
     a88: 6f 00 80 02  	j	0xab0 <.LBB15_4>

0000000000000a8c <.LBB15_1>:
     a8c: 07 e4 05 02  	<unknown>
     a90: 27 64 06 02  	<unknown>
     a94: 13 08 07 00  	mv	a6, a4

0000000000000a98 <.LBB15_2>:
     a98: 33 05 05 41  	sub	a0, a0, a6
     a9c: 93 16 28 00  	slli	a3, a6, 2
     aa0: b3 85 d5 00  	add	a1, a1, a3
     aa4: 33 06 d6 00  	add	a2, a2, a3

0000000000000aa8 <.LBB15_3>:
     aa8: 93 36 17 00  	seqz	a3, a4
     aac: 63 9c 06 02  	bnez	a3, 0xae4 <.LBB15_8>

0000000000000ab0 <.LBB15_4>:
     ab0: 57 77 35 05  	<unknown>
     ab4: e3 0a 07 fe  	beqz	a4, 0xaa8 <.LBB15_3>
     ab8: 13 18 27 00  	slli	a6, a4, 2
     abc: e3 78 a8 fc  	bgeu	a6, a0, 0xa8c <.LBB15_1>
     ac0: 93 07 00 00  	mv	a5, zero

0000000000000ac4 <.LBB15_7>:
     ac4: b3 86 f5 00  	add	a3, a1, a5
     ac8: 57 70 37 05  	<unknown>
     acc: 07 e4 16 0b  	<unknown>
     ad0: b3 06 f6 00  	add	a3, a2, a5
     ad4: 93 87 47 00  	addi	a5, a5, 4
     ad8: 27 e4 16 0b  	<unknown>
     adc: e3 94 17 ff  	bne	a5, a7, 0xac4 <.LBB15_7>
     ae0: 6f f0 9f fb  	j	0xa98 <.LBB15_2>

0000000000000ae4 <.LBB15_8>:
     ae4: 67 80 00 00  	ret

0000000000000ae8 <vector_memcpy_strided_e32mf2>:
     ae8: 93 08 00 01  	addi	a7, zero, 16
     aec: 6f 00 80 02  	j	0xb14 <.LBB16_4>

0000000000000af0 <.LBB16_1>:
     af0: 87 ec 05 02  	<unknown>
     af4: a7 6c 06 02  	<unknown>
     af8: 13 08 07 00  	mv	a6, a4

0000000000000afc <.LBB16_2>:
     afc: 33 05 05 41  	sub	a0, a0, a6
     b00: 93 16 28 00  	slli	a3, a6, 2
     b04: b3 85 d5 00  	add	a1, a1, a3
     b08: 33 06 d6 00  	add	a2, a2, a3

0000000000000b0c <.LBB16_3>:
     b0c: 93 36 17 00  	seqz	a3, a4
     b10: 63 9c 06 02  	bnez	a3, 0xb48 <.LBB16_8>

0000000000000b14 <.LBB16_4>:
     b14: 57 77 75 05  	<unknown>
     b18: e3 0a 07 fe  	beqz	a4, 0xb0c <.LBB16_3>
     b1c: 13 18 27 00  	slli	a6, a4, 2
     b20: e3 78 a8 fc  	bgeu	a6, a0, 0xaf0 <.LBB16_1>
     b24: 93 07 00 00  	mv	a5, zero

0000000000000b28 <.LBB16_7>:
     b28: b3 86 f5 00  	add	a3, a1, a5
     b2c: 57 70 77 05  	<unknown>
     b30: 87 ec 16 0b  	<unknown>
     b34: b3 06 f6 00  	add	a3, a2, a5
     b38: 93 87 47 00  	addi	a5, a5, 4
     b3c: a7 ec 16 0b  	<unknown>
     b40: e3 94 17 ff  	bne	a5, a7, 0xb28 <.LBB16_7>
     b44: 6f f0 9f fb  	j	0xafc <.LBB16_2>

0000000000000b48 <.LBB16_8>:
     b48: 67 80 00 00  	ret

0000000000000b4c <vector_memcpy_indexed_e8m8>:
     b4c: 13 01 01 f4  	addi	sp, sp, -192
     b50: 23 3c 11 0a  	sd	ra, 184(sp)
     b54: 23 38 81 0a  	sd	s0, 176(sp)
     b58: 23 34 91 0a  	sd	s1, 168(sp)
     b5c: 23 30 21 0b  	sd	s2, 160(sp)
     b60: 23 3c 31 09  	sd	s3, 152(sp)
     b64: 23 38 41 09  	sd	s4, 144(sp)
     b68: 13 09 06 00  	mv	s2, a2
     b6c: 93 84 05 00  	mv	s1, a1
     b70: 13 04 05 00  	mv	s0, a0
     b74: d7 79 30 04  	<unknown>
     b78: 13 05 01 01  	addi	a0, sp, 16
     b7c: 13 06 00 08  	addi	a2, zero, 128
     b80: 13 0a 01 01  	addi	s4, sp, 16
     b84: 93 05 00 00  	mv	a1, zero
     b88: 97 f0 ff ff  	auipc	ra, 1048575
     b8c: e7 80 c0 48  	jalr	1164(ra)
     b90: 63 8e 09 00  	beqz	s3, 0xbac <.LBB17_3>
     b94: 13 05 00 00  	mv	a0, zero

0000000000000b98 <.LBB17_2>:
     b98: 93 45 15 00  	xori	a1, a0, 1
     b9c: 33 06 aa 00  	add	a2, s4, a0
     ba0: 13 05 15 00  	addi	a0, a0, 1
     ba4: 23 00 b6 00  	sb	a1, 0(a2)
     ba8: e3 98 a9 fe  	bne	s3, a0, 0xb98 <.LBB17_2>

0000000000000bac <.LBB17_3>:
     bac: 57 f0 39 04  	<unknown>
     bb0: 13 05 01 01  	addi	a0, sp, 16
     bb4: 07 04 05 02  	<unknown>
     bb8: 6f 00 00 02  	j	0xbd8 <.LBB17_7>

0000000000000bbc <.LBB17_4>:
     bbc: 07 88 04 02  	<unknown>
     bc0: 27 08 09 02  	<unknown>

0000000000000bc4 <.LBB17_5>:
     bc4: b3 84 a4 00  	add	s1, s1, a0
     bc8: 33 09 a9 00  	add	s2, s2, a0
     bcc: 33 04 a4 40  	sub	s0, s0, a0

0000000000000bd0 <.LBB17_6>:
     bd0: 13 35 15 00  	seqz	a0, a0
     bd4: 63 1e 05 00  	bnez	a0, 0xbf0 <.LBB17_10>

0000000000000bd8 <.LBB17_7>:
     bd8: 57 75 34 04  	<unknown>
     bdc: e3 0a 05 fe  	beqz	a0, 0xbd0 <.LBB17_6>
     be0: e3 1e 35 fd  	bne	a0, s3, 0xbbc <.LBB17_4>
     be4: 07 88 84 06  	<unknown>
     be8: 27 08 89 06  	<unknown>
     bec: 6f f0 9f fd  	j	0xbc4 <.LBB17_5>

0000000000000bf0 <.LBB17_10>:
     bf0: 03 3a 01 09  	ld	s4, 144(sp)
     bf4: 83 39 81 09  	ld	s3, 152(sp)
     bf8: 03 39 01 0a  	ld	s2, 160(sp)
     bfc: 83 34 81 0a  	ld	s1, 168(sp)
     c00: 03 34 01 0b  	ld	s0, 176(sp)
     c04: 83 30 81 0b  	ld	ra, 184(sp)
     c08: 13 01 01 0c  	addi	sp, sp, 192
     c0c: 67 80 00 00  	ret

0000000000000c10 <vector_memcpy_indexed_e16m8>:
     c10: 13 01 01 ec  	addi	sp, sp, -320
     c14: 23 3c 11 12  	sd	ra, 312(sp)
     c18: 23 38 81 12  	sd	s0, 304(sp)
     c1c: 23 34 91 12  	sd	s1, 296(sp)
     c20: 23 30 21 13  	sd	s2, 288(sp)
     c24: 23 3c 31 11  	sd	s3, 280(sp)
     c28: 23 38 41 11  	sd	s4, 272(sp)
     c2c: 13 09 06 00  	mv	s2, a2
     c30: 13 8a 05 00  	mv	s4, a1
     c34: 13 04 05 00  	mv	s0, a0
     c38: d7 79 b0 04  	<unknown>
     c3c: 13 05 01 01  	addi	a0, sp, 16
     c40: 13 06 00 10  	addi	a2, zero, 256
     c44: 93 04 01 01  	addi	s1, sp, 16
     c48: 93 05 00 00  	mv	a1, zero
     c4c: 97 f0 ff ff  	auipc	ra, 1048575
     c50: e7 80 80 3c  	jalr	968(ra)
     c54: 63 80 09 02  	beqz	s3, 0xc74 <.LBB18_3>
     c58: 13 05 00 00  	mv	a0, zero

0000000000000c5c <.LBB18_2>:
     c5c: 93 15 15 00  	slli	a1, a0, 1
     c60: 93 c5 25 00  	xori	a1, a1, 2
     c64: 23 90 b4 00  	sh	a1, 0(s1)
     c68: 13 05 15 00  	addi	a0, a0, 1
     c6c: 93 84 24 00  	addi	s1, s1, 2
     c70: e3 96 a9 fe  	bne	s3, a0, 0xc5c <.LBB18_2>

0000000000000c74 <.LBB18_3>:
     c74: 57 f0 b9 04  	<unknown>
     c78: 13 05 01 01  	addi	a0, sp, 16
     c7c: 07 54 05 02  	<unknown>
     c80: 6f 00 40 02  	j	0xca4 <.LBB18_7>

0000000000000c84 <.LBB18_4>:
     c84: 07 58 0a 02  	<unknown>
     c88: 27 58 09 02  	<unknown>

0000000000000c8c <.LBB18_5>:
     c8c: 93 15 15 00  	slli	a1, a0, 1
     c90: 33 0a ba 00  	add	s4, s4, a1
     c94: 33 09 b9 00  	add	s2, s2, a1
     c98: 33 04 a4 40  	sub	s0, s0, a0

0000000000000c9c <.LBB18_6>:
     c9c: 13 35 15 00  	seqz	a0, a0
     ca0: 63 1e 05 00  	bnez	a0, 0xcbc <.LBB18_10>

0000000000000ca4 <.LBB18_7>:
     ca4: 57 75 b4 04  	<unknown>
     ca8: e3 0a 05 fe  	beqz	a0, 0xc9c <.LBB18_6>
     cac: e3 1c 35 fd  	bne	a0, s3, 0xc84 <.LBB18_4>
     cb0: 07 58 8a 06  	<unknown>
     cb4: 27 58 89 06  	<unknown>
     cb8: 6f f0 5f fd  	j	0xc8c <.LBB18_5>

0000000000000cbc <.LBB18_10>:
     cbc: 03 3a 01 11  	ld	s4, 272(sp)
     cc0: 83 39 81 11  	ld	s3, 280(sp)
     cc4: 03 39 01 12  	ld	s2, 288(sp)
     cc8: 83 34 81 12  	ld	s1, 296(sp)
     ccc: 03 34 01 13  	ld	s0, 304(sp)
     cd0: 83 30 81 13  	ld	ra, 312(sp)
     cd4: 13 01 01 14  	addi	sp, sp, 320
     cd8: 67 80 00 00  	ret

0000000000000cdc <vector_memcpy_indexed_e32m8>:
     cdc: 13 01 01 dc  	addi	sp, sp, -576
     ce0: 23 3c 11 22  	sd	ra, 568(sp)
     ce4: 23 38 81 22  	sd	s0, 560(sp)
     ce8: 23 34 91 22  	sd	s1, 552(sp)
     cec: 23 30 21 23  	sd	s2, 544(sp)
     cf0: 23 3c 31 21  	sd	s3, 536(sp)
     cf4: 23 38 41 21  	sd	s4, 528(sp)
     cf8: 13 09 06 00  	mv	s2, a2
     cfc: 13 8a 05 00  	mv	s4, a1
     d00: 13 04 05 00  	mv	s0, a0
     d04: d7 79 30 05  	<unknown>
     d08: 13 05 01 01  	addi	a0, sp, 16
     d0c: 13 06 00 20  	addi	a2, zero, 512
     d10: 93 04 01 01  	addi	s1, sp, 16
     d14: 93 05 00 00  	mv	a1, zero
     d18: 97 f0 ff ff  	auipc	ra, 1048575
     d1c: e7 80 c0 2f  	jalr	764(ra)
     d20: 63 80 09 02  	beqz	s3, 0xd40 <.LBB19_3>
     d24: 13 05 00 00  	mv	a0, zero

0000000000000d28 <.LBB19_2>:
     d28: 93 15 25 00  	slli	a1, a0, 2
     d2c: 93 c5 45 00  	xori	a1, a1, 4
     d30: 23 a0 b4 00  	sw	a1, 0(s1)
     d34: 13 05 15 00  	addi	a0, a0, 1
     d38: 93 84 44 00  	addi	s1, s1, 4
     d3c: e3 96 a9 fe  	bne	s3, a0, 0xd28 <.LBB19_2>

0000000000000d40 <.LBB19_3>:
     d40: 57 f0 39 05  	<unknown>
     d44: 13 05 01 01  	addi	a0, sp, 16
     d48: 07 64 05 02  	<unknown>
     d4c: 6f 00 40 02  	j	0xd70 <.LBB19_7>

0000000000000d50 <.LBB19_4>:
     d50: 07 68 0a 02  	<unknown>
     d54: 27 68 09 02  	<unknown>

0000000000000d58 <.LBB19_5>:
     d58: 93 15 25 00  	slli	a1, a0, 2
     d5c: 33 0a ba 00  	add	s4, s4, a1
     d60: 33 09 b9 00  	add	s2, s2, a1
     d64: 33 04 a4 40  	sub	s0, s0, a0

0000000000000d68 <.LBB19_6>:
     d68: 13 35 15 00  	seqz	a0, a0
     d6c: 63 1e 05 00  	bnez	a0, 0xd88 <.LBB19_10>

0000000000000d70 <.LBB19_7>:
     d70: 57 75 34 05  	<unknown>
     d74: e3 0a 05 fe  	beqz	a0, 0xd68 <.LBB19_6>
     d78: e3 1c 35 fd  	bne	a0, s3, 0xd50 <.LBB19_4>
     d7c: 07 68 8a 06  	<unknown>
     d80: 27 68 89 06  	<unknown>
     d84: 6f f0 5f fd  	j	0xd58 <.LBB19_5>

0000000000000d88 <.LBB19_10>:
     d88: 03 3a 01 21  	ld	s4, 528(sp)
     d8c: 83 39 81 21  	ld	s3, 536(sp)
     d90: 03 39 01 22  	ld	s2, 544(sp)
     d94: 83 34 81 22  	ld	s1, 552(sp)
     d98: 03 34 01 23  	ld	s0, 560(sp)
     d9c: 83 30 81 23  	ld	ra, 568(sp)
     da0: 13 01 01 24  	addi	sp, sp, 576
     da4: 67 80 00 00  	ret

0000000000000da8 <vector_memcpy_indexed_e32mf2>:
     da8: 13 01 01 dc  	addi	sp, sp, -576
     dac: 23 3c 11 22  	sd	ra, 568(sp)
     db0: 23 38 81 22  	sd	s0, 560(sp)
     db4: 23 34 91 22  	sd	s1, 552(sp)
     db8: 23 30 21 23  	sd	s2, 544(sp)
     dbc: 23 3c 31 21  	sd	s3, 536(sp)
     dc0: 23 38 41 21  	sd	s4, 528(sp)
     dc4: 13 09 06 00  	mv	s2, a2
     dc8: 13 8a 05 00  	mv	s4, a1
     dcc: 13 04 05 00  	mv	s0, a0
     dd0: d7 79 70 05  	<unknown>
     dd4: 13 05 01 01  	addi	a0, sp, 16
     dd8: 13 06 00 20  	addi	a2, zero, 512
     ddc: 93 04 01 01  	addi	s1, sp, 16
     de0: 93 05 00 00  	mv	a1, zero
     de4: 97 f0 ff ff  	auipc	ra, 1048575
     de8: e7 80 00 23  	jalr	560(ra)
     dec: 63 80 09 02  	beqz	s3, 0xe0c <.LBB20_3>
     df0: 13 05 00 00  	mv	a0, zero

0000000000000df4 <.LBB20_2>:
     df4: 93 15 25 00  	slli	a1, a0, 2
     df8: 93 c5 45 00  	xori	a1, a1, 4
     dfc: 23 a0 b4 00  	sw	a1, 0(s1)
     e00: 13 05 15 00  	addi	a0, a0, 1
     e04: 93 84 44 00  	addi	s1, s1, 4
     e08: e3 96 a9 fe  	bne	s3, a0, 0xdf4 <.LBB20_2>

0000000000000e0c <.LBB20_3>:
     e0c: 57 f0 79 05  	<unknown>
     e10: 13 05 01 01  	addi	a0, sp, 16
     e14: 87 6c 05 02  	<unknown>
     e18: 6f 00 40 02  	j	0xe3c <.LBB20_7>

0000000000000e1c <.LBB20_4>:
     e1c: 07 6d 0a 02  	<unknown>
     e20: 27 6d 09 02  	<unknown>

0000000000000e24 <.LBB20_5>:
     e24: 93 15 25 00  	slli	a1, a0, 2
     e28: 33 0a ba 00  	add	s4, s4, a1
     e2c: 33 09 b9 00  	add	s2, s2, a1
     e30: 33 04 a4 40  	sub	s0, s0, a0

0000000000000e34 <.LBB20_6>:
     e34: 13 35 15 00  	seqz	a0, a0
     e38: 63 1e 05 00  	bnez	a0, 0xe54 <.LBB20_10>

0000000000000e3c <.LBB20_7>:
     e3c: 57 75 74 05  	<unknown>
     e40: e3 0a 05 fe  	beqz	a0, 0xe34 <.LBB20_6>
     e44: e3 1c 35 fd  	bne	a0, s3, 0xe1c <.LBB20_4>
     e48: 07 6d 9a 07  	<unknown>
     e4c: 27 6d 99 07  	<unknown>
     e50: 6f f0 5f fd  	j	0xe24 <.LBB20_5>

0000000000000e54 <.LBB20_10>:
     e54: 03 3a 01 21  	ld	s4, 528(sp)
     e58: 83 39 81 21  	ld	s3, 536(sp)
     e5c: 03 39 01 22  	ld	s2, 544(sp)
     e60: 83 34 81 22  	ld	s1, 552(sp)
     e64: 03 34 01 23  	ld	s0, 560(sp)
     e68: 83 30 81 23  	ld	ra, 568(sp)
     e6c: 13 01 01 24  	addi	sp, sp, 576
     e70: 67 80 00 00  	ret

0000000000000e74 <vector_memcpy_masked_stride_e8m8>:
     e74: d7 76 30 04  	<unknown>
     e78: 07 84 05 02  	<unknown>
     e7c: 57 b0 80 62  	<unknown>
     e80: 6f 00 c0 00  	j	0xe8c <.LBB21_2>

0000000000000e84 <.LBB21_1>:
     e84: 93 b6 16 00  	seqz	a3, a3
     e88: 63 96 06 02  	bnez	a3, 0xeb4 <.LBB21_4>

0000000000000e8c <.LBB21_2>:
     e8c: d7 76 35 04  	<unknown>
     e90: e3 8a 06 fe  	beqz	a3, 0xe84 <.LBB21_1>
     e94: 57 f0 36 00  	<unknown>
     e98: 07 84 05 00  	<unknown>
     e9c: 57 70 30 04  	<unknown>
     ea0: 27 04 06 00  	<unknown>
     ea4: b3 85 d5 00  	add	a1, a1, a3
     ea8: 33 06 d6 00  	add	a2, a2, a3
     eac: 33 05 d5 40  	sub	a0, a0, a3
     eb0: 6f f0 5f fd  	j	0xe84 <.LBB21_1>

0000000000000eb4 <.LBB21_4>:
     eb4: 67 80 00 00  	ret

0000000000000eb8 <vector_memcpy_masked_stride_e16m8>:
     eb8: d7 76 b0 04  	<unknown>
     ebc: 07 d4 05 02  	<unknown>
     ec0: 57 b0 80 62  	<unknown>
     ec4: 6f 00 c0 00  	j	0xed0 <.LBB22_2>

0000000000000ec8 <.LBB22_1>:
     ec8: 93 b6 16 00  	seqz	a3, a3
     ecc: 63 98 06 02  	bnez	a3, 0xefc <.LBB22_4>

0000000000000ed0 <.LBB22_2>:
     ed0: d7 76 b5 04  	<unknown>
     ed4: e3 8a 06 fe  	beqz	a3, 0xec8 <.LBB22_1>
     ed8: 57 f0 b6 00  	<unknown>
     edc: 07 d4 05 00  	<unknown>
     ee0: 57 70 b0 04  	<unknown>
     ee4: 27 54 06 00  	<unknown>
     ee8: 13 97 16 00  	slli	a4, a3, 1
     eec: b3 85 e5 00  	add	a1, a1, a4
     ef0: 33 06 e6 00  	add	a2, a2, a4
     ef4: 33 05 d5 40  	sub	a0, a0, a3
     ef8: 6f f0 1f fd  	j	0xec8 <.LBB22_1>

0000000000000efc <.LBB22_4>:
     efc: 67 80 00 00  	ret

0000000000000f00 <vector_memcpy_masked_stride_e32m8>:
     f00: d7 76 30 05  	<unknown>
     f04: 07 e4 05 02  	<unknown>
     f08: 57 b0 80 62  	<unknown>
     f0c: 6f 00 c0 00  	j	0xf18 <.LBB23_2>

0000000000000f10 <.LBB23_1>:
     f10: 93 b6 16 00  	seqz	a3, a3
     f14: 63 98 06 02  	bnez	a3, 0xf44 <.LBB23_4>

0000000000000f18 <.LBB23_2>:
     f18: d7 76 35 05  	<unknown>
     f1c: e3 8a 06 fe  	beqz	a3, 0xf10 <.LBB23_1>
     f20: 57 f0 36 01  	<unknown>
     f24: 07 e4 05 00  	<unknown>
     f28: 57 70 30 05  	<unknown>
     f2c: 27 64 06 00  	<unknown>
     f30: 13 97 26 00  	slli	a4, a3, 2
     f34: b3 85 e5 00  	add	a1, a1, a4
     f38: 33 06 e6 00  	add	a2, a2, a4
     f3c: 33 05 d5 40  	sub	a0, a0, a3
     f40: 6f f0 1f fd  	j	0xf10 <.LBB23_1>

0000000000000f44 <.LBB23_4>:
     f44: 67 80 00 00  	ret

0000000000000f48 <vector_memcpy_masked_stride_e32mf2>:
     f48: d7 76 70 05  	<unknown>
     f4c: 87 ec 05 02  	<unknown>
     f50: 57 b0 90 63  	<unknown>
     f54: 6f 00 c0 00  	j	0xf60 <.LBB24_2>

0000000000000f58 <.LBB24_1>:
     f58: 93 b6 16 00  	seqz	a3, a3
     f5c: 63 98 06 02  	bnez	a3, 0xf8c <.LBB24_4>

0000000000000f60 <.LBB24_2>:
     f60: d7 76 75 05  	<unknown>
     f64: e3 8a 06 fe  	beqz	a3, 0xf58 <.LBB24_1>
     f68: 57 f0 76 01  	<unknown>
     f6c: 87 ec 05 00  	<unknown>
     f70: 57 70 70 05  	<unknown>
     f74: a7 6c 06 00  	<unknown>
     f78: 13 97 26 00  	slli	a4, a3, 2
     f7c: b3 85 e5 00  	add	a1, a1, a4
     f80: 33 06 e6 00  	add	a2, a2, a4
     f84: 33 05 d5 40  	sub	a0, a0, a3
     f88: 6f f0 1f fd  	j	0xf58 <.LBB24_1>

0000000000000f8c <.LBB24_4>:
     f8c: 67 80 00 00  	ret

0000000000000f90 <main>:
     f90: 13 01 01 ff  	addi	sp, sp, -16
     f94: 23 34 11 00  	sd	ra, 8(sp)
     f98: 23 30 81 00  	sd	s0, 0(sp)
     f9c: 37 15 00 00  	lui	a0, 1
     fa0: 13 05 45 8f  	addi	a0, a0, -1804
     fa4: 97 f0 ff ff  	auipc	ra, 1048575
     fa8: e7 80 c0 08  	jalr	140(ra)
     fac: 13 04 05 00  	mv	s0, a0
     fb0: 37 15 00 00  	lui	a0, 1
     fb4: 13 05 45 92  	addi	a0, a0, -1756
     fb8: 97 f0 ff ff  	auipc	ra, 1048575
     fbc: e7 80 40 17  	jalr	372(ra)
     fc0: 13 15 15 00  	slli	a0, a0, 1
     fc4: 33 64 85 00  	or	s0, a0, s0
     fc8: 37 15 00 00  	lui	a0, 1
     fcc: 13 05 85 95  	addi	a0, a0, -1704
     fd0: 97 f0 ff ff  	auipc	ra, 1048575
     fd4: e7 80 00 27  	jalr	624(ra)
     fd8: 13 15 25 00  	slli	a0, a0, 2
     fdc: 33 64 a4 00  	or	s0, s0, a0
     fe0: 37 15 00 00  	lui	a0, 1
     fe4: 13 05 c5 98  	addi	a0, a0, -1652
     fe8: 97 f0 ff ff  	auipc	ra, 1048575
     fec: e7 80 80 25  	jalr	600(ra)
     ff0: 13 15 35 00  	slli	a0, a0, 3
     ff4: 33 64 a4 00  	or	s0, s0, a0
     ff8: 37 15 00 00  	lui	a0, 1
     ffc: 13 05 05 9c  	addi	a0, a0, -1600
    1000: 97 f0 ff ff  	auipc	ra, 1048575
    1004: e7 80 00 03  	jalr	48(ra)
    1008: 13 15 45 00  	slli	a0, a0, 4
    100c: 33 64 a4 00  	or	s0, s0, a0
    1010: 37 15 00 00  	lui	a0, 1
    1014: 13 05 05 a2  	addi	a0, a0, -1504
    1018: 97 f0 ff ff  	auipc	ra, 1048575
    101c: e7 80 40 11  	jalr	276(ra)
    1020: 13 15 55 00  	slli	a0, a0, 5
    1024: 33 64 a4 00  	or	s0, s0, a0
    1028: 37 15 00 00  	lui	a0, 1
    102c: 13 05 45 a8  	addi	a0, a0, -1404
    1030: 97 f0 ff ff  	auipc	ra, 1048575
    1034: e7 80 00 21  	jalr	528(ra)
    1038: 13 15 65 00  	slli	a0, a0, 6
    103c: 33 64 a4 00  	or	s0, s0, a0
    1040: 37 15 00 00  	lui	a0, 1
    1044: 13 05 85 ae  	addi	a0, a0, -1304
    1048: 97 f0 ff ff  	auipc	ra, 1048575
    104c: e7 80 80 1f  	jalr	504(ra)
    1050: 13 15 75 00  	slli	a0, a0, 7
    1054: 33 64 a4 00  	or	s0, s0, a0
    1058: 37 15 00 00  	lui	a0, 1
    105c: 13 05 c5 b4  	addi	a0, a0, -1204
    1060: 97 f0 ff ff  	auipc	ra, 1048575
    1064: e7 80 00 fd  	jalr	-48(ra)
    1068: 13 15 85 00  	slli	a0, a0, 8
    106c: 33 64 a4 00  	or	s0, s0, a0
    1070: 37 15 00 00  	lui	a0, 1
    1074: 13 05 05 c1  	addi	a0, a0, -1008
    1078: 97 f0 ff ff  	auipc	ra, 1048575
    107c: e7 80 40 0b  	jalr	180(ra)
    1080: 13 15 95 00  	slli	a0, a0, 9
    1084: 33 64 a4 00  	or	s0, s0, a0
    1088: 37 15 00 00  	lui	a0, 1
    108c: 13 05 c5 cd  	addi	a0, a0, -804
    1090: 97 f0 ff ff  	auipc	ra, 1048575
    1094: e7 80 00 1b  	jalr	432(ra)
    1098: 13 15 a5 00  	slli	a0, a0, 10
    109c: 33 64 a4 00  	or	s0, s0, a0
    10a0: 37 15 00 00  	lui	a0, 1
    10a4: 13 05 85 da  	addi	a0, a0, -600
    10a8: 97 f0 ff ff  	auipc	ra, 1048575
    10ac: e7 80 80 19  	jalr	408(ra)
    10b0: 13 15 b5 00  	slli	a0, a0, 11
    10b4: 33 64 a4 00  	or	s0, s0, a0
    10b8: 37 15 00 00  	lui	a0, 1
    10bc: 13 05 45 e7  	addi	a0, a0, -396
    10c0: 97 f0 ff ff  	auipc	ra, 1048575
    10c4: e7 80 00 f7  	jalr	-144(ra)
    10c8: 13 15 c5 00  	slli	a0, a0, 12
    10cc: 33 64 a4 00  	or	s0, s0, a0
    10d0: 37 15 00 00  	lui	a0, 1
    10d4: 13 05 85 eb  	addi	a0, a0, -328
    10d8: 97 f0 ff ff  	auipc	ra, 1048575
    10dc: e7 80 40 05  	jalr	84(ra)
    10e0: 13 15 d5 00  	slli	a0, a0, 13
    10e4: 33 64 a4 00  	or	s0, s0, a0
    10e8: 37 15 00 00  	lui	a0, 1
    10ec: 13 05 05 f0  	addi	a0, a0, -256
    10f0: 97 f0 ff ff  	auipc	ra, 1048575
    10f4: e7 80 00 15  	jalr	336(ra)
    10f8: 13 15 e5 00  	slli	a0, a0, 14
    10fc: 33 64 a4 00  	or	s0, s0, a0
    1100: 37 15 00 00  	lui	a0, 1
    1104: 13 05 85 f4  	addi	a0, a0, -184
    1108: 97 f0 ff ff  	auipc	ra, 1048575
    110c: e7 80 80 13  	jalr	312(ra)
    1110: 13 15 f5 00  	slli	a0, a0, 15
    1114: b3 65 a4 00  	or	a1, s0, a0
    1118: 13 05 f0 00  	addi	a0, zero, 15
    111c: 13 16 c5 01  	slli	a2, a0, 28
    1120: 1b 85 05 00  	sext.w	a0, a1
    1124: 23 20 b6 00  	sw	a1, 0(a2)
    1128: 03 34 01 00  	ld	s0, 0(sp)
    112c: 83 30 81 00  	ld	ra, 8(sp)
    1130: 13 01 01 01  	addi	sp, sp, 16
    1134: 67 80 00 00  	ret
