
/media/common/University/Edu/Year4_Masters/Project/riscv-v-lite/programs/build/llvm-13-rv64imv/vector_memcpy/vector_memcpy.elf:	file format elf64-littleriscv
Contents of section .text.init:
 0000 17010100 13010102 97100000 e780409b  ..............@.
 0010 6f000000                             o...
Contents of section .text:
 0014 630c0600 93060500 2380b600 1306f6ff  c.......#.......
 0024 93861600 e31a06fe 67800000 130101ee  ........g.......
 0034 233c1110 23388110 23349110 23302111  #<..#8..#4..#0!.
 0044 13090500 93040108 13050108 13060008  ................
 0054 13040008 93050000 97000000 e78080fb  ................
 0064 13050100 13060008 93050000 97000000  ................
 0074 e78040fa 13050000 b385a400 2380a500  ..@.........#...
 0084 13051500 e31a85fe 93040108 1305e006  ................
 0094 93050108 13060100 13040100 e7000900  ................
 00a4 13050000 9305d006 1376f50f b386c400  .........v......
 00b4 83c60600 3307c400 03470700 6398e604  ....3....G..c...
 00c4 13051500 e362b6fe 8345e106 13050000  .....b...E......
 00d4 63900504 9305f006 1305f0ff 13060100  c...............
 00e4 93968503 93d68643 63cc0600 13f7f50f  .......Cc.......
 00f4 3307e600 03470700 93851500 e30207fe  3....G..........
 0104 3325d500 13451500 6f008000 13050000  3%...E..o.......
 0114 03390110 83348110 03340111 83308111  .9...4...4...0..
 0124 13010112 67800000 130101de 233c1120  ....g.......#<. 
 0134 23388120 23349120 23302121 13090500  #8. #4. #0!!....
 0144 13050110 13060010 13040110 93050000  ................
 0154 97000000 e78000ec 13050100 13060010  ................
 0164 93050000 97000000 e780c0ea 13050000  ................
 0174 93050008 2310a400 13051500 13042400  ....#.........$.
 0184 e31ab5fe 93040110 1305e006 93050110  ................
 0194 13060100 13040100 e7000900 13050000  ................
 01a4 b7050100 9b85f5ff 1306d006 93160503  ................
 01b4 93d6f602 3387d400 03570700 b306d400  ....3....W......
 01c4 83d60600 631ed704 b376b500 13051500  ....c....v......
 01d4 e3eec6fc 8355c10d 13050000 63940504  .....U......c...
 01e4 1305e006 b7050100 9b85f5ff 1306e007  ................
 01f4 93060100 3377b500 636ee600 13051500  ....3w..cn......
 0204 b377b500 93971700 b387f600 83d70700  .w..............
 0214 e38207fe 1335f707 13451500 6f008000  .....5...E..o...
 0224 13050000 03390120 83348120 03340121  .....9. .4. .4.!
 0234 83308121 13010122 67800000 130101bd  .0.!..."g.......
 0244 23341142 23308142 233c9140 23382141  #4.B#0.B#<.@#8!A
 0254 13090500 13050121 13060020 93040121  .......!... ...!
 0264 93050000 97000000 e780c0da 13050101  ................
 0274 13060020 93050000 97000000 e78080d9  ... ............
 0284 13050000 93050008 23a0a400 13051500  ........#.......
 0294 93844400 e31ab5fe 93040121 1305e006  ..D........!....
 02a4 93050121 13060101 13040101 e7000900  ...!............
 02b4 93050000 1305d006 13960502 1356e601  .............V..
 02c4 b386c400 83a60600 3306c400 03260600  ........3....&..
 02d4 639ac604 1b860500 93851500 e36ea6fc  c............n..
 02e4 8325811c 13050000 63900504 1305e006  .%......c.......
 02f4 9305e007 13060101 9b060500 63eed500  ............c...
 0304 13051500 13170502 1357e701 3307e600  .........W..3...
 0314 03270700 e30207fe 13b5f607 13451500  .'...........E..
 0324 6f008000 13050000 03390141 83348141  o........9.A.4.A
 0334 03340142 83308142 13010143 67800000  .4.B.0.B...Cg...
 0344 13010181 2334117e 2330817e 233c917c  ....#4.~#0.~#<.|
 0354 2338217d 130101fc 13090500 13050141  #8!}...........A
 0364 13060040 93040141 93050000 97000000  ...@...A........
 0374 e78040ca 13050101 13060040 93050000  ..@........@....
 0384 97000000 e78000c9 13050000 93050008  ................
 0394 23b0a400 13051500 93848400 e31ab5fe  #...............
 03a4 93040141 1305e006 93050141 13060101  ...A.......A....
 03b4 13040101 e7000900 13050000 93050037  ...............7
 03c4 3386a400 03360600 b306a400 83b60600  3....6..........
 03d4 6314d604 13058500 e314b5fe 83350138  c............5.8
 03e4 13050000 639c0502 13058138 9306e006  ....c......8....
 03f4 9305f007 13860600 638ab600 03370500  ........c....7..
 0404 93061600 13058500 e30607fe 1305e007  ................
 0414 3335c500 6f008000 13050000 13010104  35..o...........
 0424 0339017d 8334817d 0334017e 8330817e  .9.}.4.}.4.~.0.~
 0434 1301017f 67800000 6f00c000 93b61600  ....g...o.......
 0444 63920602 d7763504 e38a06fe 07840502  c....v5.........
 0454 27040602 b385d500 3306d600 3305d540  '.......3...3..@
 0464 6ff0dffd 67800000 6f00c000 93b61600  o...g...o.......
 0474 63940602 d776b504 e38a06fe 07d40502  c....v..........
 0484 27540602 13971600 b385e500 3306e600  'T..........3...
 0494 3305d540 6ff09ffd 67800000 6f00c000  3..@o...g...o...
 04a4 93b61600 63940602 d7763505 e38a06fe  ....c....v5.....
 04b4 07e40502 27640602 13972600 b385e500  ....'d....&.....
 04c4 3306e600 3305d540 6ff09ffd 67800000  3...3..@o...g...
 04d4 6f00c000 93b61600 63940602 d7767505  o.......c....vu.
 04e4 e38a06fe 87ec0502 a76c0602 13972600  .........l....&.
 04f4 b385e500 3306e600 3305d540 6ff09ffd  ....3...3..@o...
 0504 67800000 93084000 6f004002 07840502  g.....@.o.@.....
 0514 27040602 13080700 33050541 b3850501  '.......3..A....
 0524 33060601 93361700 639c0602 57773504  3....6..c...Ww5.
 0534 e30a07fe 13182700 e37aa8fc 93070000  ......'..z......
 0544 b386f500 57703704 0784160b b306f600  ....Wp7.........
 0554 93871700 2784160b e39417ff 6ff0dffb  ....'.......o...
 0564 67800000 93088000 6f008002 07d40502  g.......o.......
 0574 27540602 13080700 33050541 93161800  'T......3..A....
 0584 b385d500 3306d600 93361700 639c0602  ....3....6..c...
 0594 5777b504 e30a07fe 13182700 e378a8fc  Ww........'..x..
 05a4 93070000 b386f500 5770b704 07d4160b  ........Wp......
 05b4 b306f600 93872700 27d4160b e39417ff  ......'.'.......
 05c4 6ff09ffb 67800000 93080001 6f008002  o...g.......o...
 05d4 07e40502 27640602 13080700 33050541  ....'d......3..A
 05e4 93162800 b385d500 3306d600 93361700  ..(.....3....6..
 05f4 639c0602 57773505 e30a07fe 13182700  c...Ww5.......'.
 0604 e378a8fc 93070000 b386f500 57703705  .x..........Wp7.
 0614 07e4160b b306f600 93874700 27e4160b  ..........G.'...
 0624 e39417ff 6ff09ffb 67800000 93080001  ....o...g.......
 0634 6f008002 87ec0502 a76c0602 13080700  o........l......
 0644 33050541 93162800 b385d500 3306d600  3..A..(.....3...
 0654 93361700 639c0602 57777505 e30a07fe  .6..c...Wwu.....
 0664 13182700 e378a8fc 93070000 b386f500  ..'..x..........
 0674 57707705 87ec160b b306f600 93874700  Wpw...........G.
 0684 a7ec160b e39417ff 6ff09ffb 67800000  ........o...g...
 0694 130101f4 233c110a 2338810a 2334910a  ....#<..#8..#4..
 06a4 2330210b 233c3109 23384109 13090600  #0!.#<1.#8A.....
 06b4 93840500 13040500 d7793004 13050101  .........y0.....
 06c4 13060008 130a0101 93050000 97000000  ................
 06d4 e7804094 638e0900 13050000 93451500  ..@.c........E..
 06e4 3306aa00 13051500 2300b600 e398a9fe  3.......#.......
 06f4 57f03904 13050101 07040502 6f000002  W.9.........o...
 0704 07880402 27080902 b384a400 3309a900  ....'.......3...
 0714 3304a440 13351500 631e0500 57753404  3..@.5..c...Wu4.
 0724 e30a05fe e31e35fd 07888406 27088906  ......5.....'...
 0734 6ff09ffd 033a0109 83398109 0339010a  o....:...9...9..
 0744 8334810a 0334010b 8330810b 1301010c  .4...4...0......
 0754 67800000 130101ec 233c1112 23388112  g.......#<..#8..
 0764 23349112 23302113 233c3111 23384111  #4..#0!.#<1.#8A.
 0774 13090600 138a0500 13040500 d779b004  .............y..
 0784 13050101 13060010 93040101 93050000  ................
 0794 97000000 e7800088 63800902 13050000  ........c.......
 07a4 93151500 93c52500 2390b400 13051500  ......%.#.......
 07b4 93842400 e396a9fe 57f0b904 13050101  ..$.....W.......
 07c4 07540502 6f004002 07580a02 27580902  .T..o.@..X..'X..
 07d4 93151500 330aba00 3309b900 3304a440  ....3...3...3..@
 07e4 13351500 631e0500 5775b404 e30a05fe  .5..c...Wu......
 07f4 e31c35fd 07588a06 27588906 6ff05ffd  ..5..X..'X..o._.
 0804 033a0111 83398111 03390112 83348112  .:...9...9...4..
 0814 03340113 83308113 13010114 67800000  .4...0......g...
 0824 130101dc 233c1122 23388122 23349122  ....#<."#8."#4."
 0834 23302123 233c3121 23384121 13090600  #0!##<1!#8A!....
 0844 138a0500 13040500 d7793005 13050101  .........y0.....
 0854 13060020 93040101 93050000 97f0ffff  ... ............
 0864 e780407b 63800902 13050000 93152500  ..@{c.........%.
 0874 93c54500 23a0b400 13051500 93844400  ..E.#.........D.
 0884 e396a9fe 57f03905 13050101 07640502  ....W.9......d..
 0894 6f004002 07680a02 27680902 93152500  o.@..h..'h....%.
 08a4 330aba00 3309b900 3304a440 13351500  3...3...3..@.5..
 08b4 631e0500 57753405 e30a05fe e31c35fd  c...Wu4.......5.
 08c4 07688a06 27688906 6ff05ffd 033a0121  .h..'h..o._..:.!
 08d4 83398121 03390122 83348122 03340123  .9.!.9.".4.".4.#
 08e4 83308123 13010124 67800000 130101dc  .0.#...$g.......
 08f4 233c1122 23388122 23349122 23302123  #<."#8."#4."#0!#
 0904 233c3121 23384121 13090600 138a0500  #<1!#8A!........
 0914 13040500 d7797005 13050101 13060020  .....yp........ 
 0924 93040101 93050000 97f0ffff e780806e  ...............n
 0934 63800902 13050000 93152500 93c54500  c.........%...E.
 0944 23a0b400 13051500 93844400 e396a9fe  #.........D.....
 0954 57f07905 13050101 876c0502 6f004002  W.y......l..o.@.
 0964 076d0a02 276d0902 93152500 330aba00  .m..'m....%.3...
 0974 3309b900 3304a440 13351500 631e0500  3...3..@.5..c...
 0984 57757405 e30a05fe e31c35fd 076d9a07  Wut.......5..m..
 0994 276d9907 6ff05ffd 033a0121 83398121  'm..o._..:.!.9.!
 09a4 03390122 83348122 03340123 83308123  .9.".4.".4.#.0.#
 09b4 13010124 67800000 130101ff 23341100  ...$g.......#4..
 09c4 23308100 37050000 1305c543 97f0ffff  #0..7......C....
 09d4 e7800066 13040500 37050000 1305c546  ...f....7......F
 09e4 97f0ffff e7808074 13151500 33648500  .......t....3d..
 09f4 37050000 1305054a 97000000 e7804084  7......J......@.
 0a04 13152500 3364a400 37050000 1305454d  ..%.3d..7.....EM
 0a14 97000000 e780c082 13153500 3364a400  ..........5.3d..
 0a24 37050000 13058550 97f0ffff e7804060  7......P......@`
 0a34 13154500 3364a400 37050000 13058556  ..E.3d..7......V
 0a44 97f0ffff e780806e 13155500 3364a400  .......n..U.3d..
 0a54 37050000 1305c55c 97f0ffff e780407e  7......\......@~
 0a64 13156500 3364a400 37050000 13050563  ..e.3d..7......c
 0a74 97f0ffff e780c07c 13157500 3364a400  .......|..u.3d..
 0a84 37050000 13054569 97f0ffff e780405a  7.....Ei......@Z
 0a94 13158500 3364a400 37050000 13058575  ....3d..7......u
 0aa4 97f0ffff e7808068 13159500 3364a400  .......h....3d..
 0ab4 37150000 13054582 97f0ffff e7804078  7.....E.......@x
 0ac4 1315a500 3364a400 37150000 1305058f  ....3d..7.......
 0ad4 97f0ffff e780c076 1315b500 b365a400  .......v.....e..
 0ae4 1305f000 1316c501 1b850500 2320b600  ............# ..
 0af4 03340100 83308100 13010101 67800000  .4...0......g...
Contents of section .comment:
 0000 5562756e 74752063 6c616e67 20766572  Ubuntu clang ver
 0010 73696f6e 2031332e 302e312d 2b2b3230  sion 13.0.1-++20
 0020 32323031 32303131 30393234 2b373565  220120110924+75e
 0030 33336637 31633264 612d317e 65787031  33f71c2da-1~exp1
 0040 7e323032 32303132 30323331 3030312e  ~20220120231001.
 0050 3538004c 696e6b65 723a2055 62756e74  58.Linker: Ubunt
 0060 75204c4c 44203133 2e302e31 0000      u LLD 13.0.1..
Contents of section .riscv.attributes:
 0000 41320000 00726973 63760001 28000000  A2...riscv..(...
 0010 04100572 76363469 3270305f 6d327030  ...rv64i2p0_m2p0
 0020 5f763070 31305f7a 766c7373 65673070  _v0p10_zvlsseg0p
 0030 313000                               10.
Contents of section .symtab:
 0000 00000000 00000000 00000000 00000000  ................
 0010 00000000 00000000 01000000 00000100  ................
 0020 00000000 00000000 00000000 00000000  ................
 0030 07000000 00000100 00000000 00000000  ................
 0040 00000000 00000000 13000000 00000100  ................
 0050 10000000 00000000 00000000 00000000  ................
 0060 17000000 0400f1ff 00000000 00000000  ................
 0070 00000000 00000000 2c000000 00000200  ........,.......
 0080 2c000000 00000000 00000000 00000000  ,...............
 0090 34000000 00000200 1c000000 00000000  4...............
 00a0 00000000 00000000 3c000000 00000200  ........<.......
 00b0 7c000000 00000000 00000000 00000000  |...............
 00c0 44000000 00000200 ac000000 00000000  D...............
 00d0 00000000 00000000 4c000000 00000200  ........L.......
 00e0 10010000 00000000 00000000 00000000  ................
 00f0 55000000 00000200 14010000 00000000  U...............
 0100 00000000 00000000 5e000000 00000200  ........^.......
 0110 e4000000 00000000 00000000 00000000  ................
 0120 66000000 00000200 04010000 00000000  f...............
 0130 00000000 00000000 6e000000 00000200  ........n.......
 0140 78010000 00000000 00000000 00000000  x...............
 0150 76000000 00000200 b0010000 00000000  v...............
 0160 00000000 00000000 7e000000 00000200  ........~.......
 0170 24020000 00000000 00000000 00000000  $...............
 0180 87000000 00000200 28020000 00000000  ........(.......
 0190 00000000 00000000 90000000 00000200  ................
 01a0 f8010000 00000000 00000000 00000000  ................
 01b0 98000000 00000200 18020000 00000000  ................
 01c0 00000000 00000000 a0000000 00000200  ................
 01d0 8c020000 00000000 00000000 00000000  ................
 01e0 a8000000 00000200 bc020000 00000000  ................
 01f0 00000000 00000000 b0000000 00000200  ................
 0200 28030000 00000000 00000000 00000000  (...............
 0210 b9000000 00000200 2c030000 00000000  ........,.......
 0220 00000000 00000000 c2000000 00000200  ................
 0230 fc020000 00000000 00000000 00000000  ................
 0240 ca000000 00000200 1c030000 00000000  ................
 0250 00000000 00000000 d2000000 00000200  ................
 0260 94030000 00000000 00000000 00000000  ................
 0270 da000000 00000200 c4030000 00000000  ................
 0280 00000000 00000000 e2000000 00000200  ................
 0290 1c040000 00000000 00000000 00000000  ................
 02a0 eb000000 00000200 20040000 00000000  ........ .......
 02b0 00000000 00000000 f4000000 00000200  ................
 02c0 f8030000 00000000 00000000 00000000  ................
 02d0 fc000000 00000200 10040000 00000000  ................
 02e0 00000000 00000000 04010000 00000200  ................
 02f0 48040000 00000000 00000000 00000000  H...............
 0300 0c010000 00000200 40040000 00000000  ........@.......
 0310 00000000 00000000 14010000 00000200  ................
 0320 68040000 00000000 00000000 00000000  h...............
 0330 1c010000 00000200 78040000 00000000  ........x.......
 0340 00000000 00000000 24010000 00000200  ........$.......
 0350 70040000 00000000 00000000 00000000  p...............
 0360 2c010000 00000200 9c040000 00000000  ,...............
 0370 00000000 00000000 34010000 00000200  ........4.......
 0380 ac040000 00000000 00000000 00000000  ................
 0390 3c010000 00000200 a4040000 00000000  <...............
 03a0 00000000 00000000 44010000 00000200  ........D.......
 03b0 d0040000 00000000 00000000 00000000  ................
 03c0 4c010000 00000200 e0040000 00000000  L...............
 03d0 00000000 00000000 54010000 00000200  ........T.......
 03e0 d8040000 00000000 00000000 00000000  ................
 03f0 5c010000 00000200 04050000 00000000  \...............
 0400 00000000 00000000 64010000 00000200  ........d.......
 0410 30050000 00000000 00000000 00000000  0...............
 0420 6c010000 00000200 10050000 00000000  l...............
 0430 00000000 00000000 74010000 00000200  ........t.......
 0440 1c050000 00000000 00000000 00000000  ................
 0450 7c010000 00000200 28050000 00000000  |.......(.......
 0460 00000000 00000000 84010000 00000200  ................
 0470 64050000 00000000 00000000 00000000  d...............
 0480 8c010000 00000200 44050000 00000000  ........D.......
 0490 00000000 00000000 94010000 00000200  ................
 04a0 94050000 00000000 00000000 00000000  ................
 04b0 9d010000 00000200 70050000 00000000  ........p.......
 04c0 00000000 00000000 a6010000 00000200  ................
 04d0 7c050000 00000000 00000000 00000000  |...............
 04e0 af010000 00000200 8c050000 00000000  ................
 04f0 00000000 00000000 b8010000 00000200  ................
 0500 c8050000 00000000 00000000 00000000  ................
 0510 c1010000 00000200 a8050000 00000000  ................
 0520 00000000 00000000 ca010000 00000200  ................
 0530 f8050000 00000000 00000000 00000000  ................
 0540 d3010000 00000200 d4050000 00000000  ................
 0550 00000000 00000000 dc010000 00000200  ................
 0560 e0050000 00000000 00000000 00000000  ................
 0570 e5010000 00000200 f0050000 00000000  ................
 0580 00000000 00000000 ee010000 00000200  ................
 0590 2c060000 00000000 00000000 00000000  ,...............
 05a0 f7010000 00000200 0c060000 00000000  ................
 05b0 00000000 00000000 00020000 00000200  ................
 05c0 5c060000 00000000 00000000 00000000  \...............
 05d0 09020000 00000200 38060000 00000000  ........8.......
 05e0 00000000 00000000 12020000 00000200  ................
 05f0 44060000 00000000 00000000 00000000  D...............
 0600 1b020000 00000200 54060000 00000000  ........T.......
 0610 00000000 00000000 24020000 00000200  ........$.......
 0620 90060000 00000000 00000000 00000000  ................
 0630 2d020000 00000200 70060000 00000000  -.......p.......
 0640 00000000 00000000 36020000 00000200  ........6.......
 0650 f4060000 00000000 00000000 00000000  ................
 0660 3f020000 00000200 e0060000 00000000  ?...............
 0670 00000000 00000000 48020000 00000200  ........H.......
 0680 20070000 00000000 00000000 00000000   ...............
 0690 51020000 00000200 04070000 00000000  Q...............
 06a0 00000000 00000000 5a020000 00000200  ........Z.......
 06b0 0c070000 00000000 00000000 00000000  ................
 06c0 63020000 00000200 18070000 00000000  c...............
 06d0 00000000 00000000 6c020000 00000200  ........l.......
 06e0 38070000 00000000 00000000 00000000  8...............
 06f0 76020000 00000200 bc070000 00000000  v...............
 0700 00000000 00000000 7f020000 00000200  ................
 0710 a4070000 00000000 00000000 00000000  ................
 0720 88020000 00000200 ec070000 00000000  ................
 0730 00000000 00000000 91020000 00000200  ................
 0740 cc070000 00000000 00000000 00000000  ................
 0750 9a020000 00000200 d4070000 00000000  ................
 0760 00000000 00000000 a3020000 00000200  ................
 0770 e4070000 00000000 00000000 00000000  ................
 0780 ac020000 00000200 04080000 00000000  ................
 0790 00000000 00000000 b6020000 00000200  ................
 07a0 88080000 00000000 00000000 00000000  ................
 07b0 bf020000 00000200 70080000 00000000  ........p.......
 07c0 00000000 00000000 c8020000 00000200  ................
 07d0 b8080000 00000000 00000000 00000000  ................
 07e0 d1020000 00000200 98080000 00000000  ................
 07f0 00000000 00000000 da020000 00000200  ................
 0800 a0080000 00000000 00000000 00000000  ................
 0810 e3020000 00000200 b0080000 00000000  ................
 0820 00000000 00000000 ec020000 00000200  ................
 0830 d0080000 00000000 00000000 00000000  ................
 0840 f6020000 00000200 54090000 00000000  ........T.......
 0850 00000000 00000000 ff020000 00000200  ................
 0860 3c090000 00000000 00000000 00000000  <...............
 0870 08030000 00000200 84090000 00000000  ................
 0880 00000000 00000000 11030000 00000200  ................
 0890 64090000 00000000 00000000 00000000  d...............
 08a0 1a030000 00000200 6c090000 00000000  ........l.......
 08b0 00000000 00000000 23030000 00000200  ........#.......
 08c0 7c090000 00000000 00000000 00000000  |...............
 08d0 2c030000 00000200 9c090000 00000000  ,...............
 08e0 00000000 00000000 36030000 1000f1ff  ........6.......
 08f0 00000100 00000000 00000000 00000000  ................
 0900 3b030000 12000200 bc090000 00000000  ;...............
 0910 48010000 00000000 40030000 12000200  H.......@.......
 0920 14000000 00000000 1c000000 00000000  ................
 0930 47030000 12000200 30000000 00000000  G.......0.......
 0940 fc000000 00000000 65030000 12000200  ........e.......
 0950 2c010000 00000000 14010000 00000000  ,...............
 0960 84030000 12000200 40020000 00000000  ........@.......
 0970 04010000 00000000 a3030000 12000200  ................
 0980 44030000 00000000 f8000000 00000000  D...............
 0990 c2030000 12000200 3c040000 00000000  ........<.......
 09a0 30000000 00000000 e1030000 12000200  0...............
 09b0 6c040000 00000000 34000000 00000000  l.......4.......
 09c0 01040000 12000200 a0040000 00000000  ................
 09d0 34000000 00000000 21040000 12000200  4.......!.......
 09e0 d4040000 00000000 34000000 00000000  ........4.......
 09f0 42040000 12000200 08050000 00000000  B...............
 0a00 60000000 00000000 5d040000 12000200  `.......].......
 0a10 68050000 00000000 64000000 00000000  h.......d.......
 0a20 79040000 12000200 cc050000 00000000  y...............
 0a30 64000000 00000000 95040000 12000200  d...............
 0a40 30060000 00000000 64000000 00000000  0.......d.......
 0a50 b2040000 12000200 94060000 00000000  ................
 0a60 c4000000 00000000 cd040000 12000200  ................
 0a70 58070000 00000000 cc000000 00000000  X...............
 0a80 e9040000 12000200 24080000 00000000  ........$.......
 0a90 cc000000 00000000 05050000 12000200  ................
 0aa0 f0080000 00000000 cc000000 00000000  ................
Contents of section .shstrtab:
 0000 002e7465 78742e69 6e697400 2e746578  ..text.init..tex
 0010 74002e63 6f6d6d65 6e74002e 72697363  t..comment..risc
 0020 762e6174 74726962 75746573 002e7379  v.attributes..sy
 0030 6d746162 002e7368 73747274 6162002e  mtab..shstrtab..
 0040 73747274 616200                      strtab.
Contents of section .strtab:
 0000 00656e74 7279002e 4c706372 656c5f68  .entry..Lpcrel_h
 0010 69300065 6e640074 6573745f 76656374  i0.end.test_vect
 0020 6f725f6d 656d6370 792e6300 2e4c4242  or_memcpy.c..LBB
 0030 305f3300 2e4c4242 305f3200 2e4c4242  0_3..LBB0_2..LBB
 0040 315f3100 2e4c4242 315f3300 2e4c4242  1_1..LBB1_3..LBB
 0050 315f3130 002e4c42 42315f31 31002e4c  1_10..LBB1_11..L
 0060 4242315f 37002e4c 4242315f 39002e4c  BB1_7..LBB1_9..L
 0070 4242325f 31002e4c 4242325f 33002e4c  BB2_1..LBB2_3..L
 0080 4242325f 3130002e 4c424232 5f313100  BB2_10..LBB2_11.
 0090 2e4c4242 325f3700 2e4c4242 325f3900  .LBB2_7..LBB2_9.
 00a0 2e4c4242 335f3100 2e4c4242 335f3300  .LBB3_1..LBB3_3.
 00b0 2e4c4242 335f3130 002e4c42 42335f31  .LBB3_10..LBB3_1
 00c0 31002e4c 4242335f 37002e4c 4242335f  1..LBB3_7..LBB3_
 00d0 39002e4c 4242345f 31002e4c 4242345f  9..LBB4_1..LBB4_
 00e0 33002e4c 4242345f 3130002e 4c424234  3..LBB4_10..LBB4
 00f0 5f313100 2e4c4242 345f3700 2e4c4242  _11..LBB4_7..LBB
 0100 345f3900 2e4c4242 355f3200 2e4c4242  4_9..LBB5_2..LBB
 0110 355f3100 2e4c4242 355f3400 2e4c4242  5_1..LBB5_4..LBB
 0120 365f3200 2e4c4242 365f3100 2e4c4242  6_2..LBB6_1..LBB
 0130 365f3400 2e4c4242 375f3200 2e4c4242  6_4..LBB7_2..LBB
 0140 375f3100 2e4c4242 375f3400 2e4c4242  7_1..LBB7_4..LBB
 0150 385f3200 2e4c4242 385f3100 2e4c4242  8_2..LBB8_1..LBB
 0160 385f3400 2e4c4242 395f3400 2e4c4242  8_4..LBB9_4..LBB
 0170 395f3100 2e4c4242 395f3200 2e4c4242  9_1..LBB9_2..LBB
 0180 395f3300 2e4c4242 395f3800 2e4c4242  9_3..LBB9_8..LBB
 0190 395f3700 2e4c4242 31305f34 002e4c42  9_7..LBB10_4..LB
 01a0 4231305f 31002e4c 42423130 5f32002e  B10_1..LBB10_2..
 01b0 4c424231 305f3300 2e4c4242 31305f38  LBB10_3..LBB10_8
 01c0 002e4c42 4231305f 37002e4c 42423131  ..LBB10_7..LBB11
 01d0 5f34002e 4c424231 315f3100 2e4c4242  _4..LBB11_1..LBB
 01e0 31315f32 002e4c42 4231315f 33002e4c  11_2..LBB11_3..L
 01f0 42423131 5f38002e 4c424231 315f3700  BB11_8..LBB11_7.
 0200 2e4c4242 31325f34 002e4c42 4231325f  .LBB12_4..LBB12_
 0210 31002e4c 42423132 5f32002e 4c424231  1..LBB12_2..LBB1
 0220 325f3300 2e4c4242 31325f38 002e4c42  2_3..LBB12_8..LB
 0230 4231325f 37002e4c 42423133 5f33002e  B12_7..LBB13_3..
 0240 4c424231 335f3200 2e4c4242 31335f37  LBB13_2..LBB13_7
 0250 002e4c42 4231335f 34002e4c 42423133  ..LBB13_4..LBB13
 0260 5f35002e 4c424231 335f3600 2e4c4242  _5..LBB13_6..LBB
 0270 31335f31 30002e4c 42423134 5f33002e  13_10..LBB14_3..
 0280 4c424231 345f3200 2e4c4242 31345f37  LBB14_2..LBB14_7
 0290 002e4c42 4231345f 34002e4c 42423134  ..LBB14_4..LBB14
 02a0 5f35002e 4c424231 345f3600 2e4c4242  _5..LBB14_6..LBB
 02b0 31345f31 30002e4c 42423135 5f33002e  14_10..LBB15_3..
 02c0 4c424231 355f3200 2e4c4242 31355f37  LBB15_2..LBB15_7
 02d0 002e4c42 4231355f 34002e4c 42423135  ..LBB15_4..LBB15
 02e0 5f35002e 4c424231 355f3600 2e4c4242  _5..LBB15_6..LBB
 02f0 31355f31 30002e4c 42423136 5f33002e  15_10..LBB16_3..
 0300 4c424231 365f3200 2e4c4242 31365f37  LBB16_2..LBB16_7
 0310 002e4c42 4231365f 34002e4c 42423136  ..LBB16_4..LBB16
 0320 5f35002e 4c424231 365f3600 2e4c4242  _5..LBB16_6..LBB
 0330 31365f31 30005f5f 7370006d 61696e00  16_10.__sp.main.
 0340 6d656d73 65740076 6563746f 725f6d65  memset.vector_me
 0350 6d637079 5f686172 6e657373 5f75696e  mcpy_harness_uin
 0360 74385f74 00766563 746f725f 6d656d63  t8_t.vector_memc
 0370 70795f68 61726e65 73735f75 696e7431  py_harness_uint1
 0380 365f7400 76656374 6f725f6d 656d6370  6_t.vector_memcp
 0390 795f6861 726e6573 735f7569 6e743332  y_harness_uint32
 03a0 5f740076 6563746f 725f6d65 6d637079  _t.vector_memcpy
 03b0 5f686172 6e657373 5f75696e 7436345f  _harness_uint64_
 03c0 74007665 63746f72 5f6d656d 6370795f  t.vector_memcpy_
 03d0 756e6974 5f737472 6964655f 65386d38  unit_stride_e8m8
 03e0 00766563 746f725f 6d656d63 70795f75  .vector_memcpy_u
 03f0 6e69745f 73747269 64655f65 31366d38  nit_stride_e16m8
 0400 00766563 746f725f 6d656d63 70795f75  .vector_memcpy_u
 0410 6e69745f 73747269 64655f65 33326d38  nit_stride_e32m8
 0420 00766563 746f725f 6d656d63 70795f75  .vector_memcpy_u
 0430 6e69745f 73747269 64655f65 33326d66  nit_stride_e32mf
 0440 32007665 63746f72 5f6d656d 6370795f  2.vector_memcpy_
 0450 73747269 6465645f 65386d38 00766563  strided_e8m8.vec
 0460 746f725f 6d656d63 70795f73 74726964  tor_memcpy_strid
 0470 65645f65 31366d38 00766563 746f725f  ed_e16m8.vector_
 0480 6d656d63 70795f73 74726964 65645f65  memcpy_strided_e
 0490 33326d38 00766563 746f725f 6d656d63  32m8.vector_memc
 04a0 70795f73 74726964 65645f65 33326d66  py_strided_e32mf
 04b0 32007665 63746f72 5f6d656d 6370795f  2.vector_memcpy_
 04c0 696e6465 7865645f 65386d38 00766563  indexed_e8m8.vec
 04d0 746f725f 6d656d63 70795f69 6e646578  tor_memcpy_index
 04e0 65645f65 31366d38 00766563 746f725f  ed_e16m8.vector_
 04f0 6d656d63 70795f69 6e646578 65645f65  memcpy_indexed_e
 0500 33326d38 00766563 746f725f 6d656d63  32m8.vector_memc
 0510 70795f69 6e646578 65645f65 33326d66  py_indexed_e32mf
 0520 3200                                 2.

Disassembly of section .text.init:

0000000000000000 <entry>:
       0: 17 01 01 00  	auipc	sp, 16
       4: 13 01 01 02  	addi	sp, sp, 32
       8: 97 10 00 00  	auipc	ra, 1
       c: e7 80 40 9b  	jalr	-1612(ra)

0000000000000010 <end>:
      10: 6f 00 00 00  	j	0x10 <end>

Disassembly of section .text:

0000000000000014 <memset>:
      14: 63 0c 06 00  	beqz	a2, 0x2c <.LBB0_3>
      18: 93 06 05 00  	mv	a3, a0

000000000000001c <.LBB0_2>:
      1c: 23 80 b6 00  	sb	a1, 0(a3)
      20: 13 06 f6 ff  	addi	a2, a2, -1
      24: 93 86 16 00  	addi	a3, a3, 1
      28: e3 1a 06 fe  	bnez	a2, 0x1c <.LBB0_2>

000000000000002c <.LBB0_3>:
      2c: 67 80 00 00  	ret

0000000000000030 <vector_memcpy_harness_uint8_t>:
      30: 13 01 01 ee  	addi	sp, sp, -288
      34: 23 3c 11 10  	sd	ra, 280(sp)
      38: 23 38 81 10  	sd	s0, 272(sp)
      3c: 23 34 91 10  	sd	s1, 264(sp)
      40: 23 30 21 11  	sd	s2, 256(sp)
      44: 13 09 05 00  	mv	s2, a0
      48: 93 04 01 08  	addi	s1, sp, 128
      4c: 13 05 01 08  	addi	a0, sp, 128
      50: 13 06 00 08  	addi	a2, zero, 128
      54: 13 04 00 08  	addi	s0, zero, 128
      58: 93 05 00 00  	mv	a1, zero
      5c: 97 00 00 00  	auipc	ra, 0
      60: e7 80 80 fb  	jalr	-72(ra)
      64: 13 05 01 00  	mv	a0, sp
      68: 13 06 00 08  	addi	a2, zero, 128
      6c: 93 05 00 00  	mv	a1, zero
      70: 97 00 00 00  	auipc	ra, 0
      74: e7 80 40 fa  	jalr	-92(ra)
      78: 13 05 00 00  	mv	a0, zero

000000000000007c <.LBB1_1>:
      7c: b3 85 a4 00  	add	a1, s1, a0
      80: 23 80 a5 00  	sb	a0, 0(a1)
      84: 13 05 15 00  	addi	a0, a0, 1
      88: e3 1a 85 fe  	bne	a0, s0, 0x7c <.LBB1_1>
      8c: 93 04 01 08  	addi	s1, sp, 128
      90: 13 05 e0 06  	addi	a0, zero, 110
      94: 93 05 01 08  	addi	a1, sp, 128
      98: 13 06 01 00  	mv	a2, sp
      9c: 13 04 01 00  	mv	s0, sp
      a0: e7 00 09 00  	jalr	s2
      a4: 13 05 00 00  	mv	a0, zero
      a8: 93 05 d0 06  	addi	a1, zero, 109

00000000000000ac <.LBB1_3>:
      ac: 13 76 f5 0f  	andi	a2, a0, 255
      b0: b3 86 c4 00  	add	a3, s1, a2
      b4: 83 c6 06 00  	lbu	a3, 0(a3)
      b8: 33 07 c4 00  	add	a4, s0, a2
      bc: 03 47 07 00  	lbu	a4, 0(a4)
      c0: 63 98 e6 04  	bne	a3, a4, 0x110 <.LBB1_10>
      c4: 13 05 15 00  	addi	a0, a0, 1
      c8: e3 62 b6 fe  	bltu	a2, a1, 0xac <.LBB1_3>
      cc: 83 45 e1 06  	lbu	a1, 110(sp)
      d0: 13 05 00 00  	mv	a0, zero
      d4: 63 90 05 04  	bnez	a1, 0x114 <.LBB1_11>
      d8: 93 05 f0 06  	addi	a1, zero, 111
      dc: 13 05 f0 ff  	addi	a0, zero, -1
      e0: 13 06 01 00  	mv	a2, sp

00000000000000e4 <.LBB1_7>:
      e4: 93 96 85 03  	slli	a3, a1, 56
      e8: 93 d6 86 43  	srai	a3, a3, 56
      ec: 63 cc 06 00  	bltz	a3, 0x104 <.LBB1_9>
      f0: 13 f7 f5 0f  	andi	a4, a1, 255
      f4: 33 07 e6 00  	add	a4, a2, a4
      f8: 03 47 07 00  	lbu	a4, 0(a4)
      fc: 93 85 15 00  	addi	a1, a1, 1
     100: e3 02 07 fe  	beqz	a4, 0xe4 <.LBB1_7>

0000000000000104 <.LBB1_9>:
     104: 33 25 d5 00  	slt	a0, a0, a3
     108: 13 45 15 00  	xori	a0, a0, 1
     10c: 6f 00 80 00  	j	0x114 <.LBB1_11>

0000000000000110 <.LBB1_10>:
     110: 13 05 00 00  	mv	a0, zero

0000000000000114 <.LBB1_11>:
     114: 03 39 01 10  	ld	s2, 256(sp)
     118: 83 34 81 10  	ld	s1, 264(sp)
     11c: 03 34 01 11  	ld	s0, 272(sp)
     120: 83 30 81 11  	ld	ra, 280(sp)
     124: 13 01 01 12  	addi	sp, sp, 288
     128: 67 80 00 00  	ret

000000000000012c <vector_memcpy_harness_uint16_t>:
     12c: 13 01 01 de  	addi	sp, sp, -544
     130: 23 3c 11 20  	sd	ra, 536(sp)
     134: 23 38 81 20  	sd	s0, 528(sp)
     138: 23 34 91 20  	sd	s1, 520(sp)
     13c: 23 30 21 21  	sd	s2, 512(sp)
     140: 13 09 05 00  	mv	s2, a0
     144: 13 05 01 10  	addi	a0, sp, 256
     148: 13 06 00 10  	addi	a2, zero, 256
     14c: 13 04 01 10  	addi	s0, sp, 256
     150: 93 05 00 00  	mv	a1, zero
     154: 97 00 00 00  	auipc	ra, 0
     158: e7 80 00 ec  	jalr	-320(ra)
     15c: 13 05 01 00  	mv	a0, sp
     160: 13 06 00 10  	addi	a2, zero, 256
     164: 93 05 00 00  	mv	a1, zero
     168: 97 00 00 00  	auipc	ra, 0
     16c: e7 80 c0 ea  	jalr	-340(ra)
     170: 13 05 00 00  	mv	a0, zero
     174: 93 05 00 08  	addi	a1, zero, 128

0000000000000178 <.LBB2_1>:
     178: 23 10 a4 00  	sh	a0, 0(s0)
     17c: 13 05 15 00  	addi	a0, a0, 1
     180: 13 04 24 00  	addi	s0, s0, 2
     184: e3 1a b5 fe  	bne	a0, a1, 0x178 <.LBB2_1>
     188: 93 04 01 10  	addi	s1, sp, 256
     18c: 13 05 e0 06  	addi	a0, zero, 110
     190: 93 05 01 10  	addi	a1, sp, 256
     194: 13 06 01 00  	mv	a2, sp
     198: 13 04 01 00  	mv	s0, sp
     19c: e7 00 09 00  	jalr	s2
     1a0: 13 05 00 00  	mv	a0, zero
     1a4: b7 05 01 00  	lui	a1, 16
     1a8: 9b 85 f5 ff  	addiw	a1, a1, -1
     1ac: 13 06 d0 06  	addi	a2, zero, 109

00000000000001b0 <.LBB2_3>:
     1b0: 93 16 05 03  	slli	a3, a0, 48
     1b4: 93 d6 f6 02  	srli	a3, a3, 47
     1b8: 33 87 d4 00  	add	a4, s1, a3
     1bc: 03 57 07 00  	lhu	a4, 0(a4)
     1c0: b3 06 d4 00  	add	a3, s0, a3
     1c4: 83 d6 06 00  	lhu	a3, 0(a3)
     1c8: 63 1e d7 04  	bne	a4, a3, 0x224 <.LBB2_10>
     1cc: b3 76 b5 00  	and	a3, a0, a1
     1d0: 13 05 15 00  	addi	a0, a0, 1
     1d4: e3 ee c6 fc  	bltu	a3, a2, 0x1b0 <.LBB2_3>
     1d8: 83 55 c1 0d  	lhu	a1, 220(sp)
     1dc: 13 05 00 00  	mv	a0, zero
     1e0: 63 94 05 04  	bnez	a1, 0x228 <.LBB2_11>
     1e4: 13 05 e0 06  	addi	a0, zero, 110
     1e8: b7 05 01 00  	lui	a1, 16
     1ec: 9b 85 f5 ff  	addiw	a1, a1, -1
     1f0: 13 06 e0 07  	addi	a2, zero, 126
     1f4: 93 06 01 00  	mv	a3, sp

00000000000001f8 <.LBB2_7>:
     1f8: 33 77 b5 00  	and	a4, a0, a1
     1fc: 63 6e e6 00  	bltu	a2, a4, 0x218 <.LBB2_9>
     200: 13 05 15 00  	addi	a0, a0, 1
     204: b3 77 b5 00  	and	a5, a0, a1
     208: 93 97 17 00  	slli	a5, a5, 1
     20c: b3 87 f6 00  	add	a5, a3, a5
     210: 83 d7 07 00  	lhu	a5, 0(a5)
     214: e3 82 07 fe  	beqz	a5, 0x1f8 <.LBB2_7>

0000000000000218 <.LBB2_9>:
     218: 13 35 f7 07  	sltiu	a0, a4, 127
     21c: 13 45 15 00  	xori	a0, a0, 1
     220: 6f 00 80 00  	j	0x228 <.LBB2_11>

0000000000000224 <.LBB2_10>:
     224: 13 05 00 00  	mv	a0, zero

0000000000000228 <.LBB2_11>:
     228: 03 39 01 20  	ld	s2, 512(sp)
     22c: 83 34 81 20  	ld	s1, 520(sp)
     230: 03 34 01 21  	ld	s0, 528(sp)
     234: 83 30 81 21  	ld	ra, 536(sp)
     238: 13 01 01 22  	addi	sp, sp, 544
     23c: 67 80 00 00  	ret

0000000000000240 <vector_memcpy_harness_uint32_t>:
     240: 13 01 01 bd  	addi	sp, sp, -1072
     244: 23 34 11 42  	sd	ra, 1064(sp)
     248: 23 30 81 42  	sd	s0, 1056(sp)
     24c: 23 3c 91 40  	sd	s1, 1048(sp)
     250: 23 38 21 41  	sd	s2, 1040(sp)
     254: 13 09 05 00  	mv	s2, a0
     258: 13 05 01 21  	addi	a0, sp, 528
     25c: 13 06 00 20  	addi	a2, zero, 512
     260: 93 04 01 21  	addi	s1, sp, 528
     264: 93 05 00 00  	mv	a1, zero
     268: 97 00 00 00  	auipc	ra, 0
     26c: e7 80 c0 da  	jalr	-596(ra)
     270: 13 05 01 01  	addi	a0, sp, 16
     274: 13 06 00 20  	addi	a2, zero, 512
     278: 93 05 00 00  	mv	a1, zero
     27c: 97 00 00 00  	auipc	ra, 0
     280: e7 80 80 d9  	jalr	-616(ra)
     284: 13 05 00 00  	mv	a0, zero
     288: 93 05 00 08  	addi	a1, zero, 128

000000000000028c <.LBB3_1>:
     28c: 23 a0 a4 00  	sw	a0, 0(s1)
     290: 13 05 15 00  	addi	a0, a0, 1
     294: 93 84 44 00  	addi	s1, s1, 4
     298: e3 1a b5 fe  	bne	a0, a1, 0x28c <.LBB3_1>
     29c: 93 04 01 21  	addi	s1, sp, 528
     2a0: 13 05 e0 06  	addi	a0, zero, 110
     2a4: 93 05 01 21  	addi	a1, sp, 528
     2a8: 13 06 01 01  	addi	a2, sp, 16
     2ac: 13 04 01 01  	addi	s0, sp, 16
     2b0: e7 00 09 00  	jalr	s2
     2b4: 93 05 00 00  	mv	a1, zero
     2b8: 13 05 d0 06  	addi	a0, zero, 109

00000000000002bc <.LBB3_3>:
     2bc: 13 96 05 02  	slli	a2, a1, 32
     2c0: 13 56 e6 01  	srli	a2, a2, 30
     2c4: b3 86 c4 00  	add	a3, s1, a2
     2c8: 83 a6 06 00  	lw	a3, 0(a3)
     2cc: 33 06 c4 00  	add	a2, s0, a2
     2d0: 03 26 06 00  	lw	a2, 0(a2)
     2d4: 63 9a c6 04  	bne	a3, a2, 0x328 <.LBB3_10>
     2d8: 1b 86 05 00  	sext.w	a2, a1
     2dc: 93 85 15 00  	addi	a1, a1, 1
     2e0: e3 6e a6 fc  	bltu	a2, a0, 0x2bc <.LBB3_3>
     2e4: 83 25 81 1c  	lw	a1, 456(sp)
     2e8: 13 05 00 00  	mv	a0, zero
     2ec: 63 90 05 04  	bnez	a1, 0x32c <.LBB3_11>
     2f0: 13 05 e0 06  	addi	a0, zero, 110
     2f4: 93 05 e0 07  	addi	a1, zero, 126
     2f8: 13 06 01 01  	addi	a2, sp, 16

00000000000002fc <.LBB3_7>:
     2fc: 9b 06 05 00  	sext.w	a3, a0
     300: 63 ee d5 00  	bltu	a1, a3, 0x31c <.LBB3_9>
     304: 13 05 15 00  	addi	a0, a0, 1
     308: 13 17 05 02  	slli	a4, a0, 32
     30c: 13 57 e7 01  	srli	a4, a4, 30
     310: 33 07 e6 00  	add	a4, a2, a4
     314: 03 27 07 00  	lw	a4, 0(a4)
     318: e3 02 07 fe  	beqz	a4, 0x2fc <.LBB3_7>

000000000000031c <.LBB3_9>:
     31c: 13 b5 f6 07  	sltiu	a0, a3, 127
     320: 13 45 15 00  	xori	a0, a0, 1
     324: 6f 00 80 00  	j	0x32c <.LBB3_11>

0000000000000328 <.LBB3_10>:
     328: 13 05 00 00  	mv	a0, zero

000000000000032c <.LBB3_11>:
     32c: 03 39 01 41  	ld	s2, 1040(sp)
     330: 83 34 81 41  	ld	s1, 1048(sp)
     334: 03 34 01 42  	ld	s0, 1056(sp)
     338: 83 30 81 42  	ld	ra, 1064(sp)
     33c: 13 01 01 43  	addi	sp, sp, 1072
     340: 67 80 00 00  	ret

0000000000000344 <vector_memcpy_harness_uint64_t>:
     344: 13 01 01 81  	addi	sp, sp, -2032
     348: 23 34 11 7e  	sd	ra, 2024(sp)
     34c: 23 30 81 7e  	sd	s0, 2016(sp)
     350: 23 3c 91 7c  	sd	s1, 2008(sp)
     354: 23 38 21 7d  	sd	s2, 2000(sp)
     358: 13 01 01 fc  	addi	sp, sp, -64
     35c: 13 09 05 00  	mv	s2, a0
     360: 13 05 01 41  	addi	a0, sp, 1040
     364: 13 06 00 40  	addi	a2, zero, 1024
     368: 93 04 01 41  	addi	s1, sp, 1040
     36c: 93 05 00 00  	mv	a1, zero
     370: 97 00 00 00  	auipc	ra, 0
     374: e7 80 40 ca  	jalr	-860(ra)
     378: 13 05 01 01  	addi	a0, sp, 16
     37c: 13 06 00 40  	addi	a2, zero, 1024
     380: 93 05 00 00  	mv	a1, zero
     384: 97 00 00 00  	auipc	ra, 0
     388: e7 80 00 c9  	jalr	-880(ra)
     38c: 13 05 00 00  	mv	a0, zero
     390: 93 05 00 08  	addi	a1, zero, 128

0000000000000394 <.LBB4_1>:
     394: 23 b0 a4 00  	sd	a0, 0(s1)
     398: 13 05 15 00  	addi	a0, a0, 1
     39c: 93 84 84 00  	addi	s1, s1, 8
     3a0: e3 1a b5 fe  	bne	a0, a1, 0x394 <.LBB4_1>
     3a4: 93 04 01 41  	addi	s1, sp, 1040
     3a8: 13 05 e0 06  	addi	a0, zero, 110
     3ac: 93 05 01 41  	addi	a1, sp, 1040
     3b0: 13 06 01 01  	addi	a2, sp, 16
     3b4: 13 04 01 01  	addi	s0, sp, 16
     3b8: e7 00 09 00  	jalr	s2
     3bc: 13 05 00 00  	mv	a0, zero
     3c0: 93 05 00 37  	addi	a1, zero, 880

00000000000003c4 <.LBB4_3>:
     3c4: 33 86 a4 00  	add	a2, s1, a0
     3c8: 03 36 06 00  	ld	a2, 0(a2)
     3cc: b3 06 a4 00  	add	a3, s0, a0
     3d0: 83 b6 06 00  	ld	a3, 0(a3)
     3d4: 63 14 d6 04  	bne	a2, a3, 0x41c <.LBB4_10>
     3d8: 13 05 85 00  	addi	a0, a0, 8
     3dc: e3 14 b5 fe  	bne	a0, a1, 0x3c4 <.LBB4_3>
     3e0: 83 35 01 38  	ld	a1, 896(sp)
     3e4: 13 05 00 00  	mv	a0, zero
     3e8: 63 9c 05 02  	bnez	a1, 0x420 <.LBB4_11>
     3ec: 13 05 81 38  	addi	a0, sp, 904
     3f0: 93 06 e0 06  	addi	a3, zero, 110
     3f4: 93 05 f0 07  	addi	a1, zero, 127

00000000000003f8 <.LBB4_7>:
     3f8: 13 86 06 00  	mv	a2, a3
     3fc: 63 8a b6 00  	beq	a3, a1, 0x410 <.LBB4_9>
     400: 03 37 05 00  	ld	a4, 0(a0)
     404: 93 06 16 00  	addi	a3, a2, 1
     408: 13 05 85 00  	addi	a0, a0, 8
     40c: e3 06 07 fe  	beqz	a4, 0x3f8 <.LBB4_7>

0000000000000410 <.LBB4_9>:
     410: 13 05 e0 07  	addi	a0, zero, 126
     414: 33 35 c5 00  	sltu	a0, a0, a2
     418: 6f 00 80 00  	j	0x420 <.LBB4_11>

000000000000041c <.LBB4_10>:
     41c: 13 05 00 00  	mv	a0, zero

0000000000000420 <.LBB4_11>:
     420: 13 01 01 04  	addi	sp, sp, 64
     424: 03 39 01 7d  	ld	s2, 2000(sp)
     428: 83 34 81 7d  	ld	s1, 2008(sp)
     42c: 03 34 01 7e  	ld	s0, 2016(sp)
     430: 83 30 81 7e  	ld	ra, 2024(sp)
     434: 13 01 01 7f  	addi	sp, sp, 2032
     438: 67 80 00 00  	ret

000000000000043c <vector_memcpy_unit_stride_e8m8>:
     43c: 6f 00 c0 00  	j	0x448 <.LBB5_2>

0000000000000440 <.LBB5_1>:
     440: 93 b6 16 00  	seqz	a3, a3
     444: 63 92 06 02  	bnez	a3, 0x468 <.LBB5_4>

0000000000000448 <.LBB5_2>:
     448: d7 76 35 04  	<unknown>
     44c: e3 8a 06 fe  	beqz	a3, 0x440 <.LBB5_1>
     450: 07 84 05 02  	<unknown>
     454: 27 04 06 02  	<unknown>
     458: b3 85 d5 00  	add	a1, a1, a3
     45c: 33 06 d6 00  	add	a2, a2, a3
     460: 33 05 d5 40  	sub	a0, a0, a3
     464: 6f f0 df fd  	j	0x440 <.LBB5_1>

0000000000000468 <.LBB5_4>:
     468: 67 80 00 00  	ret

000000000000046c <vector_memcpy_unit_stride_e16m8>:
     46c: 6f 00 c0 00  	j	0x478 <.LBB6_2>

0000000000000470 <.LBB6_1>:
     470: 93 b6 16 00  	seqz	a3, a3
     474: 63 94 06 02  	bnez	a3, 0x49c <.LBB6_4>

0000000000000478 <.LBB6_2>:
     478: d7 76 b5 04  	<unknown>
     47c: e3 8a 06 fe  	beqz	a3, 0x470 <.LBB6_1>
     480: 07 d4 05 02  	<unknown>
     484: 27 54 06 02  	<unknown>
     488: 13 97 16 00  	slli	a4, a3, 1
     48c: b3 85 e5 00  	add	a1, a1, a4
     490: 33 06 e6 00  	add	a2, a2, a4
     494: 33 05 d5 40  	sub	a0, a0, a3
     498: 6f f0 9f fd  	j	0x470 <.LBB6_1>

000000000000049c <.LBB6_4>:
     49c: 67 80 00 00  	ret

00000000000004a0 <vector_memcpy_unit_stride_e32m8>:
     4a0: 6f 00 c0 00  	j	0x4ac <.LBB7_2>

00000000000004a4 <.LBB7_1>:
     4a4: 93 b6 16 00  	seqz	a3, a3
     4a8: 63 94 06 02  	bnez	a3, 0x4d0 <.LBB7_4>

00000000000004ac <.LBB7_2>:
     4ac: d7 76 35 05  	<unknown>
     4b0: e3 8a 06 fe  	beqz	a3, 0x4a4 <.LBB7_1>
     4b4: 07 e4 05 02  	<unknown>
     4b8: 27 64 06 02  	<unknown>
     4bc: 13 97 26 00  	slli	a4, a3, 2
     4c0: b3 85 e5 00  	add	a1, a1, a4
     4c4: 33 06 e6 00  	add	a2, a2, a4
     4c8: 33 05 d5 40  	sub	a0, a0, a3
     4cc: 6f f0 9f fd  	j	0x4a4 <.LBB7_1>

00000000000004d0 <.LBB7_4>:
     4d0: 67 80 00 00  	ret

00000000000004d4 <vector_memcpy_unit_stride_e32mf2>:
     4d4: 6f 00 c0 00  	j	0x4e0 <.LBB8_2>

00000000000004d8 <.LBB8_1>:
     4d8: 93 b6 16 00  	seqz	a3, a3
     4dc: 63 94 06 02  	bnez	a3, 0x504 <.LBB8_4>

00000000000004e0 <.LBB8_2>:
     4e0: d7 76 75 05  	<unknown>
     4e4: e3 8a 06 fe  	beqz	a3, 0x4d8 <.LBB8_1>
     4e8: 87 ec 05 02  	<unknown>
     4ec: a7 6c 06 02  	<unknown>
     4f0: 13 97 26 00  	slli	a4, a3, 2
     4f4: b3 85 e5 00  	add	a1, a1, a4
     4f8: 33 06 e6 00  	add	a2, a2, a4
     4fc: 33 05 d5 40  	sub	a0, a0, a3
     500: 6f f0 9f fd  	j	0x4d8 <.LBB8_1>

0000000000000504 <.LBB8_4>:
     504: 67 80 00 00  	ret

0000000000000508 <vector_memcpy_strided_e8m8>:
     508: 93 08 40 00  	addi	a7, zero, 4
     50c: 6f 00 40 02  	j	0x530 <.LBB9_4>

0000000000000510 <.LBB9_1>:
     510: 07 84 05 02  	<unknown>
     514: 27 04 06 02  	<unknown>
     518: 13 08 07 00  	mv	a6, a4

000000000000051c <.LBB9_2>:
     51c: 33 05 05 41  	sub	a0, a0, a6
     520: b3 85 05 01  	add	a1, a1, a6
     524: 33 06 06 01  	add	a2, a2, a6

0000000000000528 <.LBB9_3>:
     528: 93 36 17 00  	seqz	a3, a4
     52c: 63 9c 06 02  	bnez	a3, 0x564 <.LBB9_8>

0000000000000530 <.LBB9_4>:
     530: 57 77 35 04  	<unknown>
     534: e3 0a 07 fe  	beqz	a4, 0x528 <.LBB9_3>
     538: 13 18 27 00  	slli	a6, a4, 2
     53c: e3 7a a8 fc  	bgeu	a6, a0, 0x510 <.LBB9_1>
     540: 93 07 00 00  	mv	a5, zero

0000000000000544 <.LBB9_7>:
     544: b3 86 f5 00  	add	a3, a1, a5
     548: 57 70 37 04  	<unknown>
     54c: 07 84 16 0b  	<unknown>
     550: b3 06 f6 00  	add	a3, a2, a5
     554: 93 87 17 00  	addi	a5, a5, 1
     558: 27 84 16 0b  	<unknown>
     55c: e3 94 17 ff  	bne	a5, a7, 0x544 <.LBB9_7>
     560: 6f f0 df fb  	j	0x51c <.LBB9_2>

0000000000000564 <.LBB9_8>:
     564: 67 80 00 00  	ret

0000000000000568 <vector_memcpy_strided_e16m8>:
     568: 93 08 80 00  	addi	a7, zero, 8
     56c: 6f 00 80 02  	j	0x594 <.LBB10_4>

0000000000000570 <.LBB10_1>:
     570: 07 d4 05 02  	<unknown>
     574: 27 54 06 02  	<unknown>
     578: 13 08 07 00  	mv	a6, a4

000000000000057c <.LBB10_2>:
     57c: 33 05 05 41  	sub	a0, a0, a6
     580: 93 16 18 00  	slli	a3, a6, 1
     584: b3 85 d5 00  	add	a1, a1, a3
     588: 33 06 d6 00  	add	a2, a2, a3

000000000000058c <.LBB10_3>:
     58c: 93 36 17 00  	seqz	a3, a4
     590: 63 9c 06 02  	bnez	a3, 0x5c8 <.LBB10_8>

0000000000000594 <.LBB10_4>:
     594: 57 77 b5 04  	<unknown>
     598: e3 0a 07 fe  	beqz	a4, 0x58c <.LBB10_3>
     59c: 13 18 27 00  	slli	a6, a4, 2
     5a0: e3 78 a8 fc  	bgeu	a6, a0, 0x570 <.LBB10_1>
     5a4: 93 07 00 00  	mv	a5, zero

00000000000005a8 <.LBB10_7>:
     5a8: b3 86 f5 00  	add	a3, a1, a5
     5ac: 57 70 b7 04  	<unknown>
     5b0: 07 d4 16 0b  	<unknown>
     5b4: b3 06 f6 00  	add	a3, a2, a5
     5b8: 93 87 27 00  	addi	a5, a5, 2
     5bc: 27 d4 16 0b  	<unknown>
     5c0: e3 94 17 ff  	bne	a5, a7, 0x5a8 <.LBB10_7>
     5c4: 6f f0 9f fb  	j	0x57c <.LBB10_2>

00000000000005c8 <.LBB10_8>:
     5c8: 67 80 00 00  	ret

00000000000005cc <vector_memcpy_strided_e32m8>:
     5cc: 93 08 00 01  	addi	a7, zero, 16
     5d0: 6f 00 80 02  	j	0x5f8 <.LBB11_4>

00000000000005d4 <.LBB11_1>:
     5d4: 07 e4 05 02  	<unknown>
     5d8: 27 64 06 02  	<unknown>
     5dc: 13 08 07 00  	mv	a6, a4

00000000000005e0 <.LBB11_2>:
     5e0: 33 05 05 41  	sub	a0, a0, a6
     5e4: 93 16 28 00  	slli	a3, a6, 2
     5e8: b3 85 d5 00  	add	a1, a1, a3
     5ec: 33 06 d6 00  	add	a2, a2, a3

00000000000005f0 <.LBB11_3>:
     5f0: 93 36 17 00  	seqz	a3, a4
     5f4: 63 9c 06 02  	bnez	a3, 0x62c <.LBB11_8>

00000000000005f8 <.LBB11_4>:
     5f8: 57 77 35 05  	<unknown>
     5fc: e3 0a 07 fe  	beqz	a4, 0x5f0 <.LBB11_3>
     600: 13 18 27 00  	slli	a6, a4, 2
     604: e3 78 a8 fc  	bgeu	a6, a0, 0x5d4 <.LBB11_1>
     608: 93 07 00 00  	mv	a5, zero

000000000000060c <.LBB11_7>:
     60c: b3 86 f5 00  	add	a3, a1, a5
     610: 57 70 37 05  	<unknown>
     614: 07 e4 16 0b  	<unknown>
     618: b3 06 f6 00  	add	a3, a2, a5
     61c: 93 87 47 00  	addi	a5, a5, 4
     620: 27 e4 16 0b  	<unknown>
     624: e3 94 17 ff  	bne	a5, a7, 0x60c <.LBB11_7>
     628: 6f f0 9f fb  	j	0x5e0 <.LBB11_2>

000000000000062c <.LBB11_8>:
     62c: 67 80 00 00  	ret

0000000000000630 <vector_memcpy_strided_e32mf2>:
     630: 93 08 00 01  	addi	a7, zero, 16
     634: 6f 00 80 02  	j	0x65c <.LBB12_4>

0000000000000638 <.LBB12_1>:
     638: 87 ec 05 02  	<unknown>
     63c: a7 6c 06 02  	<unknown>
     640: 13 08 07 00  	mv	a6, a4

0000000000000644 <.LBB12_2>:
     644: 33 05 05 41  	sub	a0, a0, a6
     648: 93 16 28 00  	slli	a3, a6, 2
     64c: b3 85 d5 00  	add	a1, a1, a3
     650: 33 06 d6 00  	add	a2, a2, a3

0000000000000654 <.LBB12_3>:
     654: 93 36 17 00  	seqz	a3, a4
     658: 63 9c 06 02  	bnez	a3, 0x690 <.LBB12_8>

000000000000065c <.LBB12_4>:
     65c: 57 77 75 05  	<unknown>
     660: e3 0a 07 fe  	beqz	a4, 0x654 <.LBB12_3>
     664: 13 18 27 00  	slli	a6, a4, 2
     668: e3 78 a8 fc  	bgeu	a6, a0, 0x638 <.LBB12_1>
     66c: 93 07 00 00  	mv	a5, zero

0000000000000670 <.LBB12_7>:
     670: b3 86 f5 00  	add	a3, a1, a5
     674: 57 70 77 05  	<unknown>
     678: 87 ec 16 0b  	<unknown>
     67c: b3 06 f6 00  	add	a3, a2, a5
     680: 93 87 47 00  	addi	a5, a5, 4
     684: a7 ec 16 0b  	<unknown>
     688: e3 94 17 ff  	bne	a5, a7, 0x670 <.LBB12_7>
     68c: 6f f0 9f fb  	j	0x644 <.LBB12_2>

0000000000000690 <.LBB12_8>:
     690: 67 80 00 00  	ret

0000000000000694 <vector_memcpy_indexed_e8m8>:
     694: 13 01 01 f4  	addi	sp, sp, -192
     698: 23 3c 11 0a  	sd	ra, 184(sp)
     69c: 23 38 81 0a  	sd	s0, 176(sp)
     6a0: 23 34 91 0a  	sd	s1, 168(sp)
     6a4: 23 30 21 0b  	sd	s2, 160(sp)
     6a8: 23 3c 31 09  	sd	s3, 152(sp)
     6ac: 23 38 41 09  	sd	s4, 144(sp)
     6b0: 13 09 06 00  	mv	s2, a2
     6b4: 93 84 05 00  	mv	s1, a1
     6b8: 13 04 05 00  	mv	s0, a0
     6bc: d7 79 30 04  	<unknown>
     6c0: 13 05 01 01  	addi	a0, sp, 16
     6c4: 13 06 00 08  	addi	a2, zero, 128
     6c8: 13 0a 01 01  	addi	s4, sp, 16
     6cc: 93 05 00 00  	mv	a1, zero
     6d0: 97 00 00 00  	auipc	ra, 0
     6d4: e7 80 40 94  	jalr	-1724(ra)
     6d8: 63 8e 09 00  	beqz	s3, 0x6f4 <.LBB13_3>
     6dc: 13 05 00 00  	mv	a0, zero

00000000000006e0 <.LBB13_2>:
     6e0: 93 45 15 00  	xori	a1, a0, 1
     6e4: 33 06 aa 00  	add	a2, s4, a0
     6e8: 13 05 15 00  	addi	a0, a0, 1
     6ec: 23 00 b6 00  	sb	a1, 0(a2)
     6f0: e3 98 a9 fe  	bne	s3, a0, 0x6e0 <.LBB13_2>

00000000000006f4 <.LBB13_3>:
     6f4: 57 f0 39 04  	<unknown>
     6f8: 13 05 01 01  	addi	a0, sp, 16
     6fc: 07 04 05 02  	<unknown>
     700: 6f 00 00 02  	j	0x720 <.LBB13_7>

0000000000000704 <.LBB13_4>:
     704: 07 88 04 02  	<unknown>
     708: 27 08 09 02  	<unknown>

000000000000070c <.LBB13_5>:
     70c: b3 84 a4 00  	add	s1, s1, a0
     710: 33 09 a9 00  	add	s2, s2, a0
     714: 33 04 a4 40  	sub	s0, s0, a0

0000000000000718 <.LBB13_6>:
     718: 13 35 15 00  	seqz	a0, a0
     71c: 63 1e 05 00  	bnez	a0, 0x738 <.LBB13_10>

0000000000000720 <.LBB13_7>:
     720: 57 75 34 04  	<unknown>
     724: e3 0a 05 fe  	beqz	a0, 0x718 <.LBB13_6>
     728: e3 1e 35 fd  	bne	a0, s3, 0x704 <.LBB13_4>
     72c: 07 88 84 06  	<unknown>
     730: 27 08 89 06  	<unknown>
     734: 6f f0 9f fd  	j	0x70c <.LBB13_5>

0000000000000738 <.LBB13_10>:
     738: 03 3a 01 09  	ld	s4, 144(sp)
     73c: 83 39 81 09  	ld	s3, 152(sp)
     740: 03 39 01 0a  	ld	s2, 160(sp)
     744: 83 34 81 0a  	ld	s1, 168(sp)
     748: 03 34 01 0b  	ld	s0, 176(sp)
     74c: 83 30 81 0b  	ld	ra, 184(sp)
     750: 13 01 01 0c  	addi	sp, sp, 192
     754: 67 80 00 00  	ret

0000000000000758 <vector_memcpy_indexed_e16m8>:
     758: 13 01 01 ec  	addi	sp, sp, -320
     75c: 23 3c 11 12  	sd	ra, 312(sp)
     760: 23 38 81 12  	sd	s0, 304(sp)
     764: 23 34 91 12  	sd	s1, 296(sp)
     768: 23 30 21 13  	sd	s2, 288(sp)
     76c: 23 3c 31 11  	sd	s3, 280(sp)
     770: 23 38 41 11  	sd	s4, 272(sp)
     774: 13 09 06 00  	mv	s2, a2
     778: 13 8a 05 00  	mv	s4, a1
     77c: 13 04 05 00  	mv	s0, a0
     780: d7 79 b0 04  	<unknown>
     784: 13 05 01 01  	addi	a0, sp, 16
     788: 13 06 00 10  	addi	a2, zero, 256
     78c: 93 04 01 01  	addi	s1, sp, 16
     790: 93 05 00 00  	mv	a1, zero
     794: 97 00 00 00  	auipc	ra, 0
     798: e7 80 00 88  	jalr	-1920(ra)
     79c: 63 80 09 02  	beqz	s3, 0x7bc <.LBB14_3>
     7a0: 13 05 00 00  	mv	a0, zero

00000000000007a4 <.LBB14_2>:
     7a4: 93 15 15 00  	slli	a1, a0, 1
     7a8: 93 c5 25 00  	xori	a1, a1, 2
     7ac: 23 90 b4 00  	sh	a1, 0(s1)
     7b0: 13 05 15 00  	addi	a0, a0, 1
     7b4: 93 84 24 00  	addi	s1, s1, 2
     7b8: e3 96 a9 fe  	bne	s3, a0, 0x7a4 <.LBB14_2>

00000000000007bc <.LBB14_3>:
     7bc: 57 f0 b9 04  	<unknown>
     7c0: 13 05 01 01  	addi	a0, sp, 16
     7c4: 07 54 05 02  	<unknown>
     7c8: 6f 00 40 02  	j	0x7ec <.LBB14_7>

00000000000007cc <.LBB14_4>:
     7cc: 07 58 0a 02  	<unknown>
     7d0: 27 58 09 02  	<unknown>

00000000000007d4 <.LBB14_5>:
     7d4: 93 15 15 00  	slli	a1, a0, 1
     7d8: 33 0a ba 00  	add	s4, s4, a1
     7dc: 33 09 b9 00  	add	s2, s2, a1
     7e0: 33 04 a4 40  	sub	s0, s0, a0

00000000000007e4 <.LBB14_6>:
     7e4: 13 35 15 00  	seqz	a0, a0
     7e8: 63 1e 05 00  	bnez	a0, 0x804 <.LBB14_10>

00000000000007ec <.LBB14_7>:
     7ec: 57 75 b4 04  	<unknown>
     7f0: e3 0a 05 fe  	beqz	a0, 0x7e4 <.LBB14_6>
     7f4: e3 1c 35 fd  	bne	a0, s3, 0x7cc <.LBB14_4>
     7f8: 07 58 8a 06  	<unknown>
     7fc: 27 58 89 06  	<unknown>
     800: 6f f0 5f fd  	j	0x7d4 <.LBB14_5>

0000000000000804 <.LBB14_10>:
     804: 03 3a 01 11  	ld	s4, 272(sp)
     808: 83 39 81 11  	ld	s3, 280(sp)
     80c: 03 39 01 12  	ld	s2, 288(sp)
     810: 83 34 81 12  	ld	s1, 296(sp)
     814: 03 34 01 13  	ld	s0, 304(sp)
     818: 83 30 81 13  	ld	ra, 312(sp)
     81c: 13 01 01 14  	addi	sp, sp, 320
     820: 67 80 00 00  	ret

0000000000000824 <vector_memcpy_indexed_e32m8>:
     824: 13 01 01 dc  	addi	sp, sp, -576
     828: 23 3c 11 22  	sd	ra, 568(sp)
     82c: 23 38 81 22  	sd	s0, 560(sp)
     830: 23 34 91 22  	sd	s1, 552(sp)
     834: 23 30 21 23  	sd	s2, 544(sp)
     838: 23 3c 31 21  	sd	s3, 536(sp)
     83c: 23 38 41 21  	sd	s4, 528(sp)
     840: 13 09 06 00  	mv	s2, a2
     844: 13 8a 05 00  	mv	s4, a1
     848: 13 04 05 00  	mv	s0, a0
     84c: d7 79 30 05  	<unknown>
     850: 13 05 01 01  	addi	a0, sp, 16
     854: 13 06 00 20  	addi	a2, zero, 512
     858: 93 04 01 01  	addi	s1, sp, 16
     85c: 93 05 00 00  	mv	a1, zero
     860: 97 f0 ff ff  	auipc	ra, 1048575
     864: e7 80 40 7b  	jalr	1972(ra)
     868: 63 80 09 02  	beqz	s3, 0x888 <.LBB15_3>
     86c: 13 05 00 00  	mv	a0, zero

0000000000000870 <.LBB15_2>:
     870: 93 15 25 00  	slli	a1, a0, 2
     874: 93 c5 45 00  	xori	a1, a1, 4
     878: 23 a0 b4 00  	sw	a1, 0(s1)
     87c: 13 05 15 00  	addi	a0, a0, 1
     880: 93 84 44 00  	addi	s1, s1, 4
     884: e3 96 a9 fe  	bne	s3, a0, 0x870 <.LBB15_2>

0000000000000888 <.LBB15_3>:
     888: 57 f0 39 05  	<unknown>
     88c: 13 05 01 01  	addi	a0, sp, 16
     890: 07 64 05 02  	<unknown>
     894: 6f 00 40 02  	j	0x8b8 <.LBB15_7>

0000000000000898 <.LBB15_4>:
     898: 07 68 0a 02  	<unknown>
     89c: 27 68 09 02  	<unknown>

00000000000008a0 <.LBB15_5>:
     8a0: 93 15 25 00  	slli	a1, a0, 2
     8a4: 33 0a ba 00  	add	s4, s4, a1
     8a8: 33 09 b9 00  	add	s2, s2, a1
     8ac: 33 04 a4 40  	sub	s0, s0, a0

00000000000008b0 <.LBB15_6>:
     8b0: 13 35 15 00  	seqz	a0, a0
     8b4: 63 1e 05 00  	bnez	a0, 0x8d0 <.LBB15_10>

00000000000008b8 <.LBB15_7>:
     8b8: 57 75 34 05  	<unknown>
     8bc: e3 0a 05 fe  	beqz	a0, 0x8b0 <.LBB15_6>
     8c0: e3 1c 35 fd  	bne	a0, s3, 0x898 <.LBB15_4>
     8c4: 07 68 8a 06  	<unknown>
     8c8: 27 68 89 06  	<unknown>
     8cc: 6f f0 5f fd  	j	0x8a0 <.LBB15_5>

00000000000008d0 <.LBB15_10>:
     8d0: 03 3a 01 21  	ld	s4, 528(sp)
     8d4: 83 39 81 21  	ld	s3, 536(sp)
     8d8: 03 39 01 22  	ld	s2, 544(sp)
     8dc: 83 34 81 22  	ld	s1, 552(sp)
     8e0: 03 34 01 23  	ld	s0, 560(sp)
     8e4: 83 30 81 23  	ld	ra, 568(sp)
     8e8: 13 01 01 24  	addi	sp, sp, 576
     8ec: 67 80 00 00  	ret

00000000000008f0 <vector_memcpy_indexed_e32mf2>:
     8f0: 13 01 01 dc  	addi	sp, sp, -576
     8f4: 23 3c 11 22  	sd	ra, 568(sp)
     8f8: 23 38 81 22  	sd	s0, 560(sp)
     8fc: 23 34 91 22  	sd	s1, 552(sp)
     900: 23 30 21 23  	sd	s2, 544(sp)
     904: 23 3c 31 21  	sd	s3, 536(sp)
     908: 23 38 41 21  	sd	s4, 528(sp)
     90c: 13 09 06 00  	mv	s2, a2
     910: 13 8a 05 00  	mv	s4, a1
     914: 13 04 05 00  	mv	s0, a0
     918: d7 79 70 05  	<unknown>
     91c: 13 05 01 01  	addi	a0, sp, 16
     920: 13 06 00 20  	addi	a2, zero, 512
     924: 93 04 01 01  	addi	s1, sp, 16
     928: 93 05 00 00  	mv	a1, zero
     92c: 97 f0 ff ff  	auipc	ra, 1048575
     930: e7 80 80 6e  	jalr	1768(ra)
     934: 63 80 09 02  	beqz	s3, 0x954 <.LBB16_3>
     938: 13 05 00 00  	mv	a0, zero

000000000000093c <.LBB16_2>:
     93c: 93 15 25 00  	slli	a1, a0, 2
     940: 93 c5 45 00  	xori	a1, a1, 4
     944: 23 a0 b4 00  	sw	a1, 0(s1)
     948: 13 05 15 00  	addi	a0, a0, 1
     94c: 93 84 44 00  	addi	s1, s1, 4
     950: e3 96 a9 fe  	bne	s3, a0, 0x93c <.LBB16_2>

0000000000000954 <.LBB16_3>:
     954: 57 f0 79 05  	<unknown>
     958: 13 05 01 01  	addi	a0, sp, 16
     95c: 87 6c 05 02  	<unknown>
     960: 6f 00 40 02  	j	0x984 <.LBB16_7>

0000000000000964 <.LBB16_4>:
     964: 07 6d 0a 02  	<unknown>
     968: 27 6d 09 02  	<unknown>

000000000000096c <.LBB16_5>:
     96c: 93 15 25 00  	slli	a1, a0, 2
     970: 33 0a ba 00  	add	s4, s4, a1
     974: 33 09 b9 00  	add	s2, s2, a1
     978: 33 04 a4 40  	sub	s0, s0, a0

000000000000097c <.LBB16_6>:
     97c: 13 35 15 00  	seqz	a0, a0
     980: 63 1e 05 00  	bnez	a0, 0x99c <.LBB16_10>

0000000000000984 <.LBB16_7>:
     984: 57 75 74 05  	<unknown>
     988: e3 0a 05 fe  	beqz	a0, 0x97c <.LBB16_6>
     98c: e3 1c 35 fd  	bne	a0, s3, 0x964 <.LBB16_4>
     990: 07 6d 9a 07  	<unknown>
     994: 27 6d 99 07  	<unknown>
     998: 6f f0 5f fd  	j	0x96c <.LBB16_5>

000000000000099c <.LBB16_10>:
     99c: 03 3a 01 21  	ld	s4, 528(sp)
     9a0: 83 39 81 21  	ld	s3, 536(sp)
     9a4: 03 39 01 22  	ld	s2, 544(sp)
     9a8: 83 34 81 22  	ld	s1, 552(sp)
     9ac: 03 34 01 23  	ld	s0, 560(sp)
     9b0: 83 30 81 23  	ld	ra, 568(sp)
     9b4: 13 01 01 24  	addi	sp, sp, 576
     9b8: 67 80 00 00  	ret

00000000000009bc <main>:
     9bc: 13 01 01 ff  	addi	sp, sp, -16
     9c0: 23 34 11 00  	sd	ra, 8(sp)
     9c4: 23 30 81 00  	sd	s0, 0(sp)
     9c8: 37 05 00 00  	lui	a0, 0
     9cc: 13 05 c5 43  	addi	a0, a0, 1084
     9d0: 97 f0 ff ff  	auipc	ra, 1048575
     9d4: e7 80 00 66  	jalr	1632(ra)
     9d8: 13 04 05 00  	mv	s0, a0
     9dc: 37 05 00 00  	lui	a0, 0
     9e0: 13 05 c5 46  	addi	a0, a0, 1132
     9e4: 97 f0 ff ff  	auipc	ra, 1048575
     9e8: e7 80 80 74  	jalr	1864(ra)
     9ec: 13 15 15 00  	slli	a0, a0, 1
     9f0: 33 64 85 00  	or	s0, a0, s0
     9f4: 37 05 00 00  	lui	a0, 0
     9f8: 13 05 05 4a  	addi	a0, a0, 1184
     9fc: 97 00 00 00  	auipc	ra, 0
     a00: e7 80 40 84  	jalr	-1980(ra)
     a04: 13 15 25 00  	slli	a0, a0, 2
     a08: 33 64 a4 00  	or	s0, s0, a0
     a0c: 37 05 00 00  	lui	a0, 0
     a10: 13 05 45 4d  	addi	a0, a0, 1236
     a14: 97 00 00 00  	auipc	ra, 0
     a18: e7 80 c0 82  	jalr	-2004(ra)
     a1c: 13 15 35 00  	slli	a0, a0, 3
     a20: 33 64 a4 00  	or	s0, s0, a0
     a24: 37 05 00 00  	lui	a0, 0
     a28: 13 05 85 50  	addi	a0, a0, 1288
     a2c: 97 f0 ff ff  	auipc	ra, 1048575
     a30: e7 80 40 60  	jalr	1540(ra)
     a34: 13 15 45 00  	slli	a0, a0, 4
     a38: 33 64 a4 00  	or	s0, s0, a0
     a3c: 37 05 00 00  	lui	a0, 0
     a40: 13 05 85 56  	addi	a0, a0, 1384
     a44: 97 f0 ff ff  	auipc	ra, 1048575
     a48: e7 80 80 6e  	jalr	1768(ra)
     a4c: 13 15 55 00  	slli	a0, a0, 5
     a50: 33 64 a4 00  	or	s0, s0, a0
     a54: 37 05 00 00  	lui	a0, 0
     a58: 13 05 c5 5c  	addi	a0, a0, 1484
     a5c: 97 f0 ff ff  	auipc	ra, 1048575
     a60: e7 80 40 7e  	jalr	2020(ra)
     a64: 13 15 65 00  	slli	a0, a0, 6
     a68: 33 64 a4 00  	or	s0, s0, a0
     a6c: 37 05 00 00  	lui	a0, 0
     a70: 13 05 05 63  	addi	a0, a0, 1584
     a74: 97 f0 ff ff  	auipc	ra, 1048575
     a78: e7 80 c0 7c  	jalr	1996(ra)
     a7c: 13 15 75 00  	slli	a0, a0, 7
     a80: 33 64 a4 00  	or	s0, s0, a0
     a84: 37 05 00 00  	lui	a0, 0
     a88: 13 05 45 69  	addi	a0, a0, 1684
     a8c: 97 f0 ff ff  	auipc	ra, 1048575
     a90: e7 80 40 5a  	jalr	1444(ra)
     a94: 13 15 85 00  	slli	a0, a0, 8
     a98: 33 64 a4 00  	or	s0, s0, a0
     a9c: 37 05 00 00  	lui	a0, 0
     aa0: 13 05 85 75  	addi	a0, a0, 1880
     aa4: 97 f0 ff ff  	auipc	ra, 1048575
     aa8: e7 80 80 68  	jalr	1672(ra)
     aac: 13 15 95 00  	slli	a0, a0, 9
     ab0: 33 64 a4 00  	or	s0, s0, a0
     ab4: 37 15 00 00  	lui	a0, 1
     ab8: 13 05 45 82  	addi	a0, a0, -2012
     abc: 97 f0 ff ff  	auipc	ra, 1048575
     ac0: e7 80 40 78  	jalr	1924(ra)
     ac4: 13 15 a5 00  	slli	a0, a0, 10
     ac8: 33 64 a4 00  	or	s0, s0, a0
     acc: 37 15 00 00  	lui	a0, 1
     ad0: 13 05 05 8f  	addi	a0, a0, -1808
     ad4: 97 f0 ff ff  	auipc	ra, 1048575
     ad8: e7 80 c0 76  	jalr	1900(ra)
     adc: 13 15 b5 00  	slli	a0, a0, 11
     ae0: b3 65 a4 00  	or	a1, s0, a0
     ae4: 13 05 f0 00  	addi	a0, zero, 15
     ae8: 13 16 c5 01  	slli	a2, a0, 28
     aec: 1b 85 05 00  	sext.w	a0, a1
     af0: 23 20 b6 00  	sw	a1, 0(a2)
     af4: 03 34 01 00  	ld	s0, 0(sp)
     af8: 83 30 81 00  	ld	ra, 8(sp)
     afc: 13 01 01 01  	addi	sp, sp, 16
     b00: 67 80 00 00  	ret
