	.text
	.attribute	4, 16
	.attribute	5, "rv64i2p0_m2p0_v0p10_zvlsseg0p10_xcheri0p0"
	.file	"vector_memcpy.cpp"
	.globl	_Z18cheri_vle8_v_u8mf8PKvm
	.p2align	2
	.type	_Z18cheri_vle8_v_u8mf8PKvm,@function
_Z18cheri_vle8_v_u8mf8PKvm:
	#APP
	vle8.v	v8, (ca0)
	#NO_APP
	cret
.Lfunc_end0:
	.size	_Z18cheri_vle8_v_u8mf8PKvm, .Lfunc_end0-_Z18cheri_vle8_v_u8mf8PKvm

	.globl	_Z18cheri_vse8_v_u8mf8Pvu16__rvv_uint8mf8_tm
	.p2align	2
	.type	_Z18cheri_vse8_v_u8mf8Pvu16__rvv_uint8mf8_tm,@function
_Z18cheri_vse8_v_u8mf8Pvu16__rvv_uint8mf8_tm:
	#APP
	vse8.v	v8, (ca0)
	#NO_APP
	cret
.Lfunc_end1:
	.size	_Z18cheri_vse8_v_u8mf8Pvu16__rvv_uint8mf8_tm, .Lfunc_end1-_Z18cheri_vse8_v_u8mf8Pvu16__rvv_uint8mf8_tm

	.globl	_Z18cheri_vle8_v_i8mf8PKvm
	.p2align	2
	.type	_Z18cheri_vle8_v_i8mf8PKvm,@function
_Z18cheri_vle8_v_i8mf8PKvm:
	#APP
	vle8.v	v8, (ca0)
	#NO_APP
	cret
.Lfunc_end2:
	.size	_Z18cheri_vle8_v_i8mf8PKvm, .Lfunc_end2-_Z18cheri_vle8_v_i8mf8PKvm

	.globl	_Z18cheri_vse8_v_i8mf8Pvu15__rvv_int8mf8_tm
	.p2align	2
	.type	_Z18cheri_vse8_v_i8mf8Pvu15__rvv_int8mf8_tm,@function
_Z18cheri_vse8_v_i8mf8Pvu15__rvv_int8mf8_tm:
	#APP
	vse8.v	v8, (ca0)
	#NO_APP
	cret
.Lfunc_end3:
	.size	_Z18cheri_vse8_v_i8mf8Pvu15__rvv_int8mf8_tm, .Lfunc_end3-_Z18cheri_vse8_v_i8mf8Pvu15__rvv_int8mf8_tm

	.globl	_Z18cheri_vle8_v_u8mf4PKvm
	.p2align	2
	.type	_Z18cheri_vle8_v_u8mf4PKvm,@function
_Z18cheri_vle8_v_u8mf4PKvm:
	#APP
	vle8.v	v8, (ca0)
	#NO_APP
	cret
.Lfunc_end4:
	.size	_Z18cheri_vle8_v_u8mf4PKvm, .Lfunc_end4-_Z18cheri_vle8_v_u8mf4PKvm

	.globl	_Z18cheri_vse8_v_u8mf4Pvu16__rvv_uint8mf4_tm
	.p2align	2
	.type	_Z18cheri_vse8_v_u8mf4Pvu16__rvv_uint8mf4_tm,@function
_Z18cheri_vse8_v_u8mf4Pvu16__rvv_uint8mf4_tm:
	#APP
	vse8.v	v8, (ca0)
	#NO_APP
	cret
.Lfunc_end5:
	.size	_Z18cheri_vse8_v_u8mf4Pvu16__rvv_uint8mf4_tm, .Lfunc_end5-_Z18cheri_vse8_v_u8mf4Pvu16__rvv_uint8mf4_tm

	.globl	_Z18cheri_vle8_v_i8mf4PKvm
	.p2align	2
	.type	_Z18cheri_vle8_v_i8mf4PKvm,@function
_Z18cheri_vle8_v_i8mf4PKvm:
	#APP
	vle8.v	v8, (ca0)
	#NO_APP
	cret
.Lfunc_end6:
	.size	_Z18cheri_vle8_v_i8mf4PKvm, .Lfunc_end6-_Z18cheri_vle8_v_i8mf4PKvm

	.globl	_Z18cheri_vse8_v_i8mf4Pvu15__rvv_int8mf4_tm
	.p2align	2
	.type	_Z18cheri_vse8_v_i8mf4Pvu15__rvv_int8mf4_tm,@function
_Z18cheri_vse8_v_i8mf4Pvu15__rvv_int8mf4_tm:
	#APP
	vse8.v	v8, (ca0)
	#NO_APP
	cret
.Lfunc_end7:
	.size	_Z18cheri_vse8_v_i8mf4Pvu15__rvv_int8mf4_tm, .Lfunc_end7-_Z18cheri_vse8_v_i8mf4Pvu15__rvv_int8mf4_tm

	.globl	_Z20cheri_vle16_v_u16mf4PKvm
	.p2align	2
	.type	_Z20cheri_vle16_v_u16mf4PKvm,@function
_Z20cheri_vle16_v_u16mf4PKvm:
	#APP
	vle16.v	v8, (ca0)
	#NO_APP
	cret
.Lfunc_end8:
	.size	_Z20cheri_vle16_v_u16mf4PKvm, .Lfunc_end8-_Z20cheri_vle16_v_u16mf4PKvm

	.globl	_Z20cheri_vse16_v_u16mf4Pvu17__rvv_uint16mf4_tm
	.p2align	2
	.type	_Z20cheri_vse16_v_u16mf4Pvu17__rvv_uint16mf4_tm,@function
_Z20cheri_vse16_v_u16mf4Pvu17__rvv_uint16mf4_tm:
	#APP
	vse16.v	v8, (ca0)
	#NO_APP
	cret
.Lfunc_end9:
	.size	_Z20cheri_vse16_v_u16mf4Pvu17__rvv_uint16mf4_tm, .Lfunc_end9-_Z20cheri_vse16_v_u16mf4Pvu17__rvv_uint16mf4_tm

	.globl	_Z20cheri_vle16_v_i16mf4PKvm
	.p2align	2
	.type	_Z20cheri_vle16_v_i16mf4PKvm,@function
_Z20cheri_vle16_v_i16mf4PKvm:
	#APP
	vle16.v	v8, (ca0)
	#NO_APP
	cret
.Lfunc_end10:
	.size	_Z20cheri_vle16_v_i16mf4PKvm, .Lfunc_end10-_Z20cheri_vle16_v_i16mf4PKvm

	.globl	_Z20cheri_vse16_v_i16mf4Pvu16__rvv_int16mf4_tm
	.p2align	2
	.type	_Z20cheri_vse16_v_i16mf4Pvu16__rvv_int16mf4_tm,@function
_Z20cheri_vse16_v_i16mf4Pvu16__rvv_int16mf4_tm:
	#APP
	vse16.v	v8, (ca0)
	#NO_APP
	cret
.Lfunc_end11:
	.size	_Z20cheri_vse16_v_i16mf4Pvu16__rvv_int16mf4_tm, .Lfunc_end11-_Z20cheri_vse16_v_i16mf4Pvu16__rvv_int16mf4_tm

	.globl	_Z18cheri_vle8_v_u8mf2PKvm
	.p2align	2
	.type	_Z18cheri_vle8_v_u8mf2PKvm,@function
_Z18cheri_vle8_v_u8mf2PKvm:
	#APP
	vle8.v	v8, (ca0)
	#NO_APP
	cret
.Lfunc_end12:
	.size	_Z18cheri_vle8_v_u8mf2PKvm, .Lfunc_end12-_Z18cheri_vle8_v_u8mf2PKvm

	.globl	_Z18cheri_vse8_v_u8mf2Pvu16__rvv_uint8mf2_tm
	.p2align	2
	.type	_Z18cheri_vse8_v_u8mf2Pvu16__rvv_uint8mf2_tm,@function
_Z18cheri_vse8_v_u8mf2Pvu16__rvv_uint8mf2_tm:
	#APP
	vse8.v	v8, (ca0)
	#NO_APP
	cret
.Lfunc_end13:
	.size	_Z18cheri_vse8_v_u8mf2Pvu16__rvv_uint8mf2_tm, .Lfunc_end13-_Z18cheri_vse8_v_u8mf2Pvu16__rvv_uint8mf2_tm

	.globl	_Z18cheri_vle8_v_i8mf2PKvm
	.p2align	2
	.type	_Z18cheri_vle8_v_i8mf2PKvm,@function
_Z18cheri_vle8_v_i8mf2PKvm:
	#APP
	vle8.v	v8, (ca0)
	#NO_APP
	cret
.Lfunc_end14:
	.size	_Z18cheri_vle8_v_i8mf2PKvm, .Lfunc_end14-_Z18cheri_vle8_v_i8mf2PKvm

	.globl	_Z18cheri_vse8_v_i8mf2Pvu15__rvv_int8mf2_tm
	.p2align	2
	.type	_Z18cheri_vse8_v_i8mf2Pvu15__rvv_int8mf2_tm,@function
_Z18cheri_vse8_v_i8mf2Pvu15__rvv_int8mf2_tm:
	#APP
	vse8.v	v8, (ca0)
	#NO_APP
	cret
.Lfunc_end15:
	.size	_Z18cheri_vse8_v_i8mf2Pvu15__rvv_int8mf2_tm, .Lfunc_end15-_Z18cheri_vse8_v_i8mf2Pvu15__rvv_int8mf2_tm

	.globl	_Z20cheri_vle16_v_u16mf2PKvm
	.p2align	2
	.type	_Z20cheri_vle16_v_u16mf2PKvm,@function
_Z20cheri_vle16_v_u16mf2PKvm:
	#APP
	vle16.v	v8, (ca0)
	#NO_APP
	cret
.Lfunc_end16:
	.size	_Z20cheri_vle16_v_u16mf2PKvm, .Lfunc_end16-_Z20cheri_vle16_v_u16mf2PKvm

	.globl	_Z20cheri_vse16_v_u16mf2Pvu17__rvv_uint16mf2_tm
	.p2align	2
	.type	_Z20cheri_vse16_v_u16mf2Pvu17__rvv_uint16mf2_tm,@function
_Z20cheri_vse16_v_u16mf2Pvu17__rvv_uint16mf2_tm:
	#APP
	vse16.v	v8, (ca0)
	#NO_APP
	cret
.Lfunc_end17:
	.size	_Z20cheri_vse16_v_u16mf2Pvu17__rvv_uint16mf2_tm, .Lfunc_end17-_Z20cheri_vse16_v_u16mf2Pvu17__rvv_uint16mf2_tm

	.globl	_Z20cheri_vle16_v_i16mf2PKvm
	.p2align	2
	.type	_Z20cheri_vle16_v_i16mf2PKvm,@function
_Z20cheri_vle16_v_i16mf2PKvm:
	#APP
	vle16.v	v8, (ca0)
	#NO_APP
	cret
.Lfunc_end18:
	.size	_Z20cheri_vle16_v_i16mf2PKvm, .Lfunc_end18-_Z20cheri_vle16_v_i16mf2PKvm

	.globl	_Z20cheri_vse16_v_i16mf2Pvu16__rvv_int16mf2_tm
	.p2align	2
	.type	_Z20cheri_vse16_v_i16mf2Pvu16__rvv_int16mf2_tm,@function
_Z20cheri_vse16_v_i16mf2Pvu16__rvv_int16mf2_tm:
	#APP
	vse16.v	v8, (ca0)
	#NO_APP
	cret
.Lfunc_end19:
	.size	_Z20cheri_vse16_v_i16mf2Pvu16__rvv_int16mf2_tm, .Lfunc_end19-_Z20cheri_vse16_v_i16mf2Pvu16__rvv_int16mf2_tm

	.globl	_Z20cheri_vle32_v_u32mf2PKvm
	.p2align	2
	.type	_Z20cheri_vle32_v_u32mf2PKvm,@function
_Z20cheri_vle32_v_u32mf2PKvm:
	#APP
	vle32.v	v8, (ca0)
	#NO_APP
	cret
.Lfunc_end20:
	.size	_Z20cheri_vle32_v_u32mf2PKvm, .Lfunc_end20-_Z20cheri_vle32_v_u32mf2PKvm

	.globl	_Z20cheri_vse32_v_u32mf2Pvu17__rvv_uint32mf2_tm
	.p2align	2
	.type	_Z20cheri_vse32_v_u32mf2Pvu17__rvv_uint32mf2_tm,@function
_Z20cheri_vse32_v_u32mf2Pvu17__rvv_uint32mf2_tm:
	#APP
	vse32.v	v8, (ca0)
	#NO_APP
	cret
.Lfunc_end21:
	.size	_Z20cheri_vse32_v_u32mf2Pvu17__rvv_uint32mf2_tm, .Lfunc_end21-_Z20cheri_vse32_v_u32mf2Pvu17__rvv_uint32mf2_tm

	.globl	_Z20cheri_vle32_v_i32mf2PKvm
	.p2align	2
	.type	_Z20cheri_vle32_v_i32mf2PKvm,@function
_Z20cheri_vle32_v_i32mf2PKvm:
	#APP
	vle32.v	v8, (ca0)
	#NO_APP
	cret
.Lfunc_end22:
	.size	_Z20cheri_vle32_v_i32mf2PKvm, .Lfunc_end22-_Z20cheri_vle32_v_i32mf2PKvm

	.globl	_Z20cheri_vse32_v_i32mf2Pvu16__rvv_int32mf2_tm
	.p2align	2
	.type	_Z20cheri_vse32_v_i32mf2Pvu16__rvv_int32mf2_tm,@function
_Z20cheri_vse32_v_i32mf2Pvu16__rvv_int32mf2_tm:
	#APP
	vse32.v	v8, (ca0)
	#NO_APP
	cret
.Lfunc_end23:
	.size	_Z20cheri_vse32_v_i32mf2Pvu16__rvv_int32mf2_tm, .Lfunc_end23-_Z20cheri_vse32_v_i32mf2Pvu16__rvv_int32mf2_tm

	.globl	_Z17cheri_vle8_v_u8m1PKvm
	.p2align	2
	.type	_Z17cheri_vle8_v_u8m1PKvm,@function
_Z17cheri_vle8_v_u8m1PKvm:
	#APP
	vle8.v	v8, (ca0)
	#NO_APP
	cret
.Lfunc_end24:
	.size	_Z17cheri_vle8_v_u8m1PKvm, .Lfunc_end24-_Z17cheri_vle8_v_u8m1PKvm

	.globl	_Z17cheri_vse8_v_u8m1Pvu15__rvv_uint8m1_tm
	.p2align	2
	.type	_Z17cheri_vse8_v_u8m1Pvu15__rvv_uint8m1_tm,@function
_Z17cheri_vse8_v_u8m1Pvu15__rvv_uint8m1_tm:
	#APP
	vse8.v	v8, (ca0)
	#NO_APP
	cret
.Lfunc_end25:
	.size	_Z17cheri_vse8_v_u8m1Pvu15__rvv_uint8m1_tm, .Lfunc_end25-_Z17cheri_vse8_v_u8m1Pvu15__rvv_uint8m1_tm

	.globl	_Z17cheri_vle8_v_i8m1PKvm
	.p2align	2
	.type	_Z17cheri_vle8_v_i8m1PKvm,@function
_Z17cheri_vle8_v_i8m1PKvm:
	#APP
	vle8.v	v8, (ca0)
	#NO_APP
	cret
.Lfunc_end26:
	.size	_Z17cheri_vle8_v_i8m1PKvm, .Lfunc_end26-_Z17cheri_vle8_v_i8m1PKvm

	.globl	_Z17cheri_vse8_v_i8m1Pvu14__rvv_int8m1_tm
	.p2align	2
	.type	_Z17cheri_vse8_v_i8m1Pvu14__rvv_int8m1_tm,@function
_Z17cheri_vse8_v_i8m1Pvu14__rvv_int8m1_tm:
	#APP
	vse8.v	v8, (ca0)
	#NO_APP
	cret
.Lfunc_end27:
	.size	_Z17cheri_vse8_v_i8m1Pvu14__rvv_int8m1_tm, .Lfunc_end27-_Z17cheri_vse8_v_i8m1Pvu14__rvv_int8m1_tm

	.globl	_Z19cheri_vle16_v_u16m1PKvm
	.p2align	2
	.type	_Z19cheri_vle16_v_u16m1PKvm,@function
_Z19cheri_vle16_v_u16m1PKvm:
	#APP
	vle16.v	v8, (ca0)
	#NO_APP
	cret
.Lfunc_end28:
	.size	_Z19cheri_vle16_v_u16m1PKvm, .Lfunc_end28-_Z19cheri_vle16_v_u16m1PKvm

	.globl	_Z19cheri_vse16_v_u16m1Pvu16__rvv_uint16m1_tm
	.p2align	2
	.type	_Z19cheri_vse16_v_u16m1Pvu16__rvv_uint16m1_tm,@function
_Z19cheri_vse16_v_u16m1Pvu16__rvv_uint16m1_tm:
	#APP
	vse16.v	v8, (ca0)
	#NO_APP
	cret
.Lfunc_end29:
	.size	_Z19cheri_vse16_v_u16m1Pvu16__rvv_uint16m1_tm, .Lfunc_end29-_Z19cheri_vse16_v_u16m1Pvu16__rvv_uint16m1_tm

	.globl	_Z19cheri_vle16_v_i16m1PKvm
	.p2align	2
	.type	_Z19cheri_vle16_v_i16m1PKvm,@function
_Z19cheri_vle16_v_i16m1PKvm:
	#APP
	vle16.v	v8, (ca0)
	#NO_APP
	cret
.Lfunc_end30:
	.size	_Z19cheri_vle16_v_i16m1PKvm, .Lfunc_end30-_Z19cheri_vle16_v_i16m1PKvm

	.globl	_Z19cheri_vse16_v_i16m1Pvu15__rvv_int16m1_tm
	.p2align	2
	.type	_Z19cheri_vse16_v_i16m1Pvu15__rvv_int16m1_tm,@function
_Z19cheri_vse16_v_i16m1Pvu15__rvv_int16m1_tm:
	#APP
	vse16.v	v8, (ca0)
	#NO_APP
	cret
.Lfunc_end31:
	.size	_Z19cheri_vse16_v_i16m1Pvu15__rvv_int16m1_tm, .Lfunc_end31-_Z19cheri_vse16_v_i16m1Pvu15__rvv_int16m1_tm

	.globl	_Z19cheri_vle32_v_u32m1PKvm
	.p2align	2
	.type	_Z19cheri_vle32_v_u32m1PKvm,@function
_Z19cheri_vle32_v_u32m1PKvm:
	#APP
	vle32.v	v8, (ca0)
	#NO_APP
	cret
.Lfunc_end32:
	.size	_Z19cheri_vle32_v_u32m1PKvm, .Lfunc_end32-_Z19cheri_vle32_v_u32m1PKvm

	.globl	_Z19cheri_vse32_v_u32m1Pvu16__rvv_uint32m1_tm
	.p2align	2
	.type	_Z19cheri_vse32_v_u32m1Pvu16__rvv_uint32m1_tm,@function
_Z19cheri_vse32_v_u32m1Pvu16__rvv_uint32m1_tm:
	#APP
	vse32.v	v8, (ca0)
	#NO_APP
	cret
.Lfunc_end33:
	.size	_Z19cheri_vse32_v_u32m1Pvu16__rvv_uint32m1_tm, .Lfunc_end33-_Z19cheri_vse32_v_u32m1Pvu16__rvv_uint32m1_tm

	.globl	_Z19cheri_vle32_v_i32m1PKvm
	.p2align	2
	.type	_Z19cheri_vle32_v_i32m1PKvm,@function
_Z19cheri_vle32_v_i32m1PKvm:
	#APP
	vle32.v	v8, (ca0)
	#NO_APP
	cret
.Lfunc_end34:
	.size	_Z19cheri_vle32_v_i32m1PKvm, .Lfunc_end34-_Z19cheri_vle32_v_i32m1PKvm

	.globl	_Z19cheri_vse32_v_i32m1Pvu15__rvv_int32m1_tm
	.p2align	2
	.type	_Z19cheri_vse32_v_i32m1Pvu15__rvv_int32m1_tm,@function
_Z19cheri_vse32_v_i32m1Pvu15__rvv_int32m1_tm:
	#APP
	vse32.v	v8, (ca0)
	#NO_APP
	cret
.Lfunc_end35:
	.size	_Z19cheri_vse32_v_i32m1Pvu15__rvv_int32m1_tm, .Lfunc_end35-_Z19cheri_vse32_v_i32m1Pvu15__rvv_int32m1_tm

	.globl	_Z17cheri_vle8_v_u8m2PKvm
	.p2align	2
	.type	_Z17cheri_vle8_v_u8m2PKvm,@function
_Z17cheri_vle8_v_u8m2PKvm:
	#APP
	vle8.v	v8, (ca0)
	#NO_APP
	cret
.Lfunc_end36:
	.size	_Z17cheri_vle8_v_u8m2PKvm, .Lfunc_end36-_Z17cheri_vle8_v_u8m2PKvm

	.globl	_Z17cheri_vse8_v_u8m2Pvu15__rvv_uint8m2_tm
	.p2align	2
	.type	_Z17cheri_vse8_v_u8m2Pvu15__rvv_uint8m2_tm,@function
_Z17cheri_vse8_v_u8m2Pvu15__rvv_uint8m2_tm:
	#APP
	vse8.v	v8, (ca0)
	#NO_APP
	cret
.Lfunc_end37:
	.size	_Z17cheri_vse8_v_u8m2Pvu15__rvv_uint8m2_tm, .Lfunc_end37-_Z17cheri_vse8_v_u8m2Pvu15__rvv_uint8m2_tm

	.globl	_Z17cheri_vle8_v_i8m2PKvm
	.p2align	2
	.type	_Z17cheri_vle8_v_i8m2PKvm,@function
_Z17cheri_vle8_v_i8m2PKvm:
	#APP
	vle8.v	v8, (ca0)
	#NO_APP
	cret
.Lfunc_end38:
	.size	_Z17cheri_vle8_v_i8m2PKvm, .Lfunc_end38-_Z17cheri_vle8_v_i8m2PKvm

	.globl	_Z17cheri_vse8_v_i8m2Pvu14__rvv_int8m2_tm
	.p2align	2
	.type	_Z17cheri_vse8_v_i8m2Pvu14__rvv_int8m2_tm,@function
_Z17cheri_vse8_v_i8m2Pvu14__rvv_int8m2_tm:
	#APP
	vse8.v	v8, (ca0)
	#NO_APP
	cret
.Lfunc_end39:
	.size	_Z17cheri_vse8_v_i8m2Pvu14__rvv_int8m2_tm, .Lfunc_end39-_Z17cheri_vse8_v_i8m2Pvu14__rvv_int8m2_tm

	.globl	_Z19cheri_vle16_v_u16m2PKvm
	.p2align	2
	.type	_Z19cheri_vle16_v_u16m2PKvm,@function
_Z19cheri_vle16_v_u16m2PKvm:
	#APP
	vle16.v	v8, (ca0)
	#NO_APP
	cret
.Lfunc_end40:
	.size	_Z19cheri_vle16_v_u16m2PKvm, .Lfunc_end40-_Z19cheri_vle16_v_u16m2PKvm

	.globl	_Z19cheri_vse16_v_u16m2Pvu16__rvv_uint16m2_tm
	.p2align	2
	.type	_Z19cheri_vse16_v_u16m2Pvu16__rvv_uint16m2_tm,@function
_Z19cheri_vse16_v_u16m2Pvu16__rvv_uint16m2_tm:
	#APP
	vse16.v	v8, (ca0)
	#NO_APP
	cret
.Lfunc_end41:
	.size	_Z19cheri_vse16_v_u16m2Pvu16__rvv_uint16m2_tm, .Lfunc_end41-_Z19cheri_vse16_v_u16m2Pvu16__rvv_uint16m2_tm

	.globl	_Z19cheri_vle16_v_i16m2PKvm
	.p2align	2
	.type	_Z19cheri_vle16_v_i16m2PKvm,@function
_Z19cheri_vle16_v_i16m2PKvm:
	#APP
	vle16.v	v8, (ca0)
	#NO_APP
	cret
.Lfunc_end42:
	.size	_Z19cheri_vle16_v_i16m2PKvm, .Lfunc_end42-_Z19cheri_vle16_v_i16m2PKvm

	.globl	_Z19cheri_vse16_v_i16m2Pvu15__rvv_int16m2_tm
	.p2align	2
	.type	_Z19cheri_vse16_v_i16m2Pvu15__rvv_int16m2_tm,@function
_Z19cheri_vse16_v_i16m2Pvu15__rvv_int16m2_tm:
	#APP
	vse16.v	v8, (ca0)
	#NO_APP
	cret
.Lfunc_end43:
	.size	_Z19cheri_vse16_v_i16m2Pvu15__rvv_int16m2_tm, .Lfunc_end43-_Z19cheri_vse16_v_i16m2Pvu15__rvv_int16m2_tm

	.globl	_Z19cheri_vle32_v_u32m2PKvm
	.p2align	2
	.type	_Z19cheri_vle32_v_u32m2PKvm,@function
_Z19cheri_vle32_v_u32m2PKvm:
	#APP
	vle32.v	v8, (ca0)
	#NO_APP
	cret
.Lfunc_end44:
	.size	_Z19cheri_vle32_v_u32m2PKvm, .Lfunc_end44-_Z19cheri_vle32_v_u32m2PKvm

	.globl	_Z19cheri_vse32_v_u32m2Pvu16__rvv_uint32m2_tm
	.p2align	2
	.type	_Z19cheri_vse32_v_u32m2Pvu16__rvv_uint32m2_tm,@function
_Z19cheri_vse32_v_u32m2Pvu16__rvv_uint32m2_tm:
	#APP
	vse32.v	v8, (ca0)
	#NO_APP
	cret
.Lfunc_end45:
	.size	_Z19cheri_vse32_v_u32m2Pvu16__rvv_uint32m2_tm, .Lfunc_end45-_Z19cheri_vse32_v_u32m2Pvu16__rvv_uint32m2_tm

	.globl	_Z19cheri_vle32_v_i32m2PKvm
	.p2align	2
	.type	_Z19cheri_vle32_v_i32m2PKvm,@function
_Z19cheri_vle32_v_i32m2PKvm:
	#APP
	vle32.v	v8, (ca0)
	#NO_APP
	cret
.Lfunc_end46:
	.size	_Z19cheri_vle32_v_i32m2PKvm, .Lfunc_end46-_Z19cheri_vle32_v_i32m2PKvm

	.globl	_Z19cheri_vse32_v_i32m2Pvu15__rvv_int32m2_tm
	.p2align	2
	.type	_Z19cheri_vse32_v_i32m2Pvu15__rvv_int32m2_tm,@function
_Z19cheri_vse32_v_i32m2Pvu15__rvv_int32m2_tm:
	#APP
	vse32.v	v8, (ca0)
	#NO_APP
	cret
.Lfunc_end47:
	.size	_Z19cheri_vse32_v_i32m2Pvu15__rvv_int32m2_tm, .Lfunc_end47-_Z19cheri_vse32_v_i32m2Pvu15__rvv_int32m2_tm

	.globl	_Z17cheri_vle8_v_u8m4PKvm
	.p2align	2
	.type	_Z17cheri_vle8_v_u8m4PKvm,@function
_Z17cheri_vle8_v_u8m4PKvm:
	#APP
	vle8.v	v8, (ca0)
	#NO_APP
	cret
.Lfunc_end48:
	.size	_Z17cheri_vle8_v_u8m4PKvm, .Lfunc_end48-_Z17cheri_vle8_v_u8m4PKvm

	.globl	_Z17cheri_vse8_v_u8m4Pvu15__rvv_uint8m4_tm
	.p2align	2
	.type	_Z17cheri_vse8_v_u8m4Pvu15__rvv_uint8m4_tm,@function
_Z17cheri_vse8_v_u8m4Pvu15__rvv_uint8m4_tm:
	#APP
	vse8.v	v8, (ca0)
	#NO_APP
	cret
.Lfunc_end49:
	.size	_Z17cheri_vse8_v_u8m4Pvu15__rvv_uint8m4_tm, .Lfunc_end49-_Z17cheri_vse8_v_u8m4Pvu15__rvv_uint8m4_tm

	.globl	_Z17cheri_vle8_v_i8m4PKvm
	.p2align	2
	.type	_Z17cheri_vle8_v_i8m4PKvm,@function
_Z17cheri_vle8_v_i8m4PKvm:
	#APP
	vle8.v	v8, (ca0)
	#NO_APP
	cret
.Lfunc_end50:
	.size	_Z17cheri_vle8_v_i8m4PKvm, .Lfunc_end50-_Z17cheri_vle8_v_i8m4PKvm

	.globl	_Z17cheri_vse8_v_i8m4Pvu14__rvv_int8m4_tm
	.p2align	2
	.type	_Z17cheri_vse8_v_i8m4Pvu14__rvv_int8m4_tm,@function
_Z17cheri_vse8_v_i8m4Pvu14__rvv_int8m4_tm:
	#APP
	vse8.v	v8, (ca0)
	#NO_APP
	cret
.Lfunc_end51:
	.size	_Z17cheri_vse8_v_i8m4Pvu14__rvv_int8m4_tm, .Lfunc_end51-_Z17cheri_vse8_v_i8m4Pvu14__rvv_int8m4_tm

	.globl	_Z19cheri_vle16_v_u16m4PKvm
	.p2align	2
	.type	_Z19cheri_vle16_v_u16m4PKvm,@function
_Z19cheri_vle16_v_u16m4PKvm:
	#APP
	vle16.v	v8, (ca0)
	#NO_APP
	cret
.Lfunc_end52:
	.size	_Z19cheri_vle16_v_u16m4PKvm, .Lfunc_end52-_Z19cheri_vle16_v_u16m4PKvm

	.globl	_Z19cheri_vse16_v_u16m4Pvu16__rvv_uint16m4_tm
	.p2align	2
	.type	_Z19cheri_vse16_v_u16m4Pvu16__rvv_uint16m4_tm,@function
_Z19cheri_vse16_v_u16m4Pvu16__rvv_uint16m4_tm:
	#APP
	vse16.v	v8, (ca0)
	#NO_APP
	cret
.Lfunc_end53:
	.size	_Z19cheri_vse16_v_u16m4Pvu16__rvv_uint16m4_tm, .Lfunc_end53-_Z19cheri_vse16_v_u16m4Pvu16__rvv_uint16m4_tm

	.globl	_Z19cheri_vle16_v_i16m4PKvm
	.p2align	2
	.type	_Z19cheri_vle16_v_i16m4PKvm,@function
_Z19cheri_vle16_v_i16m4PKvm:
	#APP
	vle16.v	v8, (ca0)
	#NO_APP
	cret
.Lfunc_end54:
	.size	_Z19cheri_vle16_v_i16m4PKvm, .Lfunc_end54-_Z19cheri_vle16_v_i16m4PKvm

	.globl	_Z19cheri_vse16_v_i16m4Pvu15__rvv_int16m4_tm
	.p2align	2
	.type	_Z19cheri_vse16_v_i16m4Pvu15__rvv_int16m4_tm,@function
_Z19cheri_vse16_v_i16m4Pvu15__rvv_int16m4_tm:
	#APP
	vse16.v	v8, (ca0)
	#NO_APP
	cret
.Lfunc_end55:
	.size	_Z19cheri_vse16_v_i16m4Pvu15__rvv_int16m4_tm, .Lfunc_end55-_Z19cheri_vse16_v_i16m4Pvu15__rvv_int16m4_tm

	.globl	_Z19cheri_vle32_v_u32m4PKvm
	.p2align	2
	.type	_Z19cheri_vle32_v_u32m4PKvm,@function
_Z19cheri_vle32_v_u32m4PKvm:
	#APP
	vle32.v	v8, (ca0)
	#NO_APP
	cret
.Lfunc_end56:
	.size	_Z19cheri_vle32_v_u32m4PKvm, .Lfunc_end56-_Z19cheri_vle32_v_u32m4PKvm

	.globl	_Z19cheri_vse32_v_u32m4Pvu16__rvv_uint32m4_tm
	.p2align	2
	.type	_Z19cheri_vse32_v_u32m4Pvu16__rvv_uint32m4_tm,@function
_Z19cheri_vse32_v_u32m4Pvu16__rvv_uint32m4_tm:
	#APP
	vse32.v	v8, (ca0)
	#NO_APP
	cret
.Lfunc_end57:
	.size	_Z19cheri_vse32_v_u32m4Pvu16__rvv_uint32m4_tm, .Lfunc_end57-_Z19cheri_vse32_v_u32m4Pvu16__rvv_uint32m4_tm

	.globl	_Z19cheri_vle32_v_i32m4PKvm
	.p2align	2
	.type	_Z19cheri_vle32_v_i32m4PKvm,@function
_Z19cheri_vle32_v_i32m4PKvm:
	#APP
	vle32.v	v8, (ca0)
	#NO_APP
	cret
.Lfunc_end58:
	.size	_Z19cheri_vle32_v_i32m4PKvm, .Lfunc_end58-_Z19cheri_vle32_v_i32m4PKvm

	.globl	_Z19cheri_vse32_v_i32m4Pvu15__rvv_int32m4_tm
	.p2align	2
	.type	_Z19cheri_vse32_v_i32m4Pvu15__rvv_int32m4_tm,@function
_Z19cheri_vse32_v_i32m4Pvu15__rvv_int32m4_tm:
	#APP
	vse32.v	v8, (ca0)
	#NO_APP
	cret
.Lfunc_end59:
	.size	_Z19cheri_vse32_v_i32m4Pvu15__rvv_int32m4_tm, .Lfunc_end59-_Z19cheri_vse32_v_i32m4Pvu15__rvv_int32m4_tm

	.globl	_Z17cheri_vle8_v_u8m8PKvm
	.p2align	2
	.type	_Z17cheri_vle8_v_u8m8PKvm,@function
_Z17cheri_vle8_v_u8m8PKvm:
	#APP
	vle8.v	v8, (ca0)
	#NO_APP
	cret
.Lfunc_end60:
	.size	_Z17cheri_vle8_v_u8m8PKvm, .Lfunc_end60-_Z17cheri_vle8_v_u8m8PKvm

	.globl	_Z17cheri_vse8_v_u8m8Pvu15__rvv_uint8m8_tm
	.p2align	2
	.type	_Z17cheri_vse8_v_u8m8Pvu15__rvv_uint8m8_tm,@function
_Z17cheri_vse8_v_u8m8Pvu15__rvv_uint8m8_tm:
	#APP
	vse8.v	v8, (ca0)
	#NO_APP
	cret
.Lfunc_end61:
	.size	_Z17cheri_vse8_v_u8m8Pvu15__rvv_uint8m8_tm, .Lfunc_end61-_Z17cheri_vse8_v_u8m8Pvu15__rvv_uint8m8_tm

	.globl	_Z17cheri_vle8_v_i8m8PKvm
	.p2align	2
	.type	_Z17cheri_vle8_v_i8m8PKvm,@function
_Z17cheri_vle8_v_i8m8PKvm:
	#APP
	vle8.v	v8, (ca0)
	#NO_APP
	cret
.Lfunc_end62:
	.size	_Z17cheri_vle8_v_i8m8PKvm, .Lfunc_end62-_Z17cheri_vle8_v_i8m8PKvm

	.globl	_Z17cheri_vse8_v_i8m8Pvu14__rvv_int8m8_tm
	.p2align	2
	.type	_Z17cheri_vse8_v_i8m8Pvu14__rvv_int8m8_tm,@function
_Z17cheri_vse8_v_i8m8Pvu14__rvv_int8m8_tm:
	#APP
	vse8.v	v8, (ca0)
	#NO_APP
	cret
.Lfunc_end63:
	.size	_Z17cheri_vse8_v_i8m8Pvu14__rvv_int8m8_tm, .Lfunc_end63-_Z17cheri_vse8_v_i8m8Pvu14__rvv_int8m8_tm

	.globl	_Z19cheri_vle16_v_u16m8PKvm
	.p2align	2
	.type	_Z19cheri_vle16_v_u16m8PKvm,@function
_Z19cheri_vle16_v_u16m8PKvm:
	#APP
	vle16.v	v8, (ca0)
	#NO_APP
	cret
.Lfunc_end64:
	.size	_Z19cheri_vle16_v_u16m8PKvm, .Lfunc_end64-_Z19cheri_vle16_v_u16m8PKvm

	.globl	_Z19cheri_vse16_v_u16m8Pvu16__rvv_uint16m8_tm
	.p2align	2
	.type	_Z19cheri_vse16_v_u16m8Pvu16__rvv_uint16m8_tm,@function
_Z19cheri_vse16_v_u16m8Pvu16__rvv_uint16m8_tm:
	#APP
	vse16.v	v8, (ca0)
	#NO_APP
	cret
.Lfunc_end65:
	.size	_Z19cheri_vse16_v_u16m8Pvu16__rvv_uint16m8_tm, .Lfunc_end65-_Z19cheri_vse16_v_u16m8Pvu16__rvv_uint16m8_tm

	.globl	_Z19cheri_vle16_v_i16m8PKvm
	.p2align	2
	.type	_Z19cheri_vle16_v_i16m8PKvm,@function
_Z19cheri_vle16_v_i16m8PKvm:
	#APP
	vle16.v	v8, (ca0)
	#NO_APP
	cret
.Lfunc_end66:
	.size	_Z19cheri_vle16_v_i16m8PKvm, .Lfunc_end66-_Z19cheri_vle16_v_i16m8PKvm

	.globl	_Z19cheri_vse16_v_i16m8Pvu15__rvv_int16m8_tm
	.p2align	2
	.type	_Z19cheri_vse16_v_i16m8Pvu15__rvv_int16m8_tm,@function
_Z19cheri_vse16_v_i16m8Pvu15__rvv_int16m8_tm:
	#APP
	vse16.v	v8, (ca0)
	#NO_APP
	cret
.Lfunc_end67:
	.size	_Z19cheri_vse16_v_i16m8Pvu15__rvv_int16m8_tm, .Lfunc_end67-_Z19cheri_vse16_v_i16m8Pvu15__rvv_int16m8_tm

	.globl	_Z19cheri_vle32_v_u32m8PKvm
	.p2align	2
	.type	_Z19cheri_vle32_v_u32m8PKvm,@function
_Z19cheri_vle32_v_u32m8PKvm:
	#APP
	vle32.v	v8, (ca0)
	#NO_APP
	cret
.Lfunc_end68:
	.size	_Z19cheri_vle32_v_u32m8PKvm, .Lfunc_end68-_Z19cheri_vle32_v_u32m8PKvm

	.globl	_Z19cheri_vse32_v_u32m8Pvu16__rvv_uint32m8_tm
	.p2align	2
	.type	_Z19cheri_vse32_v_u32m8Pvu16__rvv_uint32m8_tm,@function
_Z19cheri_vse32_v_u32m8Pvu16__rvv_uint32m8_tm:
	#APP
	vse32.v	v8, (ca0)
	#NO_APP
	cret
.Lfunc_end69:
	.size	_Z19cheri_vse32_v_u32m8Pvu16__rvv_uint32m8_tm, .Lfunc_end69-_Z19cheri_vse32_v_u32m8Pvu16__rvv_uint32m8_tm

	.globl	_Z19cheri_vle32_v_i32m8PKvm
	.p2align	2
	.type	_Z19cheri_vle32_v_i32m8PKvm,@function
_Z19cheri_vle32_v_i32m8PKvm:
	#APP
	vle32.v	v8, (ca0)
	#NO_APP
	cret
.Lfunc_end70:
	.size	_Z19cheri_vle32_v_i32m8PKvm, .Lfunc_end70-_Z19cheri_vle32_v_i32m8PKvm

	.globl	_Z19cheri_vse32_v_i32m8Pvu15__rvv_int32m8_tm
	.p2align	2
	.type	_Z19cheri_vse32_v_i32m8Pvu15__rvv_int32m8_tm,@function
_Z19cheri_vse32_v_i32m8Pvu15__rvv_int32m8_tm:
	#APP
	vse32.v	v8, (ca0)
	#NO_APP
	cret
.Lfunc_end71:
	.size	_Z19cheri_vse32_v_i32m8Pvu15__rvv_int32m8_tm, .Lfunc_end71-_Z19cheri_vse32_v_i32m8Pvu15__rvv_int32m8_tm

	.globl	memset
	.p2align	2
	.type	memset,@function
memset:
	beqz	a2, .LBB72_3
	mv	a3, zero
.LBB72_2:
	cincoffset	ca4, ca0, a3
	addi	a3, a3, 1
	csb	a1, 0(ca4)
	bne	a2, a3, .LBB72_2
.LBB72_3:
	cret
.Lfunc_end72:
	.size	memset, .Lfunc_end72-memset

	.globl	_Z19vector_memcpy_32mf2mPKiPi
	.p2align	2
	.type	_Z19vector_memcpy_32mf2mPKiPi,@function
_Z19vector_memcpy_32mf2mPKiPi:
	cincoffset	csp, csp, -48
	csc	cra, 32(csp)
	csc	cs0, 16(csp)
	csc	cs1, 0(csp)
	beqz	a0, .LBB73_3
	mv	s0, a0
.LBB73_2:
	vsetvli	s1, s0, e32, mf2, ta, mu
	ccall	_Z20cheri_vle32_v_i32mf2PKvm
	ccall	_Z20cheri_vse32_v_i32mf2Pvu16__rvv_int32mf2_tm
	sub	s0, s0, s1
	bnez	s0, .LBB73_2
.LBB73_3:
	clc	cs1, 0(csp)
	clc	cs0, 16(csp)
	clc	cra, 32(csp)
	cincoffset	csp, csp, 48
	cret
.Lfunc_end73:
	.size	_Z19vector_memcpy_32mf2mPKiPi, .Lfunc_end73-_Z19vector_memcpy_32mf2mPKiPi

	.globl	_Z17vector_memcpy_8m8mPKiPi
	.p2align	2
	.type	_Z17vector_memcpy_8m8mPKiPi,@function
_Z17vector_memcpy_8m8mPKiPi:
	cincoffset	csp, csp, -64
	csc	cra, 48(csp)
	csc	cs0, 32(csp)
	csc	cs1, 16(csp)
	csc	cs2, 0(csp)
	beqz	a0, .LBB74_4
	mv	s0, a0
	mv	s1, zero
	addi	s2, zero, 3
.LBB74_2:
	addi	a0, s0, -1
	snez	a0, a0
	sltu	a1, s2, s1
	or	a0, a0, a1
	beqz	a0, .LBB74_4
	slli	a0, s0, 2
	vsetvli	s1, a0, e8, m8, ta, mu
	ccall	_Z17cheri_vle8_v_i8m8PKvm
	ccall	_Z17cheri_vse8_v_i8m8Pvu14__rvv_int8m8_tm
	srli	a0, s1, 2
	sub	s0, s0, a0
	bnez	s0, .LBB74_2
.LBB74_4:
	clc	cs2, 0(csp)
	clc	cs1, 16(csp)
	clc	cs0, 32(csp)
	clc	cra, 48(csp)
	cincoffset	csp, csp, 64
	cret
.Lfunc_end74:
	.size	_Z17vector_memcpy_8m8mPKiPi, .Lfunc_end74-_Z17vector_memcpy_8m8mPKiPi

	.globl	_Z18vector_memcpy_16m8mPKiPi
	.p2align	2
	.type	_Z18vector_memcpy_16m8mPKiPi,@function
_Z18vector_memcpy_16m8mPKiPi:
	cincoffset	csp, csp, -64
	csc	cra, 48(csp)
	csc	cs0, 32(csp)
	csc	cs1, 16(csp)
	csc	cs2, 0(csp)
	beqz	a0, .LBB75_4
	mv	s0, a0
	mv	s1, zero
	addi	s2, zero, 1
.LBB75_2:
	addi	a0, s0, -1
	snez	a0, a0
	sltu	a1, s2, s1
	or	a0, a0, a1
	beqz	a0, .LBB75_4
	slli	a0, s0, 1
	vsetvli	s1, a0, e16, m8, ta, mu
	ccall	_Z19cheri_vle16_v_i16m8PKvm
	ccall	_Z19cheri_vse16_v_i16m8Pvu15__rvv_int16m8_tm
	srli	a0, s1, 1
	sub	s0, s0, a0
	bnez	s0, .LBB75_2
.LBB75_4:
	clc	cs2, 0(csp)
	clc	cs1, 16(csp)
	clc	cs0, 32(csp)
	clc	cra, 48(csp)
	cincoffset	csp, csp, 64
	cret
.Lfunc_end75:
	.size	_Z18vector_memcpy_16m8mPKiPi, .Lfunc_end75-_Z18vector_memcpy_16m8mPKiPi

	.globl	_Z18vector_memcpy_32m8mPKiPi
	.p2align	2
	.type	_Z18vector_memcpy_32m8mPKiPi,@function
_Z18vector_memcpy_32m8mPKiPi:
	cincoffset	csp, csp, -48
	csc	cra, 32(csp)
	csc	cs0, 16(csp)
	csc	cs1, 0(csp)
	beqz	a0, .LBB76_3
	mv	s0, a0
.LBB76_2:
	vsetvli	s1, s0, e32, m8, ta, mu
	ccall	_Z19cheri_vle32_v_i32m8PKvm
	ccall	_Z19cheri_vse32_v_i32m8Pvu15__rvv_int32m8_tm
	sub	s0, s0, s1
	bnez	s0, .LBB76_2
.LBB76_3:
	clc	cs1, 0(csp)
	clc	cs0, 16(csp)
	clc	cra, 32(csp)
	cincoffset	csp, csp, 48
	cret
.Lfunc_end76:
	.size	_Z18vector_memcpy_32m8mPKiPi, .Lfunc_end76-_Z18vector_memcpy_32m8mPKiPi

	.globl	_Z21vector_memcpy_harnessPFvmPKiPiE
	.p2align	2
	.type	_Z21vector_memcpy_harnessPFvmPKiPiE,@function
_Z21vector_memcpy_harnessPFvmPKiPiE:
	.cfi_startproc
	cincoffset	csp, csp, -1120
	.cfi_def_cfa_offset 1120
	csc	cra, 1104(csp)
	csc	cs0, 1088(csp)
	csc	cs1, 1072(csp)
	csc	cs2, 1056(csp)
	csc	cs3, 1040(csp)
	.cfi_offset ra, -16
	.cfi_offset s0, -32
	.cfi_offset s1, -48
	.cfi_offset s2, -64
	.cfi_offset s3, -80
	cmove	cs2, ca0
	cincoffset	ca0, csp, 528
	csetbounds	cs1, ca0, 512
	addi	a2, zero, 512
	cmove	ca0, cs1
	mv	a1, zero
	ccall	memset
	cincoffset	ca0, csp, 16
	csetbounds	ca0, ca0, 512
	addi	a2, zero, 512
	mv	a1, zero
	ccall	memset
	mv	a0, zero
	addi	a1, zero, 128
.LBB77_1:
	slli	a2, a0, 2
	cincoffset	ca2, cs1, a2
	csw	a0, 0(ca2)
	addi	a0, a0, 1
	bne	a0, a1, .LBB77_1
	cincoffset	ca0, csp, 528
	csetbounds	cs1, ca0, 512
	cincoffset	ca0, csp, 16
	csetbounds	cs0, ca0, 512
	addi	a0, zero, 103
	addi	s3, zero, 103
	cmove	ca1, cs1
	cmove	ca2, cs0
	cjalr	cs2
	mv	a0, zero
.LBB77_3:
	slli	a1, a0, 2
	cincoffset	ca2, cs1, a1
	clw	a2, 0(ca2)
	cincoffset	ca1, cs0, a1
	clw	a1, 0(ca1)
	bne	a2, a1, .LBB77_10
	addi	a0, a0, 1
	bne	a0, s3, .LBB77_3
	clw	a1, 428(csp)
	mv	a0, zero
	bnez	a1, .LBB77_11
	addi	a2, zero, 103
	addi	a0, zero, 127
	cincoffset	ca1, csp, 16
	csetbounds	ca1, ca1, 512
.LBB77_7:
	mv	a3, a2
	beq	a2, a0, .LBB77_9
	addi	a2, a3, 1
	slli	a4, a2, 2
	cincoffset	ca4, ca1, a4
	clw	a4, 0(ca4)
	beqz	a4, .LBB77_7
.LBB77_9:
	addi	a0, zero, 126
	sltu	a0, a0, a3
	j	.LBB77_11
.LBB77_10:
	mv	a0, zero
.LBB77_11:
	clc	cs3, 1040(csp)
	clc	cs2, 1056(csp)
	clc	cs1, 1072(csp)
	clc	cs0, 1088(csp)
	clc	cra, 1104(csp)
	cincoffset	csp, csp, 1120
	cret
.Lfunc_end77:
	.size	_Z21vector_memcpy_harnessPFvmPKiPiE, .Lfunc_end77-_Z21vector_memcpy_harnessPFvmPKiPiE
	.cfi_endproc

	.globl	main
	.p2align	2
	.type	main,@function
main:
	.cfi_startproc
	cincoffset	csp, csp, -32
	.cfi_def_cfa_offset 32
	csc	cra, 16(csp)
	csc	cs0, 0(csp)
	.cfi_offset ra, -16
	.cfi_offset s0, -32
.LBB78_1:
	auipcc	ca0, %captab_pcrel_hi(_Z17vector_memcpy_8m8mPKiPi)
	clc	ca0, %pcrel_lo(.LBB78_1)(ca0)
	ccall	_Z21vector_memcpy_harnessPFvmPKiPiE
	mv	s0, a0
.LBB78_2:
	auipcc	ca0, %captab_pcrel_hi(_Z18vector_memcpy_16m8mPKiPi)
	clc	ca0, %pcrel_lo(.LBB78_2)(ca0)
	ccall	_Z21vector_memcpy_harnessPFvmPKiPiE
	slli	a0, a0, 1
	or	s0, a0, s0
.LBB78_3:
	auipcc	ca0, %captab_pcrel_hi(_Z18vector_memcpy_32m8mPKiPi)
	clc	ca0, %pcrel_lo(.LBB78_3)(ca0)
	ccall	_Z21vector_memcpy_harnessPFvmPKiPiE
	slli	a0, a0, 2
	or	s0, s0, a0
.LBB78_4:
	auipcc	ca0, %captab_pcrel_hi(_Z19vector_memcpy_32mf2mPKiPi)
	clc	ca0, %pcrel_lo(.LBB78_4)(ca0)
	ccall	_Z21vector_memcpy_harnessPFvmPKiPiE
	slli	a0, a0, 3
	or	a1, s0, a0
	addi	a0, zero, 15
	slli	a0, a0, 28
	cincoffset	ca2, cnull, a0
	sext.w	a0, a1
	csw	a1, 0(ca2)
	clc	cs0, 0(csp)
	clc	cra, 16(csp)
	cincoffset	csp, csp, 32
	cret
.Lfunc_end78:
	.size	main, .Lfunc_end78-main
	.cfi_endproc

	.ident	"clang version 13.0.0 (https://github.com/CTSRD-CHERI/llvm-project.git 62cac4e2d70fb43bf3bef79e2f3821a5c1805588)"
	.section	".note.GNU-stack","",@progbits
	.addrsig
	.addrsig_sym _Z19vector_memcpy_32mf2mPKiPi
	.addrsig_sym _Z17vector_memcpy_8m8mPKiPi
	.addrsig_sym _Z18vector_memcpy_16m8mPKiPi
	.addrsig_sym _Z18vector_memcpy_32m8mPKiPi
