
/media/common/University/Edu/Year4_Masters/Project/riscv-v-lite/programs/build/llvm-trunk-rv64imv/vector_memcpy/vector_memcpy.elf:	file format elf64-littleriscv
Contents of section .text.init:
 0000 17010100 13010102 97200000 e780c0bc  ......... ......
 0010 6f000000                             o...
Contents of section .text:
 0014 630c0600 93060500 2380b600 1306f6ff  c.......#.......
 0024 93861600 e31a06fe 67800000 130101ee  ........g.......
 0034 233c1110 23388110 23349110 23302111  #<..#8..#4..#0!.
 0044 13040500 93040108 13050108 13060008  ................
 0054 13090008 93050000 97000000 e78080fb  ................
 0064 13050100 13060008 93050000 97000000  ................
 0074 e78040fa 13050000 b385a400 2380a500  ..@.........#...
 0084 13051500 e31a25ff 93040108 1305e006  ......%.........
 0094 93050108 13060100 13090100 e7000400  ................
 00a4 13050000 9305d006 1376f50f b386c400  .........v......
 00b4 83c60600 3307c900 03470700 6394e604  ....3....G..c...
 00c4 13051500 e362b6fe 8345e106 13050000  .....b...E......
 00d4 639c0502 1305f006 93050100 13168503  c...............
 00e4 93568643 63cc0600 9376f50f b386d500  .V.Cc....v......
 00f4 83c60600 13051500 e38206fe 1355f603  .............U..
 0104 6f008000 13050000 83308111 03340111  o........0...4..
 0114 83348110 03390110 13010112 67800000  .4...9......g...
 0124 130101de 233c1120 23388120 23349120  ....#<. #8. #4. 
 0134 23302121 13040500 13050110 13060010  #0!!............
 0144 93040110 93050000 97000000 e78080ec  ................
 0154 13050100 13060010 93050000 97000000  ................
 0164 e78040eb 13050000 93050008 2390a400  ..@.........#...
 0174 13051500 93842400 e31ab5fe 93040110  ......$.........
 0184 1305e006 93050110 13060100 13090100  ................
 0194 e7000400 13050000 9305d006 13160503  ................
 01a4 9356f602 3387d400 03570700 b306d900  .V..3....W......
 01b4 83d60600 631ed704 13560603 13051500  ....c....V......
 01c4 e36eb6fc 8355c10d 13050000 63940504  .n...U......c...
 01d4 1305e006 9305e007 13060100 93160503  ................
 01e4 93d60603 63e0d502 13051500 13170503  ....c...........
 01f4 13570703 13171700 3307e600 03570700  .W......3....W..
 0204 e30e07fc 1305e007 3335d500 6f008000  ........35..o...
 0214 13050000 83308121 03340121 83348120  .....0.!.4.!.4. 
 0224 03390120 13010122 67800000 130101bd  .9. ..."g.......
 0234 23341142 23308142 233c9140 23382141  #4.B#0.B#<.@#8!A
 0244 13040500 13050121 13060020 93040121  .......!... ...!
 0254 93050000 97000000 e780c0db 13050101  ................
 0264 13060020 93050000 97000000 e78080da  ... ............
 0274 13050000 93050008 23a0a400 13051500  ........#.......
 0284 93844400 e31ab5fe 93040121 1305e006  ..D........!....
 0294 93050121 13060101 13090101 e7000400  ...!............
 02a4 13060000 1305d006 93050600 13160602  ................
 02b4 1356e601 b386c400 83a60600 3306c900  .V..........3...
 02c4 03260600 6398c604 1b861500 e3eea5fc  .&..c...........
 02d4 8325811c 13050000 63900504 9306e006  .%......c.......
 02e4 1305e007 93050101 13860600 636ed500  ............cn..
 02f4 9b061600 13970602 1357e701 3387e500  .........W..3...
 0304 03270700 e30207fe 1305e007 3335c500  .'..........35..
 0314 6f008000 13050000 83308142 03340142  o........0.B.4.B
 0324 83348141 03390141 13010143 67800000  .4.A.9.A...Cg...
 0334 13010181 2334117e 2330817e 233c917c  ....#4.~#0.~#<.|
 0344 2338217d 130101fc 13040500 13050141  #8!}...........A
 0354 13060040 93040141 93050000 97000000  ...@...A........
 0364 e78040cb 13050101 13060040 93050000  ..@........@....
 0374 97000000 e78000ca 13050000 93050008  ................
 0384 23b0a400 13051500 93848400 e31ab5fe  #...............
 0394 93040141 1305e006 93050141 13060101  ...A.......A....
 03a4 13090101 e7000400 13050000 93050037  ...............7
 03b4 3386a400 03360600 b306a900 83b60600  3....6..........
 03c4 6314d604 13058500 e314b5fe 83350138  c............5.8
 03d4 13050000 639c0502 13058138 9306e006  ....c......8....
 03e4 9305f007 13860600 638ab600 03370500  ........c....7..
 03f4 93061600 13058500 e30607fe 1305e007  ................
 0404 3335c500 6f008000 13050000 13010104  35..o...........
 0414 8330817e 0334017e 8334817d 0339017d  .0.~.4.~.4.}.9.}
 0424 1301017f 67800000 130101ed 23341112  ....g.......#4..
 0434 23308112 233c9110 23382111 23343111  #0..#<..#8!.#41.
 0444 13040500 93048108 13058108 13060008  ................
 0454 13090008 93050000 97000000 e78080bb  ................
 0464 13058100 13060008 93098100 93050000  ................
 0474 97000000 e78000ba 13050000 9305b00b  ................
 0484 3386a400 2300a600 3386a900 13051500  3...#...3.......
 0494 2300b600 e31625ff 9304e006 13098108  #.....%.........
 04a4 1305e006 93058108 13068100 93098100  ................
 04b4 e7000400 13050000 9305b00b 6f00c001  ............o...
 04c4 b306a900 83c60600 03460600 6390c606  .........F..c...
 04d4 13051500 630e9500 93761500 3386a900  ....c....v..3...
 04e4 e39006fe 03460600 e304b6fe 6f000004  .....F......o...
 04f4 83456107 1305b00b 639aa502 9305f006  .Ea.....c.......
 0504 13068100 93968503 13d78643 634c0700  ...........CcL..
 0514 13f7f50f 3307e600 03470700 93851500  ....3....G......
 0524 e302a7fe 13d5f603 6f008000 13050000  ........o.......
 0534 83308112 03340112 83348111 03390111  .0...4...4...9..
 0544 83398110 13010113 67800000 130101dd  .9......g.......
 0554 23341122 23308122 233c9120 23382121  #4."#0."#<. #8!!
 0564 23343121 13040500 13058110 13060010  #41!............
 0574 93048110 93050000 97000000 e78080a9  ................
 0584 13058100 13060010 13098100 93050000  ................
 0594 97000000 e78000a8 13050000 9305b00b  ................
 05a4 13060008 2390a400 2310b900 13051500  ....#...#.......
 05b4 93842400 13092900 e316c5fe 9304e006  ..$...).........
 05c4 13098110 1305e006 93058110 13068100  ................
 05d4 93098100 e7000400 13050000 9305b00b  ................
 05e4 6f000002 03560900 83d60900 631ad606  o....V......c...
 05f4 13051500 13092900 93892900 630c9500  ......)...).c...
 0604 13761500 e31006fe 03d60900 e302b6fe  .v..............
 0614 6f000005 8355410e 1305b00b 6392a504  o....UA.....c...
 0624 9305e006 1306e007 93068100 13970503  ................
 0634 13570703 6360e602 93851500 93970503  .W..c`..........
 0644 93d70703 93971700 b387f600 83d70700  ................
 0654 e38ea7fc 1305e007 3335e500 6f008000  ........35..o...
 0664 13050000 83308122 03340122 83348121  .....0.".4.".4.!
 0674 03390121 83398120 13010123 67800000  .9.!.9. ...#g...
 0684 130101bd 23341142 23308142 233c9140  ....#4.B#0.B#<.@
 0694 23382141 23343141 13040500 13058120  #8!A#41A....... 
 06a4 13060020 93048120 93050000 97000000  ... ... ........
 06b4 e7804096 13058100 13060020 13098100  ..@........ ....
 06c4 93050000 97000000 e780c094 13050000  ................
 06d4 9305b00b 13060008 23a0a400 2320b900  ........#...# ..
 06e4 13051500 93844400 13094900 e316c5fe  ......D...I.....
 06f4 9304e006 13098120 1305e006 93058120  ....... ....... 
 0704 13068100 93098100 e7000400 13050000  ................
 0714 9305b00b 6f000002 03260900 83a60900  ....o....&......
 0724 6316d606 13051500 93894900 13094900  c.........I...I.
 0734 630c9500 13761500 e31006fe 03a60900  c....v..........
 0744 e302b6fe 6f008004 8325011c 1305b00b  ....o....%......
 0754 639ea502 1307e006 9305e007 13068100  c...............
 0764 93060700 63eee500 1b871600 93170702  ....c...........
 0774 93d7e701 b307f600 83a70700 e382a7fe  ................
 0784 1305e007 3335d500 6f008000 13050000  ....35..o.......
 0794 83308142 03340142 83348141 03390141  .0.B.4.B.4.A.9.A
 07a4 83398140 13010143 67800000 13010181  .9.@...Cg.......
 07b4 2334117e 2330817e 233c917c 2338217d  #4.~#0.~#<.|#8!}
 07c4 2334317d 130101fc 13040500 13058140  #41}...........@
 07d4 13060040 93048140 93050000 97000000  ...@...@........
 07e4 e7804083 13058100 13060040 13098100  ..@........@....
 07f4 93050000 97000000 e780c081 13050000  ................
 0804 9305b00b 13060008 23b0a400 2330b900  ........#...#0..
 0814 13051500 13098900 93848400 e316c5fe  ................
 0824 9304e006 13098140 1305e006 93058140  .......@.......@
 0834 13068100 93098100 e7000400 13050000  ................
 0844 9305b00b 6f000002 03360900 83b60900  ....o....6......
 0854 6312d606 13051500 93898900 13098900  c...............
 0864 630c9500 13761500 e31006fe 03b60900  c....v..........
 0874 e302b6fe 6f000004 83358137 1305b00b  ....o....5.7....
 0884 639aa502 93050138 1307e006 1306f007  c......8........
 0894 93060700 630ac700 83b70500 13871600  ....c...........
 08a4 93858500 e386a7fe 1305e007 3335d500  ............35..
 08b4 6f008000 13050000 13010104 8330817e  o............0.~
 08c4 0334017e 8334817d 0339017d 8339817c  .4.~.4.}.9.}.9.|
 08d4 1301017f 67800000 130101ea 233c1114  ....g.......#<..
 08e4 23388114 23349114 23302115 233c3113  #8..#4..#0!.#<1.
 08f4 23384113 23345113 13040500 9304810a  #8A.#4Q.........
 0904 1305810a 13060008 13090008 93050000  ................
 0914 97f0ffff e7800070 13050000 2330010a  .......p....#0..
 0924 233c0108 23380108 23340108 23300108  #<..#8..#4..#0..
 0934 233c0106 23380106 23340106 23300106  #<..#8..#4..#0..
 0944 233c0104 23380104 23340104 23300104  #<..#8..#4..#0..
 0954 233c0102 23380102 23340102 b385a400  #<..#8..#4......
 0964 2380a500 13051500 e31a25ff 93048108  #.........%.....
 0974 23349100 13098106 23382101 93098104  #4......#8!.....
 0984 233c3101 130a8102 23304103 1305a001  #<1.....#0A.....
 0994 9305810a 13068100 930a810a e7000400  ................
 09a4 13050000 93059001 1376f50f 93162600  .........v....&.
 09b4 3387da00 03470700 b387c400 83c70700  3....G..........
 09c4 6316f706 13e71600 3387ea00 03470700  c.......3....G..
 09d4 b307c900 83c70700 631af704 13e72600  ........c.....&.
 09e4 3387ea00 03470700 b387c900 83c70700  3....G..........
 09f4 631ef702 93e63600 b386da00 83c60600  c.....6.........
 0a04 3307ca00 03470700 6392e602 13051500  3....G..c.......
 0a14 e36cb6f8 8345210a 13051000 638c0502  .l...E!.....c...
 0a24 1345f5ff 13751500 6f008000 13050000  .E...u..o.......
 0a34 83308115 03340115 83348114 03390114  .0...4...4...9..
 0a44 83398113 033a0113 833a8112 13010116  .9...:...:......
 0a54 67800000 93052108 13062106 93062104  g.....!...!...!.
 0a64 13051000 1307a001 9307e001 13088108  ................
 0a74 83c80500 e39608fa 83480600 e39208fa  .........H......
 0a84 83c80600 e39e08f8 9378f70f 13b5f801  .........x......
 0a94 e3e817f9 13071700 9378f70f b3081801  .........x......
 0aa4 83c80800 93851500 13061600 93861600  ................
 0ab4 e38008fc 6ff0dff6 130101da 233c1124  ....o.......#<.$
 0ac4 23388124 23349124 23302125 233c3123  #8.$#4.$#0!%#<1#
 0ad4 23384123 23345123 13040500 13058112  #8A##4Q#........
 0ae4 13060010 93048112 93050000 97f0ffff  ................
 0af4 e7804052 13050000 23300112 233c0110  ..@R....#0..#<..
 0b04 23380110 23340110 23300110 233c010e  #8..#4..#0..#<..
 0b14 2338010e 2334010e 2330010e 233c010c  #8..#4..#0..#<..
 0b24 2338010c 2334010c 2330010c 233c010a  #8..#4..#0..#<..
 0b34 2338010a 2334010a 2330010a 233c0108  #8..#4..#0..#<..
 0b44 23380108 23340108 23300108 233c0106  #8..#4..#0..#<..
 0b54 23380106 23340106 23300106 233c0104  #8..#4..#0..#<..
 0b64 23380104 23340104 23300104 233c0102  #8..#4..#0..#<..
 0b74 23380102 23340102 93050008 2390a400  #8..#4......#...
 0b84 13051500 93842400 e31ab5fe 9304810e  ......$.........
 0b94 23349100 1309810a 23382101 93098106  #4......#8!.....
 0ba4 233c3101 130a8102 23304103 1305a001  #<1.....#0A.....
 0bb4 93058112 13068100 930a8112 e7000400  ................
 0bc4 13050000 93059001 13160503 13560603  .............V..
 0bd4 93163600 b386da00 03d70600 93161600  ..6.............
 0be4 b387d400 83d70700 631af706 13172600  ........c.....&.
 0bf4 13171700 93672700 b387fa00 83d70700  .....g'.........
 0c04 3308d900 03580800 639a0705 93674700  3....X..c....gG.
 0c14 b387fa00 83d70700 3388d900 03580800  ........3....X..
 0c24 639e0703 13676700 3387ea00 03570700  c....gg.3....W..
 0c34 b306da00 83d60600 6312d702 13051500  ........c.......
 0c44 e364b6f8 8355c111 13051000 638c0502  .d...U......c...
 0c54 1345f5ff 13751500 6f008000 13050000  .E...u..o.......
 0c64 83308125 03340125 83348124 03390124  .0.%.4.%.4.$.9.$
 0c74 83398123 033a0123 833a8122 13010126  .9.#.:.#.:."...&
 0c84 67800000 9305c10d 1306c109 9306c105  g...............
 0c94 13051000 1307a001 9307e001 1308810e  ................
 0ca4 83d80500 e39608fa 83580600 e39208fa  .........X......
 0cb4 83d80600 e39e08f8 13150703 93580503  .............X..
 0cc4 13b5f801 e3e617f9 13071700 93180703  ................
 0cd4 93d80803 93981800 b3081801 83d80800  ................
 0ce4 93852500 13062600 93862600 e38a08fa  ..%...&...&.....
 0cf4 6ff01ff6 130101ba 233c1144 23388144  o.......#<.D#8.D
 0d04 23349144 23302145 233c3143 23384143  #4.D#0!E#<1C#8AC
 0d14 23345143 13040500 13058122 13060020  #4QC......."... 
 0d24 93048122 93050000 97f0ffff e780802e  ..."............
 0d34 1305811a 13060008 13090008 93050000  ................
 0d44 97f0ffff e780002d 13058112 13060008  .......-........
 0d54 93050000 97f0ffff e780c02b 1305810a  ...........+....
 0d64 13060008 93050000 97f0ffff e780802a  ...............*
 0d74 13058102 13060008 93050000 97f0ffff  ................
 0d84 e7804029 13050000 23a0a400 13051500  ..@)....#.......
 0d94 93844400 e31a25ff 9304811a 23349100  ..D...%.....#4..
 0da4 13098112 23382101 9309810a 233c3101  ....#8!.....#<1.
 0db4 130a8102 23304103 1305a001 93058122  ....#0A........"
 0dc4 13068100 930a8122 e7000400 13060000  ......."........
 0dd4 13059001 93050600 1b162600 93160602  ..........&.....
 0de4 93d6e601 b386da00 03a70600 93960502  ................
 0df4 93d7e601 b387f400 83a70700 6316f708  ............c...
 0e04 93d60602 13671600 13170702 1357e701  .....g.......W..
 0e14 3387ea00 03270700 93962600 b307d900  3....'....&.....
 0e24 83a70700 6312f706 13672600 13170702  ....c....g&.....
 0e34 1357e701 3387ea00 03270700 b387d900  .W..3....'......
 0e44 83a70700 6312f704 13663600 13160602  ....c....f6.....
 0e54 1356e601 3386ca00 03260600 b306da00  .V..3....&......
 0e64 83a60600 6312d602 1b861500 e3e4a5f6  ....c...........
 0e74 83250121 13051000 638c0502 1345f5ff  .%.!....c....E..
 0e84 13751500 6f008000 13050000 83308145  .u..o........0.E
 0e94 03340145 83348144 03390144 83398143  .4.E.4.D.9.D.9.C
 0ea4 033a0143 833a8142 13010146 67800000  .:.C.:.B...Fg...
 0eb4 93050119 13060111 93060109 13051000  ................
 0ec4 1307a001 9307e001 1308811a 83a80500  ................
 0ed4 e39608fa 83280600 e39208fa 83a80600  .....(..........
 0ee4 e39e08f8 1335f701 e3eae7f8 1b071700  .....5..........
 0ef4 93180702 93d8e801 b3081801 83a80800  ................
 0f04 93854500 13064600 93864600 e38008fc  ..E...F...F.....
 0f14 6ff0dff6 13010181 2334117e 2330817e  o.......#4.~#0.~
 0f24 233c917c 2338217d 2334317d 2330417d  #<.|#8!}#41}#0A}
 0f34 130101f9 13040500 13050143 13060040  ...........C...@
 0f44 93040143 93050000 97f0ffff e780800c  ...C............
 0f54 13050133 13060010 93050000 97f0ffff  ...3............
 0f64 e780400b 13050123 13060010 93050000  ..@....#........
 0f74 97f0ffff e780000a 13050113 13060010  ................
 0f84 93050000 97f0ffff e780c008 13050103  ................
 0f94 13060010 93050000 97f0ffff e7808007  ................
 0fa4 13050000 93050008 23b0a400 13051500  ........#.......
 0fb4 93848400 e31ab5fe 93040133 23389100  ...........3#8..
 0fc4 13090123 233c2101 93090113 23303103  ...##<!.....#01.
 0fd4 130a0103 23344103 1305a001 93050143  ....#4A........C
 0fe4 13060101 e7000400 13050000 93050144  ...............D
 0ff4 1306000d 83b605ff 3387a400 03370700  ........3....7..
 1004 639ce604 83b685ff 3307a900 03370700  c.......3....7..
 1014 6394e604 83b60500 3387a900 03370700  c.......3....7..
 1024 639ce602 83b68500 3307aa00 03370700  c.......3....7..
 1034 6394e602 13058500 93850502 e31cc5fa  c...............
 1044 83350140 13051000 638c0502 1345f5ff  .5.@....c....E..
 1054 13751500 6f008000 13050000 13010107  .u..o...........
 1064 8330817e 0334017e 8334817d 0339017d  .0.~.4.~.4.}.9.}
 1074 8339817c 033a017c 1301017f 67800000  .9.|.:.|....g...
 1084 93050130 13060120 93060110 13078140  ...0... .......@
 1094 13051000 9307a001 1308f001 83b80500  ................
 10a4 e39608fa 83380600 e39208fa 83b80600  .....8..........
 10b4 e39e08f8 13b5f701 e38a07f9 83380700  .............8..
 10c4 93858500 13068600 93868600 13078700  ................
 10d4 93871700 e38408fc 6ff05ff7 6f008000  ........o._.o...
 10e4 63820602 d7763504 e38c06fe 07840502  c....v5.........
 10f4 27040602 b385d500 3306d600 3305d540  '.......3...3..@
 1104 6ff01ffe 67800000 6f008000 63840602  o...g...o...c...
 1114 d776b504 e38c06fe 07d40502 27540602  .v..........'T..
 1124 13971600 b385e500 3306e600 3305d540  ........3...3..@
 1134 6ff0dffd 67800000 6f008000 63840602  o...g...o...c...
 1144 d7763505 e38c06fe 07e40502 27640602  .v5.........'d..
 1154 13972600 b385e500 3306e600 3305d540  ..&.....3...3..@
 1164 6ff0dffd 67800000 6f008000 63840602  o...g...o...c...
 1174 d7767505 e38c06fe 07e40502 27640602  .vu.........'d..
 1184 13972600 b385e500 3306e600 3305d540  ..&.....3...3..@
 1194 6ff0dffd 67800000 6f008000 63840602  o...g...o...c...
 11a4 d7769505 e38c06fe 07f40502 27740602  .v..........'t..
 11b4 13973600 b385e500 3306e600 3305d540  ..6.....3...3..@
 11c4 6ff0dffd 67800000 93064000 6f000002  o...g.....@.o...
 11d4 07840502 27040602 93070700 3305f540  ....'.......3..@
 11e4 b385f500 3306f600 630c0702 57773504  ....3...c...Ww5.
 11f4 e30c07fe 93172700 e3fca7fc 13080000  ......'.........
 1204 b3880501 57703704 0784d80a b3080601  ....Wp7.........
 1214 13081800 2784d80a e314d8fe 6ff01ffc  ....'.......o...
 1224 67800000 93068000 6f004002 07d40502  g.......o.@.....
 1234 27540602 93070700 3305f540 93971700  'T......3..@....
 1244 b385f500 3306f600 630c0702 5777b504  ....3...c...Ww..
 1254 e30c07fe 93172700 e3faa7fc 13080000  ......'.........
 1264 b3880501 5770b704 07d4d80a b3080601  ....Wp..........
 1274 13082800 27d4d80a e314d8fe 6ff0dffb  ..(.'.......o...
 1284 67800000 93060001 6f004002 07e40502  g.......o.@.....
 1294 27640602 93070700 3305f540 93972700  'd......3..@..'.
 12a4 b385f500 3306f600 630c0702 57773505  ....3...c...Ww5.
 12b4 e30c07fe 93172700 e3faa7fc 13080000  ......'.........
 12c4 b3880501 57703705 07e4d80a b3080601  ....Wp7.........
 12d4 13084800 27e4d80a e314d8fe 6ff0dffb  ..H.'.......o...
 12e4 67800000 93060001 6f004002 07e40502  g.......o.@.....
 12f4 27640602 93070700 3305f540 93972700  'd......3..@..'.
 1304 b385f500 3306f600 630c0702 57777505  ....3...c...Wwu.
 1314 e30c07fe 93172700 e3faa7fc 13080000  ......'.........
 1324 b3880501 57707705 07e4d80a b3080601  ....Wpw.........
 1334 13084800 27e4d80a e314d8fe 6ff0dffb  ..H.'.......o...
 1344 67800000 93060002 6f004002 07f40502  g.......o.@.....
 1354 27740602 93070700 3305f540 93973700  't......3..@..7.
 1364 b385f500 3306f600 630c0702 57779505  ....3...c...Ww..
 1374 e30c07fe 93172700 e3faa7fc 13080000  ......'.........
 1384 b3880501 57709705 07f4d80a b3080601  ....Wp..........
 1394 13088800 27f4d80a e314d8fe 6ff0dffb  ....'.......o...
 13a4 67800000 130101f4 233c110a 2338810a  g.......#<..#8..
 13b4 2334910a 2330210b 233c3109 23384109  #4..#0!.#<1.#8A.
 13c4 13040600 93840500 13090500 d7793004  .............y0.
 13d4 13050101 13060008 130a0101 93050000  ................
 13e4 97f0ffff e78000c3 638e0900 13050000  ........c.......
 13f4 93451500 3306aa00 13051500 2300b600  .E..3.......#...
 1404 e398a9fe 57f03904 13050101 07040502  ....W.9.........
 1414 6f00c001 07880402 27080402 b384a400  o.......'.......
 1424 3304a400 3309a940 630e0500 57753904  3...3..@c...Wu9.
 1434 e30c05fe e31035ff 07888406 27088406  ......5.....'...
 1444 6ff0dffd 8330810b 0334010b 8334810a  o....0...4...4..
 1454 0339010a 83398109 033a0109 1301010c  .9...9...:......
 1464 67800000 130101ec 233c1112 23388112  g.......#<..#8..
 1474 23349112 23302113 233c3111 23384111  #4..#0!.#<1.#8A.
 1484 13040600 93840500 13090500 d779b004  .............y..
 1494 13050101 13060010 130a0101 93050000  ................
 14a4 97f0ffff e78000b7 63800902 13050000  ........c.......
 14b4 93151500 93c52500 2310ba00 13051500  ......%.#.......
 14c4 130a2a00 e396a9fe 57f0b904 13050101  ..*.....W.......
 14d4 07540502 6f000002 07d80402 27580402  .T..o.......'X..
 14e4 93151500 b384b400 3304b400 3309a940  ........3...3..@
 14f4 630e0500 5775b904 e30c05fe e31e35fd  c...Wu........5.
 1504 07d88406 27588406 6ff09ffd 83308113  ....'X..o....0..
 1514 03340113 83348112 03390112 83398111  .4...4...9...9..
 1524 033a0111 13010114 67800000 130101dc  .:......g.......
 1534 233c1122 23388122 23349122 23302123  #<."#8."#4."#0!#
 1544 233c3121 23384121 13040600 93840500  #<1!#8A!........
 1554 13090500 d7793005 13050101 13060020  .....y0........ 
 1564 130a0101 93050000 97f0ffff e78080aa  ................
 1574 63800902 13050000 93152500 93c54500  c.........%...E.
 1584 2320ba00 13051500 130a4a00 e396a9fe  # ........J.....
 1594 57f03905 13050101 07640502 6f000002  W.9......d..o...
 15a4 07e80402 27680402 93152500 b384b400  ....'h....%.....
 15b4 3304b400 3309a940 630e0500 57753905  3...3..@c...Wu9.
 15c4 e30c05fe e31e35fd 07e88406 27688406  ......5.....'h..
 15d4 6ff09ffd 83308123 03340123 83348122  o....0.#.4.#.4."
 15e4 03390122 83398121 033a0121 13010124  .9.".9.!.:.!...$
 15f4 67800000 130101dc 233c1122 23388122  g.......#<."#8."
 1604 23349122 23302123 233c3121 23384121  #4."#0!##<1!#8A!
 1614 13040600 93840500 13090500 d7797005  .............yp.
 1624 13050101 13060020 130a0101 93050000  ....... ........
 1634 97f0ffff e780009e 63800902 13050000  ........c.......
 1644 93152500 93c54500 2320ba00 13051500  ..%...E.# ......
 1654 130a4a00 e396a9fe 57f07905 13050101  ..J.....W.y.....
 1664 07640502 6f000002 87e40402 a7640402  .d..o........d..
 1674 93152500 b384b400 3304b400 3309a940  ..%.....3...3..@
 1684 630e0500 57757905 e30c05fe e31e35fd  c...Wuy.......5.
 1694 87e48406 a7648406 6ff09ffd 83308123  .....d..o....0.#
 16a4 03340123 83348122 03390122 83398121  .4.#.4.".9.".9.!
 16b4 033a0121 13010124 67800000 130101bc  .:.!...$g.......
 16c4 233c1142 23388142 23349142 23302143  #<.B#8.B#4.B#0!C
 16d4 233c3141 23384141 13040600 93840500  #<1A#8AA........
 16e4 13090500 d7799005 13050101 13060040  .....y.........@
 16f4 130a0101 93050000 97f0ffff e7808091  ................
 1704 63800902 13050000 93953900 13468500  c.........9..F..
 1714 b306aa00 13058500 23b0c600 e398a5fe  ........#.......
 1724 57f09905 13050101 07740502 6f000002  W........t..o...
 1734 07f50402 27750402 93153500 b384b400  ....'u....5.....
 1744 3304b400 3309a940 630e0500 57759905  3...3..@c...Wu..
 1754 e30c05fe e31e35fd 07f58406 27758406  ......5.....'u..
 1764 6ff09ffd 83308143 03340143 83348142  o....0.C.4.C.4.B
 1774 03390142 83398141 033a0141 13010144  .9.B.9.A.:.A...D
 1784 67800000 130101dd 23341122 23308122  g.......#4."#0."
 1794 233c9120 23382121 23343121 13040600  #<. #8!!#41!....
 17a4 93840500 13090500 13058100 13060020  ............... 
 17b4 93098100 93050000 97f0ffff e7808085  ................
 17c4 57753005 630e0500 93050000 13f61500  Wu0.c...........
 17d4 23a0c900 93851500 93894900 e318b5fe  #.........I.....
 17e4 13058100 07640502 57b08062 6f008000  .....d..W..bo...
 17f4 63060502 57753905 e30c05fe 57703501  c...Wu9.....Wp5.
 1804 07e40400 27640400 93152500 b384b400  ....'d....%.....
 1814 3304b400 3309a940 6ff09ffd 83308122  3...3..@o....0."
 1824 03340122 83348121 03390121 83398120  .4.".4.!.9.!.9. 
 1834 13010123 67800000 130101ff 23340100  ...#g.......#4..
 1844 57773005 93060004 63f6e600 13010101  Ww0.....c.......
 1854 67800000 83368100 630e0700 93070000  g....6..c.......
 1864 13f81700 3318f800 93871700 b3e60601  ....3...........
 1874 e318f7fe 2334d100 93068100 0780b602  ....#4..........
 1884 6f008000 e38406fc d7763505 e38c06fe  o........v5.....
 1894 57f03601 07e40500 27640600 13972600  W.6.....'d....&.
 18a4 b385e500 3306e600 3305d540 6ff09ffd  ....3...3..@o...
 18b4 93060002 6f008000 630e0704 57771504  ....o...c...Ww..
 18c4 e30c07fe 07840562 83370600 27840702  .......b.7..'...
 18d4 83378600 27850702 83370601 27860702  .7..'....7..'...
 18e4 83378601 13080000 27870702 93172700  .7......'.....'.
 18f4 b3080601 83b20800 b382e200 13088800  ................
 1904 23b05800 e316d8fe b385f500 3305e540  #.X.........3..@
 1914 6ff09ffa 67800000 93060002 6f008000  o...g.......o...
 1924 63020706 57779504 e30c07fe 07d40562  c...Ww.........b
 1934 83370600 27d40702 83378600 27d50702  .7..'....7..'...
 1944 83370601 27d60702 83378601 13080000  .7..'....7......
 1954 27d70702 93172700 b3080601 83b20800  '.....'.........
 1964 13131700 b3826200 13088800 23b05800  ......b.....#.X.
 1974 e314d8fe 93971700 b385f500 3305e540  ............3..@
 1984 6ff01ffa 67800000 93060002 6f008000  o...g.......o...
 1994 63000706 57771505 e30c07fe 07e40562  c...Ww.........b
 19a4 83370600 27e40702 83378600 27e50702  .7..'....7..'...
 19b4 83370601 27e60702 83378601 13080000  .7..'....7......
 19c4 27e70702 93172700 b3080601 83b20800  '.....'.........
 19d4 b382f200 13088800 23b05800 e316d8fe  ........#.X.....
 19e4 93972700 b385f500 3305e540 6ff05ffa  ..'.....3..@o._.
 19f4 67800000 93060002 6f008000 63000706  g.......o...c...
 1a04 57777505 e30c07fe 07e40562 83370600  Wwu........b.7..
 1a14 27e40702 83378600 a7e40702 83370601  '....7.......7..
 1a24 27e50702 83378601 13080000 a7e50702  '....7..........
 1a34 93172700 b3080601 83b20800 b382f200  ..'.............
 1a44 13088800 23b05800 e316d8fe 93972700  ....#.X.......'.
 1a54 b385f500 3305e540 6ff05ffa 67800000  ....3..@o._.g...
 1a64 93060002 6f008000 63020706 57779505  ....o...c...Ww..
 1a74 e30c07fe 07f40562 83370600 27f40702  .......b.7..'...
 1a84 83378600 27f50702 83370601 27f60702  .7..'....7..'...
 1a94 83378601 13080000 27f70702 93172700  .7......'.....'.
 1aa4 b3080601 83b20800 13133700 b3826200  ..........7...b.
 1ab4 13088800 23b05800 e314d8fe 93973700  ....#.X.......7.
 1ac4 b385f500 3305e540 6ff01ffa 67800000  ....3..@o...g...
 1ad4 d7768005 6f000002 07f40502 27740602  .v..o.......'t..
 1ae4 93173700 b385f500 3306f600 3305e540  ..7.....3...3..@
 1af4 630e0700 57778505 e30c07fe e31ed7fc  c...Ww..........
 1b04 07848502 27048602 6ff09ffd 67800000  ....'...o...g...
 1b14 d7769005 6f000002 07f40502 27740602  .v..o.......'t..
 1b24 93173700 b385f500 3306f600 3305e540  ..7.....3...3..@
 1b34 630e0700 57779505 e30c07fe e31ed7fc  c...Ww..........
 1b44 07848522 27048622 6ff09ffd 67800000  ..."'.."o...g...
 1b54 d776a005 6f000002 07f40502 27740602  .v..o.......'t..
 1b64 93173700 b385f500 3306f600 3305e540  ..7.....3...3..@
 1b74 630e0700 5777a505 e30c07fe e31ed7fc  c...Ww..........
 1b84 07848562 27048662 6ff09ffd 67800000  ...b'..bo...g...
 1b94 d776b005 6f000002 07f40502 27740602  .v..o.......'t..
 1ba4 93173700 b385f500 3306f600 3305e540  ..7.....3...3..@
 1bb4 630e0700 5777b505 e30c07fe e31ed7fc  c...Ww..........
 1bc4 078485e2 270486e2 6ff09ffd 67800000  ....'...o...g...
 1bd4 130101ff 23341100 23308100 37150000  ....#4..#0..7...
 1be4 1305050e 97e0ffff e7808044 13040500  ...........D....
 1bf4 37150000 1305c510 97e0ffff e7808052  7..............R
 1c04 13151500 33648500 37150000 1305c513  ....3d..7.......
 1c14 97e0ffff e780c061 13152500 3364a400  .......a..%.3d..
 1c24 37150000 1305c516 97e0ffff e7804060  7.............@`
 1c34 13153500 3364a400 37150000 1305c519  ..5.3d..7.......
 1c44 97e0ffff e780006f 13154500 3364a400  .......o..E.3d..
 1c54 37150000 1305c51c 97e0ffff e780403d  7.............@=
 1c64 13155500 3364a400 37150000 13058522  ..U.3d..7......"
 1c74 97e0ffff e780004b 13156500 3364a400  .......K..e.3d..
 1c84 37150000 13058528 97e0ffff e780405a  7......(......@Z
 1c94 13157500 3364a400 37150000 1305852e  ..u.3d..7.......
 1ca4 97e0ffff e780c058 13158500 3364a400  .......X....3d..
 1cb4 37150000 13058534 97e0ffff e7808067  7......4.......g
 1cc4 13159500 3364a400 37150000 1305853a  ....3d..7......:
 1cd4 97e0ffff e780c035 1315a500 3364a400  .......5....3d..
 1ce4 37150000 13058546 97e0ffff e7808043  7......F.......C
 1cf4 1315b500 3364a400 37150000 13050553  ....3d..7......S
 1d04 97e0ffff e780c052 1315c500 3364a400  .......R....3d..
 1d14 37150000 1305855f 97e0ffff e7804051  7......_......@Q
 1d24 1315d500 3364a400 37150000 1305056c  ....3d..7......l
 1d34 97e0ffff e7800060 1315e500 3364a400  .......`....3d..
 1d44 37150000 13058578 97f0ffff e7808093  7......x........
 1d54 1315f500 3364a400 37250000 1305c583  ....3d..7%......
 1d64 97f0ffff e7800092 13150501 3364a400  ............3d..
 1d74 37250000 1305458b 97f0ffff e78000b6  7%....E.........
 1d84 13151501 3364a400 37250000 1305c591  ....3d..7%......
 1d94 97f0ffff e78080d2 13152501 3364a400  ..........%.3d..
 1da4 37250000 1305c598 97f0ffff e780c0f4  7%..............
 1db4 13153501 3364a400 37250000 1305859f  ..5.3d..7%......
 1dc4 97f0ffff e78040f3 13154501 3364a400  ......@...E.3d..
 1dd4 37250000 130545a6 97f0ffff e780c013  7%....E.........
 1de4 13155501 3364a400 37250000 130545ad  ..U.3d..7%....E.
 1df4 97e0ffff e7800054 13156501 3364a400  .......T..e.3d..
 1e04 37250000 130545b1 97e0ffff e7808052  7%....E........R
 1e14 13157501 3364a400 37250000 130545b5  ..u.3d..7%....E.
 1e24 97e0ffff e7800051 13158501 3364a400  .......Q....3d..
 1e34 37250000 130545b9 97e0ffff e780804f  7%....E........O
 1e44 13159501 3365a400 b7050001 37060004  ....3e......7...
 1e54 1b06f6ff 23b0c500 b7050001 23b4a500  ....#.......#...
 1e64 13050000 83308100 03340100 13010101  .....0...4......
 1e74 67800000                             g...
Contents of section .comment:
 0000 4c696e6b 65723a20 4c4c4420 31352e30  Linker: LLD 15.0
 0010 2e300000 636c616e 67207665 7273696f  .0..clang versio
 0020 6e203135 2e302e30 20286874 7470733a  n 15.0.0 (https:
 0030 2f2f6769 74687562 2e636f6d 2f6c6c76  //github.com/llv
 0040 6d2f6c6c 766d2d70 726f6a65 63742e67  m/llvm-project.g
 0050 69742038 35336530 61613432 34653430  it 853e0aa424e40
 0060 62383064 30626461 31646438 61333437  b80d0bda1dd8a347
 0070 31613336 31303438 65346229 00        1a361048e4b).
Contents of section .riscv.attributes:
 0000 414e0000 00726973 63760001 44000000  AN...riscv..D...
 0010 04100572 76363469 3270305f 6d327030  ...rv64i2p0_m2p0
 0020 5f663270 305f6432 70305f76 3170305f  _f2p0_d2p0_v1p0_
 0030 7a766c31 32386231 70305f7a 766c3332  zvl128b1p0_zvl32
 0040 62317030 5f7a766c 36346231 703000    b1p0_zvl64b1p0.
Contents of section .symtab:
 0000 00000000 00000000 00000000 00000000  ................
 0010 00000000 00000000 01000000 00000100  ................
 0020 00000000 00000000 00000000 00000000  ................
 0030 07000000 00000100 00000000 00000000  ................
 0040 00000000 00000000 13000000 00000100  ................
 0050 10000000 00000000 00000000 00000000  ................
 0060 17000000 0400f1ff 00000000 00000000  ................
 0070 00000000 00000000 2c000000 1000f1ff  ........,.......
 0080 00000100 00000000 00000000 00000000  ................
 0090 31000000 12000200 d41b0000 00000000  1...............
 00a0 a4020000 00000000 36000000 12000200  ........6.......
 00b0 14000000 00000000 1c000000 00000000  ................
 00c0 3d000000 12000200 30000000 00000000  =.......0.......
 00d0 f4000000 00000000 5b000000 12000200  ........[.......
 00e0 24010000 00000000 0c010000 00000000  $...............
 00f0 7a000000 12000200 30020000 00000000  z.......0.......
 0100 04010000 00000000 99000000 12000200  ................
 0110 34030000 00000000 f8000000 00000000  4...............
 0120 b8000000 12000200 2c040000 00000000  ........,.......
 0130 24010000 00000000 dd000000 12000200  $...............
 0140 50050000 00000000 34010000 00000000  P.......4.......
 0150 03010000 12000200 84060000 00000000  ................
 0160 2c010000 00000000 29010000 12000200  ,.......).......
 0170 b0070000 00000000 2c010000 00000000  ........,.......
 0180 4f010000 12000200 dc080000 00000000  O...............
 0190 e0010000 00000000 77010000 12000200  ........w.......
 01a0 bc0a0000 00000000 3c020000 00000000  ........<.......
 01b0 a0010000 12000200 f80c0000 00000000  ................
 01c0 20020000 00000000 c9010000 12000200   ...............
 01d0 180f0000 00000000 c8010000 00000000  ................
 01e0 f2010000 12000200 e0100000 00000000  ................
 01f0 2c000000 00000000 11020000 12000200  ,...............
 0200 0c110000 00000000 30000000 00000000  ........0.......
 0210 31020000 12000200 3c110000 00000000  1.......<.......
 0220 30000000 00000000 51020000 12000200  0.......Q.......
 0230 6c110000 00000000 30000000 00000000  l.......0.......
 0240 72020000 12000200 9c110000 00000000  r...............
 0250 30000000 00000000 92020000 12000200  0...............
 0260 cc110000 00000000 5c000000 00000000  ........\.......
 0270 ad020000 12000200 28120000 00000000  ........(.......
 0280 60000000 00000000 c9020000 12000200  `...............
 0290 88120000 00000000 60000000 00000000  ........`.......
 02a0 e5020000 12000200 e8120000 00000000  ................
 02b0 60000000 00000000 02030000 12000200  `...............
 02c0 48130000 00000000 60000000 00000000  H.......`.......
 02d0 1e030000 12000200 a8130000 00000000  ................
 02e0 c0000000 00000000 39030000 12000200  ........9.......
 02f0 68140000 00000000 c8000000 00000000  h...............
 0300 55030000 12000200 30150000 00000000  U.......0.......
 0310 c8000000 00000000 71030000 12000200  ........q.......
 0320 f8150000 00000000 c8000000 00000000  ................
 0330 8e030000 12000200 c0160000 00000000  ................
 0340 c8000000 00000000 aa030000 12000200  ................
 0350 88170000 00000000 b4000000 00000000  ................
 0360 c5030000 12000200 3c180000 00000000  ........<.......
 0370 78000000 00000000 ee030000 12000200  x...............
 0380 b4180000 00000000 68000000 00000000  ........h.......
 0390 0b040000 12000200 1c190000 00000000  ................
 03a0 70000000 00000000 29040000 12000200  p.......).......
 03b0 8c190000 00000000 6c000000 00000000  ........l.......
 03c0 47040000 12000200 f8190000 00000000  G...............
 03d0 6c000000 00000000 66040000 12000200  l.......f.......
 03e0 641a0000 00000000 70000000 00000000  d.......p.......
 03f0 84040000 12000200 d41a0000 00000000  ................
 0400 40000000 00000000 a1040000 12000200  @...............
 0410 141b0000 00000000 40000000 00000000  ........@.......
 0420 be040000 12000200 541b0000 00000000  ........T.......
 0430 40000000 00000000 db040000 12000200  @...............
 0440 941b0000 00000000 40000000 00000000  ........@.......
 0450 f8040000 1000f1ff 00000001 00000000  ................
 0460 00000000 00000000 08050000 1000f1ff  ................
 0470 08000001 00000000 00000000 00000000  ................
Contents of section .shstrtab:
 0000 002e7465 78742e69 6e697400 2e746578  ..text.init..tex
 0010 74002e63 6f6d6d65 6e74002e 72697363  t..comment..risc
 0020 762e6174 74726962 75746573 002e7379  v.attributes..sy
 0030 6d746162 002e7368 73747274 6162002e  mtab..shstrtab..
 0040 73747274 616200                      strtab.
Contents of section .strtab:
 0000 00656e74 7279002e 4c706372 656c5f68  .entry..Lpcrel_h
 0010 69300065 6e640074 6573745f 76656374  i0.end.test_vect
 0020 6f725f6d 656d6370 792e6300 5f5f7370  or_memcpy.c.__sp
 0030 006d6169 6e006d65 6d736574 00766563  .main.memset.vec
 0040 746f725f 6d656d63 70795f68 61726e65  tor_memcpy_harne
 0050 73735f75 696e7438 5f740076 6563746f  ss_uint8_t.vecto
 0060 725f6d65 6d637079 5f686172 6e657373  r_memcpy_harness
 0070 5f75696e 7431365f 74007665 63746f72  _uint16_t.vector
 0080 5f6d656d 6370795f 6861726e 6573735f  _memcpy_harness_
 0090 75696e74 33325f74 00766563 746f725f  uint32_t.vector_
 00a0 6d656d63 70795f68 61726e65 73735f75  memcpy_harness_u
 00b0 696e7436 345f7400 76656374 6f725f6d  int64_t.vector_m
 00c0 656d6370 795f6d61 736b6564 5f686172  emcpy_masked_har
 00d0 6e657373 5f75696e 74385f74 00766563  ness_uint8_t.vec
 00e0 746f725f 6d656d63 70795f6d 61736b65  tor_memcpy_maske
 00f0 645f6861 726e6573 735f7569 6e743136  d_harness_uint16
 0100 5f740076 6563746f 725f6d65 6d637079  _t.vector_memcpy
 0110 5f6d6173 6b65645f 6861726e 6573735f  _masked_harness_
 0120 75696e74 33325f74 00766563 746f725f  uint32_t.vector_
 0130 6d656d63 70795f6d 61736b65 645f6861  memcpy_masked_ha
 0140 726e6573 735f7569 6e743634 5f740076  rness_uint64_t.v
 0150 6563746f 725f6d65 6d637079 5f736567  ector_memcpy_seg
 0160 6d656e74 65645f68 61726e65 73735f75  mented_harness_u
 0170 696e7438 5f740076 6563746f 725f6d65  int8_t.vector_me
 0180 6d637079 5f736567 6d656e74 65645f68  mcpy_segmented_h
 0190 61726e65 73735f75 696e7431 365f7400  arness_uint16_t.
 01a0 76656374 6f725f6d 656d6370 795f7365  vector_memcpy_se
 01b0 676d656e 7465645f 6861726e 6573735f  gmented_harness_
 01c0 75696e74 33325f74 00766563 746f725f  uint32_t.vector_
 01d0 6d656d63 70795f73 65676d65 6e746564  memcpy_segmented
 01e0 5f686172 6e657373 5f75696e 7436345f  _harness_uint64_
 01f0 74007665 63746f72 5f6d656d 6370795f  t.vector_memcpy_
 0200 756e6974 5f737472 6964655f 65386d38  unit_stride_e8m8
 0210 00766563 746f725f 6d656d63 70795f75  .vector_memcpy_u
 0220 6e69745f 73747269 64655f65 31366d38  nit_stride_e16m8
 0230 00766563 746f725f 6d656d63 70795f75  .vector_memcpy_u
 0240 6e69745f 73747269 64655f65 33326d38  nit_stride_e32m8
 0250 00766563 746f725f 6d656d63 70795f75  .vector_memcpy_u
 0260 6e69745f 73747269 64655f65 33326d66  nit_stride_e32mf
 0270 32007665 63746f72 5f6d656d 6370795f  2.vector_memcpy_
 0280 756e6974 5f737472 6964655f 6536346d  unit_stride_e64m
 0290 32007665 63746f72 5f6d656d 6370795f  2.vector_memcpy_
 02a0 73747269 6465645f 65386d38 00766563  strided_e8m8.vec
 02b0 746f725f 6d656d63 70795f73 74726964  tor_memcpy_strid
 02c0 65645f65 31366d38 00766563 746f725f  ed_e16m8.vector_
 02d0 6d656d63 70795f73 74726964 65645f65  memcpy_strided_e
 02e0 33326d38 00766563 746f725f 6d656d63  32m8.vector_memc
 02f0 70795f73 74726964 65645f65 33326d66  py_strided_e32mf
 0300 32007665 63746f72 5f6d656d 6370795f  2.vector_memcpy_
 0310 73747269 6465645f 6536346d 32007665  strided_e64m2.ve
 0320 63746f72 5f6d656d 6370795f 696e6465  ctor_memcpy_inde
 0330 7865645f 65386d38 00766563 746f725f  xed_e8m8.vector_
 0340 6d656d63 70795f69 6e646578 65645f65  memcpy_indexed_e
 0350 31366d38 00766563 746f725f 6d656d63  16m8.vector_memc
 0360 70795f69 6e646578 65645f65 33326d38  py_indexed_e32m8
 0370 00766563 746f725f 6d656d63 70795f69  .vector_memcpy_i
 0380 6e646578 65645f65 33326d66 32007665  ndexed_e32mf2.ve
 0390 63746f72 5f6d656d 6370795f 696e6465  ctor_memcpy_inde
 03a0 7865645f 6536346d 32007665 63746f72  xed_e64m2.vector
 03b0 5f6d656d 6370795f 6d61736b 65645f65  _memcpy_masked_e
 03c0 33326d38 00766563 746f725f 6d656d63  32m8.vector_memc
 03d0 70795f6d 61736b65 645f6279 74656d61  py_masked_bytema
 03e0 736b5f6c 6f61645f 6533326d 38007665  sk_load_e32m8.ve
 03f0 63746f72 5f6d656d 6370795f 7365676d  ctor_memcpy_segm
 0400 656e7465 645f6538 6d320076 6563746f  ented_e8m2.vecto
 0410 725f6d65 6d637079 5f736567 6d656e74  r_memcpy_segment
 0420 65645f65 31366d32 00766563 746f725f  ed_e16m2.vector_
 0430 6d656d63 70795f73 65676d65 6e746564  memcpy_segmented
 0440 5f653332 6d320076 6563746f 725f6d65  _e32m2.vector_me
 0450 6d637079 5f736567 6d656e74 65645f65  mcpy_segmented_e
 0460 33326d66 32007665 63746f72 5f6d656d  32mf2.vector_mem
 0470 6370795f 7365676d 656e7465 645f6536  cpy_segmented_e6
 0480 346d3200 76656374 6f725f6d 656d6370  4m2.vector_memcp
 0490 795f7768 6f6c6572 65675f65 36346d31  y_wholereg_e64m1
 04a0 00766563 746f725f 6d656d63 70795f77  .vector_memcpy_w
 04b0 686f6c65 7265675f 6536346d 32007665  holereg_e64m2.ve
 04c0 63746f72 5f6d656d 6370795f 77686f6c  ctor_memcpy_whol
 04d0 65726567 5f653634 6d340076 6563746f  ereg_e64m4.vecto
 04e0 725f6d65 6d637079 5f77686f 6c657265  r_memcpy_wholere
 04f0 675f6536 346d3800 6f757470 75744174  g_e64m8.outputAt
 0500 74656d70 74656400 6f757470 75745375  tempted.outputSu
 0510 63636565 64656400                    cceeded.

Disassembly of section .text.init:

0000000000000000 <entry>:
       0: 17 01 01 00  	auipc	sp, 16
       4: 13 01 01 02  	addi	sp, sp, 32
       8: 97 20 00 00  	auipc	ra, 2
       c: e7 80 c0 bc  	jalr	-1076(ra)

0000000000000010 <end>:
      10: 6f 00 00 00  	j	0x10 <end>

Disassembly of section .text:

0000000000000014 <memset>:
      14: 63 0c 06 00  	beqz	a2, 0x2c <memset+0x18>
      18: 93 06 05 00  	mv	a3, a0
      1c: 23 80 b6 00  	sb	a1, 0(a3)
      20: 13 06 f6 ff  	addi	a2, a2, -1
      24: 93 86 16 00  	addi	a3, a3, 1
      28: e3 1a 06 fe  	bnez	a2, 0x1c <memset+0x8>
      2c: 67 80 00 00  	ret

0000000000000030 <vector_memcpy_harness_uint8_t>:
      30: 13 01 01 ee  	addi	sp, sp, -288
      34: 23 3c 11 10  	sd	ra, 280(sp)
      38: 23 38 81 10  	sd	s0, 272(sp)
      3c: 23 34 91 10  	sd	s1, 264(sp)
      40: 23 30 21 11  	sd	s2, 256(sp)
      44: 13 04 05 00  	mv	s0, a0
      48: 93 04 01 08  	addi	s1, sp, 128
      4c: 13 05 01 08  	addi	a0, sp, 128
      50: 13 06 00 08  	li	a2, 128
      54: 13 09 00 08  	li	s2, 128
      58: 93 05 00 00  	li	a1, 0
      5c: 97 00 00 00  	auipc	ra, 0
      60: e7 80 80 fb  	jalr	-72(ra)
      64: 13 05 01 00  	mv	a0, sp
      68: 13 06 00 08  	li	a2, 128
      6c: 93 05 00 00  	li	a1, 0
      70: 97 00 00 00  	auipc	ra, 0
      74: e7 80 40 fa  	jalr	-92(ra)
      78: 13 05 00 00  	li	a0, 0
      7c: b3 85 a4 00  	add	a1, s1, a0
      80: 23 80 a5 00  	sb	a0, 0(a1)
      84: 13 05 15 00  	addi	a0, a0, 1
      88: e3 1a 25 ff  	bne	a0, s2, 0x7c <vector_memcpy_harness_uint8_t+0x4c>
      8c: 93 04 01 08  	addi	s1, sp, 128
      90: 13 05 e0 06  	li	a0, 110
      94: 93 05 01 08  	addi	a1, sp, 128
      98: 13 06 01 00  	mv	a2, sp
      9c: 13 09 01 00  	mv	s2, sp
      a0: e7 00 04 00  	jalr	s0
      a4: 13 05 00 00  	li	a0, 0
      a8: 93 05 d0 06  	li	a1, 109
      ac: 13 76 f5 0f  	andi	a2, a0, 255
      b0: b3 86 c4 00  	add	a3, s1, a2
      b4: 83 c6 06 00  	lbu	a3, 0(a3)
      b8: 33 07 c9 00  	add	a4, s2, a2
      bc: 03 47 07 00  	lbu	a4, 0(a4)
      c0: 63 94 e6 04  	bne	a3, a4, 0x108 <vector_memcpy_harness_uint8_t+0xd8>
      c4: 13 05 15 00  	addi	a0, a0, 1
      c8: e3 62 b6 fe  	bltu	a2, a1, 0xac <vector_memcpy_harness_uint8_t+0x7c>
      cc: 83 45 e1 06  	lbu	a1, 110(sp)
      d0: 13 05 00 00  	li	a0, 0
      d4: 63 9c 05 02  	bnez	a1, 0x10c <vector_memcpy_harness_uint8_t+0xdc>
      d8: 13 05 f0 06  	li	a0, 111
      dc: 93 05 01 00  	mv	a1, sp
      e0: 13 16 85 03  	slli	a2, a0, 56
      e4: 93 56 86 43  	srai	a3, a2, 56
      e8: 63 cc 06 00  	bltz	a3, 0x100 <vector_memcpy_harness_uint8_t+0xd0>
      ec: 93 76 f5 0f  	andi	a3, a0, 255
      f0: b3 86 d5 00  	add	a3, a1, a3
      f4: 83 c6 06 00  	lbu	a3, 0(a3)
      f8: 13 05 15 00  	addi	a0, a0, 1
      fc: e3 82 06 fe  	beqz	a3, 0xe0 <vector_memcpy_harness_uint8_t+0xb0>
     100: 13 55 f6 03  	srli	a0, a2, 63
     104: 6f 00 80 00  	j	0x10c <vector_memcpy_harness_uint8_t+0xdc>
     108: 13 05 00 00  	li	a0, 0
     10c: 83 30 81 11  	ld	ra, 280(sp)
     110: 03 34 01 11  	ld	s0, 272(sp)
     114: 83 34 81 10  	ld	s1, 264(sp)
     118: 03 39 01 10  	ld	s2, 256(sp)
     11c: 13 01 01 12  	addi	sp, sp, 288
     120: 67 80 00 00  	ret

0000000000000124 <vector_memcpy_harness_uint16_t>:
     124: 13 01 01 de  	addi	sp, sp, -544
     128: 23 3c 11 20  	sd	ra, 536(sp)
     12c: 23 38 81 20  	sd	s0, 528(sp)
     130: 23 34 91 20  	sd	s1, 520(sp)
     134: 23 30 21 21  	sd	s2, 512(sp)
     138: 13 04 05 00  	mv	s0, a0
     13c: 13 05 01 10  	addi	a0, sp, 256
     140: 13 06 00 10  	li	a2, 256
     144: 93 04 01 10  	addi	s1, sp, 256
     148: 93 05 00 00  	li	a1, 0
     14c: 97 00 00 00  	auipc	ra, 0
     150: e7 80 80 ec  	jalr	-312(ra)
     154: 13 05 01 00  	mv	a0, sp
     158: 13 06 00 10  	li	a2, 256
     15c: 93 05 00 00  	li	a1, 0
     160: 97 00 00 00  	auipc	ra, 0
     164: e7 80 40 eb  	jalr	-332(ra)
     168: 13 05 00 00  	li	a0, 0
     16c: 93 05 00 08  	li	a1, 128
     170: 23 90 a4 00  	sh	a0, 0(s1)
     174: 13 05 15 00  	addi	a0, a0, 1
     178: 93 84 24 00  	addi	s1, s1, 2
     17c: e3 1a b5 fe  	bne	a0, a1, 0x170 <vector_memcpy_harness_uint16_t+0x4c>
     180: 93 04 01 10  	addi	s1, sp, 256
     184: 13 05 e0 06  	li	a0, 110
     188: 93 05 01 10  	addi	a1, sp, 256
     18c: 13 06 01 00  	mv	a2, sp
     190: 13 09 01 00  	mv	s2, sp
     194: e7 00 04 00  	jalr	s0
     198: 13 05 00 00  	li	a0, 0
     19c: 93 05 d0 06  	li	a1, 109
     1a0: 13 16 05 03  	slli	a2, a0, 48
     1a4: 93 56 f6 02  	srli	a3, a2, 47
     1a8: 33 87 d4 00  	add	a4, s1, a3
     1ac: 03 57 07 00  	lhu	a4, 0(a4)
     1b0: b3 06 d9 00  	add	a3, s2, a3
     1b4: 83 d6 06 00  	lhu	a3, 0(a3)
     1b8: 63 1e d7 04  	bne	a4, a3, 0x214 <vector_memcpy_harness_uint16_t+0xf0>
     1bc: 13 56 06 03  	srli	a2, a2, 48
     1c0: 13 05 15 00  	addi	a0, a0, 1
     1c4: e3 6e b6 fc  	bltu	a2, a1, 0x1a0 <vector_memcpy_harness_uint16_t+0x7c>
     1c8: 83 55 c1 0d  	lhu	a1, 220(sp)
     1cc: 13 05 00 00  	li	a0, 0
     1d0: 63 94 05 04  	bnez	a1, 0x218 <vector_memcpy_harness_uint16_t+0xf4>
     1d4: 13 05 e0 06  	li	a0, 110
     1d8: 93 05 e0 07  	li	a1, 126
     1dc: 13 06 01 00  	mv	a2, sp
     1e0: 93 16 05 03  	slli	a3, a0, 48
     1e4: 93 d6 06 03  	srli	a3, a3, 48
     1e8: 63 e0 d5 02  	bltu	a1, a3, 0x208 <vector_memcpy_harness_uint16_t+0xe4>
     1ec: 13 05 15 00  	addi	a0, a0, 1
     1f0: 13 17 05 03  	slli	a4, a0, 48
     1f4: 13 57 07 03  	srli	a4, a4, 48
     1f8: 13 17 17 00  	slli	a4, a4, 1
     1fc: 33 07 e6 00  	add	a4, a2, a4
     200: 03 57 07 00  	lhu	a4, 0(a4)
     204: e3 0e 07 fc  	beqz	a4, 0x1e0 <vector_memcpy_harness_uint16_t+0xbc>
     208: 13 05 e0 07  	li	a0, 126
     20c: 33 35 d5 00  	sltu	a0, a0, a3
     210: 6f 00 80 00  	j	0x218 <vector_memcpy_harness_uint16_t+0xf4>
     214: 13 05 00 00  	li	a0, 0
     218: 83 30 81 21  	ld	ra, 536(sp)
     21c: 03 34 01 21  	ld	s0, 528(sp)
     220: 83 34 81 20  	ld	s1, 520(sp)
     224: 03 39 01 20  	ld	s2, 512(sp)
     228: 13 01 01 22  	addi	sp, sp, 544
     22c: 67 80 00 00  	ret

0000000000000230 <vector_memcpy_harness_uint32_t>:
     230: 13 01 01 bd  	addi	sp, sp, -1072
     234: 23 34 11 42  	sd	ra, 1064(sp)
     238: 23 30 81 42  	sd	s0, 1056(sp)
     23c: 23 3c 91 40  	sd	s1, 1048(sp)
     240: 23 38 21 41  	sd	s2, 1040(sp)
     244: 13 04 05 00  	mv	s0, a0
     248: 13 05 01 21  	addi	a0, sp, 528
     24c: 13 06 00 20  	li	a2, 512
     250: 93 04 01 21  	addi	s1, sp, 528
     254: 93 05 00 00  	li	a1, 0
     258: 97 00 00 00  	auipc	ra, 0
     25c: e7 80 c0 db  	jalr	-580(ra)
     260: 13 05 01 01  	addi	a0, sp, 16
     264: 13 06 00 20  	li	a2, 512
     268: 93 05 00 00  	li	a1, 0
     26c: 97 00 00 00  	auipc	ra, 0
     270: e7 80 80 da  	jalr	-600(ra)
     274: 13 05 00 00  	li	a0, 0
     278: 93 05 00 08  	li	a1, 128
     27c: 23 a0 a4 00  	sw	a0, 0(s1)
     280: 13 05 15 00  	addi	a0, a0, 1
     284: 93 84 44 00  	addi	s1, s1, 4
     288: e3 1a b5 fe  	bne	a0, a1, 0x27c <vector_memcpy_harness_uint32_t+0x4c>
     28c: 93 04 01 21  	addi	s1, sp, 528
     290: 13 05 e0 06  	li	a0, 110
     294: 93 05 01 21  	addi	a1, sp, 528
     298: 13 06 01 01  	addi	a2, sp, 16
     29c: 13 09 01 01  	addi	s2, sp, 16
     2a0: e7 00 04 00  	jalr	s0
     2a4: 13 06 00 00  	li	a2, 0
     2a8: 13 05 d0 06  	li	a0, 109
     2ac: 93 05 06 00  	mv	a1, a2
     2b0: 13 16 06 02  	slli	a2, a2, 32
     2b4: 13 56 e6 01  	srli	a2, a2, 30
     2b8: b3 86 c4 00  	add	a3, s1, a2
     2bc: 83 a6 06 00  	lw	a3, 0(a3)
     2c0: 33 06 c9 00  	add	a2, s2, a2
     2c4: 03 26 06 00  	lw	a2, 0(a2)
     2c8: 63 98 c6 04  	bne	a3, a2, 0x318 <vector_memcpy_harness_uint32_t+0xe8>
     2cc: 1b 86 15 00  	addiw	a2, a1, 1
     2d0: e3 ee a5 fc  	bltu	a1, a0, 0x2ac <vector_memcpy_harness_uint32_t+0x7c>
     2d4: 83 25 81 1c  	lw	a1, 456(sp)
     2d8: 13 05 00 00  	li	a0, 0
     2dc: 63 90 05 04  	bnez	a1, 0x31c <vector_memcpy_harness_uint32_t+0xec>
     2e0: 93 06 e0 06  	li	a3, 110
     2e4: 13 05 e0 07  	li	a0, 126
     2e8: 93 05 01 01  	addi	a1, sp, 16
     2ec: 13 86 06 00  	mv	a2, a3
     2f0: 63 6e d5 00  	bltu	a0, a3, 0x30c <vector_memcpy_harness_uint32_t+0xdc>
     2f4: 9b 06 16 00  	addiw	a3, a2, 1
     2f8: 13 97 06 02  	slli	a4, a3, 32
     2fc: 13 57 e7 01  	srli	a4, a4, 30
     300: 33 87 e5 00  	add	a4, a1, a4
     304: 03 27 07 00  	lw	a4, 0(a4)
     308: e3 02 07 fe  	beqz	a4, 0x2ec <vector_memcpy_harness_uint32_t+0xbc>
     30c: 13 05 e0 07  	li	a0, 126
     310: 33 35 c5 00  	sltu	a0, a0, a2
     314: 6f 00 80 00  	j	0x31c <vector_memcpy_harness_uint32_t+0xec>
     318: 13 05 00 00  	li	a0, 0
     31c: 83 30 81 42  	ld	ra, 1064(sp)
     320: 03 34 01 42  	ld	s0, 1056(sp)
     324: 83 34 81 41  	ld	s1, 1048(sp)
     328: 03 39 01 41  	ld	s2, 1040(sp)
     32c: 13 01 01 43  	addi	sp, sp, 1072
     330: 67 80 00 00  	ret

0000000000000334 <vector_memcpy_harness_uint64_t>:
     334: 13 01 01 81  	addi	sp, sp, -2032
     338: 23 34 11 7e  	sd	ra, 2024(sp)
     33c: 23 30 81 7e  	sd	s0, 2016(sp)
     340: 23 3c 91 7c  	sd	s1, 2008(sp)
     344: 23 38 21 7d  	sd	s2, 2000(sp)
     348: 13 01 01 fc  	addi	sp, sp, -64
     34c: 13 04 05 00  	mv	s0, a0
     350: 13 05 01 41  	addi	a0, sp, 1040
     354: 13 06 00 40  	li	a2, 1024
     358: 93 04 01 41  	addi	s1, sp, 1040
     35c: 93 05 00 00  	li	a1, 0
     360: 97 00 00 00  	auipc	ra, 0
     364: e7 80 40 cb  	jalr	-844(ra)
     368: 13 05 01 01  	addi	a0, sp, 16
     36c: 13 06 00 40  	li	a2, 1024
     370: 93 05 00 00  	li	a1, 0
     374: 97 00 00 00  	auipc	ra, 0
     378: e7 80 00 ca  	jalr	-864(ra)
     37c: 13 05 00 00  	li	a0, 0
     380: 93 05 00 08  	li	a1, 128
     384: 23 b0 a4 00  	sd	a0, 0(s1)
     388: 13 05 15 00  	addi	a0, a0, 1
     38c: 93 84 84 00  	addi	s1, s1, 8
     390: e3 1a b5 fe  	bne	a0, a1, 0x384 <vector_memcpy_harness_uint64_t+0x50>
     394: 93 04 01 41  	addi	s1, sp, 1040
     398: 13 05 e0 06  	li	a0, 110
     39c: 93 05 01 41  	addi	a1, sp, 1040
     3a0: 13 06 01 01  	addi	a2, sp, 16
     3a4: 13 09 01 01  	addi	s2, sp, 16
     3a8: e7 00 04 00  	jalr	s0
     3ac: 13 05 00 00  	li	a0, 0
     3b0: 93 05 00 37  	li	a1, 880
     3b4: 33 86 a4 00  	add	a2, s1, a0
     3b8: 03 36 06 00  	ld	a2, 0(a2)
     3bc: b3 06 a9 00  	add	a3, s2, a0
     3c0: 83 b6 06 00  	ld	a3, 0(a3)
     3c4: 63 14 d6 04  	bne	a2, a3, 0x40c <vector_memcpy_harness_uint64_t+0xd8>
     3c8: 13 05 85 00  	addi	a0, a0, 8
     3cc: e3 14 b5 fe  	bne	a0, a1, 0x3b4 <vector_memcpy_harness_uint64_t+0x80>
     3d0: 83 35 01 38  	ld	a1, 896(sp)
     3d4: 13 05 00 00  	li	a0, 0
     3d8: 63 9c 05 02  	bnez	a1, 0x410 <vector_memcpy_harness_uint64_t+0xdc>
     3dc: 13 05 81 38  	addi	a0, sp, 904
     3e0: 93 06 e0 06  	li	a3, 110
     3e4: 93 05 f0 07  	li	a1, 127
     3e8: 13 86 06 00  	mv	a2, a3
     3ec: 63 8a b6 00  	beq	a3, a1, 0x400 <vector_memcpy_harness_uint64_t+0xcc>
     3f0: 03 37 05 00  	ld	a4, 0(a0)
     3f4: 93 06 16 00  	addi	a3, a2, 1
     3f8: 13 05 85 00  	addi	a0, a0, 8
     3fc: e3 06 07 fe  	beqz	a4, 0x3e8 <vector_memcpy_harness_uint64_t+0xb4>
     400: 13 05 e0 07  	li	a0, 126
     404: 33 35 c5 00  	sltu	a0, a0, a2
     408: 6f 00 80 00  	j	0x410 <vector_memcpy_harness_uint64_t+0xdc>
     40c: 13 05 00 00  	li	a0, 0
     410: 13 01 01 04  	addi	sp, sp, 64
     414: 83 30 81 7e  	ld	ra, 2024(sp)
     418: 03 34 01 7e  	ld	s0, 2016(sp)
     41c: 83 34 81 7d  	ld	s1, 2008(sp)
     420: 03 39 01 7d  	ld	s2, 2000(sp)
     424: 13 01 01 7f  	addi	sp, sp, 2032
     428: 67 80 00 00  	ret

000000000000042c <vector_memcpy_masked_harness_uint8_t>:
     42c: 13 01 01 ed  	addi	sp, sp, -304
     430: 23 34 11 12  	sd	ra, 296(sp)
     434: 23 30 81 12  	sd	s0, 288(sp)
     438: 23 3c 91 10  	sd	s1, 280(sp)
     43c: 23 38 21 11  	sd	s2, 272(sp)
     440: 23 34 31 11  	sd	s3, 264(sp)
     444: 13 04 05 00  	mv	s0, a0
     448: 93 04 81 08  	addi	s1, sp, 136
     44c: 13 05 81 08  	addi	a0, sp, 136
     450: 13 06 00 08  	li	a2, 128
     454: 13 09 00 08  	li	s2, 128
     458: 93 05 00 00  	li	a1, 0
     45c: 97 00 00 00  	auipc	ra, 0
     460: e7 80 80 bb  	jalr	-1096(ra)
     464: 13 05 81 00  	addi	a0, sp, 8
     468: 13 06 00 08  	li	a2, 128
     46c: 93 09 81 00  	addi	s3, sp, 8
     470: 93 05 00 00  	li	a1, 0
     474: 97 00 00 00  	auipc	ra, 0
     478: e7 80 00 ba  	jalr	-1120(ra)
     47c: 13 05 00 00  	li	a0, 0
     480: 93 05 b0 0b  	li	a1, 187
     484: 33 86 a4 00  	add	a2, s1, a0
     488: 23 00 a6 00  	sb	a0, 0(a2)
     48c: 33 86 a9 00  	add	a2, s3, a0
     490: 13 05 15 00  	addi	a0, a0, 1
     494: 23 00 b6 00  	sb	a1, 0(a2)
     498: e3 16 25 ff  	bne	a0, s2, 0x484 <vector_memcpy_masked_harness_uint8_t+0x58>
     49c: 93 04 e0 06  	li	s1, 110
     4a0: 13 09 81 08  	addi	s2, sp, 136
     4a4: 13 05 e0 06  	li	a0, 110
     4a8: 93 05 81 08  	addi	a1, sp, 136
     4ac: 13 06 81 00  	addi	a2, sp, 8
     4b0: 93 09 81 00  	addi	s3, sp, 8
     4b4: e7 00 04 00  	jalr	s0
     4b8: 13 05 00 00  	li	a0, 0
     4bc: 93 05 b0 0b  	li	a1, 187
     4c0: 6f 00 c0 01  	j	0x4dc <vector_memcpy_masked_harness_uint8_t+0xb0>
     4c4: b3 06 a9 00  	add	a3, s2, a0
     4c8: 83 c6 06 00  	lbu	a3, 0(a3)
     4cc: 03 46 06 00  	lbu	a2, 0(a2)
     4d0: 63 90 c6 06  	bne	a3, a2, 0x530 <vector_memcpy_masked_harness_uint8_t+0x104>
     4d4: 13 05 15 00  	addi	a0, a0, 1
     4d8: 63 0e 95 00  	beq	a0, s1, 0x4f4 <vector_memcpy_masked_harness_uint8_t+0xc8>
     4dc: 93 76 15 00  	andi	a3, a0, 1
     4e0: 33 86 a9 00  	add	a2, s3, a0
     4e4: e3 90 06 fe  	bnez	a3, 0x4c4 <vector_memcpy_masked_harness_uint8_t+0x98>
     4e8: 03 46 06 00  	lbu	a2, 0(a2)
     4ec: e3 04 b6 fe  	beq	a2, a1, 0x4d4 <vector_memcpy_masked_harness_uint8_t+0xa8>
     4f0: 6f 00 00 04  	j	0x530 <vector_memcpy_masked_harness_uint8_t+0x104>
     4f4: 83 45 61 07  	lbu	a1, 118(sp)
     4f8: 13 05 b0 0b  	li	a0, 187
     4fc: 63 9a a5 02  	bne	a1, a0, 0x530 <vector_memcpy_masked_harness_uint8_t+0x104>
     500: 93 05 f0 06  	li	a1, 111
     504: 13 06 81 00  	addi	a2, sp, 8
     508: 93 96 85 03  	slli	a3, a1, 56
     50c: 13 d7 86 43  	srai	a4, a3, 56
     510: 63 4c 07 00  	bltz	a4, 0x528 <vector_memcpy_masked_harness_uint8_t+0xfc>
     514: 13 f7 f5 0f  	andi	a4, a1, 255
     518: 33 07 e6 00  	add	a4, a2, a4
     51c: 03 47 07 00  	lbu	a4, 0(a4)
     520: 93 85 15 00  	addi	a1, a1, 1
     524: e3 02 a7 fe  	beq	a4, a0, 0x508 <vector_memcpy_masked_harness_uint8_t+0xdc>
     528: 13 d5 f6 03  	srli	a0, a3, 63
     52c: 6f 00 80 00  	j	0x534 <vector_memcpy_masked_harness_uint8_t+0x108>
     530: 13 05 00 00  	li	a0, 0
     534: 83 30 81 12  	ld	ra, 296(sp)
     538: 03 34 01 12  	ld	s0, 288(sp)
     53c: 83 34 81 11  	ld	s1, 280(sp)
     540: 03 39 01 11  	ld	s2, 272(sp)
     544: 83 39 81 10  	ld	s3, 264(sp)
     548: 13 01 01 13  	addi	sp, sp, 304
     54c: 67 80 00 00  	ret

0000000000000550 <vector_memcpy_masked_harness_uint16_t>:
     550: 13 01 01 dd  	addi	sp, sp, -560
     554: 23 34 11 22  	sd	ra, 552(sp)
     558: 23 30 81 22  	sd	s0, 544(sp)
     55c: 23 3c 91 20  	sd	s1, 536(sp)
     560: 23 38 21 21  	sd	s2, 528(sp)
     564: 23 34 31 21  	sd	s3, 520(sp)
     568: 13 04 05 00  	mv	s0, a0
     56c: 13 05 81 10  	addi	a0, sp, 264
     570: 13 06 00 10  	li	a2, 256
     574: 93 04 81 10  	addi	s1, sp, 264
     578: 93 05 00 00  	li	a1, 0
     57c: 97 00 00 00  	auipc	ra, 0
     580: e7 80 80 a9  	jalr	-1384(ra)
     584: 13 05 81 00  	addi	a0, sp, 8
     588: 13 06 00 10  	li	a2, 256
     58c: 13 09 81 00  	addi	s2, sp, 8
     590: 93 05 00 00  	li	a1, 0
     594: 97 00 00 00  	auipc	ra, 0
     598: e7 80 00 a8  	jalr	-1408(ra)
     59c: 13 05 00 00  	li	a0, 0
     5a0: 93 05 b0 0b  	li	a1, 187
     5a4: 13 06 00 08  	li	a2, 128
     5a8: 23 90 a4 00  	sh	a0, 0(s1)
     5ac: 23 10 b9 00  	sh	a1, 0(s2)
     5b0: 13 05 15 00  	addi	a0, a0, 1
     5b4: 93 84 24 00  	addi	s1, s1, 2
     5b8: 13 09 29 00  	addi	s2, s2, 2
     5bc: e3 16 c5 fe  	bne	a0, a2, 0x5a8 <vector_memcpy_masked_harness_uint16_t+0x58>
     5c0: 93 04 e0 06  	li	s1, 110
     5c4: 13 09 81 10  	addi	s2, sp, 264
     5c8: 13 05 e0 06  	li	a0, 110
     5cc: 93 05 81 10  	addi	a1, sp, 264
     5d0: 13 06 81 00  	addi	a2, sp, 8
     5d4: 93 09 81 00  	addi	s3, sp, 8
     5d8: e7 00 04 00  	jalr	s0
     5dc: 13 05 00 00  	li	a0, 0
     5e0: 93 05 b0 0b  	li	a1, 187
     5e4: 6f 00 00 02  	j	0x604 <vector_memcpy_masked_harness_uint16_t+0xb4>
     5e8: 03 56 09 00  	lhu	a2, 0(s2)
     5ec: 83 d6 09 00  	lhu	a3, 0(s3)
     5f0: 63 1a d6 06  	bne	a2, a3, 0x664 <vector_memcpy_masked_harness_uint16_t+0x114>
     5f4: 13 05 15 00  	addi	a0, a0, 1
     5f8: 13 09 29 00  	addi	s2, s2, 2
     5fc: 93 89 29 00  	addi	s3, s3, 2
     600: 63 0c 95 00  	beq	a0, s1, 0x618 <vector_memcpy_masked_harness_uint16_t+0xc8>
     604: 13 76 15 00  	andi	a2, a0, 1
     608: e3 10 06 fe  	bnez	a2, 0x5e8 <vector_memcpy_masked_harness_uint16_t+0x98>
     60c: 03 d6 09 00  	lhu	a2, 0(s3)
     610: e3 02 b6 fe  	beq	a2, a1, 0x5f4 <vector_memcpy_masked_harness_uint16_t+0xa4>
     614: 6f 00 00 05  	j	0x664 <vector_memcpy_masked_harness_uint16_t+0x114>
     618: 83 55 41 0e  	lhu	a1, 228(sp)
     61c: 13 05 b0 0b  	li	a0, 187
     620: 63 92 a5 04  	bne	a1, a0, 0x664 <vector_memcpy_masked_harness_uint16_t+0x114>
     624: 93 05 e0 06  	li	a1, 110
     628: 13 06 e0 07  	li	a2, 126
     62c: 93 06 81 00  	addi	a3, sp, 8
     630: 13 97 05 03  	slli	a4, a1, 48
     634: 13 57 07 03  	srli	a4, a4, 48
     638: 63 60 e6 02  	bltu	a2, a4, 0x658 <vector_memcpy_masked_harness_uint16_t+0x108>
     63c: 93 85 15 00  	addi	a1, a1, 1
     640: 93 97 05 03  	slli	a5, a1, 48
     644: 93 d7 07 03  	srli	a5, a5, 48
     648: 93 97 17 00  	slli	a5, a5, 1
     64c: b3 87 f6 00  	add	a5, a3, a5
     650: 83 d7 07 00  	lhu	a5, 0(a5)
     654: e3 8e a7 fc  	beq	a5, a0, 0x630 <vector_memcpy_masked_harness_uint16_t+0xe0>
     658: 13 05 e0 07  	li	a0, 126
     65c: 33 35 e5 00  	sltu	a0, a0, a4
     660: 6f 00 80 00  	j	0x668 <vector_memcpy_masked_harness_uint16_t+0x118>
     664: 13 05 00 00  	li	a0, 0
     668: 83 30 81 22  	ld	ra, 552(sp)
     66c: 03 34 01 22  	ld	s0, 544(sp)
     670: 83 34 81 21  	ld	s1, 536(sp)
     674: 03 39 01 21  	ld	s2, 528(sp)
     678: 83 39 81 20  	ld	s3, 520(sp)
     67c: 13 01 01 23  	addi	sp, sp, 560
     680: 67 80 00 00  	ret

0000000000000684 <vector_memcpy_masked_harness_uint32_t>:
     684: 13 01 01 bd  	addi	sp, sp, -1072
     688: 23 34 11 42  	sd	ra, 1064(sp)
     68c: 23 30 81 42  	sd	s0, 1056(sp)
     690: 23 3c 91 40  	sd	s1, 1048(sp)
     694: 23 38 21 41  	sd	s2, 1040(sp)
     698: 23 34 31 41  	sd	s3, 1032(sp)
     69c: 13 04 05 00  	mv	s0, a0
     6a0: 13 05 81 20  	addi	a0, sp, 520
     6a4: 13 06 00 20  	li	a2, 512
     6a8: 93 04 81 20  	addi	s1, sp, 520
     6ac: 93 05 00 00  	li	a1, 0
     6b0: 97 00 00 00  	auipc	ra, 0
     6b4: e7 80 40 96  	jalr	-1692(ra)
     6b8: 13 05 81 00  	addi	a0, sp, 8
     6bc: 13 06 00 20  	li	a2, 512
     6c0: 13 09 81 00  	addi	s2, sp, 8
     6c4: 93 05 00 00  	li	a1, 0
     6c8: 97 00 00 00  	auipc	ra, 0
     6cc: e7 80 c0 94  	jalr	-1716(ra)
     6d0: 13 05 00 00  	li	a0, 0
     6d4: 93 05 b0 0b  	li	a1, 187
     6d8: 13 06 00 08  	li	a2, 128
     6dc: 23 a0 a4 00  	sw	a0, 0(s1)
     6e0: 23 20 b9 00  	sw	a1, 0(s2)
     6e4: 13 05 15 00  	addi	a0, a0, 1
     6e8: 93 84 44 00  	addi	s1, s1, 4
     6ec: 13 09 49 00  	addi	s2, s2, 4
     6f0: e3 16 c5 fe  	bne	a0, a2, 0x6dc <vector_memcpy_masked_harness_uint32_t+0x58>
     6f4: 93 04 e0 06  	li	s1, 110
     6f8: 13 09 81 20  	addi	s2, sp, 520
     6fc: 13 05 e0 06  	li	a0, 110
     700: 93 05 81 20  	addi	a1, sp, 520
     704: 13 06 81 00  	addi	a2, sp, 8
     708: 93 09 81 00  	addi	s3, sp, 8
     70c: e7 00 04 00  	jalr	s0
     710: 13 05 00 00  	li	a0, 0
     714: 93 05 b0 0b  	li	a1, 187
     718: 6f 00 00 02  	j	0x738 <vector_memcpy_masked_harness_uint32_t+0xb4>
     71c: 03 26 09 00  	lw	a2, 0(s2)
     720: 83 a6 09 00  	lw	a3, 0(s3)
     724: 63 16 d6 06  	bne	a2, a3, 0x790 <vector_memcpy_masked_harness_uint32_t+0x10c>
     728: 13 05 15 00  	addi	a0, a0, 1
     72c: 93 89 49 00  	addi	s3, s3, 4
     730: 13 09 49 00  	addi	s2, s2, 4
     734: 63 0c 95 00  	beq	a0, s1, 0x74c <vector_memcpy_masked_harness_uint32_t+0xc8>
     738: 13 76 15 00  	andi	a2, a0, 1
     73c: e3 10 06 fe  	bnez	a2, 0x71c <vector_memcpy_masked_harness_uint32_t+0x98>
     740: 03 a6 09 00  	lw	a2, 0(s3)
     744: e3 02 b6 fe  	beq	a2, a1, 0x728 <vector_memcpy_masked_harness_uint32_t+0xa4>
     748: 6f 00 80 04  	j	0x790 <vector_memcpy_masked_harness_uint32_t+0x10c>
     74c: 83 25 01 1c  	lw	a1, 448(sp)
     750: 13 05 b0 0b  	li	a0, 187
     754: 63 9e a5 02  	bne	a1, a0, 0x790 <vector_memcpy_masked_harness_uint32_t+0x10c>
     758: 13 07 e0 06  	li	a4, 110
     75c: 93 05 e0 07  	li	a1, 126
     760: 13 06 81 00  	addi	a2, sp, 8
     764: 93 06 07 00  	mv	a3, a4
     768: 63 ee e5 00  	bltu	a1, a4, 0x784 <vector_memcpy_masked_harness_uint32_t+0x100>
     76c: 1b 87 16 00  	addiw	a4, a3, 1
     770: 93 17 07 02  	slli	a5, a4, 32
     774: 93 d7 e7 01  	srli	a5, a5, 30
     778: b3 07 f6 00  	add	a5, a2, a5
     77c: 83 a7 07 00  	lw	a5, 0(a5)
     780: e3 82 a7 fe  	beq	a5, a0, 0x764 <vector_memcpy_masked_harness_uint32_t+0xe0>
     784: 13 05 e0 07  	li	a0, 126
     788: 33 35 d5 00  	sltu	a0, a0, a3
     78c: 6f 00 80 00  	j	0x794 <vector_memcpy_masked_harness_uint32_t+0x110>
     790: 13 05 00 00  	li	a0, 0
     794: 83 30 81 42  	ld	ra, 1064(sp)
     798: 03 34 01 42  	ld	s0, 1056(sp)
     79c: 83 34 81 41  	ld	s1, 1048(sp)
     7a0: 03 39 01 41  	ld	s2, 1040(sp)
     7a4: 83 39 81 40  	ld	s3, 1032(sp)
     7a8: 13 01 01 43  	addi	sp, sp, 1072
     7ac: 67 80 00 00  	ret

00000000000007b0 <vector_memcpy_masked_harness_uint64_t>:
     7b0: 13 01 01 81  	addi	sp, sp, -2032
     7b4: 23 34 11 7e  	sd	ra, 2024(sp)
     7b8: 23 30 81 7e  	sd	s0, 2016(sp)
     7bc: 23 3c 91 7c  	sd	s1, 2008(sp)
     7c0: 23 38 21 7d  	sd	s2, 2000(sp)
     7c4: 23 34 31 7d  	sd	s3, 1992(sp)
     7c8: 13 01 01 fc  	addi	sp, sp, -64
     7cc: 13 04 05 00  	mv	s0, a0
     7d0: 13 05 81 40  	addi	a0, sp, 1032
     7d4: 13 06 00 40  	li	a2, 1024
     7d8: 93 04 81 40  	addi	s1, sp, 1032
     7dc: 93 05 00 00  	li	a1, 0
     7e0: 97 00 00 00  	auipc	ra, 0
     7e4: e7 80 40 83  	jalr	-1996(ra)
     7e8: 13 05 81 00  	addi	a0, sp, 8
     7ec: 13 06 00 40  	li	a2, 1024
     7f0: 13 09 81 00  	addi	s2, sp, 8
     7f4: 93 05 00 00  	li	a1, 0
     7f8: 97 00 00 00  	auipc	ra, 0
     7fc: e7 80 c0 81  	jalr	-2020(ra)
     800: 13 05 00 00  	li	a0, 0
     804: 93 05 b0 0b  	li	a1, 187
     808: 13 06 00 08  	li	a2, 128
     80c: 23 b0 a4 00  	sd	a0, 0(s1)
     810: 23 30 b9 00  	sd	a1, 0(s2)
     814: 13 05 15 00  	addi	a0, a0, 1
     818: 13 09 89 00  	addi	s2, s2, 8
     81c: 93 84 84 00  	addi	s1, s1, 8
     820: e3 16 c5 fe  	bne	a0, a2, 0x80c <vector_memcpy_masked_harness_uint64_t+0x5c>
     824: 93 04 e0 06  	li	s1, 110
     828: 13 09 81 40  	addi	s2, sp, 1032
     82c: 13 05 e0 06  	li	a0, 110
     830: 93 05 81 40  	addi	a1, sp, 1032
     834: 13 06 81 00  	addi	a2, sp, 8
     838: 93 09 81 00  	addi	s3, sp, 8
     83c: e7 00 04 00  	jalr	s0
     840: 13 05 00 00  	li	a0, 0
     844: 93 05 b0 0b  	li	a1, 187
     848: 6f 00 00 02  	j	0x868 <vector_memcpy_masked_harness_uint64_t+0xb8>
     84c: 03 36 09 00  	ld	a2, 0(s2)
     850: 83 b6 09 00  	ld	a3, 0(s3)
     854: 63 12 d6 06  	bne	a2, a3, 0x8b8 <vector_memcpy_masked_harness_uint64_t+0x108>
     858: 13 05 15 00  	addi	a0, a0, 1
     85c: 93 89 89 00  	addi	s3, s3, 8
     860: 13 09 89 00  	addi	s2, s2, 8
     864: 63 0c 95 00  	beq	a0, s1, 0x87c <vector_memcpy_masked_harness_uint64_t+0xcc>
     868: 13 76 15 00  	andi	a2, a0, 1
     86c: e3 10 06 fe  	bnez	a2, 0x84c <vector_memcpy_masked_harness_uint64_t+0x9c>
     870: 03 b6 09 00  	ld	a2, 0(s3)
     874: e3 02 b6 fe  	beq	a2, a1, 0x858 <vector_memcpy_masked_harness_uint64_t+0xa8>
     878: 6f 00 00 04  	j	0x8b8 <vector_memcpy_masked_harness_uint64_t+0x108>
     87c: 83 35 81 37  	ld	a1, 888(sp)
     880: 13 05 b0 0b  	li	a0, 187
     884: 63 9a a5 02  	bne	a1, a0, 0x8b8 <vector_memcpy_masked_harness_uint64_t+0x108>
     888: 93 05 01 38  	addi	a1, sp, 896
     88c: 13 07 e0 06  	li	a4, 110
     890: 13 06 f0 07  	li	a2, 127
     894: 93 06 07 00  	mv	a3, a4
     898: 63 0a c7 00  	beq	a4, a2, 0x8ac <vector_memcpy_masked_harness_uint64_t+0xfc>
     89c: 83 b7 05 00  	ld	a5, 0(a1)
     8a0: 13 87 16 00  	addi	a4, a3, 1
     8a4: 93 85 85 00  	addi	a1, a1, 8
     8a8: e3 86 a7 fe  	beq	a5, a0, 0x894 <vector_memcpy_masked_harness_uint64_t+0xe4>
     8ac: 13 05 e0 07  	li	a0, 126
     8b0: 33 35 d5 00  	sltu	a0, a0, a3
     8b4: 6f 00 80 00  	j	0x8bc <vector_memcpy_masked_harness_uint64_t+0x10c>
     8b8: 13 05 00 00  	li	a0, 0
     8bc: 13 01 01 04  	addi	sp, sp, 64
     8c0: 83 30 81 7e  	ld	ra, 2024(sp)
     8c4: 03 34 01 7e  	ld	s0, 2016(sp)
     8c8: 83 34 81 7d  	ld	s1, 2008(sp)
     8cc: 03 39 01 7d  	ld	s2, 2000(sp)
     8d0: 83 39 81 7c  	ld	s3, 1992(sp)
     8d4: 13 01 01 7f  	addi	sp, sp, 2032
     8d8: 67 80 00 00  	ret

00000000000008dc <vector_memcpy_segmented_harness_uint8_t>:
     8dc: 13 01 01 ea  	addi	sp, sp, -352
     8e0: 23 3c 11 14  	sd	ra, 344(sp)
     8e4: 23 38 81 14  	sd	s0, 336(sp)
     8e8: 23 34 91 14  	sd	s1, 328(sp)
     8ec: 23 30 21 15  	sd	s2, 320(sp)
     8f0: 23 3c 31 13  	sd	s3, 312(sp)
     8f4: 23 38 41 13  	sd	s4, 304(sp)
     8f8: 23 34 51 13  	sd	s5, 296(sp)
     8fc: 13 04 05 00  	mv	s0, a0
     900: 93 04 81 0a  	addi	s1, sp, 168
     904: 13 05 81 0a  	addi	a0, sp, 168
     908: 13 06 00 08  	li	a2, 128
     90c: 13 09 00 08  	li	s2, 128
     910: 93 05 00 00  	li	a1, 0
     914: 97 f0 ff ff  	auipc	ra, 1048575
     918: e7 80 00 70  	jalr	1792(ra)
     91c: 13 05 00 00  	li	a0, 0
     920: 23 30 01 0a  	sd	zero, 160(sp)
     924: 23 3c 01 08  	sd	zero, 152(sp)
     928: 23 38 01 08  	sd	zero, 144(sp)
     92c: 23 34 01 08  	sd	zero, 136(sp)
     930: 23 30 01 08  	sd	zero, 128(sp)
     934: 23 3c 01 06  	sd	zero, 120(sp)
     938: 23 38 01 06  	sd	zero, 112(sp)
     93c: 23 34 01 06  	sd	zero, 104(sp)
     940: 23 30 01 06  	sd	zero, 96(sp)
     944: 23 3c 01 04  	sd	zero, 88(sp)
     948: 23 38 01 04  	sd	zero, 80(sp)
     94c: 23 34 01 04  	sd	zero, 72(sp)
     950: 23 30 01 04  	sd	zero, 64(sp)
     954: 23 3c 01 02  	sd	zero, 56(sp)
     958: 23 38 01 02  	sd	zero, 48(sp)
     95c: 23 34 01 02  	sd	zero, 40(sp)
     960: b3 85 a4 00  	add	a1, s1, a0
     964: 23 80 a5 00  	sb	a0, 0(a1)
     968: 13 05 15 00  	addi	a0, a0, 1
     96c: e3 1a 25 ff  	bne	a0, s2, 0x960 <vector_memcpy_segmented_harness_uint8_t+0x84>
     970: 93 04 81 08  	addi	s1, sp, 136
     974: 23 34 91 00  	sd	s1, 8(sp)
     978: 13 09 81 06  	addi	s2, sp, 104
     97c: 23 38 21 01  	sd	s2, 16(sp)
     980: 93 09 81 04  	addi	s3, sp, 72
     984: 23 3c 31 01  	sd	s3, 24(sp)
     988: 13 0a 81 02  	addi	s4, sp, 40
     98c: 23 30 41 03  	sd	s4, 32(sp)
     990: 13 05 a0 01  	li	a0, 26
     994: 93 05 81 0a  	addi	a1, sp, 168
     998: 13 06 81 00  	addi	a2, sp, 8
     99c: 93 0a 81 0a  	addi	s5, sp, 168
     9a0: e7 00 04 00  	jalr	s0
     9a4: 13 05 00 00  	li	a0, 0
     9a8: 93 05 90 01  	li	a1, 25
     9ac: 13 76 f5 0f  	andi	a2, a0, 255
     9b0: 93 16 26 00  	slli	a3, a2, 2
     9b4: 33 87 da 00  	add	a4, s5, a3
     9b8: 03 47 07 00  	lbu	a4, 0(a4)
     9bc: b3 87 c4 00  	add	a5, s1, a2
     9c0: 83 c7 07 00  	lbu	a5, 0(a5)
     9c4: 63 16 f7 06  	bne	a4, a5, 0xa30 <vector_memcpy_segmented_harness_uint8_t+0x154>
     9c8: 13 e7 16 00  	ori	a4, a3, 1
     9cc: 33 87 ea 00  	add	a4, s5, a4
     9d0: 03 47 07 00  	lbu	a4, 0(a4)
     9d4: b3 07 c9 00  	add	a5, s2, a2
     9d8: 83 c7 07 00  	lbu	a5, 0(a5)
     9dc: 63 1a f7 04  	bne	a4, a5, 0xa30 <vector_memcpy_segmented_harness_uint8_t+0x154>
     9e0: 13 e7 26 00  	ori	a4, a3, 2
     9e4: 33 87 ea 00  	add	a4, s5, a4
     9e8: 03 47 07 00  	lbu	a4, 0(a4)
     9ec: b3 87 c9 00  	add	a5, s3, a2
     9f0: 83 c7 07 00  	lbu	a5, 0(a5)
     9f4: 63 1e f7 02  	bne	a4, a5, 0xa30 <vector_memcpy_segmented_harness_uint8_t+0x154>
     9f8: 93 e6 36 00  	ori	a3, a3, 3
     9fc: b3 86 da 00  	add	a3, s5, a3
     a00: 83 c6 06 00  	lbu	a3, 0(a3)
     a04: 33 07 ca 00  	add	a4, s4, a2
     a08: 03 47 07 00  	lbu	a4, 0(a4)
     a0c: 63 92 e6 02  	bne	a3, a4, 0xa30 <vector_memcpy_segmented_harness_uint8_t+0x154>
     a10: 13 05 15 00  	addi	a0, a0, 1
     a14: e3 6c b6 f8  	bltu	a2, a1, 0x9ac <vector_memcpy_segmented_harness_uint8_t+0xd0>
     a18: 83 45 21 0a  	lbu	a1, 162(sp)
     a1c: 13 05 10 00  	li	a0, 1
     a20: 63 8c 05 02  	beqz	a1, 0xa58 <vector_memcpy_segmented_harness_uint8_t+0x17c>
     a24: 13 45 f5 ff  	not	a0, a0
     a28: 13 75 15 00  	andi	a0, a0, 1
     a2c: 6f 00 80 00  	j	0xa34 <vector_memcpy_segmented_harness_uint8_t+0x158>
     a30: 13 05 00 00  	li	a0, 0
     a34: 83 30 81 15  	ld	ra, 344(sp)
     a38: 03 34 01 15  	ld	s0, 336(sp)
     a3c: 83 34 81 14  	ld	s1, 328(sp)
     a40: 03 39 01 14  	ld	s2, 320(sp)
     a44: 83 39 81 13  	ld	s3, 312(sp)
     a48: 03 3a 01 13  	ld	s4, 304(sp)
     a4c: 83 3a 81 12  	ld	s5, 296(sp)
     a50: 13 01 01 16  	addi	sp, sp, 352
     a54: 67 80 00 00  	ret
     a58: 93 05 21 08  	addi	a1, sp, 130
     a5c: 13 06 21 06  	addi	a2, sp, 98
     a60: 93 06 21 04  	addi	a3, sp, 66
     a64: 13 05 10 00  	li	a0, 1
     a68: 13 07 a0 01  	li	a4, 26
     a6c: 93 07 e0 01  	li	a5, 30
     a70: 13 08 81 08  	addi	a6, sp, 136
     a74: 83 c8 05 00  	lbu	a7, 0(a1)
     a78: e3 96 08 fa  	bnez	a7, 0xa24 <vector_memcpy_segmented_harness_uint8_t+0x148>
     a7c: 83 48 06 00  	lbu	a7, 0(a2)
     a80: e3 92 08 fa  	bnez	a7, 0xa24 <vector_memcpy_segmented_harness_uint8_t+0x148>
     a84: 83 c8 06 00  	lbu	a7, 0(a3)
     a88: e3 9e 08 f8  	bnez	a7, 0xa24 <vector_memcpy_segmented_harness_uint8_t+0x148>
     a8c: 93 78 f7 0f  	andi	a7, a4, 255
     a90: 13 b5 f8 01  	sltiu	a0, a7, 31
     a94: e3 e8 17 f9  	bltu	a5, a7, 0xa24 <vector_memcpy_segmented_harness_uint8_t+0x148>
     a98: 13 07 17 00  	addi	a4, a4, 1
     a9c: 93 78 f7 0f  	andi	a7, a4, 255
     aa0: b3 08 18 01  	add	a7, a6, a7
     aa4: 83 c8 08 00  	lbu	a7, 0(a7)
     aa8: 93 85 15 00  	addi	a1, a1, 1
     aac: 13 06 16 00  	addi	a2, a2, 1
     ab0: 93 86 16 00  	addi	a3, a3, 1
     ab4: e3 80 08 fc  	beqz	a7, 0xa74 <vector_memcpy_segmented_harness_uint8_t+0x198>
     ab8: 6f f0 df f6  	j	0xa24 <vector_memcpy_segmented_harness_uint8_t+0x148>

0000000000000abc <vector_memcpy_segmented_harness_uint16_t>:
     abc: 13 01 01 da  	addi	sp, sp, -608
     ac0: 23 3c 11 24  	sd	ra, 600(sp)
     ac4: 23 38 81 24  	sd	s0, 592(sp)
     ac8: 23 34 91 24  	sd	s1, 584(sp)
     acc: 23 30 21 25  	sd	s2, 576(sp)
     ad0: 23 3c 31 23  	sd	s3, 568(sp)
     ad4: 23 38 41 23  	sd	s4, 560(sp)
     ad8: 23 34 51 23  	sd	s5, 552(sp)
     adc: 13 04 05 00  	mv	s0, a0
     ae0: 13 05 81 12  	addi	a0, sp, 296
     ae4: 13 06 00 10  	li	a2, 256
     ae8: 93 04 81 12  	addi	s1, sp, 296
     aec: 93 05 00 00  	li	a1, 0
     af0: 97 f0 ff ff  	auipc	ra, 1048575
     af4: e7 80 40 52  	jalr	1316(ra)
     af8: 13 05 00 00  	li	a0, 0
     afc: 23 30 01 12  	sd	zero, 288(sp)
     b00: 23 3c 01 10  	sd	zero, 280(sp)
     b04: 23 38 01 10  	sd	zero, 272(sp)
     b08: 23 34 01 10  	sd	zero, 264(sp)
     b0c: 23 30 01 10  	sd	zero, 256(sp)
     b10: 23 3c 01 0e  	sd	zero, 248(sp)
     b14: 23 38 01 0e  	sd	zero, 240(sp)
     b18: 23 34 01 0e  	sd	zero, 232(sp)
     b1c: 23 30 01 0e  	sd	zero, 224(sp)
     b20: 23 3c 01 0c  	sd	zero, 216(sp)
     b24: 23 38 01 0c  	sd	zero, 208(sp)
     b28: 23 34 01 0c  	sd	zero, 200(sp)
     b2c: 23 30 01 0c  	sd	zero, 192(sp)
     b30: 23 3c 01 0a  	sd	zero, 184(sp)
     b34: 23 38 01 0a  	sd	zero, 176(sp)
     b38: 23 34 01 0a  	sd	zero, 168(sp)
     b3c: 23 30 01 0a  	sd	zero, 160(sp)
     b40: 23 3c 01 08  	sd	zero, 152(sp)
     b44: 23 38 01 08  	sd	zero, 144(sp)
     b48: 23 34 01 08  	sd	zero, 136(sp)
     b4c: 23 30 01 08  	sd	zero, 128(sp)
     b50: 23 3c 01 06  	sd	zero, 120(sp)
     b54: 23 38 01 06  	sd	zero, 112(sp)
     b58: 23 34 01 06  	sd	zero, 104(sp)
     b5c: 23 30 01 06  	sd	zero, 96(sp)
     b60: 23 3c 01 04  	sd	zero, 88(sp)
     b64: 23 38 01 04  	sd	zero, 80(sp)
     b68: 23 34 01 04  	sd	zero, 72(sp)
     b6c: 23 30 01 04  	sd	zero, 64(sp)
     b70: 23 3c 01 02  	sd	zero, 56(sp)
     b74: 23 38 01 02  	sd	zero, 48(sp)
     b78: 23 34 01 02  	sd	zero, 40(sp)
     b7c: 93 05 00 08  	li	a1, 128
     b80: 23 90 a4 00  	sh	a0, 0(s1)
     b84: 13 05 15 00  	addi	a0, a0, 1
     b88: 93 84 24 00  	addi	s1, s1, 2
     b8c: e3 1a b5 fe  	bne	a0, a1, 0xb80 <vector_memcpy_segmented_harness_uint16_t+0xc4>
     b90: 93 04 81 0e  	addi	s1, sp, 232
     b94: 23 34 91 00  	sd	s1, 8(sp)
     b98: 13 09 81 0a  	addi	s2, sp, 168
     b9c: 23 38 21 01  	sd	s2, 16(sp)
     ba0: 93 09 81 06  	addi	s3, sp, 104
     ba4: 23 3c 31 01  	sd	s3, 24(sp)
     ba8: 13 0a 81 02  	addi	s4, sp, 40
     bac: 23 30 41 03  	sd	s4, 32(sp)
     bb0: 13 05 a0 01  	li	a0, 26
     bb4: 93 05 81 12  	addi	a1, sp, 296
     bb8: 13 06 81 00  	addi	a2, sp, 8
     bbc: 93 0a 81 12  	addi	s5, sp, 296
     bc0: e7 00 04 00  	jalr	s0
     bc4: 13 05 00 00  	li	a0, 0
     bc8: 93 05 90 01  	li	a1, 25
     bcc: 13 16 05 03  	slli	a2, a0, 48
     bd0: 13 56 06 03  	srli	a2, a2, 48
     bd4: 93 16 36 00  	slli	a3, a2, 3
     bd8: b3 86 da 00  	add	a3, s5, a3
     bdc: 03 d7 06 00  	lhu	a4, 0(a3)
     be0: 93 16 16 00  	slli	a3, a2, 1
     be4: b3 87 d4 00  	add	a5, s1, a3
     be8: 83 d7 07 00  	lhu	a5, 0(a5)
     bec: 63 1a f7 06  	bne	a4, a5, 0xc60 <vector_memcpy_segmented_harness_uint16_t+0x1a4>
     bf0: 13 17 26 00  	slli	a4, a2, 2
     bf4: 13 17 17 00  	slli	a4, a4, 1
     bf8: 93 67 27 00  	ori	a5, a4, 2
     bfc: b3 87 fa 00  	add	a5, s5, a5
     c00: 83 d7 07 00  	lhu	a5, 0(a5)
     c04: 33 08 d9 00  	add	a6, s2, a3
     c08: 03 58 08 00  	lhu	a6, 0(a6)
     c0c: 63 9a 07 05  	bne	a5, a6, 0xc60 <vector_memcpy_segmented_harness_uint16_t+0x1a4>
     c10: 93 67 47 00  	ori	a5, a4, 4
     c14: b3 87 fa 00  	add	a5, s5, a5
     c18: 83 d7 07 00  	lhu	a5, 0(a5)
     c1c: 33 88 d9 00  	add	a6, s3, a3
     c20: 03 58 08 00  	lhu	a6, 0(a6)
     c24: 63 9e 07 03  	bne	a5, a6, 0xc60 <vector_memcpy_segmented_harness_uint16_t+0x1a4>
     c28: 13 67 67 00  	ori	a4, a4, 6
     c2c: 33 87 ea 00  	add	a4, s5, a4
     c30: 03 57 07 00  	lhu	a4, 0(a4)
     c34: b3 06 da 00  	add	a3, s4, a3
     c38: 83 d6 06 00  	lhu	a3, 0(a3)
     c3c: 63 12 d7 02  	bne	a4, a3, 0xc60 <vector_memcpy_segmented_harness_uint16_t+0x1a4>
     c40: 13 05 15 00  	addi	a0, a0, 1
     c44: e3 64 b6 f8  	bltu	a2, a1, 0xbcc <vector_memcpy_segmented_harness_uint16_t+0x110>
     c48: 83 55 c1 11  	lhu	a1, 284(sp)
     c4c: 13 05 10 00  	li	a0, 1
     c50: 63 8c 05 02  	beqz	a1, 0xc88 <vector_memcpy_segmented_harness_uint16_t+0x1cc>
     c54: 13 45 f5 ff  	not	a0, a0
     c58: 13 75 15 00  	andi	a0, a0, 1
     c5c: 6f 00 80 00  	j	0xc64 <vector_memcpy_segmented_harness_uint16_t+0x1a8>
     c60: 13 05 00 00  	li	a0, 0
     c64: 83 30 81 25  	ld	ra, 600(sp)
     c68: 03 34 01 25  	ld	s0, 592(sp)
     c6c: 83 34 81 24  	ld	s1, 584(sp)
     c70: 03 39 01 24  	ld	s2, 576(sp)
     c74: 83 39 81 23  	ld	s3, 568(sp)
     c78: 03 3a 01 23  	ld	s4, 560(sp)
     c7c: 83 3a 81 22  	ld	s5, 552(sp)
     c80: 13 01 01 26  	addi	sp, sp, 608
     c84: 67 80 00 00  	ret
     c88: 93 05 c1 0d  	addi	a1, sp, 220
     c8c: 13 06 c1 09  	addi	a2, sp, 156
     c90: 93 06 c1 05  	addi	a3, sp, 92
     c94: 13 05 10 00  	li	a0, 1
     c98: 13 07 a0 01  	li	a4, 26
     c9c: 93 07 e0 01  	li	a5, 30
     ca0: 13 08 81 0e  	addi	a6, sp, 232
     ca4: 83 d8 05 00  	lhu	a7, 0(a1)
     ca8: e3 96 08 fa  	bnez	a7, 0xc54 <vector_memcpy_segmented_harness_uint16_t+0x198>
     cac: 83 58 06 00  	lhu	a7, 0(a2)
     cb0: e3 92 08 fa  	bnez	a7, 0xc54 <vector_memcpy_segmented_harness_uint16_t+0x198>
     cb4: 83 d8 06 00  	lhu	a7, 0(a3)
     cb8: e3 9e 08 f8  	bnez	a7, 0xc54 <vector_memcpy_segmented_harness_uint16_t+0x198>
     cbc: 13 15 07 03  	slli	a0, a4, 48
     cc0: 93 58 05 03  	srli	a7, a0, 48
     cc4: 13 b5 f8 01  	sltiu	a0, a7, 31
     cc8: e3 e6 17 f9  	bltu	a5, a7, 0xc54 <vector_memcpy_segmented_harness_uint16_t+0x198>
     ccc: 13 07 17 00  	addi	a4, a4, 1
     cd0: 93 18 07 03  	slli	a7, a4, 48
     cd4: 93 d8 08 03  	srli	a7, a7, 48
     cd8: 93 98 18 00  	slli	a7, a7, 1
     cdc: b3 08 18 01  	add	a7, a6, a7
     ce0: 83 d8 08 00  	lhu	a7, 0(a7)
     ce4: 93 85 25 00  	addi	a1, a1, 2
     ce8: 13 06 26 00  	addi	a2, a2, 2
     cec: 93 86 26 00  	addi	a3, a3, 2
     cf0: e3 8a 08 fa  	beqz	a7, 0xca4 <vector_memcpy_segmented_harness_uint16_t+0x1e8>
     cf4: 6f f0 1f f6  	j	0xc54 <vector_memcpy_segmented_harness_uint16_t+0x198>

0000000000000cf8 <vector_memcpy_segmented_harness_uint32_t>:
     cf8: 13 01 01 ba  	addi	sp, sp, -1120
     cfc: 23 3c 11 44  	sd	ra, 1112(sp)
     d00: 23 38 81 44  	sd	s0, 1104(sp)
     d04: 23 34 91 44  	sd	s1, 1096(sp)
     d08: 23 30 21 45  	sd	s2, 1088(sp)
     d0c: 23 3c 31 43  	sd	s3, 1080(sp)
     d10: 23 38 41 43  	sd	s4, 1072(sp)
     d14: 23 34 51 43  	sd	s5, 1064(sp)
     d18: 13 04 05 00  	mv	s0, a0
     d1c: 13 05 81 22  	addi	a0, sp, 552
     d20: 13 06 00 20  	li	a2, 512
     d24: 93 04 81 22  	addi	s1, sp, 552
     d28: 93 05 00 00  	li	a1, 0
     d2c: 97 f0 ff ff  	auipc	ra, 1048575
     d30: e7 80 80 2e  	jalr	744(ra)
     d34: 13 05 81 1a  	addi	a0, sp, 424
     d38: 13 06 00 08  	li	a2, 128
     d3c: 13 09 00 08  	li	s2, 128
     d40: 93 05 00 00  	li	a1, 0
     d44: 97 f0 ff ff  	auipc	ra, 1048575
     d48: e7 80 00 2d  	jalr	720(ra)
     d4c: 13 05 81 12  	addi	a0, sp, 296
     d50: 13 06 00 08  	li	a2, 128
     d54: 93 05 00 00  	li	a1, 0
     d58: 97 f0 ff ff  	auipc	ra, 1048575
     d5c: e7 80 c0 2b  	jalr	700(ra)
     d60: 13 05 81 0a  	addi	a0, sp, 168
     d64: 13 06 00 08  	li	a2, 128
     d68: 93 05 00 00  	li	a1, 0
     d6c: 97 f0 ff ff  	auipc	ra, 1048575
     d70: e7 80 80 2a  	jalr	680(ra)
     d74: 13 05 81 02  	addi	a0, sp, 40
     d78: 13 06 00 08  	li	a2, 128
     d7c: 93 05 00 00  	li	a1, 0
     d80: 97 f0 ff ff  	auipc	ra, 1048575
     d84: e7 80 40 29  	jalr	660(ra)
     d88: 13 05 00 00  	li	a0, 0
     d8c: 23 a0 a4 00  	sw	a0, 0(s1)
     d90: 13 05 15 00  	addi	a0, a0, 1
     d94: 93 84 44 00  	addi	s1, s1, 4
     d98: e3 1a 25 ff  	bne	a0, s2, 0xd8c <vector_memcpy_segmented_harness_uint32_t+0x94>
     d9c: 93 04 81 1a  	addi	s1, sp, 424
     da0: 23 34 91 00  	sd	s1, 8(sp)
     da4: 13 09 81 12  	addi	s2, sp, 296
     da8: 23 38 21 01  	sd	s2, 16(sp)
     dac: 93 09 81 0a  	addi	s3, sp, 168
     db0: 23 3c 31 01  	sd	s3, 24(sp)
     db4: 13 0a 81 02  	addi	s4, sp, 40
     db8: 23 30 41 03  	sd	s4, 32(sp)
     dbc: 13 05 a0 01  	li	a0, 26
     dc0: 93 05 81 22  	addi	a1, sp, 552
     dc4: 13 06 81 00  	addi	a2, sp, 8
     dc8: 93 0a 81 22  	addi	s5, sp, 552
     dcc: e7 00 04 00  	jalr	s0
     dd0: 13 06 00 00  	li	a2, 0
     dd4: 13 05 90 01  	li	a0, 25
     dd8: 93 05 06 00  	mv	a1, a2
     ddc: 1b 16 26 00  	slliw	a2, a2, 2
     de0: 93 16 06 02  	slli	a3, a2, 32
     de4: 93 d6 e6 01  	srli	a3, a3, 30
     de8: b3 86 da 00  	add	a3, s5, a3
     dec: 03 a7 06 00  	lw	a4, 0(a3)
     df0: 93 96 05 02  	slli	a3, a1, 32
     df4: 93 d7 e6 01  	srli	a5, a3, 30
     df8: b3 87 f4 00  	add	a5, s1, a5
     dfc: 83 a7 07 00  	lw	a5, 0(a5)
     e00: 63 16 f7 08  	bne	a4, a5, 0xe8c <vector_memcpy_segmented_harness_uint32_t+0x194>
     e04: 93 d6 06 02  	srli	a3, a3, 32
     e08: 13 67 16 00  	ori	a4, a2, 1
     e0c: 13 17 07 02  	slli	a4, a4, 32
     e10: 13 57 e7 01  	srli	a4, a4, 30
     e14: 33 87 ea 00  	add	a4, s5, a4
     e18: 03 27 07 00  	lw	a4, 0(a4)
     e1c: 93 96 26 00  	slli	a3, a3, 2
     e20: b3 07 d9 00  	add	a5, s2, a3
     e24: 83 a7 07 00  	lw	a5, 0(a5)
     e28: 63 12 f7 06  	bne	a4, a5, 0xe8c <vector_memcpy_segmented_harness_uint32_t+0x194>
     e2c: 13 67 26 00  	ori	a4, a2, 2
     e30: 13 17 07 02  	slli	a4, a4, 32
     e34: 13 57 e7 01  	srli	a4, a4, 30
     e38: 33 87 ea 00  	add	a4, s5, a4
     e3c: 03 27 07 00  	lw	a4, 0(a4)
     e40: b3 87 d9 00  	add	a5, s3, a3
     e44: 83 a7 07 00  	lw	a5, 0(a5)
     e48: 63 12 f7 04  	bne	a4, a5, 0xe8c <vector_memcpy_segmented_harness_uint32_t+0x194>
     e4c: 13 66 36 00  	ori	a2, a2, 3
     e50: 13 16 06 02  	slli	a2, a2, 32
     e54: 13 56 e6 01  	srli	a2, a2, 30
     e58: 33 86 ca 00  	add	a2, s5, a2
     e5c: 03 26 06 00  	lw	a2, 0(a2)
     e60: b3 06 da 00  	add	a3, s4, a3
     e64: 83 a6 06 00  	lw	a3, 0(a3)
     e68: 63 12 d6 02  	bne	a2, a3, 0xe8c <vector_memcpy_segmented_harness_uint32_t+0x194>
     e6c: 1b 86 15 00  	addiw	a2, a1, 1
     e70: e3 e4 a5 f6  	bltu	a1, a0, 0xdd8 <vector_memcpy_segmented_harness_uint32_t+0xe0>
     e74: 83 25 01 21  	lw	a1, 528(sp)
     e78: 13 05 10 00  	li	a0, 1
     e7c: 63 8c 05 02  	beqz	a1, 0xeb4 <vector_memcpy_segmented_harness_uint32_t+0x1bc>
     e80: 13 45 f5 ff  	not	a0, a0
     e84: 13 75 15 00  	andi	a0, a0, 1
     e88: 6f 00 80 00  	j	0xe90 <vector_memcpy_segmented_harness_uint32_t+0x198>
     e8c: 13 05 00 00  	li	a0, 0
     e90: 83 30 81 45  	ld	ra, 1112(sp)
     e94: 03 34 01 45  	ld	s0, 1104(sp)
     e98: 83 34 81 44  	ld	s1, 1096(sp)
     e9c: 03 39 01 44  	ld	s2, 1088(sp)
     ea0: 83 39 81 43  	ld	s3, 1080(sp)
     ea4: 03 3a 01 43  	ld	s4, 1072(sp)
     ea8: 83 3a 81 42  	ld	s5, 1064(sp)
     eac: 13 01 01 46  	addi	sp, sp, 1120
     eb0: 67 80 00 00  	ret
     eb4: 93 05 01 19  	addi	a1, sp, 400
     eb8: 13 06 01 11  	addi	a2, sp, 272
     ebc: 93 06 01 09  	addi	a3, sp, 144
     ec0: 13 05 10 00  	li	a0, 1
     ec4: 13 07 a0 01  	li	a4, 26
     ec8: 93 07 e0 01  	li	a5, 30
     ecc: 13 08 81 1a  	addi	a6, sp, 424
     ed0: 83 a8 05 00  	lw	a7, 0(a1)
     ed4: e3 96 08 fa  	bnez	a7, 0xe80 <vector_memcpy_segmented_harness_uint32_t+0x188>
     ed8: 83 28 06 00  	lw	a7, 0(a2)
     edc: e3 92 08 fa  	bnez	a7, 0xe80 <vector_memcpy_segmented_harness_uint32_t+0x188>
     ee0: 83 a8 06 00  	lw	a7, 0(a3)
     ee4: e3 9e 08 f8  	bnez	a7, 0xe80 <vector_memcpy_segmented_harness_uint32_t+0x188>
     ee8: 13 35 f7 01  	sltiu	a0, a4, 31
     eec: e3 ea e7 f8  	bltu	a5, a4, 0xe80 <vector_memcpy_segmented_harness_uint32_t+0x188>
     ef0: 1b 07 17 00  	addiw	a4, a4, 1
     ef4: 93 18 07 02  	slli	a7, a4, 32
     ef8: 93 d8 e8 01  	srli	a7, a7, 30
     efc: b3 08 18 01  	add	a7, a6, a7
     f00: 83 a8 08 00  	lw	a7, 0(a7)
     f04: 93 85 45 00  	addi	a1, a1, 4
     f08: 13 06 46 00  	addi	a2, a2, 4
     f0c: 93 86 46 00  	addi	a3, a3, 4
     f10: e3 80 08 fc  	beqz	a7, 0xed0 <vector_memcpy_segmented_harness_uint32_t+0x1d8>
     f14: 6f f0 df f6  	j	0xe80 <vector_memcpy_segmented_harness_uint32_t+0x188>

0000000000000f18 <vector_memcpy_segmented_harness_uint64_t>:
     f18: 13 01 01 81  	addi	sp, sp, -2032
     f1c: 23 34 11 7e  	sd	ra, 2024(sp)
     f20: 23 30 81 7e  	sd	s0, 2016(sp)
     f24: 23 3c 91 7c  	sd	s1, 2008(sp)
     f28: 23 38 21 7d  	sd	s2, 2000(sp)
     f2c: 23 34 31 7d  	sd	s3, 1992(sp)
     f30: 23 30 41 7d  	sd	s4, 1984(sp)
     f34: 13 01 01 f9  	addi	sp, sp, -112
     f38: 13 04 05 00  	mv	s0, a0
     f3c: 13 05 01 43  	addi	a0, sp, 1072
     f40: 13 06 00 40  	li	a2, 1024
     f44: 93 04 01 43  	addi	s1, sp, 1072
     f48: 93 05 00 00  	li	a1, 0
     f4c: 97 f0 ff ff  	auipc	ra, 1048575
     f50: e7 80 80 0c  	jalr	200(ra)
     f54: 13 05 01 33  	addi	a0, sp, 816
     f58: 13 06 00 10  	li	a2, 256
     f5c: 93 05 00 00  	li	a1, 0
     f60: 97 f0 ff ff  	auipc	ra, 1048575
     f64: e7 80 40 0b  	jalr	180(ra)
     f68: 13 05 01 23  	addi	a0, sp, 560
     f6c: 13 06 00 10  	li	a2, 256
     f70: 93 05 00 00  	li	a1, 0
     f74: 97 f0 ff ff  	auipc	ra, 1048575
     f78: e7 80 00 0a  	jalr	160(ra)
     f7c: 13 05 01 13  	addi	a0, sp, 304
     f80: 13 06 00 10  	li	a2, 256
     f84: 93 05 00 00  	li	a1, 0
     f88: 97 f0 ff ff  	auipc	ra, 1048575
     f8c: e7 80 c0 08  	jalr	140(ra)
     f90: 13 05 01 03  	addi	a0, sp, 48
     f94: 13 06 00 10  	li	a2, 256
     f98: 93 05 00 00  	li	a1, 0
     f9c: 97 f0 ff ff  	auipc	ra, 1048575
     fa0: e7 80 80 07  	jalr	120(ra)
     fa4: 13 05 00 00  	li	a0, 0
     fa8: 93 05 00 08  	li	a1, 128
     fac: 23 b0 a4 00  	sd	a0, 0(s1)
     fb0: 13 05 15 00  	addi	a0, a0, 1
     fb4: 93 84 84 00  	addi	s1, s1, 8
     fb8: e3 1a b5 fe  	bne	a0, a1, 0xfac <vector_memcpy_segmented_harness_uint64_t+0x94>
     fbc: 93 04 01 33  	addi	s1, sp, 816
     fc0: 23 38 91 00  	sd	s1, 16(sp)
     fc4: 13 09 01 23  	addi	s2, sp, 560
     fc8: 23 3c 21 01  	sd	s2, 24(sp)
     fcc: 93 09 01 13  	addi	s3, sp, 304
     fd0: 23 30 31 03  	sd	s3, 32(sp)
     fd4: 13 0a 01 03  	addi	s4, sp, 48
     fd8: 23 34 41 03  	sd	s4, 40(sp)
     fdc: 13 05 a0 01  	li	a0, 26
     fe0: 93 05 01 43  	addi	a1, sp, 1072
     fe4: 13 06 01 01  	addi	a2, sp, 16
     fe8: e7 00 04 00  	jalr	s0
     fec: 13 05 00 00  	li	a0, 0
     ff0: 93 05 01 44  	addi	a1, sp, 1088
     ff4: 13 06 00 0d  	li	a2, 208
     ff8: 83 b6 05 ff  	ld	a3, -16(a1)
     ffc: 33 87 a4 00  	add	a4, s1, a0
    1000: 03 37 07 00  	ld	a4, 0(a4)
    1004: 63 9c e6 04  	bne	a3, a4, 0x105c <vector_memcpy_segmented_harness_uint64_t+0x144>
    1008: 83 b6 85 ff  	ld	a3, -8(a1)
    100c: 33 07 a9 00  	add	a4, s2, a0
    1010: 03 37 07 00  	ld	a4, 0(a4)
    1014: 63 94 e6 04  	bne	a3, a4, 0x105c <vector_memcpy_segmented_harness_uint64_t+0x144>
    1018: 83 b6 05 00  	ld	a3, 0(a1)
    101c: 33 87 a9 00  	add	a4, s3, a0
    1020: 03 37 07 00  	ld	a4, 0(a4)
    1024: 63 9c e6 02  	bne	a3, a4, 0x105c <vector_memcpy_segmented_harness_uint64_t+0x144>
    1028: 83 b6 85 00  	ld	a3, 8(a1)
    102c: 33 07 aa 00  	add	a4, s4, a0
    1030: 03 37 07 00  	ld	a4, 0(a4)
    1034: 63 94 e6 02  	bne	a3, a4, 0x105c <vector_memcpy_segmented_harness_uint64_t+0x144>
    1038: 13 05 85 00  	addi	a0, a0, 8
    103c: 93 85 05 02  	addi	a1, a1, 32
    1040: e3 1c c5 fa  	bne	a0, a2, 0xff8 <vector_memcpy_segmented_harness_uint64_t+0xe0>
    1044: 83 35 01 40  	ld	a1, 1024(sp)
    1048: 13 05 10 00  	li	a0, 1
    104c: 63 8c 05 02  	beqz	a1, 0x1084 <vector_memcpy_segmented_harness_uint64_t+0x16c>
    1050: 13 45 f5 ff  	not	a0, a0
    1054: 13 75 15 00  	andi	a0, a0, 1
    1058: 6f 00 80 00  	j	0x1060 <vector_memcpy_segmented_harness_uint64_t+0x148>
    105c: 13 05 00 00  	li	a0, 0
    1060: 13 01 01 07  	addi	sp, sp, 112
    1064: 83 30 81 7e  	ld	ra, 2024(sp)
    1068: 03 34 01 7e  	ld	s0, 2016(sp)
    106c: 83 34 81 7d  	ld	s1, 2008(sp)
    1070: 03 39 01 7d  	ld	s2, 2000(sp)
    1074: 83 39 81 7c  	ld	s3, 1992(sp)
    1078: 03 3a 01 7c  	ld	s4, 1984(sp)
    107c: 13 01 01 7f  	addi	sp, sp, 2032
    1080: 67 80 00 00  	ret
    1084: 93 05 01 30  	addi	a1, sp, 768
    1088: 13 06 01 20  	addi	a2, sp, 512
    108c: 93 06 01 10  	addi	a3, sp, 256
    1090: 13 07 81 40  	addi	a4, sp, 1032
    1094: 13 05 10 00  	li	a0, 1
    1098: 93 07 a0 01  	li	a5, 26
    109c: 13 08 f0 01  	li	a6, 31
    10a0: 83 b8 05 00  	ld	a7, 0(a1)
    10a4: e3 96 08 fa  	bnez	a7, 0x1050 <vector_memcpy_segmented_harness_uint64_t+0x138>
    10a8: 83 38 06 00  	ld	a7, 0(a2)
    10ac: e3 92 08 fa  	bnez	a7, 0x1050 <vector_memcpy_segmented_harness_uint64_t+0x138>
    10b0: 83 b8 06 00  	ld	a7, 0(a3)
    10b4: e3 9e 08 f8  	bnez	a7, 0x1050 <vector_memcpy_segmented_harness_uint64_t+0x138>
    10b8: 13 b5 f7 01  	sltiu	a0, a5, 31
    10bc: e3 8a 07 f9  	beq	a5, a6, 0x1050 <vector_memcpy_segmented_harness_uint64_t+0x138>
    10c0: 83 38 07 00  	ld	a7, 0(a4)
    10c4: 93 85 85 00  	addi	a1, a1, 8
    10c8: 13 06 86 00  	addi	a2, a2, 8
    10cc: 93 86 86 00  	addi	a3, a3, 8
    10d0: 13 07 87 00  	addi	a4, a4, 8
    10d4: 93 87 17 00  	addi	a5, a5, 1
    10d8: e3 84 08 fc  	beqz	a7, 0x10a0 <vector_memcpy_segmented_harness_uint64_t+0x188>
    10dc: 6f f0 5f f7  	j	0x1050 <vector_memcpy_segmented_harness_uint64_t+0x138>

00000000000010e0 <vector_memcpy_unit_stride_e8m8>:
    10e0: 6f 00 80 00  	j	0x10e8 <vector_memcpy_unit_stride_e8m8+0x8>
    10e4: 63 82 06 02  	beqz	a3, 0x1108 <vector_memcpy_unit_stride_e8m8+0x28>
    10e8: d7 76 35 04  	<unknown>
    10ec: e3 8c 06 fe  	beqz	a3, 0x10e4 <vector_memcpy_unit_stride_e8m8+0x4>
    10f0: 07 84 05 02  	<unknown>
    10f4: 27 04 06 02  	<unknown>
    10f8: b3 85 d5 00  	add	a1, a1, a3
    10fc: 33 06 d6 00  	add	a2, a2, a3
    1100: 33 05 d5 40  	sub	a0, a0, a3
    1104: 6f f0 1f fe  	j	0x10e4 <vector_memcpy_unit_stride_e8m8+0x4>
    1108: 67 80 00 00  	ret

000000000000110c <vector_memcpy_unit_stride_e16m8>:
    110c: 6f 00 80 00  	j	0x1114 <vector_memcpy_unit_stride_e16m8+0x8>
    1110: 63 84 06 02  	beqz	a3, 0x1138 <vector_memcpy_unit_stride_e16m8+0x2c>
    1114: d7 76 b5 04  	<unknown>
    1118: e3 8c 06 fe  	beqz	a3, 0x1110 <vector_memcpy_unit_stride_e16m8+0x4>
    111c: 07 d4 05 02  	<unknown>
    1120: 27 54 06 02  	<unknown>
    1124: 13 97 16 00  	slli	a4, a3, 1
    1128: b3 85 e5 00  	add	a1, a1, a4
    112c: 33 06 e6 00  	add	a2, a2, a4
    1130: 33 05 d5 40  	sub	a0, a0, a3
    1134: 6f f0 df fd  	j	0x1110 <vector_memcpy_unit_stride_e16m8+0x4>
    1138: 67 80 00 00  	ret

000000000000113c <vector_memcpy_unit_stride_e32m8>:
    113c: 6f 00 80 00  	j	0x1144 <vector_memcpy_unit_stride_e32m8+0x8>
    1140: 63 84 06 02  	beqz	a3, 0x1168 <vector_memcpy_unit_stride_e32m8+0x2c>
    1144: d7 76 35 05  	<unknown>
    1148: e3 8c 06 fe  	beqz	a3, 0x1140 <vector_memcpy_unit_stride_e32m8+0x4>
    114c: 07 e4 05 02  	<unknown>
    1150: 27 64 06 02  	<unknown>
    1154: 13 97 26 00  	slli	a4, a3, 2
    1158: b3 85 e5 00  	add	a1, a1, a4
    115c: 33 06 e6 00  	add	a2, a2, a4
    1160: 33 05 d5 40  	sub	a0, a0, a3
    1164: 6f f0 df fd  	j	0x1140 <vector_memcpy_unit_stride_e32m8+0x4>
    1168: 67 80 00 00  	ret

000000000000116c <vector_memcpy_unit_stride_e32mf2>:
    116c: 6f 00 80 00  	j	0x1174 <vector_memcpy_unit_stride_e32mf2+0x8>
    1170: 63 84 06 02  	beqz	a3, 0x1198 <vector_memcpy_unit_stride_e32mf2+0x2c>
    1174: d7 76 75 05  	<unknown>
    1178: e3 8c 06 fe  	beqz	a3, 0x1170 <vector_memcpy_unit_stride_e32mf2+0x4>
    117c: 07 e4 05 02  	<unknown>
    1180: 27 64 06 02  	<unknown>
    1184: 13 97 26 00  	slli	a4, a3, 2
    1188: b3 85 e5 00  	add	a1, a1, a4
    118c: 33 06 e6 00  	add	a2, a2, a4
    1190: 33 05 d5 40  	sub	a0, a0, a3
    1194: 6f f0 df fd  	j	0x1170 <vector_memcpy_unit_stride_e32mf2+0x4>
    1198: 67 80 00 00  	ret

000000000000119c <vector_memcpy_unit_stride_e64m2>:
    119c: 6f 00 80 00  	j	0x11a4 <vector_memcpy_unit_stride_e64m2+0x8>
    11a0: 63 84 06 02  	beqz	a3, 0x11c8 <vector_memcpy_unit_stride_e64m2+0x2c>
    11a4: d7 76 95 05  	<unknown>
    11a8: e3 8c 06 fe  	beqz	a3, 0x11a0 <vector_memcpy_unit_stride_e64m2+0x4>
    11ac: 07 f4 05 02  	<unknown>
    11b0: 27 74 06 02  	<unknown>
    11b4: 13 97 36 00  	slli	a4, a3, 3
    11b8: b3 85 e5 00  	add	a1, a1, a4
    11bc: 33 06 e6 00  	add	a2, a2, a4
    11c0: 33 05 d5 40  	sub	a0, a0, a3
    11c4: 6f f0 df fd  	j	0x11a0 <vector_memcpy_unit_stride_e64m2+0x4>
    11c8: 67 80 00 00  	ret

00000000000011cc <vector_memcpy_strided_e8m8>:
    11cc: 93 06 40 00  	li	a3, 4
    11d0: 6f 00 00 02  	j	0x11f0 <vector_memcpy_strided_e8m8+0x24>
    11d4: 07 84 05 02  	<unknown>
    11d8: 27 04 06 02  	<unknown>
    11dc: 93 07 07 00  	mv	a5, a4
    11e0: 33 05 f5 40  	sub	a0, a0, a5
    11e4: b3 85 f5 00  	add	a1, a1, a5
    11e8: 33 06 f6 00  	add	a2, a2, a5
    11ec: 63 0c 07 02  	beqz	a4, 0x1224 <vector_memcpy_strided_e8m8+0x58>
    11f0: 57 77 35 04  	<unknown>
    11f4: e3 0c 07 fe  	beqz	a4, 0x11ec <vector_memcpy_strided_e8m8+0x20>
    11f8: 93 17 27 00  	slli	a5, a4, 2
    11fc: e3 fc a7 fc  	bgeu	a5, a0, 0x11d4 <vector_memcpy_strided_e8m8+0x8>
    1200: 13 08 00 00  	li	a6, 0
    1204: b3 88 05 01  	add	a7, a1, a6
    1208: 57 70 37 04  	<unknown>
    120c: 07 84 d8 0a  	<unknown>
    1210: b3 08 06 01  	add	a7, a2, a6
    1214: 13 08 18 00  	addi	a6, a6, 1
    1218: 27 84 d8 0a  	<unknown>
    121c: e3 14 d8 fe  	bne	a6, a3, 0x1204 <vector_memcpy_strided_e8m8+0x38>
    1220: 6f f0 1f fc  	j	0x11e0 <vector_memcpy_strided_e8m8+0x14>
    1224: 67 80 00 00  	ret

0000000000001228 <vector_memcpy_strided_e16m8>:
    1228: 93 06 80 00  	li	a3, 8
    122c: 6f 00 40 02  	j	0x1250 <vector_memcpy_strided_e16m8+0x28>
    1230: 07 d4 05 02  	<unknown>
    1234: 27 54 06 02  	<unknown>
    1238: 93 07 07 00  	mv	a5, a4
    123c: 33 05 f5 40  	sub	a0, a0, a5
    1240: 93 97 17 00  	slli	a5, a5, 1
    1244: b3 85 f5 00  	add	a1, a1, a5
    1248: 33 06 f6 00  	add	a2, a2, a5
    124c: 63 0c 07 02  	beqz	a4, 0x1284 <vector_memcpy_strided_e16m8+0x5c>
    1250: 57 77 b5 04  	<unknown>
    1254: e3 0c 07 fe  	beqz	a4, 0x124c <vector_memcpy_strided_e16m8+0x24>
    1258: 93 17 27 00  	slli	a5, a4, 2
    125c: e3 fa a7 fc  	bgeu	a5, a0, 0x1230 <vector_memcpy_strided_e16m8+0x8>
    1260: 13 08 00 00  	li	a6, 0
    1264: b3 88 05 01  	add	a7, a1, a6
    1268: 57 70 b7 04  	<unknown>
    126c: 07 d4 d8 0a  	<unknown>
    1270: b3 08 06 01  	add	a7, a2, a6
    1274: 13 08 28 00  	addi	a6, a6, 2
    1278: 27 d4 d8 0a  	<unknown>
    127c: e3 14 d8 fe  	bne	a6, a3, 0x1264 <vector_memcpy_strided_e16m8+0x3c>
    1280: 6f f0 df fb  	j	0x123c <vector_memcpy_strided_e16m8+0x14>
    1284: 67 80 00 00  	ret

0000000000001288 <vector_memcpy_strided_e32m8>:
    1288: 93 06 00 01  	li	a3, 16
    128c: 6f 00 40 02  	j	0x12b0 <vector_memcpy_strided_e32m8+0x28>
    1290: 07 e4 05 02  	<unknown>
    1294: 27 64 06 02  	<unknown>
    1298: 93 07 07 00  	mv	a5, a4
    129c: 33 05 f5 40  	sub	a0, a0, a5
    12a0: 93 97 27 00  	slli	a5, a5, 2
    12a4: b3 85 f5 00  	add	a1, a1, a5
    12a8: 33 06 f6 00  	add	a2, a2, a5
    12ac: 63 0c 07 02  	beqz	a4, 0x12e4 <vector_memcpy_strided_e32m8+0x5c>
    12b0: 57 77 35 05  	<unknown>
    12b4: e3 0c 07 fe  	beqz	a4, 0x12ac <vector_memcpy_strided_e32m8+0x24>
    12b8: 93 17 27 00  	slli	a5, a4, 2
    12bc: e3 fa a7 fc  	bgeu	a5, a0, 0x1290 <vector_memcpy_strided_e32m8+0x8>
    12c0: 13 08 00 00  	li	a6, 0
    12c4: b3 88 05 01  	add	a7, a1, a6
    12c8: 57 70 37 05  	<unknown>
    12cc: 07 e4 d8 0a  	<unknown>
    12d0: b3 08 06 01  	add	a7, a2, a6
    12d4: 13 08 48 00  	addi	a6, a6, 4
    12d8: 27 e4 d8 0a  	<unknown>
    12dc: e3 14 d8 fe  	bne	a6, a3, 0x12c4 <vector_memcpy_strided_e32m8+0x3c>
    12e0: 6f f0 df fb  	j	0x129c <vector_memcpy_strided_e32m8+0x14>
    12e4: 67 80 00 00  	ret

00000000000012e8 <vector_memcpy_strided_e32mf2>:
    12e8: 93 06 00 01  	li	a3, 16
    12ec: 6f 00 40 02  	j	0x1310 <vector_memcpy_strided_e32mf2+0x28>
    12f0: 07 e4 05 02  	<unknown>
    12f4: 27 64 06 02  	<unknown>
    12f8: 93 07 07 00  	mv	a5, a4
    12fc: 33 05 f5 40  	sub	a0, a0, a5
    1300: 93 97 27 00  	slli	a5, a5, 2
    1304: b3 85 f5 00  	add	a1, a1, a5
    1308: 33 06 f6 00  	add	a2, a2, a5
    130c: 63 0c 07 02  	beqz	a4, 0x1344 <vector_memcpy_strided_e32mf2+0x5c>
    1310: 57 77 75 05  	<unknown>
    1314: e3 0c 07 fe  	beqz	a4, 0x130c <vector_memcpy_strided_e32mf2+0x24>
    1318: 93 17 27 00  	slli	a5, a4, 2
    131c: e3 fa a7 fc  	bgeu	a5, a0, 0x12f0 <vector_memcpy_strided_e32mf2+0x8>
    1320: 13 08 00 00  	li	a6, 0
    1324: b3 88 05 01  	add	a7, a1, a6
    1328: 57 70 77 05  	<unknown>
    132c: 07 e4 d8 0a  	<unknown>
    1330: b3 08 06 01  	add	a7, a2, a6
    1334: 13 08 48 00  	addi	a6, a6, 4
    1338: 27 e4 d8 0a  	<unknown>
    133c: e3 14 d8 fe  	bne	a6, a3, 0x1324 <vector_memcpy_strided_e32mf2+0x3c>
    1340: 6f f0 df fb  	j	0x12fc <vector_memcpy_strided_e32mf2+0x14>
    1344: 67 80 00 00  	ret

0000000000001348 <vector_memcpy_strided_e64m2>:
    1348: 93 06 00 02  	li	a3, 32
    134c: 6f 00 40 02  	j	0x1370 <vector_memcpy_strided_e64m2+0x28>
    1350: 07 f4 05 02  	<unknown>
    1354: 27 74 06 02  	<unknown>
    1358: 93 07 07 00  	mv	a5, a4
    135c: 33 05 f5 40  	sub	a0, a0, a5
    1360: 93 97 37 00  	slli	a5, a5, 3
    1364: b3 85 f5 00  	add	a1, a1, a5
    1368: 33 06 f6 00  	add	a2, a2, a5
    136c: 63 0c 07 02  	beqz	a4, 0x13a4 <vector_memcpy_strided_e64m2+0x5c>
    1370: 57 77 95 05  	<unknown>
    1374: e3 0c 07 fe  	beqz	a4, 0x136c <vector_memcpy_strided_e64m2+0x24>
    1378: 93 17 27 00  	slli	a5, a4, 2
    137c: e3 fa a7 fc  	bgeu	a5, a0, 0x1350 <vector_memcpy_strided_e64m2+0x8>
    1380: 13 08 00 00  	li	a6, 0
    1384: b3 88 05 01  	add	a7, a1, a6
    1388: 57 70 97 05  	<unknown>
    138c: 07 f4 d8 0a  	<unknown>
    1390: b3 08 06 01  	add	a7, a2, a6
    1394: 13 08 88 00  	addi	a6, a6, 8
    1398: 27 f4 d8 0a  	<unknown>
    139c: e3 14 d8 fe  	bne	a6, a3, 0x1384 <vector_memcpy_strided_e64m2+0x3c>
    13a0: 6f f0 df fb  	j	0x135c <vector_memcpy_strided_e64m2+0x14>
    13a4: 67 80 00 00  	ret

00000000000013a8 <vector_memcpy_indexed_e8m8>:
    13a8: 13 01 01 f4  	addi	sp, sp, -192
    13ac: 23 3c 11 0a  	sd	ra, 184(sp)
    13b0: 23 38 81 0a  	sd	s0, 176(sp)
    13b4: 23 34 91 0a  	sd	s1, 168(sp)
    13b8: 23 30 21 0b  	sd	s2, 160(sp)
    13bc: 23 3c 31 09  	sd	s3, 152(sp)
    13c0: 23 38 41 09  	sd	s4, 144(sp)
    13c4: 13 04 06 00  	mv	s0, a2
    13c8: 93 84 05 00  	mv	s1, a1
    13cc: 13 09 05 00  	mv	s2, a0
    13d0: d7 79 30 04  	<unknown>
    13d4: 13 05 01 01  	addi	a0, sp, 16
    13d8: 13 06 00 08  	li	a2, 128
    13dc: 13 0a 01 01  	addi	s4, sp, 16
    13e0: 93 05 00 00  	li	a1, 0
    13e4: 97 f0 ff ff  	auipc	ra, 1048575
    13e8: e7 80 00 c3  	jalr	-976(ra)
    13ec: 63 8e 09 00  	beqz	s3, 0x1408 <vector_memcpy_indexed_e8m8+0x60>
    13f0: 13 05 00 00  	li	a0, 0
    13f4: 93 45 15 00  	xori	a1, a0, 1
    13f8: 33 06 aa 00  	add	a2, s4, a0
    13fc: 13 05 15 00  	addi	a0, a0, 1
    1400: 23 00 b6 00  	sb	a1, 0(a2)
    1404: e3 98 a9 fe  	bne	s3, a0, 0x13f4 <vector_memcpy_indexed_e8m8+0x4c>
    1408: 57 f0 39 04  	<unknown>
    140c: 13 05 01 01  	addi	a0, sp, 16
    1410: 07 04 05 02  	<unknown>
    1414: 6f 00 c0 01  	j	0x1430 <vector_memcpy_indexed_e8m8+0x88>
    1418: 07 88 04 02  	<unknown>
    141c: 27 08 04 02  	<unknown>
    1420: b3 84 a4 00  	add	s1, s1, a0
    1424: 33 04 a4 00  	add	s0, s0, a0
    1428: 33 09 a9 40  	sub	s2, s2, a0
    142c: 63 0e 05 00  	beqz	a0, 0x1448 <vector_memcpy_indexed_e8m8+0xa0>
    1430: 57 75 39 04  	<unknown>
    1434: e3 0c 05 fe  	beqz	a0, 0x142c <vector_memcpy_indexed_e8m8+0x84>
    1438: e3 10 35 ff  	bne	a0, s3, 0x1418 <vector_memcpy_indexed_e8m8+0x70>
    143c: 07 88 84 06  	<unknown>
    1440: 27 08 84 06  	<unknown>
    1444: 6f f0 df fd  	j	0x1420 <vector_memcpy_indexed_e8m8+0x78>
    1448: 83 30 81 0b  	ld	ra, 184(sp)
    144c: 03 34 01 0b  	ld	s0, 176(sp)
    1450: 83 34 81 0a  	ld	s1, 168(sp)
    1454: 03 39 01 0a  	ld	s2, 160(sp)
    1458: 83 39 81 09  	ld	s3, 152(sp)
    145c: 03 3a 01 09  	ld	s4, 144(sp)
    1460: 13 01 01 0c  	addi	sp, sp, 192
    1464: 67 80 00 00  	ret

0000000000001468 <vector_memcpy_indexed_e16m8>:
    1468: 13 01 01 ec  	addi	sp, sp, -320
    146c: 23 3c 11 12  	sd	ra, 312(sp)
    1470: 23 38 81 12  	sd	s0, 304(sp)
    1474: 23 34 91 12  	sd	s1, 296(sp)
    1478: 23 30 21 13  	sd	s2, 288(sp)
    147c: 23 3c 31 11  	sd	s3, 280(sp)
    1480: 23 38 41 11  	sd	s4, 272(sp)
    1484: 13 04 06 00  	mv	s0, a2
    1488: 93 84 05 00  	mv	s1, a1
    148c: 13 09 05 00  	mv	s2, a0
    1490: d7 79 b0 04  	<unknown>
    1494: 13 05 01 01  	addi	a0, sp, 16
    1498: 13 06 00 10  	li	a2, 256
    149c: 13 0a 01 01  	addi	s4, sp, 16
    14a0: 93 05 00 00  	li	a1, 0
    14a4: 97 f0 ff ff  	auipc	ra, 1048575
    14a8: e7 80 00 b7  	jalr	-1168(ra)
    14ac: 63 80 09 02  	beqz	s3, 0x14cc <vector_memcpy_indexed_e16m8+0x64>
    14b0: 13 05 00 00  	li	a0, 0
    14b4: 93 15 15 00  	slli	a1, a0, 1
    14b8: 93 c5 25 00  	xori	a1, a1, 2
    14bc: 23 10 ba 00  	sh	a1, 0(s4)
    14c0: 13 05 15 00  	addi	a0, a0, 1
    14c4: 13 0a 2a 00  	addi	s4, s4, 2
    14c8: e3 96 a9 fe  	bne	s3, a0, 0x14b4 <vector_memcpy_indexed_e16m8+0x4c>
    14cc: 57 f0 b9 04  	<unknown>
    14d0: 13 05 01 01  	addi	a0, sp, 16
    14d4: 07 54 05 02  	<unknown>
    14d8: 6f 00 00 02  	j	0x14f8 <vector_memcpy_indexed_e16m8+0x90>
    14dc: 07 d8 04 02  	<unknown>
    14e0: 27 58 04 02  	<unknown>
    14e4: 93 15 15 00  	slli	a1, a0, 1
    14e8: b3 84 b4 00  	add	s1, s1, a1
    14ec: 33 04 b4 00  	add	s0, s0, a1
    14f0: 33 09 a9 40  	sub	s2, s2, a0
    14f4: 63 0e 05 00  	beqz	a0, 0x1510 <vector_memcpy_indexed_e16m8+0xa8>
    14f8: 57 75 b9 04  	<unknown>
    14fc: e3 0c 05 fe  	beqz	a0, 0x14f4 <vector_memcpy_indexed_e16m8+0x8c>
    1500: e3 1e 35 fd  	bne	a0, s3, 0x14dc <vector_memcpy_indexed_e16m8+0x74>
    1504: 07 d8 84 06  	<unknown>
    1508: 27 58 84 06  	<unknown>
    150c: 6f f0 9f fd  	j	0x14e4 <vector_memcpy_indexed_e16m8+0x7c>
    1510: 83 30 81 13  	ld	ra, 312(sp)
    1514: 03 34 01 13  	ld	s0, 304(sp)
    1518: 83 34 81 12  	ld	s1, 296(sp)
    151c: 03 39 01 12  	ld	s2, 288(sp)
    1520: 83 39 81 11  	ld	s3, 280(sp)
    1524: 03 3a 01 11  	ld	s4, 272(sp)
    1528: 13 01 01 14  	addi	sp, sp, 320
    152c: 67 80 00 00  	ret

0000000000001530 <vector_memcpy_indexed_e32m8>:
    1530: 13 01 01 dc  	addi	sp, sp, -576
    1534: 23 3c 11 22  	sd	ra, 568(sp)
    1538: 23 38 81 22  	sd	s0, 560(sp)
    153c: 23 34 91 22  	sd	s1, 552(sp)
    1540: 23 30 21 23  	sd	s2, 544(sp)
    1544: 23 3c 31 21  	sd	s3, 536(sp)
    1548: 23 38 41 21  	sd	s4, 528(sp)
    154c: 13 04 06 00  	mv	s0, a2
    1550: 93 84 05 00  	mv	s1, a1
    1554: 13 09 05 00  	mv	s2, a0
    1558: d7 79 30 05  	<unknown>
    155c: 13 05 01 01  	addi	a0, sp, 16
    1560: 13 06 00 20  	li	a2, 512
    1564: 13 0a 01 01  	addi	s4, sp, 16
    1568: 93 05 00 00  	li	a1, 0
    156c: 97 f0 ff ff  	auipc	ra, 1048575
    1570: e7 80 80 aa  	jalr	-1368(ra)
    1574: 63 80 09 02  	beqz	s3, 0x1594 <vector_memcpy_indexed_e32m8+0x64>
    1578: 13 05 00 00  	li	a0, 0
    157c: 93 15 25 00  	slli	a1, a0, 2
    1580: 93 c5 45 00  	xori	a1, a1, 4
    1584: 23 20 ba 00  	sw	a1, 0(s4)
    1588: 13 05 15 00  	addi	a0, a0, 1
    158c: 13 0a 4a 00  	addi	s4, s4, 4
    1590: e3 96 a9 fe  	bne	s3, a0, 0x157c <vector_memcpy_indexed_e32m8+0x4c>
    1594: 57 f0 39 05  	<unknown>
    1598: 13 05 01 01  	addi	a0, sp, 16
    159c: 07 64 05 02  	<unknown>
    15a0: 6f 00 00 02  	j	0x15c0 <vector_memcpy_indexed_e32m8+0x90>
    15a4: 07 e8 04 02  	<unknown>
    15a8: 27 68 04 02  	<unknown>
    15ac: 93 15 25 00  	slli	a1, a0, 2
    15b0: b3 84 b4 00  	add	s1, s1, a1
    15b4: 33 04 b4 00  	add	s0, s0, a1
    15b8: 33 09 a9 40  	sub	s2, s2, a0
    15bc: 63 0e 05 00  	beqz	a0, 0x15d8 <vector_memcpy_indexed_e32m8+0xa8>
    15c0: 57 75 39 05  	<unknown>
    15c4: e3 0c 05 fe  	beqz	a0, 0x15bc <vector_memcpy_indexed_e32m8+0x8c>
    15c8: e3 1e 35 fd  	bne	a0, s3, 0x15a4 <vector_memcpy_indexed_e32m8+0x74>
    15cc: 07 e8 84 06  	<unknown>
    15d0: 27 68 84 06  	<unknown>
    15d4: 6f f0 9f fd  	j	0x15ac <vector_memcpy_indexed_e32m8+0x7c>
    15d8: 83 30 81 23  	ld	ra, 568(sp)
    15dc: 03 34 01 23  	ld	s0, 560(sp)
    15e0: 83 34 81 22  	ld	s1, 552(sp)
    15e4: 03 39 01 22  	ld	s2, 544(sp)
    15e8: 83 39 81 21  	ld	s3, 536(sp)
    15ec: 03 3a 01 21  	ld	s4, 528(sp)
    15f0: 13 01 01 24  	addi	sp, sp, 576
    15f4: 67 80 00 00  	ret

00000000000015f8 <vector_memcpy_indexed_e32mf2>:
    15f8: 13 01 01 dc  	addi	sp, sp, -576
    15fc: 23 3c 11 22  	sd	ra, 568(sp)
    1600: 23 38 81 22  	sd	s0, 560(sp)
    1604: 23 34 91 22  	sd	s1, 552(sp)
    1608: 23 30 21 23  	sd	s2, 544(sp)
    160c: 23 3c 31 21  	sd	s3, 536(sp)
    1610: 23 38 41 21  	sd	s4, 528(sp)
    1614: 13 04 06 00  	mv	s0, a2
    1618: 93 84 05 00  	mv	s1, a1
    161c: 13 09 05 00  	mv	s2, a0
    1620: d7 79 70 05  	<unknown>
    1624: 13 05 01 01  	addi	a0, sp, 16
    1628: 13 06 00 20  	li	a2, 512
    162c: 13 0a 01 01  	addi	s4, sp, 16
    1630: 93 05 00 00  	li	a1, 0
    1634: 97 f0 ff ff  	auipc	ra, 1048575
    1638: e7 80 00 9e  	jalr	-1568(ra)
    163c: 63 80 09 02  	beqz	s3, 0x165c <vector_memcpy_indexed_e32mf2+0x64>
    1640: 13 05 00 00  	li	a0, 0
    1644: 93 15 25 00  	slli	a1, a0, 2
    1648: 93 c5 45 00  	xori	a1, a1, 4
    164c: 23 20 ba 00  	sw	a1, 0(s4)
    1650: 13 05 15 00  	addi	a0, a0, 1
    1654: 13 0a 4a 00  	addi	s4, s4, 4
    1658: e3 96 a9 fe  	bne	s3, a0, 0x1644 <vector_memcpy_indexed_e32mf2+0x4c>
    165c: 57 f0 79 05  	<unknown>
    1660: 13 05 01 01  	addi	a0, sp, 16
    1664: 07 64 05 02  	<unknown>
    1668: 6f 00 00 02  	j	0x1688 <vector_memcpy_indexed_e32mf2+0x90>
    166c: 87 e4 04 02  	<unknown>
    1670: a7 64 04 02  	<unknown>
    1674: 93 15 25 00  	slli	a1, a0, 2
    1678: b3 84 b4 00  	add	s1, s1, a1
    167c: 33 04 b4 00  	add	s0, s0, a1
    1680: 33 09 a9 40  	sub	s2, s2, a0
    1684: 63 0e 05 00  	beqz	a0, 0x16a0 <vector_memcpy_indexed_e32mf2+0xa8>
    1688: 57 75 79 05  	<unknown>
    168c: e3 0c 05 fe  	beqz	a0, 0x1684 <vector_memcpy_indexed_e32mf2+0x8c>
    1690: e3 1e 35 fd  	bne	a0, s3, 0x166c <vector_memcpy_indexed_e32mf2+0x74>
    1694: 87 e4 84 06  	<unknown>
    1698: a7 64 84 06  	<unknown>
    169c: 6f f0 9f fd  	j	0x1674 <vector_memcpy_indexed_e32mf2+0x7c>
    16a0: 83 30 81 23  	ld	ra, 568(sp)
    16a4: 03 34 01 23  	ld	s0, 560(sp)
    16a8: 83 34 81 22  	ld	s1, 552(sp)
    16ac: 03 39 01 22  	ld	s2, 544(sp)
    16b0: 83 39 81 21  	ld	s3, 536(sp)
    16b4: 03 3a 01 21  	ld	s4, 528(sp)
    16b8: 13 01 01 24  	addi	sp, sp, 576
    16bc: 67 80 00 00  	ret

00000000000016c0 <vector_memcpy_indexed_e64m2>:
    16c0: 13 01 01 bc  	addi	sp, sp, -1088
    16c4: 23 3c 11 42  	sd	ra, 1080(sp)
    16c8: 23 38 81 42  	sd	s0, 1072(sp)
    16cc: 23 34 91 42  	sd	s1, 1064(sp)
    16d0: 23 30 21 43  	sd	s2, 1056(sp)
    16d4: 23 3c 31 41  	sd	s3, 1048(sp)
    16d8: 23 38 41 41  	sd	s4, 1040(sp)
    16dc: 13 04 06 00  	mv	s0, a2
    16e0: 93 84 05 00  	mv	s1, a1
    16e4: 13 09 05 00  	mv	s2, a0
    16e8: d7 79 90 05  	<unknown>
    16ec: 13 05 01 01  	addi	a0, sp, 16
    16f0: 13 06 00 40  	li	a2, 1024
    16f4: 13 0a 01 01  	addi	s4, sp, 16
    16f8: 93 05 00 00  	li	a1, 0
    16fc: 97 f0 ff ff  	auipc	ra, 1048575
    1700: e7 80 80 91  	jalr	-1768(ra)
    1704: 63 80 09 02  	beqz	s3, 0x1724 <vector_memcpy_indexed_e64m2+0x64>
    1708: 13 05 00 00  	li	a0, 0
    170c: 93 95 39 00  	slli	a1, s3, 3
    1710: 13 46 85 00  	xori	a2, a0, 8
    1714: b3 06 aa 00  	add	a3, s4, a0
    1718: 13 05 85 00  	addi	a0, a0, 8
    171c: 23 b0 c6 00  	sd	a2, 0(a3)
    1720: e3 98 a5 fe  	bne	a1, a0, 0x1710 <vector_memcpy_indexed_e64m2+0x50>
    1724: 57 f0 99 05  	<unknown>
    1728: 13 05 01 01  	addi	a0, sp, 16
    172c: 07 74 05 02  	<unknown>
    1730: 6f 00 00 02  	j	0x1750 <vector_memcpy_indexed_e64m2+0x90>
    1734: 07 f5 04 02  	<unknown>
    1738: 27 75 04 02  	<unknown>
    173c: 93 15 35 00  	slli	a1, a0, 3
    1740: b3 84 b4 00  	add	s1, s1, a1
    1744: 33 04 b4 00  	add	s0, s0, a1
    1748: 33 09 a9 40  	sub	s2, s2, a0
    174c: 63 0e 05 00  	beqz	a0, 0x1768 <vector_memcpy_indexed_e64m2+0xa8>
    1750: 57 75 99 05  	<unknown>
    1754: e3 0c 05 fe  	beqz	a0, 0x174c <vector_memcpy_indexed_e64m2+0x8c>
    1758: e3 1e 35 fd  	bne	a0, s3, 0x1734 <vector_memcpy_indexed_e64m2+0x74>
    175c: 07 f5 84 06  	<unknown>
    1760: 27 75 84 06  	<unknown>
    1764: 6f f0 9f fd  	j	0x173c <vector_memcpy_indexed_e64m2+0x7c>
    1768: 83 30 81 43  	ld	ra, 1080(sp)
    176c: 03 34 01 43  	ld	s0, 1072(sp)
    1770: 83 34 81 42  	ld	s1, 1064(sp)
    1774: 03 39 01 42  	ld	s2, 1056(sp)
    1778: 83 39 81 41  	ld	s3, 1048(sp)
    177c: 03 3a 01 41  	ld	s4, 1040(sp)
    1780: 13 01 01 44  	addi	sp, sp, 1088
    1784: 67 80 00 00  	ret

0000000000001788 <vector_memcpy_masked_e32m8>:
    1788: 13 01 01 dd  	addi	sp, sp, -560
    178c: 23 34 11 22  	sd	ra, 552(sp)
    1790: 23 30 81 22  	sd	s0, 544(sp)
    1794: 23 3c 91 20  	sd	s1, 536(sp)
    1798: 23 38 21 21  	sd	s2, 528(sp)
    179c: 23 34 31 21  	sd	s3, 520(sp)
    17a0: 13 04 06 00  	mv	s0, a2
    17a4: 93 84 05 00  	mv	s1, a1
    17a8: 13 09 05 00  	mv	s2, a0
    17ac: 13 05 81 00  	addi	a0, sp, 8
    17b0: 13 06 00 20  	li	a2, 512
    17b4: 93 09 81 00  	addi	s3, sp, 8
    17b8: 93 05 00 00  	li	a1, 0
    17bc: 97 f0 ff ff  	auipc	ra, 1048575
    17c0: e7 80 80 85  	jalr	-1960(ra)
    17c4: 57 75 30 05  	<unknown>
    17c8: 63 0e 05 00  	beqz	a0, 0x17e4 <vector_memcpy_masked_e32m8+0x5c>
    17cc: 93 05 00 00  	li	a1, 0
    17d0: 13 f6 15 00  	andi	a2, a1, 1
    17d4: 23 a0 c9 00  	sw	a2, 0(s3)
    17d8: 93 85 15 00  	addi	a1, a1, 1
    17dc: 93 89 49 00  	addi	s3, s3, 4
    17e0: e3 18 b5 fe  	bne	a0, a1, 0x17d0 <vector_memcpy_masked_e32m8+0x48>
    17e4: 13 05 81 00  	addi	a0, sp, 8
    17e8: 07 64 05 02  	<unknown>
    17ec: 57 b0 80 62  	<unknown>
    17f0: 6f 00 80 00  	j	0x17f8 <vector_memcpy_masked_e32m8+0x70>
    17f4: 63 06 05 02  	beqz	a0, 0x1820 <vector_memcpy_masked_e32m8+0x98>
    17f8: 57 75 39 05  	<unknown>
    17fc: e3 0c 05 fe  	beqz	a0, 0x17f4 <vector_memcpy_masked_e32m8+0x6c>
    1800: 57 70 35 01  	<unknown>
    1804: 07 e4 04 00  	<unknown>
    1808: 27 64 04 00  	<unknown>
    180c: 93 15 25 00  	slli	a1, a0, 2
    1810: b3 84 b4 00  	add	s1, s1, a1
    1814: 33 04 b4 00  	add	s0, s0, a1
    1818: 33 09 a9 40  	sub	s2, s2, a0
    181c: 6f f0 9f fd  	j	0x17f4 <vector_memcpy_masked_e32m8+0x6c>
    1820: 83 30 81 22  	ld	ra, 552(sp)
    1824: 03 34 01 22  	ld	s0, 544(sp)
    1828: 83 34 81 21  	ld	s1, 536(sp)
    182c: 03 39 01 21  	ld	s2, 528(sp)
    1830: 83 39 81 20  	ld	s3, 520(sp)
    1834: 13 01 01 23  	addi	sp, sp, 560
    1838: 67 80 00 00  	ret

000000000000183c <vector_memcpy_masked_bytemask_load_e32m8>:
    183c: 13 01 01 ff  	addi	sp, sp, -16
    1840: 23 34 01 00  	sd	zero, 8(sp)
    1844: 57 77 30 05  	<unknown>
    1848: 93 06 00 04  	li	a3, 64
    184c: 63 f6 e6 00  	bgeu	a3, a4, 0x1858 <vector_memcpy_masked_bytemask_load_e32m8+0x1c>
    1850: 13 01 01 01  	addi	sp, sp, 16
    1854: 67 80 00 00  	ret
    1858: 83 36 81 00  	ld	a3, 8(sp)
    185c: 63 0e 07 00  	beqz	a4, 0x1878 <vector_memcpy_masked_bytemask_load_e32m8+0x3c>
    1860: 93 07 00 00  	li	a5, 0
    1864: 13 f8 17 00  	andi	a6, a5, 1
    1868: 33 18 f8 00  	sll	a6, a6, a5
    186c: 93 87 17 00  	addi	a5, a5, 1
    1870: b3 e6 06 01  	or	a3, a3, a6
    1874: e3 18 f7 fe  	bne	a4, a5, 0x1864 <vector_memcpy_masked_bytemask_load_e32m8+0x28>
    1878: 23 34 d1 00  	sd	a3, 8(sp)
    187c: 93 06 81 00  	addi	a3, sp, 8
    1880: 07 80 b6 02  	<unknown>
    1884: 6f 00 80 00  	j	0x188c <vector_memcpy_masked_bytemask_load_e32m8+0x50>
    1888: e3 84 06 fc  	beqz	a3, 0x1850 <vector_memcpy_masked_bytemask_load_e32m8+0x14>
    188c: d7 76 35 05  	<unknown>
    1890: e3 8c 06 fe  	beqz	a3, 0x1888 <vector_memcpy_masked_bytemask_load_e32m8+0x4c>
    1894: 57 f0 36 01  	<unknown>
    1898: 07 e4 05 00  	<unknown>
    189c: 27 64 06 00  	<unknown>
    18a0: 13 97 26 00  	slli	a4, a3, 2
    18a4: b3 85 e5 00  	add	a1, a1, a4
    18a8: 33 06 e6 00  	add	a2, a2, a4
    18ac: 33 05 d5 40  	sub	a0, a0, a3
    18b0: 6f f0 9f fd  	j	0x1888 <vector_memcpy_masked_bytemask_load_e32m8+0x4c>

00000000000018b4 <vector_memcpy_segmented_e8m2>:
    18b4: 93 06 00 02  	li	a3, 32
    18b8: 6f 00 80 00  	j	0x18c0 <vector_memcpy_segmented_e8m2+0xc>
    18bc: 63 0e 07 04  	beqz	a4, 0x1918 <vector_memcpy_segmented_e8m2+0x64>
    18c0: 57 77 15 04  	<unknown>
    18c4: e3 0c 07 fe  	beqz	a4, 0x18bc <vector_memcpy_segmented_e8m2+0x8>
    18c8: 07 84 05 62  	<unknown>
    18cc: 83 37 06 00  	ld	a5, 0(a2)
    18d0: 27 84 07 02  	<unknown>
    18d4: 83 37 86 00  	ld	a5, 8(a2)
    18d8: 27 85 07 02  	<unknown>
    18dc: 83 37 06 01  	ld	a5, 16(a2)
    18e0: 27 86 07 02  	<unknown>
    18e4: 83 37 86 01  	ld	a5, 24(a2)
    18e8: 13 08 00 00  	li	a6, 0
    18ec: 27 87 07 02  	<unknown>
    18f0: 93 17 27 00  	slli	a5, a4, 2
    18f4: b3 08 06 01  	add	a7, a2, a6
    18f8: 83 b2 08 00  	ld	t0, 0(a7)
    18fc: b3 82 e2 00  	add	t0, t0, a4
    1900: 13 08 88 00  	addi	a6, a6, 8
    1904: 23 b0 58 00  	sd	t0, 0(a7)
    1908: e3 16 d8 fe  	bne	a6, a3, 0x18f4 <vector_memcpy_segmented_e8m2+0x40>
    190c: b3 85 f5 00  	add	a1, a1, a5
    1910: 33 05 e5 40  	sub	a0, a0, a4
    1914: 6f f0 9f fa  	j	0x18bc <vector_memcpy_segmented_e8m2+0x8>
    1918: 67 80 00 00  	ret

000000000000191c <vector_memcpy_segmented_e16m2>:
    191c: 93 06 00 02  	li	a3, 32
    1920: 6f 00 80 00  	j	0x1928 <vector_memcpy_segmented_e16m2+0xc>
    1924: 63 02 07 06  	beqz	a4, 0x1988 <vector_memcpy_segmented_e16m2+0x6c>
    1928: 57 77 95 04  	<unknown>
    192c: e3 0c 07 fe  	beqz	a4, 0x1924 <vector_memcpy_segmented_e16m2+0x8>
    1930: 07 d4 05 62  	<unknown>
    1934: 83 37 06 00  	ld	a5, 0(a2)
    1938: 27 d4 07 02  	<unknown>
    193c: 83 37 86 00  	ld	a5, 8(a2)
    1940: 27 d5 07 02  	<unknown>
    1944: 83 37 06 01  	ld	a5, 16(a2)
    1948: 27 d6 07 02  	<unknown>
    194c: 83 37 86 01  	ld	a5, 24(a2)
    1950: 13 08 00 00  	li	a6, 0
    1954: 27 d7 07 02  	<unknown>
    1958: 93 17 27 00  	slli	a5, a4, 2
    195c: b3 08 06 01  	add	a7, a2, a6
    1960: 83 b2 08 00  	ld	t0, 0(a7)
    1964: 13 13 17 00  	slli	t1, a4, 1
    1968: b3 82 62 00  	add	t0, t0, t1
    196c: 13 08 88 00  	addi	a6, a6, 8
    1970: 23 b0 58 00  	sd	t0, 0(a7)
    1974: e3 14 d8 fe  	bne	a6, a3, 0x195c <vector_memcpy_segmented_e16m2+0x40>
    1978: 93 97 17 00  	slli	a5, a5, 1
    197c: b3 85 f5 00  	add	a1, a1, a5
    1980: 33 05 e5 40  	sub	a0, a0, a4
    1984: 6f f0 1f fa  	j	0x1924 <vector_memcpy_segmented_e16m2+0x8>
    1988: 67 80 00 00  	ret

000000000000198c <vector_memcpy_segmented_e32m2>:
    198c: 93 06 00 02  	li	a3, 32
    1990: 6f 00 80 00  	j	0x1998 <vector_memcpy_segmented_e32m2+0xc>
    1994: 63 00 07 06  	beqz	a4, 0x19f4 <vector_memcpy_segmented_e32m2+0x68>
    1998: 57 77 15 05  	<unknown>
    199c: e3 0c 07 fe  	beqz	a4, 0x1994 <vector_memcpy_segmented_e32m2+0x8>
    19a0: 07 e4 05 62  	<unknown>
    19a4: 83 37 06 00  	ld	a5, 0(a2)
    19a8: 27 e4 07 02  	<unknown>
    19ac: 83 37 86 00  	ld	a5, 8(a2)
    19b0: 27 e5 07 02  	<unknown>
    19b4: 83 37 06 01  	ld	a5, 16(a2)
    19b8: 27 e6 07 02  	<unknown>
    19bc: 83 37 86 01  	ld	a5, 24(a2)
    19c0: 13 08 00 00  	li	a6, 0
    19c4: 27 e7 07 02  	<unknown>
    19c8: 93 17 27 00  	slli	a5, a4, 2
    19cc: b3 08 06 01  	add	a7, a2, a6
    19d0: 83 b2 08 00  	ld	t0, 0(a7)
    19d4: b3 82 f2 00  	add	t0, t0, a5
    19d8: 13 08 88 00  	addi	a6, a6, 8
    19dc: 23 b0 58 00  	sd	t0, 0(a7)
    19e0: e3 16 d8 fe  	bne	a6, a3, 0x19cc <vector_memcpy_segmented_e32m2+0x40>
    19e4: 93 97 27 00  	slli	a5, a5, 2
    19e8: b3 85 f5 00  	add	a1, a1, a5
    19ec: 33 05 e5 40  	sub	a0, a0, a4
    19f0: 6f f0 5f fa  	j	0x1994 <vector_memcpy_segmented_e32m2+0x8>
    19f4: 67 80 00 00  	ret

00000000000019f8 <vector_memcpy_segmented_e32mf2>:
    19f8: 93 06 00 02  	li	a3, 32
    19fc: 6f 00 80 00  	j	0x1a04 <vector_memcpy_segmented_e32mf2+0xc>
    1a00: 63 00 07 06  	beqz	a4, 0x1a60 <vector_memcpy_segmented_e32mf2+0x68>
    1a04: 57 77 75 05  	<unknown>
    1a08: e3 0c 07 fe  	beqz	a4, 0x1a00 <vector_memcpy_segmented_e32mf2+0x8>
    1a0c: 07 e4 05 62  	<unknown>
    1a10: 83 37 06 00  	ld	a5, 0(a2)
    1a14: 27 e4 07 02  	<unknown>
    1a18: 83 37 86 00  	ld	a5, 8(a2)
    1a1c: a7 e4 07 02  	<unknown>
    1a20: 83 37 06 01  	ld	a5, 16(a2)
    1a24: 27 e5 07 02  	<unknown>
    1a28: 83 37 86 01  	ld	a5, 24(a2)
    1a2c: 13 08 00 00  	li	a6, 0
    1a30: a7 e5 07 02  	<unknown>
    1a34: 93 17 27 00  	slli	a5, a4, 2
    1a38: b3 08 06 01  	add	a7, a2, a6
    1a3c: 83 b2 08 00  	ld	t0, 0(a7)
    1a40: b3 82 f2 00  	add	t0, t0, a5
    1a44: 13 08 88 00  	addi	a6, a6, 8
    1a48: 23 b0 58 00  	sd	t0, 0(a7)
    1a4c: e3 16 d8 fe  	bne	a6, a3, 0x1a38 <vector_memcpy_segmented_e32mf2+0x40>
    1a50: 93 97 27 00  	slli	a5, a5, 2
    1a54: b3 85 f5 00  	add	a1, a1, a5
    1a58: 33 05 e5 40  	sub	a0, a0, a4
    1a5c: 6f f0 5f fa  	j	0x1a00 <vector_memcpy_segmented_e32mf2+0x8>
    1a60: 67 80 00 00  	ret

0000000000001a64 <vector_memcpy_segmented_e64m2>:
    1a64: 93 06 00 02  	li	a3, 32
    1a68: 6f 00 80 00  	j	0x1a70 <vector_memcpy_segmented_e64m2+0xc>
    1a6c: 63 02 07 06  	beqz	a4, 0x1ad0 <vector_memcpy_segmented_e64m2+0x6c>
    1a70: 57 77 95 05  	<unknown>
    1a74: e3 0c 07 fe  	beqz	a4, 0x1a6c <vector_memcpy_segmented_e64m2+0x8>
    1a78: 07 f4 05 62  	<unknown>
    1a7c: 83 37 06 00  	ld	a5, 0(a2)
    1a80: 27 f4 07 02  	<unknown>
    1a84: 83 37 86 00  	ld	a5, 8(a2)
    1a88: 27 f5 07 02  	<unknown>
    1a8c: 83 37 06 01  	ld	a5, 16(a2)
    1a90: 27 f6 07 02  	<unknown>
    1a94: 83 37 86 01  	ld	a5, 24(a2)
    1a98: 13 08 00 00  	li	a6, 0
    1a9c: 27 f7 07 02  	<unknown>
    1aa0: 93 17 27 00  	slli	a5, a4, 2
    1aa4: b3 08 06 01  	add	a7, a2, a6
    1aa8: 83 b2 08 00  	ld	t0, 0(a7)
    1aac: 13 13 37 00  	slli	t1, a4, 3
    1ab0: b3 82 62 00  	add	t0, t0, t1
    1ab4: 13 08 88 00  	addi	a6, a6, 8
    1ab8: 23 b0 58 00  	sd	t0, 0(a7)
    1abc: e3 14 d8 fe  	bne	a6, a3, 0x1aa4 <vector_memcpy_segmented_e64m2+0x40>
    1ac0: 93 97 37 00  	slli	a5, a5, 3
    1ac4: b3 85 f5 00  	add	a1, a1, a5
    1ac8: 33 05 e5 40  	sub	a0, a0, a4
    1acc: 6f f0 1f fa  	j	0x1a6c <vector_memcpy_segmented_e64m2+0x8>
    1ad0: 67 80 00 00  	ret

0000000000001ad4 <vector_memcpy_wholereg_e64m1>:
    1ad4: d7 76 80 05  	<unknown>
    1ad8: 6f 00 00 02  	j	0x1af8 <vector_memcpy_wholereg_e64m1+0x24>
    1adc: 07 f4 05 02  	<unknown>
    1ae0: 27 74 06 02  	<unknown>
    1ae4: 93 17 37 00  	slli	a5, a4, 3
    1ae8: b3 85 f5 00  	add	a1, a1, a5
    1aec: 33 06 f6 00  	add	a2, a2, a5
    1af0: 33 05 e5 40  	sub	a0, a0, a4
    1af4: 63 0e 07 00  	beqz	a4, 0x1b10 <vector_memcpy_wholereg_e64m1+0x3c>
    1af8: 57 77 85 05  	<unknown>
    1afc: e3 0c 07 fe  	beqz	a4, 0x1af4 <vector_memcpy_wholereg_e64m1+0x20>
    1b00: e3 1e d7 fc  	bne	a4, a3, 0x1adc <vector_memcpy_wholereg_e64m1+0x8>
    1b04: 07 84 85 02  	<unknown>
    1b08: 27 04 86 02  	<unknown>
    1b0c: 6f f0 9f fd  	j	0x1ae4 <vector_memcpy_wholereg_e64m1+0x10>
    1b10: 67 80 00 00  	ret

0000000000001b14 <vector_memcpy_wholereg_e64m2>:
    1b14: d7 76 90 05  	<unknown>
    1b18: 6f 00 00 02  	j	0x1b38 <vector_memcpy_wholereg_e64m2+0x24>
    1b1c: 07 f4 05 02  	<unknown>
    1b20: 27 74 06 02  	<unknown>
    1b24: 93 17 37 00  	slli	a5, a4, 3
    1b28: b3 85 f5 00  	add	a1, a1, a5
    1b2c: 33 06 f6 00  	add	a2, a2, a5
    1b30: 33 05 e5 40  	sub	a0, a0, a4
    1b34: 63 0e 07 00  	beqz	a4, 0x1b50 <vector_memcpy_wholereg_e64m2+0x3c>
    1b38: 57 77 95 05  	<unknown>
    1b3c: e3 0c 07 fe  	beqz	a4, 0x1b34 <vector_memcpy_wholereg_e64m2+0x20>
    1b40: e3 1e d7 fc  	bne	a4, a3, 0x1b1c <vector_memcpy_wholereg_e64m2+0x8>
    1b44: 07 84 85 22  	<unknown>
    1b48: 27 04 86 22  	<unknown>
    1b4c: 6f f0 9f fd  	j	0x1b24 <vector_memcpy_wholereg_e64m2+0x10>
    1b50: 67 80 00 00  	ret

0000000000001b54 <vector_memcpy_wholereg_e64m4>:
    1b54: d7 76 a0 05  	<unknown>
    1b58: 6f 00 00 02  	j	0x1b78 <vector_memcpy_wholereg_e64m4+0x24>
    1b5c: 07 f4 05 02  	<unknown>
    1b60: 27 74 06 02  	<unknown>
    1b64: 93 17 37 00  	slli	a5, a4, 3
    1b68: b3 85 f5 00  	add	a1, a1, a5
    1b6c: 33 06 f6 00  	add	a2, a2, a5
    1b70: 33 05 e5 40  	sub	a0, a0, a4
    1b74: 63 0e 07 00  	beqz	a4, 0x1b90 <vector_memcpy_wholereg_e64m4+0x3c>
    1b78: 57 77 a5 05  	<unknown>
    1b7c: e3 0c 07 fe  	beqz	a4, 0x1b74 <vector_memcpy_wholereg_e64m4+0x20>
    1b80: e3 1e d7 fc  	bne	a4, a3, 0x1b5c <vector_memcpy_wholereg_e64m4+0x8>
    1b84: 07 84 85 62  	<unknown>
    1b88: 27 04 86 62  	<unknown>
    1b8c: 6f f0 9f fd  	j	0x1b64 <vector_memcpy_wholereg_e64m4+0x10>
    1b90: 67 80 00 00  	ret

0000000000001b94 <vector_memcpy_wholereg_e64m8>:
    1b94: d7 76 b0 05  	<unknown>
    1b98: 6f 00 00 02  	j	0x1bb8 <vector_memcpy_wholereg_e64m8+0x24>
    1b9c: 07 f4 05 02  	<unknown>
    1ba0: 27 74 06 02  	<unknown>
    1ba4: 93 17 37 00  	slli	a5, a4, 3
    1ba8: b3 85 f5 00  	add	a1, a1, a5
    1bac: 33 06 f6 00  	add	a2, a2, a5
    1bb0: 33 05 e5 40  	sub	a0, a0, a4
    1bb4: 63 0e 07 00  	beqz	a4, 0x1bd0 <vector_memcpy_wholereg_e64m8+0x3c>
    1bb8: 57 77 b5 05  	<unknown>
    1bbc: e3 0c 07 fe  	beqz	a4, 0x1bb4 <vector_memcpy_wholereg_e64m8+0x20>
    1bc0: e3 1e d7 fc  	bne	a4, a3, 0x1b9c <vector_memcpy_wholereg_e64m8+0x8>
    1bc4: 07 84 85 e2  	<unknown>
    1bc8: 27 04 86 e2  	<unknown>
    1bcc: 6f f0 9f fd  	j	0x1ba4 <vector_memcpy_wholereg_e64m8+0x10>
    1bd0: 67 80 00 00  	ret

0000000000001bd4 <main>:
    1bd4: 13 01 01 ff  	addi	sp, sp, -16
    1bd8: 23 34 11 00  	sd	ra, 8(sp)
    1bdc: 23 30 81 00  	sd	s0, 0(sp)
    1be0: 37 15 00 00  	lui	a0, 1
    1be4: 13 05 05 0e  	addi	a0, a0, 224
    1be8: 97 e0 ff ff  	auipc	ra, 1048574
    1bec: e7 80 80 44  	jalr	1096(ra)
    1bf0: 13 04 05 00  	mv	s0, a0
    1bf4: 37 15 00 00  	lui	a0, 1
    1bf8: 13 05 c5 10  	addi	a0, a0, 268
    1bfc: 97 e0 ff ff  	auipc	ra, 1048574
    1c00: e7 80 80 52  	jalr	1320(ra)
    1c04: 13 15 15 00  	slli	a0, a0, 1
    1c08: 33 64 85 00  	or	s0, a0, s0
    1c0c: 37 15 00 00  	lui	a0, 1
    1c10: 13 05 c5 13  	addi	a0, a0, 316
    1c14: 97 e0 ff ff  	auipc	ra, 1048574
    1c18: e7 80 c0 61  	jalr	1564(ra)
    1c1c: 13 15 25 00  	slli	a0, a0, 2
    1c20: 33 64 a4 00  	or	s0, s0, a0
    1c24: 37 15 00 00  	lui	a0, 1
    1c28: 13 05 c5 16  	addi	a0, a0, 364
    1c2c: 97 e0 ff ff  	auipc	ra, 1048574
    1c30: e7 80 40 60  	jalr	1540(ra)
    1c34: 13 15 35 00  	slli	a0, a0, 3
    1c38: 33 64 a4 00  	or	s0, s0, a0
    1c3c: 37 15 00 00  	lui	a0, 1
    1c40: 13 05 c5 19  	addi	a0, a0, 412
    1c44: 97 e0 ff ff  	auipc	ra, 1048574
    1c48: e7 80 00 6f  	jalr	1776(ra)
    1c4c: 13 15 45 00  	slli	a0, a0, 4
    1c50: 33 64 a4 00  	or	s0, s0, a0
    1c54: 37 15 00 00  	lui	a0, 1
    1c58: 13 05 c5 1c  	addi	a0, a0, 460
    1c5c: 97 e0 ff ff  	auipc	ra, 1048574
    1c60: e7 80 40 3d  	jalr	980(ra)
    1c64: 13 15 55 00  	slli	a0, a0, 5
    1c68: 33 64 a4 00  	or	s0, s0, a0
    1c6c: 37 15 00 00  	lui	a0, 1
    1c70: 13 05 85 22  	addi	a0, a0, 552
    1c74: 97 e0 ff ff  	auipc	ra, 1048574
    1c78: e7 80 00 4b  	jalr	1200(ra)
    1c7c: 13 15 65 00  	slli	a0, a0, 6
    1c80: 33 64 a4 00  	or	s0, s0, a0
    1c84: 37 15 00 00  	lui	a0, 1
    1c88: 13 05 85 28  	addi	a0, a0, 648
    1c8c: 97 e0 ff ff  	auipc	ra, 1048574
    1c90: e7 80 40 5a  	jalr	1444(ra)
    1c94: 13 15 75 00  	slli	a0, a0, 7
    1c98: 33 64 a4 00  	or	s0, s0, a0
    1c9c: 37 15 00 00  	lui	a0, 1
    1ca0: 13 05 85 2e  	addi	a0, a0, 744
    1ca4: 97 e0 ff ff  	auipc	ra, 1048574
    1ca8: e7 80 c0 58  	jalr	1420(ra)
    1cac: 13 15 85 00  	slli	a0, a0, 8
    1cb0: 33 64 a4 00  	or	s0, s0, a0
    1cb4: 37 15 00 00  	lui	a0, 1
    1cb8: 13 05 85 34  	addi	a0, a0, 840
    1cbc: 97 e0 ff ff  	auipc	ra, 1048574
    1cc0: e7 80 80 67  	jalr	1656(ra)
    1cc4: 13 15 95 00  	slli	a0, a0, 9
    1cc8: 33 64 a4 00  	or	s0, s0, a0
    1ccc: 37 15 00 00  	lui	a0, 1
    1cd0: 13 05 85 3a  	addi	a0, a0, 936
    1cd4: 97 e0 ff ff  	auipc	ra, 1048574
    1cd8: e7 80 c0 35  	jalr	860(ra)
    1cdc: 13 15 a5 00  	slli	a0, a0, 10
    1ce0: 33 64 a4 00  	or	s0, s0, a0
    1ce4: 37 15 00 00  	lui	a0, 1
    1ce8: 13 05 85 46  	addi	a0, a0, 1128
    1cec: 97 e0 ff ff  	auipc	ra, 1048574
    1cf0: e7 80 80 43  	jalr	1080(ra)
    1cf4: 13 15 b5 00  	slli	a0, a0, 11
    1cf8: 33 64 a4 00  	or	s0, s0, a0
    1cfc: 37 15 00 00  	lui	a0, 1
    1d00: 13 05 05 53  	addi	a0, a0, 1328
    1d04: 97 e0 ff ff  	auipc	ra, 1048574
    1d08: e7 80 c0 52  	jalr	1324(ra)
    1d0c: 13 15 c5 00  	slli	a0, a0, 12
    1d10: 33 64 a4 00  	or	s0, s0, a0
    1d14: 37 15 00 00  	lui	a0, 1
    1d18: 13 05 85 5f  	addi	a0, a0, 1528
    1d1c: 97 e0 ff ff  	auipc	ra, 1048574
    1d20: e7 80 40 51  	jalr	1300(ra)
    1d24: 13 15 d5 00  	slli	a0, a0, 13
    1d28: 33 64 a4 00  	or	s0, s0, a0
    1d2c: 37 15 00 00  	lui	a0, 1
    1d30: 13 05 05 6c  	addi	a0, a0, 1728
    1d34: 97 e0 ff ff  	auipc	ra, 1048574
    1d38: e7 80 00 60  	jalr	1536(ra)
    1d3c: 13 15 e5 00  	slli	a0, a0, 14
    1d40: 33 64 a4 00  	or	s0, s0, a0
    1d44: 37 15 00 00  	lui	a0, 1
    1d48: 13 05 85 78  	addi	a0, a0, 1928
    1d4c: 97 f0 ff ff  	auipc	ra, 1048575
    1d50: e7 80 80 93  	jalr	-1736(ra)
    1d54: 13 15 f5 00  	slli	a0, a0, 15
    1d58: 33 64 a4 00  	or	s0, s0, a0
    1d5c: 37 25 00 00  	lui	a0, 2
    1d60: 13 05 c5 83  	addi	a0, a0, -1988
    1d64: 97 f0 ff ff  	auipc	ra, 1048575
    1d68: e7 80 00 92  	jalr	-1760(ra)
    1d6c: 13 15 05 01  	slli	a0, a0, 16
    1d70: 33 64 a4 00  	or	s0, s0, a0
    1d74: 37 25 00 00  	lui	a0, 2
    1d78: 13 05 45 8b  	addi	a0, a0, -1868
    1d7c: 97 f0 ff ff  	auipc	ra, 1048575
    1d80: e7 80 00 b6  	jalr	-1184(ra)
    1d84: 13 15 15 01  	slli	a0, a0, 17
    1d88: 33 64 a4 00  	or	s0, s0, a0
    1d8c: 37 25 00 00  	lui	a0, 2
    1d90: 13 05 c5 91  	addi	a0, a0, -1764
    1d94: 97 f0 ff ff  	auipc	ra, 1048575
    1d98: e7 80 80 d2  	jalr	-728(ra)
    1d9c: 13 15 25 01  	slli	a0, a0, 18
    1da0: 33 64 a4 00  	or	s0, s0, a0
    1da4: 37 25 00 00  	lui	a0, 2
    1da8: 13 05 c5 98  	addi	a0, a0, -1652
    1dac: 97 f0 ff ff  	auipc	ra, 1048575
    1db0: e7 80 c0 f4  	jalr	-180(ra)
    1db4: 13 15 35 01  	slli	a0, a0, 19
    1db8: 33 64 a4 00  	or	s0, s0, a0
    1dbc: 37 25 00 00  	lui	a0, 2
    1dc0: 13 05 85 9f  	addi	a0, a0, -1544
    1dc4: 97 f0 ff ff  	auipc	ra, 1048575
    1dc8: e7 80 40 f3  	jalr	-204(ra)
    1dcc: 13 15 45 01  	slli	a0, a0, 20
    1dd0: 33 64 a4 00  	or	s0, s0, a0
    1dd4: 37 25 00 00  	lui	a0, 2
    1dd8: 13 05 45 a6  	addi	a0, a0, -1436
    1ddc: 97 f0 ff ff  	auipc	ra, 1048575
    1de0: e7 80 c0 13  	jalr	316(ra)
    1de4: 13 15 55 01  	slli	a0, a0, 21
    1de8: 33 64 a4 00  	or	s0, s0, a0
    1dec: 37 25 00 00  	lui	a0, 2
    1df0: 13 05 45 ad  	addi	a0, a0, -1324
    1df4: 97 e0 ff ff  	auipc	ra, 1048574
    1df8: e7 80 00 54  	jalr	1344(ra)
    1dfc: 13 15 65 01  	slli	a0, a0, 22
    1e00: 33 64 a4 00  	or	s0, s0, a0
    1e04: 37 25 00 00  	lui	a0, 2
    1e08: 13 05 45 b1  	addi	a0, a0, -1260
    1e0c: 97 e0 ff ff  	auipc	ra, 1048574
    1e10: e7 80 80 52  	jalr	1320(ra)
    1e14: 13 15 75 01  	slli	a0, a0, 23
    1e18: 33 64 a4 00  	or	s0, s0, a0
    1e1c: 37 25 00 00  	lui	a0, 2
    1e20: 13 05 45 b5  	addi	a0, a0, -1196
    1e24: 97 e0 ff ff  	auipc	ra, 1048574
    1e28: e7 80 00 51  	jalr	1296(ra)
    1e2c: 13 15 85 01  	slli	a0, a0, 24
    1e30: 33 64 a4 00  	or	s0, s0, a0
    1e34: 37 25 00 00  	lui	a0, 2
    1e38: 13 05 45 b9  	addi	a0, a0, -1132
    1e3c: 97 e0 ff ff  	auipc	ra, 1048574
    1e40: e7 80 80 4f  	jalr	1272(ra)
    1e44: 13 15 95 01  	slli	a0, a0, 25
    1e48: 33 65 a4 00  	or	a0, s0, a0
    1e4c: b7 05 00 01  	lui	a1, 4096
    1e50: 37 06 00 04  	lui	a2, 16384
    1e54: 1b 06 f6 ff  	addiw	a2, a2, -1
    1e58: 23 b0 c5 00  	sd	a2, 0(a1)
    1e5c: b7 05 00 01  	lui	a1, 4096
    1e60: 23 b4 a5 00  	sd	a0, 8(a1)
    1e64: 13 05 00 00  	li	a0, 0
    1e68: 83 30 81 00  	ld	ra, 8(sp)
    1e6c: 03 34 01 00  	ld	s0, 0(sp)
    1e70: 13 01 01 01  	addi	sp, sp, 16
    1e74: 67 80 00 00  	ret
